ARM GAS  C:\Users\Smaug\AppData\Local\Temp\cc3T9BxE.s 			page 1


   1              		.syntax unified
   2              		.cpu cortex-m4
   3              		.eabi_attribute 27, 1
   4              		.fpu fpv4-sp-d16
   5              		.eabi_attribute 20, 1
   6              		.eabi_attribute 21, 1
   7              		.eabi_attribute 23, 3
   8              		.eabi_attribute 24, 1
   9              		.eabi_attribute 25, 1
  10              		.eabi_attribute 26, 1
  11              		.eabi_attribute 30, 1
  12              		.eabi_attribute 34, 1
  13              		.eabi_attribute 18, 4
  14              		.thumb
  15              		.syntax unified
  16              		.file	"car.c"
  17              		.text
  18              	.Ltext0:
  19              		.cfi_sections	.debug_frame
  20              		.section	.text.systick_handler,"ax",%progbits
  21              		.align	2
  22              		.thumb
  23              		.thumb_func
  24              		.type	systick_handler, %function
  25              	systick_handler:
  26              	.LFB762:
  27              		.file 1 "car.c"
   1:car.c         **** #include "car.h"
   2:car.c         **** #include "project.h"
   3:car.c         **** #include "utils.h"
   4:car.c         **** #include "PCF8574.h"
   5:car.c         **** #include <math.h>
   6:car.c         **** 
   7:car.c         **** /////////////////////PCA9685 drive area///////////////////////////////////
   8:car.c         **** #define SERVO_FREQUENCY 100     //Define the operating frequency of servo
   9:car.c         **** #define MOTOR_SPEED_MIN -4095    //Define a minimum speed limit for wheels
  10:car.c         **** #define MOTOR_SPEED_MAX 4095     //Define a maximum speed limit for wheels
  11:car.c         **** #define PIN_MOTOR_M1_IN1 15      //Define the positive pole of M1
  12:car.c         **** #define PIN_MOTOR_M1_IN2 14      //Define the negative pole of M1
  13:car.c         **** #define PIN_MOTOR_M2_IN1 9       //Define the positive pole of M2
  14:car.c         **** #define PIN_MOTOR_M2_IN2 8       //Define the negative pole of M2
  15:car.c         **** #define PIN_MOTOR_M3_IN1 12      //Define the positive pole of M3
  16:car.c         **** #define PIN_MOTOR_M3_IN2 13      //Define the negative pole of M3
  17:car.c         **** #define PIN_MOTOR_M4_IN1 10      //Define the positive pole of M4
  18:car.c         **** #define PIN_MOTOR_M4_IN2 11      //Define the negative pole of M4
  19:car.c         **** 
  20:car.c         **** #define SOUND_PWM_CLOCK (1000000u)  // Income clock frequency
  21:car.c         **** 
  22:car.c         **** /* 8MHz IMO clock with 8000000 reload value to generate 1s interrupt */
  23:car.c         **** #define SYSTICK_RELOAD_VAL   (8000UL)
  24:car.c         **** 
  25:car.c         **** static volatile uint32_t milliseconds = 0;
  26:car.c         **** 
  27:car.c         **** ///////////////////// MOTORS API //////////////////////////////////////////////
  28:car.c         **** 
  29:car.c         **** //Motor & servo subsystem initialization
  30:car.c         **** void Motor_Init(void) 
ARM GAS  C:\Users\Smaug\AppData\Local\Temp\cc3T9BxE.s 			page 2


  31:car.c         **** {
  32:car.c         ****   PCA9685_Init();
  33:car.c         ****   PCA9685_setToFrequency(SERVO_FREQUENCY);
  34:car.c         **** }
  35:car.c         **** 
  36:car.c         **** //Function to control the car motors
  37:car.c         **** void Motor_Move(int m1_speed, int m2_speed, int m3_speed, int m4_speed) {
  38:car.c         ****   m1_speed = MOTOR_1_DIRECTION * constrain_int(m1_speed, MOTOR_SPEED_MIN, MOTOR_SPEED_MAX);
  39:car.c         ****   m2_speed = MOTOR_2_DIRECTION * constrain_int(m2_speed, MOTOR_SPEED_MIN, MOTOR_SPEED_MAX);
  40:car.c         ****   m3_speed = MOTOR_3_DIRECTION * constrain_int(m3_speed, MOTOR_SPEED_MIN, MOTOR_SPEED_MAX);
  41:car.c         ****   m4_speed = MOTOR_4_DIRECTION * constrain_int(m4_speed, MOTOR_SPEED_MIN, MOTOR_SPEED_MAX);
  42:car.c         **** 
  43:car.c         ****   if (m1_speed >= 0) {
  44:car.c         ****     PCA9685_setChannelPulseWidth(PIN_MOTOR_M1_IN1, m1_speed);
  45:car.c         ****     PCA9685_setChannelPulseWidth(PIN_MOTOR_M1_IN2, 0);
  46:car.c         ****   } else {
  47:car.c         ****     m1_speed = -m1_speed;
  48:car.c         ****     PCA9685_setChannelPulseWidth(PIN_MOTOR_M1_IN1, 0);
  49:car.c         ****     PCA9685_setChannelPulseWidth(PIN_MOTOR_M1_IN2, m1_speed);
  50:car.c         ****   }
  51:car.c         ****   if (m2_speed >= 0) {
  52:car.c         ****     PCA9685_setChannelPulseWidth(PIN_MOTOR_M2_IN1, m2_speed);
  53:car.c         ****     PCA9685_setChannelPulseWidth(PIN_MOTOR_M2_IN2, 0);
  54:car.c         ****   } else {
  55:car.c         ****     m2_speed = -m2_speed;
  56:car.c         ****     PCA9685_setChannelPulseWidth(PIN_MOTOR_M2_IN1, 0);
  57:car.c         ****     PCA9685_setChannelPulseWidth(PIN_MOTOR_M2_IN2, m2_speed);
  58:car.c         ****   }
  59:car.c         ****   if (m3_speed >= 0) {
  60:car.c         ****     PCA9685_setChannelPulseWidth(PIN_MOTOR_M3_IN1, m3_speed);
  61:car.c         ****     PCA9685_setChannelPulseWidth(PIN_MOTOR_M3_IN2, 0);
  62:car.c         ****   } else {
  63:car.c         ****     m3_speed = -m3_speed;
  64:car.c         ****     PCA9685_setChannelPulseWidth(PIN_MOTOR_M3_IN1, 0);
  65:car.c         ****     PCA9685_setChannelPulseWidth(PIN_MOTOR_M3_IN2, m3_speed);
  66:car.c         ****   }
  67:car.c         ****   if (m4_speed >= 0) {
  68:car.c         ****     PCA9685_setChannelPulseWidth(PIN_MOTOR_M4_IN1, m4_speed);
  69:car.c         ****     PCA9685_setChannelPulseWidth(PIN_MOTOR_M4_IN2, 0);
  70:car.c         ****   } else {
  71:car.c         ****     m4_speed = -m4_speed;
  72:car.c         ****     PCA9685_setChannelPulseWidth(PIN_MOTOR_M4_IN1, 0);
  73:car.c         ****     PCA9685_setChannelPulseWidth(PIN_MOTOR_M4_IN2, m4_speed);
  74:car.c         ****   }
  75:car.c         **** }
  76:car.c         **** 
  77:car.c         **** 
  78:car.c         **** ///////////////////// SOUND API ///////////////////////////////////////////////
  79:car.c         **** 
  80:car.c         **** //Sound subsystem initialization
  81:car.c         **** void Sound_Init(void)
  82:car.c         **** {
  83:car.c         ****     (void) Cy_TCPWM_PWM_Init(PWM_Buz_HW, PWM_Buz_CNT_NUM, &PWM_Buz_config);
  84:car.c         ****     Cy_TCPWM_Enable_Multiple(PWM_Buz_HW, PWM_Buz_CNT_MASK);
  85:car.c         ****     PWM_Buz_SetCompare0(0);
  86:car.c         ****     Cy_TCPWM_TriggerStart(PWM_Buz_HW, PWM_Buz_CNT_MASK);
  87:car.c         **** }
ARM GAS  C:\Users\Smaug\AppData\Local\Temp\cc3T9BxE.s 			page 3


  88:car.c         **** 
  89:car.c         **** //Set permanent output (non-blocking) of tone with desired frequency
  90:car.c         **** void Sound_WriteTone(uint32_t freq)
  91:car.c         **** {
  92:car.c         ****     uint32_t period;
  93:car.c         ****     if (freq != 0u)
  94:car.c         ****     {
  95:car.c         ****         period = SOUND_PWM_CLOCK / freq;
  96:car.c         ****         PWM_Buz_SetPeriod0(period);
  97:car.c         ****         PWM_Buz_SetCompare0(period/2);
  98:car.c         ****         PWM_Buz_SetCounter(0);
  99:car.c         ****     }
 100:car.c         ****     else
 101:car.c         ****     {
 102:car.c         ****         PWM_Buz_SetCompare0(0);
 103:car.c         ****     }
 104:car.c         **** }
 105:car.c         **** 
 106:car.c         **** //Play a tone with defined frequency and duraction
 107:car.c         **** void Sound_Play(uint32_t freq, uint32_t duration)
 108:car.c         **** {
 109:car.c         ****     Sound_WriteTone(freq);
 110:car.c         ****     CyDelay(duration);
 111:car.c         ****     Sound_WriteTone(0);
 112:car.c         **** }
 113:car.c         **** 
 114:car.c         **** 
 115:car.c         **** ///////////////////// TRACK SENSOR API ////////////////////////////////////////
 116:car.c         **** void Track_Init(void)
 117:car.c         **** {
 118:car.c         ****     PCF8574_begin();
 119:car.c         **** }
 120:car.c         **** 
 121:car.c         **** //Tracking module reading
 122:car.c         **** uint8_t Track_Read(void)
 123:car.c         **** {
 124:car.c         ****   return (PCF8574_read8() & 0x7F); 
 125:car.c         **** }
 126:car.c         **** 
 127:car.c         **** ///////////////////// TIMING API //////////////////////////////////////////////
 128:car.c         **** static void systick_handler(void)
 129:car.c         **** {
  28              		.loc 1 129 0
  29              		.cfi_startproc
  30              		@ args = 0, pretend = 0, frame = 0
  31              		@ frame_needed = 0, uses_anonymous_args = 0
  32              		@ link register save eliminated.
 130:car.c         ****     milliseconds++;
  33              		.loc 1 130 0
  34 0000 024A     		ldr	r2, .L2
  35 0002 1368     		ldr	r3, [r2]
  36 0004 0133     		adds	r3, r3, #1
  37 0006 1360     		str	r3, [r2]
  38 0008 7047     		bx	lr
  39              	.L3:
  40 000a 00BF     		.align	2
  41              	.L2:
ARM GAS  C:\Users\Smaug\AppData\Local\Temp\cc3T9BxE.s 			page 4


  42 000c 00000000 		.word	.LANCHOR0
  43              		.cfi_endproc
  44              	.LFE762:
  45              		.size	systick_handler, .-systick_handler
  46              		.section	.text.Motor_Init,"ax",%progbits
  47              		.align	2
  48              		.global	Motor_Init
  49              		.thumb
  50              		.thumb_func
  51              		.type	Motor_Init, %function
  52              	Motor_Init:
  53              	.LFB755:
  31:car.c         ****   PCA9685_Init();
  54              		.loc 1 31 0
  55              		.cfi_startproc
  56              		@ args = 0, pretend = 0, frame = 0
  57              		@ frame_needed = 0, uses_anonymous_args = 0
  58 0000 08B5     		push	{r3, lr}
  59              		.cfi_def_cfa_offset 8
  60              		.cfi_offset 3, -8
  61              		.cfi_offset 14, -4
  32:car.c         ****   PCA9685_setToFrequency(SERVO_FREQUENCY);
  62              		.loc 1 32 0
  63 0002 FFF7FEFF 		bl	PCA9685_Init
  64              	.LVL0:
  33:car.c         **** }
  65              		.loc 1 33 0
  66 0006 6420     		movs	r0, #100
  67 0008 FFF7FEFF 		bl	PCA9685_setToFrequency
  68              	.LVL1:
  69 000c 08BD     		pop	{r3, pc}
  70              		.cfi_endproc
  71              	.LFE755:
  72              		.size	Motor_Init, .-Motor_Init
  73 000e 00BF     		.section	.text.Motor_Move,"ax",%progbits
  74              		.align	2
  75              		.global	Motor_Move
  76              		.thumb
  77              		.thumb_func
  78              		.type	Motor_Move, %function
  79              	Motor_Move:
  80              	.LFB756:
  37:car.c         ****   m1_speed = MOTOR_1_DIRECTION * constrain_int(m1_speed, MOTOR_SPEED_MIN, MOTOR_SPEED_MAX);
  81              		.loc 1 37 0
  82              		.cfi_startproc
  83              		@ args = 0, pretend = 0, frame = 0
  84              		@ frame_needed = 0, uses_anonymous_args = 0
  85              	.LVL2:
  86 0000 2DE9F041 		push	{r4, r5, r6, r7, r8, lr}
  87              		.cfi_def_cfa_offset 24
  88              		.cfi_offset 4, -24
  89              		.cfi_offset 5, -20
  90              		.cfi_offset 6, -16
  91              		.cfi_offset 7, -12
  92              		.cfi_offset 8, -8
  93              		.cfi_offset 14, -4
  94 0004 0E46     		mov	r6, r1
ARM GAS  C:\Users\Smaug\AppData\Local\Temp\cc3T9BxE.s 			page 5


  95 0006 1546     		mov	r5, r2
  96 0008 9846     		mov	r8, r3
  38:car.c         ****   m2_speed = MOTOR_2_DIRECTION * constrain_int(m2_speed, MOTOR_SPEED_MIN, MOTOR_SPEED_MAX);
  97              		.loc 1 38 0
  98 000a 374C     		ldr	r4, .L16
  99 000c 40F6FF72 		movw	r2, #4095
 100              	.LVL3:
 101 0010 2146     		mov	r1, r4
 102              	.LVL4:
 103 0012 FFF7FEFF 		bl	constrain_int
 104              	.LVL5:
 105 0016 0746     		mov	r7, r0
 106              	.LVL6:
  39:car.c         ****   m3_speed = MOTOR_3_DIRECTION * constrain_int(m3_speed, MOTOR_SPEED_MIN, MOTOR_SPEED_MAX);
 107              		.loc 1 39 0
 108 0018 40F6FF72 		movw	r2, #4095
 109 001c 2146     		mov	r1, r4
 110 001e 3046     		mov	r0, r6
 111              	.LVL7:
 112 0020 FFF7FEFF 		bl	constrain_int
 113              	.LVL8:
 114 0024 0646     		mov	r6, r0
 115              	.LVL9:
  40:car.c         ****   m4_speed = MOTOR_4_DIRECTION * constrain_int(m4_speed, MOTOR_SPEED_MIN, MOTOR_SPEED_MAX);
 116              		.loc 1 40 0
 117 0026 40F6FF72 		movw	r2, #4095
 118 002a 2146     		mov	r1, r4
 119 002c 2846     		mov	r0, r5
 120              	.LVL10:
 121 002e FFF7FEFF 		bl	constrain_int
 122              	.LVL11:
 123 0032 0546     		mov	r5, r0
 124              	.LVL12:
  41:car.c         **** 
 125              		.loc 1 41 0
 126 0034 40F6FF72 		movw	r2, #4095
 127 0038 2146     		mov	r1, r4
 128 003a 4046     		mov	r0, r8
 129              	.LVL13:
 130 003c FFF7FEFF 		bl	constrain_int
 131              	.LVL14:
 132 0040 0446     		mov	r4, r0
 133              	.LVL15:
  43:car.c         ****     PCA9685_setChannelPulseWidth(PIN_MOTOR_M1_IN1, m1_speed);
 134              		.loc 1 43 0
 135 0042 002F     		cmp	r7, #0
 136 0044 08DB     		blt	.L7
  44:car.c         ****     PCA9685_setChannelPulseWidth(PIN_MOTOR_M1_IN2, 0);
 137              		.loc 1 44 0
 138 0046 B9B2     		uxth	r1, r7
 139 0048 0F20     		movs	r0, #15
 140              	.LVL16:
 141 004a FFF7FEFF 		bl	PCA9685_setChannelPulseWidth
 142              	.LVL17:
  45:car.c         ****   } else {
 143              		.loc 1 45 0
 144 004e 0021     		movs	r1, #0
ARM GAS  C:\Users\Smaug\AppData\Local\Temp\cc3T9BxE.s 			page 6


 145 0050 0E20     		movs	r0, #14
 146 0052 FFF7FEFF 		bl	PCA9685_setChannelPulseWidth
 147              	.LVL18:
 148 0056 08E0     		b	.L8
 149              	.LVL19:
 150              	.L7:
  47:car.c         ****     PCA9685_setChannelPulseWidth(PIN_MOTOR_M1_IN1, 0);
 151              		.loc 1 47 0
 152 0058 7F42     		negs	r7, r7
 153              	.LVL20:
  48:car.c         ****     PCA9685_setChannelPulseWidth(PIN_MOTOR_M1_IN2, m1_speed);
 154              		.loc 1 48 0
 155 005a 0021     		movs	r1, #0
 156 005c 0F20     		movs	r0, #15
 157              	.LVL21:
 158 005e FFF7FEFF 		bl	PCA9685_setChannelPulseWidth
 159              	.LVL22:
  49:car.c         ****   }
 160              		.loc 1 49 0
 161 0062 B9B2     		uxth	r1, r7
 162 0064 0E20     		movs	r0, #14
 163 0066 FFF7FEFF 		bl	PCA9685_setChannelPulseWidth
 164              	.LVL23:
 165              	.L8:
  51:car.c         ****     PCA9685_setChannelPulseWidth(PIN_MOTOR_M2_IN1, m2_speed);
 166              		.loc 1 51 0
 167 006a 002E     		cmp	r6, #0
 168 006c 08DB     		blt	.L9
  52:car.c         ****     PCA9685_setChannelPulseWidth(PIN_MOTOR_M2_IN2, 0);
 169              		.loc 1 52 0
 170 006e B1B2     		uxth	r1, r6
 171 0070 0920     		movs	r0, #9
 172 0072 FFF7FEFF 		bl	PCA9685_setChannelPulseWidth
 173              	.LVL24:
  53:car.c         ****   } else {
 174              		.loc 1 53 0
 175 0076 0021     		movs	r1, #0
 176 0078 0820     		movs	r0, #8
 177 007a FFF7FEFF 		bl	PCA9685_setChannelPulseWidth
 178              	.LVL25:
 179 007e 08E0     		b	.L10
 180              	.L9:
  55:car.c         ****     PCA9685_setChannelPulseWidth(PIN_MOTOR_M2_IN1, 0);
 181              		.loc 1 55 0
 182 0080 7642     		negs	r6, r6
 183              	.LVL26:
  56:car.c         ****     PCA9685_setChannelPulseWidth(PIN_MOTOR_M2_IN2, m2_speed);
 184              		.loc 1 56 0
 185 0082 0021     		movs	r1, #0
 186 0084 0920     		movs	r0, #9
 187 0086 FFF7FEFF 		bl	PCA9685_setChannelPulseWidth
 188              	.LVL27:
  57:car.c         ****   }
 189              		.loc 1 57 0
 190 008a B1B2     		uxth	r1, r6
 191 008c 0820     		movs	r0, #8
 192 008e FFF7FEFF 		bl	PCA9685_setChannelPulseWidth
ARM GAS  C:\Users\Smaug\AppData\Local\Temp\cc3T9BxE.s 			page 7


 193              	.LVL28:
 194              	.L10:
  59:car.c         ****     PCA9685_setChannelPulseWidth(PIN_MOTOR_M3_IN1, m3_speed);
 195              		.loc 1 59 0
 196 0092 002D     		cmp	r5, #0
 197 0094 08DB     		blt	.L11
  60:car.c         ****     PCA9685_setChannelPulseWidth(PIN_MOTOR_M3_IN2, 0);
 198              		.loc 1 60 0
 199 0096 A9B2     		uxth	r1, r5
 200 0098 0C20     		movs	r0, #12
 201 009a FFF7FEFF 		bl	PCA9685_setChannelPulseWidth
 202              	.LVL29:
  61:car.c         ****   } else {
 203              		.loc 1 61 0
 204 009e 0021     		movs	r1, #0
 205 00a0 0D20     		movs	r0, #13
 206 00a2 FFF7FEFF 		bl	PCA9685_setChannelPulseWidth
 207              	.LVL30:
 208 00a6 08E0     		b	.L12
 209              	.L11:
  63:car.c         ****     PCA9685_setChannelPulseWidth(PIN_MOTOR_M3_IN1, 0);
 210              		.loc 1 63 0
 211 00a8 6D42     		negs	r5, r5
 212              	.LVL31:
  64:car.c         ****     PCA9685_setChannelPulseWidth(PIN_MOTOR_M3_IN2, m3_speed);
 213              		.loc 1 64 0
 214 00aa 0021     		movs	r1, #0
 215 00ac 0C20     		movs	r0, #12
 216 00ae FFF7FEFF 		bl	PCA9685_setChannelPulseWidth
 217              	.LVL32:
  65:car.c         ****   }
 218              		.loc 1 65 0
 219 00b2 A9B2     		uxth	r1, r5
 220 00b4 0D20     		movs	r0, #13
 221 00b6 FFF7FEFF 		bl	PCA9685_setChannelPulseWidth
 222              	.LVL33:
 223              	.L12:
  67:car.c         ****     PCA9685_setChannelPulseWidth(PIN_MOTOR_M4_IN1, m4_speed);
 224              		.loc 1 67 0
 225 00ba 002C     		cmp	r4, #0
 226 00bc 09DB     		blt	.L13
  68:car.c         ****     PCA9685_setChannelPulseWidth(PIN_MOTOR_M4_IN2, 0);
 227              		.loc 1 68 0
 228 00be A1B2     		uxth	r1, r4
 229 00c0 0A20     		movs	r0, #10
 230 00c2 FFF7FEFF 		bl	PCA9685_setChannelPulseWidth
 231              	.LVL34:
  69:car.c         ****   } else {
 232              		.loc 1 69 0
 233 00c6 0021     		movs	r1, #0
 234 00c8 0B20     		movs	r0, #11
 235 00ca FFF7FEFF 		bl	PCA9685_setChannelPulseWidth
 236              	.LVL35:
 237 00ce BDE8F081 		pop	{r4, r5, r6, r7, r8, pc}
 238              	.LVL36:
 239              	.L13:
  71:car.c         ****     PCA9685_setChannelPulseWidth(PIN_MOTOR_M4_IN1, 0);
ARM GAS  C:\Users\Smaug\AppData\Local\Temp\cc3T9BxE.s 			page 8


 240              		.loc 1 71 0
 241 00d2 6442     		negs	r4, r4
 242              	.LVL37:
  72:car.c         ****     PCA9685_setChannelPulseWidth(PIN_MOTOR_M4_IN2, m4_speed);
 243              		.loc 1 72 0
 244 00d4 0021     		movs	r1, #0
 245 00d6 0A20     		movs	r0, #10
 246 00d8 FFF7FEFF 		bl	PCA9685_setChannelPulseWidth
 247              	.LVL38:
  73:car.c         ****   }
 248              		.loc 1 73 0
 249 00dc A1B2     		uxth	r1, r4
 250 00de 0B20     		movs	r0, #11
 251 00e0 FFF7FEFF 		bl	PCA9685_setChannelPulseWidth
 252              	.LVL39:
 253 00e4 BDE8F081 		pop	{r4, r5, r6, r7, r8, pc}
 254              	.LVL40:
 255              	.L17:
 256              		.align	2
 257              	.L16:
 258 00e8 01F0FFFF 		.word	-4095
 259              		.cfi_endproc
 260              	.LFE756:
 261              		.size	Motor_Move, .-Motor_Move
 262              		.section	.text.Sound_Init,"ax",%progbits
 263              		.align	2
 264              		.global	Sound_Init
 265              		.thumb
 266              		.thumb_func
 267              		.type	Sound_Init, %function
 268              	Sound_Init:
 269              	.LFB757:
  82:car.c         ****     (void) Cy_TCPWM_PWM_Init(PWM_Buz_HW, PWM_Buz_CNT_NUM, &PWM_Buz_config);
 270              		.loc 1 82 0
 271              		.cfi_startproc
 272              		@ args = 0, pretend = 0, frame = 0
 273              		@ frame_needed = 0, uses_anonymous_args = 0
 274 0000 10B5     		push	{r4, lr}
 275              		.cfi_def_cfa_offset 8
 276              		.cfi_offset 4, -8
 277              		.cfi_offset 14, -4
  83:car.c         ****     Cy_TCPWM_Enable_Multiple(PWM_Buz_HW, PWM_Buz_CNT_MASK);
 278              		.loc 1 83 0
 279 0002 064C     		ldr	r4, .L20
 280 0004 064A     		ldr	r2, .L20+4
 281 0006 0021     		movs	r1, #0
 282 0008 2046     		mov	r0, r4
 283 000a FFF7FEFF 		bl	Cy_TCPWM_PWM_Init
 284              	.LVL41:
 285              	.LBB32:
 286              	.LBB33:
 287              		.file 2 "Generated_Source\\PSoC6\\pdl\\drivers/peripheral/tcpwm/cy_tcpwm.h"
   1:Generated_Source\PSoC6\pdl\drivers/peripheral/tcpwm/cy_tcpwm.h **** /***************************************************************************//**
   2:Generated_Source\PSoC6\pdl\drivers/peripheral/tcpwm/cy_tcpwm.h **** * \file cy_tcpwm.h
   3:Generated_Source\PSoC6\pdl\drivers/peripheral/tcpwm/cy_tcpwm.h **** * \version 1.10
   4:Generated_Source\PSoC6\pdl\drivers/peripheral/tcpwm/cy_tcpwm.h **** *
   5:Generated_Source\PSoC6\pdl\drivers/peripheral/tcpwm/cy_tcpwm.h **** * The header file of the TCPWM driver.
ARM GAS  C:\Users\Smaug\AppData\Local\Temp\cc3T9BxE.s 			page 9


   6:Generated_Source\PSoC6\pdl\drivers/peripheral/tcpwm/cy_tcpwm.h **** *
   7:Generated_Source\PSoC6\pdl\drivers/peripheral/tcpwm/cy_tcpwm.h **** ********************************************************************************
   8:Generated_Source\PSoC6\pdl\drivers/peripheral/tcpwm/cy_tcpwm.h **** * \copyright
   9:Generated_Source\PSoC6\pdl\drivers/peripheral/tcpwm/cy_tcpwm.h **** * Copyright 2016-2018, Cypress Semiconductor Corporation. All rights reserved.
  10:Generated_Source\PSoC6\pdl\drivers/peripheral/tcpwm/cy_tcpwm.h **** * You may use this file only in accordance with the license, terms, conditions,
  11:Generated_Source\PSoC6\pdl\drivers/peripheral/tcpwm/cy_tcpwm.h **** * disclaimers, and limitations in the end user license agreement accompanying
  12:Generated_Source\PSoC6\pdl\drivers/peripheral/tcpwm/cy_tcpwm.h **** * the software package with which this file was provided.
  13:Generated_Source\PSoC6\pdl\drivers/peripheral/tcpwm/cy_tcpwm.h **** *******************************************************************************/
  14:Generated_Source\PSoC6\pdl\drivers/peripheral/tcpwm/cy_tcpwm.h **** 
  15:Generated_Source\PSoC6\pdl\drivers/peripheral/tcpwm/cy_tcpwm.h **** /**
  16:Generated_Source\PSoC6\pdl\drivers/peripheral/tcpwm/cy_tcpwm.h **** * \addtogroup group_tcpwm
  17:Generated_Source\PSoC6\pdl\drivers/peripheral/tcpwm/cy_tcpwm.h **** * \{
  18:Generated_Source\PSoC6\pdl\drivers/peripheral/tcpwm/cy_tcpwm.h **** * \defgroup group_tcpwm_common  Common
  19:Generated_Source\PSoC6\pdl\drivers/peripheral/tcpwm/cy_tcpwm.h **** * \defgroup group_tcpwm_counter Timer/Counter (TCPWM)
  20:Generated_Source\PSoC6\pdl\drivers/peripheral/tcpwm/cy_tcpwm.h **** * \defgroup group_tcpwm_pwm     PWM (TCPWM)
  21:Generated_Source\PSoC6\pdl\drivers/peripheral/tcpwm/cy_tcpwm.h **** * \defgroup group_tcpwm_quaddec Quadrature Decoder (TCPWM)
  22:Generated_Source\PSoC6\pdl\drivers/peripheral/tcpwm/cy_tcpwm.h **** * \} */
  23:Generated_Source\PSoC6\pdl\drivers/peripheral/tcpwm/cy_tcpwm.h **** 
  24:Generated_Source\PSoC6\pdl\drivers/peripheral/tcpwm/cy_tcpwm.h **** /**
  25:Generated_Source\PSoC6\pdl\drivers/peripheral/tcpwm/cy_tcpwm.h **** * \addtogroup group_tcpwm
  26:Generated_Source\PSoC6\pdl\drivers/peripheral/tcpwm/cy_tcpwm.h **** * \{
  27:Generated_Source\PSoC6\pdl\drivers/peripheral/tcpwm/cy_tcpwm.h **** * 
  28:Generated_Source\PSoC6\pdl\drivers/peripheral/tcpwm/cy_tcpwm.h **** * The TCPWM driver is a multifunction driver that implements Timer Counter, 
  29:Generated_Source\PSoC6\pdl\drivers/peripheral/tcpwm/cy_tcpwm.h **** * PWM, and Quadrature Decoder functionality using the TCPWM block.
  30:Generated_Source\PSoC6\pdl\drivers/peripheral/tcpwm/cy_tcpwm.h **** *
  31:Generated_Source\PSoC6\pdl\drivers/peripheral/tcpwm/cy_tcpwm.h **** * The functions and other declarations used in this driver are in cy_tcpwm_counter.h, 
  32:Generated_Source\PSoC6\pdl\drivers/peripheral/tcpwm/cy_tcpwm.h **** * cy_tcpwm_pwm.h, cy_tcpwm_quaddec.h respectively. Include cy_pdl.h 
  33:Generated_Source\PSoC6\pdl\drivers/peripheral/tcpwm/cy_tcpwm.h **** * (ModusToolbox only) to get access to all functions and declarations in the PDL.
  34:Generated_Source\PSoC6\pdl\drivers/peripheral/tcpwm/cy_tcpwm.h **** *
  35:Generated_Source\PSoC6\pdl\drivers/peripheral/tcpwm/cy_tcpwm.h **** * Each TCPWM block is a collection of counters that can all be triggered 
  36:Generated_Source\PSoC6\pdl\drivers/peripheral/tcpwm/cy_tcpwm.h **** * simultaneously. For each function call, the base register address of 
  37:Generated_Source\PSoC6\pdl\drivers/peripheral/tcpwm/cy_tcpwm.h **** * the TCPWM being used must be passed first, followed by the index of 
  38:Generated_Source\PSoC6\pdl\drivers/peripheral/tcpwm/cy_tcpwm.h **** * the counter you want to touch next. 
  39:Generated_Source\PSoC6\pdl\drivers/peripheral/tcpwm/cy_tcpwm.h **** * For some functions, you can manage multiple counters simultaneously. You 
  40:Generated_Source\PSoC6\pdl\drivers/peripheral/tcpwm/cy_tcpwm.h **** * provide a bit field representing each counter, rather than the single counter 
  41:Generated_Source\PSoC6\pdl\drivers/peripheral/tcpwm/cy_tcpwm.h **** * index). 
  42:Generated_Source\PSoC6\pdl\drivers/peripheral/tcpwm/cy_tcpwm.h **** *
  43:Generated_Source\PSoC6\pdl\drivers/peripheral/tcpwm/cy_tcpwm.h **** * The TCPWM supports three operating modes:
  44:Generated_Source\PSoC6\pdl\drivers/peripheral/tcpwm/cy_tcpwm.h **** * * Timer/Counter
  45:Generated_Source\PSoC6\pdl\drivers/peripheral/tcpwm/cy_tcpwm.h **** * * PWM
  46:Generated_Source\PSoC6\pdl\drivers/peripheral/tcpwm/cy_tcpwm.h **** * * Quadrature Decoder
  47:Generated_Source\PSoC6\pdl\drivers/peripheral/tcpwm/cy_tcpwm.h **** *
  48:Generated_Source\PSoC6\pdl\drivers/peripheral/tcpwm/cy_tcpwm.h **** * \n
  49:Generated_Source\PSoC6\pdl\drivers/peripheral/tcpwm/cy_tcpwm.h **** * \b Timer/Counter
  50:Generated_Source\PSoC6\pdl\drivers/peripheral/tcpwm/cy_tcpwm.h **** *
  51:Generated_Source\PSoC6\pdl\drivers/peripheral/tcpwm/cy_tcpwm.h **** * Use this mode whenever a specific timing interval or measurement is 
  52:Generated_Source\PSoC6\pdl\drivers/peripheral/tcpwm/cy_tcpwm.h **** * needed. Examples include:
  53:Generated_Source\PSoC6\pdl\drivers/peripheral/tcpwm/cy_tcpwm.h **** * * Creating a periodic interrupt for running other system tasks
  54:Generated_Source\PSoC6\pdl\drivers/peripheral/tcpwm/cy_tcpwm.h **** * * Measuring frequency of an input signal
  55:Generated_Source\PSoC6\pdl\drivers/peripheral/tcpwm/cy_tcpwm.h **** * * Measuring pulse width of an input signal
  56:Generated_Source\PSoC6\pdl\drivers/peripheral/tcpwm/cy_tcpwm.h **** * * Measuring time between two external events
  57:Generated_Source\PSoC6\pdl\drivers/peripheral/tcpwm/cy_tcpwm.h **** * * Counting events
  58:Generated_Source\PSoC6\pdl\drivers/peripheral/tcpwm/cy_tcpwm.h **** * * Triggering other system resources after x number events
  59:Generated_Source\PSoC6\pdl\drivers/peripheral/tcpwm/cy_tcpwm.h **** * * Capturing time stamps when events occur
  60:Generated_Source\PSoC6\pdl\drivers/peripheral/tcpwm/cy_tcpwm.h **** *
  61:Generated_Source\PSoC6\pdl\drivers/peripheral/tcpwm/cy_tcpwm.h **** * The Timer/Counter has the following features:
  62:Generated_Source\PSoC6\pdl\drivers/peripheral/tcpwm/cy_tcpwm.h **** * * 16- or 32-bit Timer/Counter
ARM GAS  C:\Users\Smaug\AppData\Local\Temp\cc3T9BxE.s 			page 10


  63:Generated_Source\PSoC6\pdl\drivers/peripheral/tcpwm/cy_tcpwm.h **** * * Programmable Period Register
  64:Generated_Source\PSoC6\pdl\drivers/peripheral/tcpwm/cy_tcpwm.h **** * * Programmable Compare Register. Compare value can be swapped with a 
  65:Generated_Source\PSoC6\pdl\drivers/peripheral/tcpwm/cy_tcpwm.h **** * buffered compare value on comparison event
  66:Generated_Source\PSoC6\pdl\drivers/peripheral/tcpwm/cy_tcpwm.h **** * * Capture with buffer register
  67:Generated_Source\PSoC6\pdl\drivers/peripheral/tcpwm/cy_tcpwm.h **** * * Count Up, Count Down, or Count Up and Down Counting modes
  68:Generated_Source\PSoC6\pdl\drivers/peripheral/tcpwm/cy_tcpwm.h **** * * Continuous or One Shot Run modes
  69:Generated_Source\PSoC6\pdl\drivers/peripheral/tcpwm/cy_tcpwm.h **** * * Interrupt and Output on Overflow, Underflow, Capture, or Compare 
  70:Generated_Source\PSoC6\pdl\drivers/peripheral/tcpwm/cy_tcpwm.h **** * * Start, Reload, Stop, Capture, and Count Inputs
  71:Generated_Source\PSoC6\pdl\drivers/peripheral/tcpwm/cy_tcpwm.h **** *
  72:Generated_Source\PSoC6\pdl\drivers/peripheral/tcpwm/cy_tcpwm.h **** * \n
  73:Generated_Source\PSoC6\pdl\drivers/peripheral/tcpwm/cy_tcpwm.h **** * \b PWM
  74:Generated_Source\PSoC6\pdl\drivers/peripheral/tcpwm/cy_tcpwm.h **** *
  75:Generated_Source\PSoC6\pdl\drivers/peripheral/tcpwm/cy_tcpwm.h **** * Use this mode when an output square wave is needed with a specific 
  76:Generated_Source\PSoC6\pdl\drivers/peripheral/tcpwm/cy_tcpwm.h **** * period and duty cycle, such as:
  77:Generated_Source\PSoC6\pdl\drivers/peripheral/tcpwm/cy_tcpwm.h **** * * Creating arbitrary square wave outputs
  78:Generated_Source\PSoC6\pdl\drivers/peripheral/tcpwm/cy_tcpwm.h **** * * Driving an LED (changing the brightness)
  79:Generated_Source\PSoC6\pdl\drivers/peripheral/tcpwm/cy_tcpwm.h **** * * Driving Motors (dead time assertion available)
  80:Generated_Source\PSoC6\pdl\drivers/peripheral/tcpwm/cy_tcpwm.h **** *
  81:Generated_Source\PSoC6\pdl\drivers/peripheral/tcpwm/cy_tcpwm.h **** * The PWM has the following features:
  82:Generated_Source\PSoC6\pdl\drivers/peripheral/tcpwm/cy_tcpwm.h **** * * 16- or 32-bit Counter
  83:Generated_Source\PSoC6\pdl\drivers/peripheral/tcpwm/cy_tcpwm.h **** * * Two Programmable Period registers that can be swapped
  84:Generated_Source\PSoC6\pdl\drivers/peripheral/tcpwm/cy_tcpwm.h **** * * Two Output Compare registers that can be swapped on overflow and/or 
  85:Generated_Source\PSoC6\pdl\drivers/peripheral/tcpwm/cy_tcpwm.h **** * underflow
  86:Generated_Source\PSoC6\pdl\drivers/peripheral/tcpwm/cy_tcpwm.h **** * * Left Aligned, Right Aligned, Center Aligned, and Asymmetric Aligned modes
  87:Generated_Source\PSoC6\pdl\drivers/peripheral/tcpwm/cy_tcpwm.h **** * * Continuous or One Shot run modes
  88:Generated_Source\PSoC6\pdl\drivers/peripheral/tcpwm/cy_tcpwm.h **** * * Pseudo Random mode
  89:Generated_Source\PSoC6\pdl\drivers/peripheral/tcpwm/cy_tcpwm.h **** * * Two PWM outputs with Dead Time insertion, and programmable polarity
  90:Generated_Source\PSoC6\pdl\drivers/peripheral/tcpwm/cy_tcpwm.h **** * * Interrupt and Output on Overflow, Underflow, or Compare 
  91:Generated_Source\PSoC6\pdl\drivers/peripheral/tcpwm/cy_tcpwm.h **** * * Start, Reload, Stop, Swap (Capture), and Count Inputs
  92:Generated_Source\PSoC6\pdl\drivers/peripheral/tcpwm/cy_tcpwm.h **** * * Multiple Components can be synchronized together for applications 
  93:Generated_Source\PSoC6\pdl\drivers/peripheral/tcpwm/cy_tcpwm.h **** * such as three phase motor control
  94:Generated_Source\PSoC6\pdl\drivers/peripheral/tcpwm/cy_tcpwm.h **** *
  95:Generated_Source\PSoC6\pdl\drivers/peripheral/tcpwm/cy_tcpwm.h **** * \n
  96:Generated_Source\PSoC6\pdl\drivers/peripheral/tcpwm/cy_tcpwm.h **** * \b Quadrature \b Decoder
  97:Generated_Source\PSoC6\pdl\drivers/peripheral/tcpwm/cy_tcpwm.h **** *
  98:Generated_Source\PSoC6\pdl\drivers/peripheral/tcpwm/cy_tcpwm.h **** * A quadrature decoder is used to decode the output of a quadrature encoder. 
  99:Generated_Source\PSoC6\pdl\drivers/peripheral/tcpwm/cy_tcpwm.h **** * A quadrature encoder senses the position, velocity, and direction of 
 100:Generated_Source\PSoC6\pdl\drivers/peripheral/tcpwm/cy_tcpwm.h **** * an object (for example a rotating axle, or a spinning mouse ball). 
 101:Generated_Source\PSoC6\pdl\drivers/peripheral/tcpwm/cy_tcpwm.h **** * A quadrature decoder can also be used for precision measurement of speed, 
 102:Generated_Source\PSoC6\pdl\drivers/peripheral/tcpwm/cy_tcpwm.h **** * acceleration, and position of a motor's rotor, or with a rotary switch to 
 103:Generated_Source\PSoC6\pdl\drivers/peripheral/tcpwm/cy_tcpwm.h **** * determine user input. \n
 104:Generated_Source\PSoC6\pdl\drivers/peripheral/tcpwm/cy_tcpwm.h **** * 
 105:Generated_Source\PSoC6\pdl\drivers/peripheral/tcpwm/cy_tcpwm.h **** * The Quadrature Decoder has the following features:
 106:Generated_Source\PSoC6\pdl\drivers/peripheral/tcpwm/cy_tcpwm.h **** * * 16- or 32-bit Counter
 107:Generated_Source\PSoC6\pdl\drivers/peripheral/tcpwm/cy_tcpwm.h **** * * Counter Resolution of x1, x2, and x4 the frequency of the phiA (Count) and 
 108:Generated_Source\PSoC6\pdl\drivers/peripheral/tcpwm/cy_tcpwm.h **** * phiB (Start) inputs
 109:Generated_Source\PSoC6\pdl\drivers/peripheral/tcpwm/cy_tcpwm.h **** * * Index Input to determine absolute position
 110:Generated_Source\PSoC6\pdl\drivers/peripheral/tcpwm/cy_tcpwm.h **** * * A positive edge on phiA increments the counter when phiB is 0 and decrements
 111:Generated_Source\PSoC6\pdl\drivers/peripheral/tcpwm/cy_tcpwm.h **** * the counter when phiB is 1
 112:Generated_Source\PSoC6\pdl\drivers/peripheral/tcpwm/cy_tcpwm.h **** *
 113:Generated_Source\PSoC6\pdl\drivers/peripheral/tcpwm/cy_tcpwm.h **** * \section group_tcpwm_configuration Configuration Considerations
 114:Generated_Source\PSoC6\pdl\drivers/peripheral/tcpwm/cy_tcpwm.h **** *
 115:Generated_Source\PSoC6\pdl\drivers/peripheral/tcpwm/cy_tcpwm.h **** * For each mode, the TCPWM driver has a configuration structure, an Init 
 116:Generated_Source\PSoC6\pdl\drivers/peripheral/tcpwm/cy_tcpwm.h **** * function, and an Enable function. 
 117:Generated_Source\PSoC6\pdl\drivers/peripheral/tcpwm/cy_tcpwm.h **** *
 118:Generated_Source\PSoC6\pdl\drivers/peripheral/tcpwm/cy_tcpwm.h **** * Provide the configuration parameters in the appropriate structure (see
 119:Generated_Source\PSoC6\pdl\drivers/peripheral/tcpwm/cy_tcpwm.h **** * Counter \ref group_tcpwm_data_structures_counter, PWM 
ARM GAS  C:\Users\Smaug\AppData\Local\Temp\cc3T9BxE.s 			page 11


 120:Generated_Source\PSoC6\pdl\drivers/peripheral/tcpwm/cy_tcpwm.h **** * \ref group_tcpwm_data_structures_pwm, or QuadDec 
 121:Generated_Source\PSoC6\pdl\drivers/peripheral/tcpwm/cy_tcpwm.h **** * \ref group_tcpwm_data_structures_quaddec). 
 122:Generated_Source\PSoC6\pdl\drivers/peripheral/tcpwm/cy_tcpwm.h **** * Then call the appropriate Init function: 
 123:Generated_Source\PSoC6\pdl\drivers/peripheral/tcpwm/cy_tcpwm.h **** * \ref Cy_TCPWM_Counter_Init, \ref Cy_TCPWM_PWM_Init, or 
 124:Generated_Source\PSoC6\pdl\drivers/peripheral/tcpwm/cy_tcpwm.h **** * \ref Cy_TCPWM_QuadDec_Init. Provide the address of the filled structure as a 
 125:Generated_Source\PSoC6\pdl\drivers/peripheral/tcpwm/cy_tcpwm.h **** * parameter. To enable the counter, call the appropriate Enable function: 
 126:Generated_Source\PSoC6\pdl\drivers/peripheral/tcpwm/cy_tcpwm.h **** * \ref Cy_TCPWM_Counter_Enable, \ref Cy_TCPWM_PWM_Enable, or 
 127:Generated_Source\PSoC6\pdl\drivers/peripheral/tcpwm/cy_tcpwm.h **** * \ref Cy_TCPWM_QuadDec_Enable).
 128:Generated_Source\PSoC6\pdl\drivers/peripheral/tcpwm/cy_tcpwm.h **** *
 129:Generated_Source\PSoC6\pdl\drivers/peripheral/tcpwm/cy_tcpwm.h **** * Many functions work with an individual counter. You can also manage multiple 
 130:Generated_Source\PSoC6\pdl\drivers/peripheral/tcpwm/cy_tcpwm.h **** * counters simultaneously for certain functions. These are listed in the 
 131:Generated_Source\PSoC6\pdl\drivers/peripheral/tcpwm/cy_tcpwm.h **** * \ref group_tcpwm_functions_common 
 132:Generated_Source\PSoC6\pdl\drivers/peripheral/tcpwm/cy_tcpwm.h **** * section of the TCPWM. You can enable, disable, or trigger (in various ways) 
 133:Generated_Source\PSoC6\pdl\drivers/peripheral/tcpwm/cy_tcpwm.h **** * multiple counters simultaneously. For these functions you provide a bit field 
 134:Generated_Source\PSoC6\pdl\drivers/peripheral/tcpwm/cy_tcpwm.h **** * representing each counter in the TCPWM you want to control. You can 
 135:Generated_Source\PSoC6\pdl\drivers/peripheral/tcpwm/cy_tcpwm.h **** * represent the bit field as an ORed mask of each counter, like 
 136:Generated_Source\PSoC6\pdl\drivers/peripheral/tcpwm/cy_tcpwm.h **** * ((1U << cntNumX) | (1U << cntNumX) | (1U << cntNumX)), where X is the counter 
 137:Generated_Source\PSoC6\pdl\drivers/peripheral/tcpwm/cy_tcpwm.h **** * number from 0 to 31.
 138:Generated_Source\PSoC6\pdl\drivers/peripheral/tcpwm/cy_tcpwm.h **** *
 139:Generated_Source\PSoC6\pdl\drivers/peripheral/tcpwm/cy_tcpwm.h **** * \note
 140:Generated_Source\PSoC6\pdl\drivers/peripheral/tcpwm/cy_tcpwm.h **** * * If none of the input terminals (start, reload(index)) are used, the 
 141:Generated_Source\PSoC6\pdl\drivers/peripheral/tcpwm/cy_tcpwm.h **** * software event \ref Cy_TCPWM_TriggerStart or 
 142:Generated_Source\PSoC6\pdl\drivers/peripheral/tcpwm/cy_tcpwm.h **** * \ref Cy_TCPWM_TriggerReloadOrIndex must be called to start the counting.
 143:Generated_Source\PSoC6\pdl\drivers/peripheral/tcpwm/cy_tcpwm.h **** * * If count input terminal is not used, the \ref CY_TCPWM_INPUT_LEVEL macro 
 144:Generated_Source\PSoC6\pdl\drivers/peripheral/tcpwm/cy_tcpwm.h **** * should be set for the countInputMode parameter and the \ref CY_TCPWM_INPUT_1 
 145:Generated_Source\PSoC6\pdl\drivers/peripheral/tcpwm/cy_tcpwm.h **** * macro should be set for the countInput parameter in the configuration 
 146:Generated_Source\PSoC6\pdl\drivers/peripheral/tcpwm/cy_tcpwm.h **** * structure of the appropriate mode(Counter 
 147:Generated_Source\PSoC6\pdl\drivers/peripheral/tcpwm/cy_tcpwm.h **** * \ref group_tcpwm_data_structures_counter, PWM 
 148:Generated_Source\PSoC6\pdl\drivers/peripheral/tcpwm/cy_tcpwm.h **** * \ref group_tcpwm_data_structures_pwm, or QuadDec 
 149:Generated_Source\PSoC6\pdl\drivers/peripheral/tcpwm/cy_tcpwm.h **** * \ref group_tcpwm_data_structures_quaddec).
 150:Generated_Source\PSoC6\pdl\drivers/peripheral/tcpwm/cy_tcpwm.h **** *
 151:Generated_Source\PSoC6\pdl\drivers/peripheral/tcpwm/cy_tcpwm.h **** * \subsection group_tcpwm_pins Assign and Configure Pins
 152:Generated_Source\PSoC6\pdl\drivers/peripheral/tcpwm/cy_tcpwm.h **** * The dedicated TCPWM pins can be used. The HSIOM register must be configured to
 153:Generated_Source\PSoC6\pdl\drivers/peripheral/tcpwm/cy_tcpwm.h **** * connect the block to the pins. Use the \ref group_gpio driver API to do that.
 154:Generated_Source\PSoC6\pdl\drivers/peripheral/tcpwm/cy_tcpwm.h **** *
 155:Generated_Source\PSoC6\pdl\drivers/peripheral/tcpwm/cy_tcpwm.h **** * \snippet tcpwm\1.10\counter\snippet\main.c snippet_Cy_TCPWM_Pins
 156:Generated_Source\PSoC6\pdl\drivers/peripheral/tcpwm/cy_tcpwm.h **** *
 157:Generated_Source\PSoC6\pdl\drivers/peripheral/tcpwm/cy_tcpwm.h **** * \subsection group_tcpwm_clock Assign Clock Divider
 158:Generated_Source\PSoC6\pdl\drivers/peripheral/tcpwm/cy_tcpwm.h **** * The clock source must be connected to proper working.
 159:Generated_Source\PSoC6\pdl\drivers/peripheral/tcpwm/cy_tcpwm.h **** * Any of the peripheral clock dividers could be used. Use the  
 160:Generated_Source\PSoC6\pdl\drivers/peripheral/tcpwm/cy_tcpwm.h **** * \ref group_sysclk driver API to do that.
 161:Generated_Source\PSoC6\pdl\drivers/peripheral/tcpwm/cy_tcpwm.h **** *
 162:Generated_Source\PSoC6\pdl\drivers/peripheral/tcpwm/cy_tcpwm.h **** * \snippet tcpwm\1.10\counter\snippet\main.c snippet_Cy_TCPWM_Clock
 163:Generated_Source\PSoC6\pdl\drivers/peripheral/tcpwm/cy_tcpwm.h **** *
 164:Generated_Source\PSoC6\pdl\drivers/peripheral/tcpwm/cy_tcpwm.h **** * \section group_tcpwm_more_information More Information
 165:Generated_Source\PSoC6\pdl\drivers/peripheral/tcpwm/cy_tcpwm.h **** *
 166:Generated_Source\PSoC6\pdl\drivers/peripheral/tcpwm/cy_tcpwm.h **** * For more information on the TCPWM peripheral, refer to the technical 
 167:Generated_Source\PSoC6\pdl\drivers/peripheral/tcpwm/cy_tcpwm.h **** * reference manual (TRM).
 168:Generated_Source\PSoC6\pdl\drivers/peripheral/tcpwm/cy_tcpwm.h **** *
 169:Generated_Source\PSoC6\pdl\drivers/peripheral/tcpwm/cy_tcpwm.h **** * \section group_tcpwm_MISRA MISRA-C Compliance 
 170:Generated_Source\PSoC6\pdl\drivers/peripheral/tcpwm/cy_tcpwm.h **** * <table class="doxtable">
 171:Generated_Source\PSoC6\pdl\drivers/peripheral/tcpwm/cy_tcpwm.h **** *   <tr>
 172:Generated_Source\PSoC6\pdl\drivers/peripheral/tcpwm/cy_tcpwm.h **** *     <th>MISRA Rule</th>
 173:Generated_Source\PSoC6\pdl\drivers/peripheral/tcpwm/cy_tcpwm.h **** *     <th>Rule Class (Required/Advisory)</th>
 174:Generated_Source\PSoC6\pdl\drivers/peripheral/tcpwm/cy_tcpwm.h **** *     <th>Rule Description</th>
 175:Generated_Source\PSoC6\pdl\drivers/peripheral/tcpwm/cy_tcpwm.h **** *     <th>Description of Deviation(s)</th>
 176:Generated_Source\PSoC6\pdl\drivers/peripheral/tcpwm/cy_tcpwm.h **** *   </tr>
ARM GAS  C:\Users\Smaug\AppData\Local\Temp\cc3T9BxE.s 			page 12


 177:Generated_Source\PSoC6\pdl\drivers/peripheral/tcpwm/cy_tcpwm.h **** *   <tr>
 178:Generated_Source\PSoC6\pdl\drivers/peripheral/tcpwm/cy_tcpwm.h **** *     <td>14.2</td>
 179:Generated_Source\PSoC6\pdl\drivers/peripheral/tcpwm/cy_tcpwm.h **** *     <td>R</td>
 180:Generated_Source\PSoC6\pdl\drivers/peripheral/tcpwm/cy_tcpwm.h **** *     <td>All non-null statements shall either: a) have at least one side-effect
 181:Generated_Source\PSoC6\pdl\drivers/peripheral/tcpwm/cy_tcpwm.h **** *         however executed, or b) cause control flow to change.</td>
 182:Generated_Source\PSoC6\pdl\drivers/peripheral/tcpwm/cy_tcpwm.h **** *     <td>The unused function parameters are cast to void. This statement
 183:Generated_Source\PSoC6\pdl\drivers/peripheral/tcpwm/cy_tcpwm.h **** *         has no side-effect and is used to suppress a compiler warning.</td>
 184:Generated_Source\PSoC6\pdl\drivers/peripheral/tcpwm/cy_tcpwm.h **** *   </tr>
 185:Generated_Source\PSoC6\pdl\drivers/peripheral/tcpwm/cy_tcpwm.h **** * </table>
 186:Generated_Source\PSoC6\pdl\drivers/peripheral/tcpwm/cy_tcpwm.h **** *
 187:Generated_Source\PSoC6\pdl\drivers/peripheral/tcpwm/cy_tcpwm.h **** * \section group_tcpwm_changelog Changelog
 188:Generated_Source\PSoC6\pdl\drivers/peripheral/tcpwm/cy_tcpwm.h **** * <table class="doxtable">
 189:Generated_Source\PSoC6\pdl\drivers/peripheral/tcpwm/cy_tcpwm.h **** *   <tr><th>Version</th><th>Changes</th><th>Reason for Change</th></tr>
 190:Generated_Source\PSoC6\pdl\drivers/peripheral/tcpwm/cy_tcpwm.h **** *   <tr>
 191:Generated_Source\PSoC6\pdl\drivers/peripheral/tcpwm/cy_tcpwm.h **** *     <td rowspan="2">1.10</td>
 192:Generated_Source\PSoC6\pdl\drivers/peripheral/tcpwm/cy_tcpwm.h **** *     <td>Flattened the organization of the driver source code into the single 
 193:Generated_Source\PSoC6\pdl\drivers/peripheral/tcpwm/cy_tcpwm.h **** *         source directory and the single include directory.
 194:Generated_Source\PSoC6\pdl\drivers/peripheral/tcpwm/cy_tcpwm.h **** *     </td>
 195:Generated_Source\PSoC6\pdl\drivers/peripheral/tcpwm/cy_tcpwm.h **** *     <td>Driver library directory-structure simplification.</td>
 196:Generated_Source\PSoC6\pdl\drivers/peripheral/tcpwm/cy_tcpwm.h **** *   </tr>
 197:Generated_Source\PSoC6\pdl\drivers/peripheral/tcpwm/cy_tcpwm.h **** *   <tr>
 198:Generated_Source\PSoC6\pdl\drivers/peripheral/tcpwm/cy_tcpwm.h **** *     <td>Added register access layer. Use register access macros instead
 199:Generated_Source\PSoC6\pdl\drivers/peripheral/tcpwm/cy_tcpwm.h **** *         of direct register access using dereferenced pointers.</td>
 200:Generated_Source\PSoC6\pdl\drivers/peripheral/tcpwm/cy_tcpwm.h **** *     <td>Makes register access device-independent, so that the PDL does 
 201:Generated_Source\PSoC6\pdl\drivers/peripheral/tcpwm/cy_tcpwm.h **** *         not need to be recompiled for each supported part number.</td>
 202:Generated_Source\PSoC6\pdl\drivers/peripheral/tcpwm/cy_tcpwm.h **** *   </tr>
 203:Generated_Source\PSoC6\pdl\drivers/peripheral/tcpwm/cy_tcpwm.h **** *   <tr>
 204:Generated_Source\PSoC6\pdl\drivers/peripheral/tcpwm/cy_tcpwm.h **** *     <td>1.0.1</td>
 205:Generated_Source\PSoC6\pdl\drivers/peripheral/tcpwm/cy_tcpwm.h **** *     <td>Added a deviation to the MISRA Compliance section.
 206:Generated_Source\PSoC6\pdl\drivers/peripheral/tcpwm/cy_tcpwm.h **** *         Added function-level code snippets.</td>
 207:Generated_Source\PSoC6\pdl\drivers/peripheral/tcpwm/cy_tcpwm.h **** *     <td>Documentation update and clarification</td>
 208:Generated_Source\PSoC6\pdl\drivers/peripheral/tcpwm/cy_tcpwm.h **** *   </tr>
 209:Generated_Source\PSoC6\pdl\drivers/peripheral/tcpwm/cy_tcpwm.h **** *   <tr>
 210:Generated_Source\PSoC6\pdl\drivers/peripheral/tcpwm/cy_tcpwm.h **** *     <td>1.0</td>
 211:Generated_Source\PSoC6\pdl\drivers/peripheral/tcpwm/cy_tcpwm.h **** *     <td>Initial version</td>
 212:Generated_Source\PSoC6\pdl\drivers/peripheral/tcpwm/cy_tcpwm.h **** *     <td></td>
 213:Generated_Source\PSoC6\pdl\drivers/peripheral/tcpwm/cy_tcpwm.h **** *   </tr>
 214:Generated_Source\PSoC6\pdl\drivers/peripheral/tcpwm/cy_tcpwm.h **** * </table>
 215:Generated_Source\PSoC6\pdl\drivers/peripheral/tcpwm/cy_tcpwm.h **** */
 216:Generated_Source\PSoC6\pdl\drivers/peripheral/tcpwm/cy_tcpwm.h **** 
 217:Generated_Source\PSoC6\pdl\drivers/peripheral/tcpwm/cy_tcpwm.h **** /** \} group_tcpwm */
 218:Generated_Source\PSoC6\pdl\drivers/peripheral/tcpwm/cy_tcpwm.h **** 
 219:Generated_Source\PSoC6\pdl\drivers/peripheral/tcpwm/cy_tcpwm.h **** /**
 220:Generated_Source\PSoC6\pdl\drivers/peripheral/tcpwm/cy_tcpwm.h **** * \addtogroup group_tcpwm_common
 221:Generated_Source\PSoC6\pdl\drivers/peripheral/tcpwm/cy_tcpwm.h **** * Common API for the Timer Counter PWM Block.
 222:Generated_Source\PSoC6\pdl\drivers/peripheral/tcpwm/cy_tcpwm.h **** *
 223:Generated_Source\PSoC6\pdl\drivers/peripheral/tcpwm/cy_tcpwm.h **** * This is the common API that provides an interface to the TCPWM hardware.
 224:Generated_Source\PSoC6\pdl\drivers/peripheral/tcpwm/cy_tcpwm.h **** * The Timer Counter, PWM, and Quadrature Decoder drivers use this common API.
 225:Generated_Source\PSoC6\pdl\drivers/peripheral/tcpwm/cy_tcpwm.h **** * Most users will use individual drivers and do not need to use the common
 226:Generated_Source\PSoC6\pdl\drivers/peripheral/tcpwm/cy_tcpwm.h **** * API for the TCPWM.
 227:Generated_Source\PSoC6\pdl\drivers/peripheral/tcpwm/cy_tcpwm.h **** *
 228:Generated_Source\PSoC6\pdl\drivers/peripheral/tcpwm/cy_tcpwm.h **** * The functions and other declarations used in this part of the driver are in cy_tcpwm.h. 
 229:Generated_Source\PSoC6\pdl\drivers/peripheral/tcpwm/cy_tcpwm.h **** * Include either of cy_tcpwm_counter.h, cy_tcpwm_pwm.h, cy_tcpwm_quaddec.h 
 230:Generated_Source\PSoC6\pdl\drivers/peripheral/tcpwm/cy_tcpwm.h **** * depending on the desired functionality. You can also include cy_pdl.h 
 231:Generated_Source\PSoC6\pdl\drivers/peripheral/tcpwm/cy_tcpwm.h **** * to get access to all functions and declarations in the PDL.
 232:Generated_Source\PSoC6\pdl\drivers/peripheral/tcpwm/cy_tcpwm.h **** *
 233:Generated_Source\PSoC6\pdl\drivers/peripheral/tcpwm/cy_tcpwm.h **** * \{
ARM GAS  C:\Users\Smaug\AppData\Local\Temp\cc3T9BxE.s 			page 13


 234:Generated_Source\PSoC6\pdl\drivers/peripheral/tcpwm/cy_tcpwm.h **** * \defgroup group_tcpwm_macros_common           Macros
 235:Generated_Source\PSoC6\pdl\drivers/peripheral/tcpwm/cy_tcpwm.h **** * \defgroup group_tcpwm_functions_common        Functions
 236:Generated_Source\PSoC6\pdl\drivers/peripheral/tcpwm/cy_tcpwm.h **** * \defgroup group_tcpwm_data_structures_common  Data Structures
 237:Generated_Source\PSoC6\pdl\drivers/peripheral/tcpwm/cy_tcpwm.h **** * \defgroup group_tcpwm_enums Enumerated Types
 238:Generated_Source\PSoC6\pdl\drivers/peripheral/tcpwm/cy_tcpwm.h **** */
 239:Generated_Source\PSoC6\pdl\drivers/peripheral/tcpwm/cy_tcpwm.h **** 
 240:Generated_Source\PSoC6\pdl\drivers/peripheral/tcpwm/cy_tcpwm.h **** 
 241:Generated_Source\PSoC6\pdl\drivers/peripheral/tcpwm/cy_tcpwm.h **** #if !defined(CY_TCPWM_H)
 242:Generated_Source\PSoC6\pdl\drivers/peripheral/tcpwm/cy_tcpwm.h **** #define CY_TCPWM_H
 243:Generated_Source\PSoC6\pdl\drivers/peripheral/tcpwm/cy_tcpwm.h **** 
 244:Generated_Source\PSoC6\pdl\drivers/peripheral/tcpwm/cy_tcpwm.h **** #include <stdint.h>
 245:Generated_Source\PSoC6\pdl\drivers/peripheral/tcpwm/cy_tcpwm.h **** #include <stdbool.h>
 246:Generated_Source\PSoC6\pdl\drivers/peripheral/tcpwm/cy_tcpwm.h **** #include <stddef.h>
 247:Generated_Source\PSoC6\pdl\drivers/peripheral/tcpwm/cy_tcpwm.h **** #include "cy_syslib.h"
 248:Generated_Source\PSoC6\pdl\drivers/peripheral/tcpwm/cy_tcpwm.h **** #include "cy_device_headers.h"
 249:Generated_Source\PSoC6\pdl\drivers/peripheral/tcpwm/cy_tcpwm.h **** #include "cy_device.h"
 250:Generated_Source\PSoC6\pdl\drivers/peripheral/tcpwm/cy_tcpwm.h **** 
 251:Generated_Source\PSoC6\pdl\drivers/peripheral/tcpwm/cy_tcpwm.h **** #ifdef CY_IP_MXTCPWM
 252:Generated_Source\PSoC6\pdl\drivers/peripheral/tcpwm/cy_tcpwm.h **** 
 253:Generated_Source\PSoC6\pdl\drivers/peripheral/tcpwm/cy_tcpwm.h **** #if defined(__cplusplus)
 254:Generated_Source\PSoC6\pdl\drivers/peripheral/tcpwm/cy_tcpwm.h **** extern "C" {
 255:Generated_Source\PSoC6\pdl\drivers/peripheral/tcpwm/cy_tcpwm.h **** #endif
 256:Generated_Source\PSoC6\pdl\drivers/peripheral/tcpwm/cy_tcpwm.h **** 
 257:Generated_Source\PSoC6\pdl\drivers/peripheral/tcpwm/cy_tcpwm.h **** /**
 258:Generated_Source\PSoC6\pdl\drivers/peripheral/tcpwm/cy_tcpwm.h **** * \addtogroup group_tcpwm_macros_common
 259:Generated_Source\PSoC6\pdl\drivers/peripheral/tcpwm/cy_tcpwm.h **** * \{
 260:Generated_Source\PSoC6\pdl\drivers/peripheral/tcpwm/cy_tcpwm.h **** */
 261:Generated_Source\PSoC6\pdl\drivers/peripheral/tcpwm/cy_tcpwm.h **** 
 262:Generated_Source\PSoC6\pdl\drivers/peripheral/tcpwm/cy_tcpwm.h **** /** Driver major version */
 263:Generated_Source\PSoC6\pdl\drivers/peripheral/tcpwm/cy_tcpwm.h **** #define CY_TCPWM_DRV_VERSION_MAJOR       1
 264:Generated_Source\PSoC6\pdl\drivers/peripheral/tcpwm/cy_tcpwm.h **** 
 265:Generated_Source\PSoC6\pdl\drivers/peripheral/tcpwm/cy_tcpwm.h **** /** Driver minor version */
 266:Generated_Source\PSoC6\pdl\drivers/peripheral/tcpwm/cy_tcpwm.h **** #define CY_TCPWM_DRV_VERSION_MINOR       10
 267:Generated_Source\PSoC6\pdl\drivers/peripheral/tcpwm/cy_tcpwm.h **** 
 268:Generated_Source\PSoC6\pdl\drivers/peripheral/tcpwm/cy_tcpwm.h **** 
 269:Generated_Source\PSoC6\pdl\drivers/peripheral/tcpwm/cy_tcpwm.h **** /******************************************************************************
 270:Generated_Source\PSoC6\pdl\drivers/peripheral/tcpwm/cy_tcpwm.h **** * API Constants
 271:Generated_Source\PSoC6\pdl\drivers/peripheral/tcpwm/cy_tcpwm.h **** ******************************************************************************/
 272:Generated_Source\PSoC6\pdl\drivers/peripheral/tcpwm/cy_tcpwm.h **** 
 273:Generated_Source\PSoC6\pdl\drivers/peripheral/tcpwm/cy_tcpwm.h **** /** TCPWM driver identifier */
 274:Generated_Source\PSoC6\pdl\drivers/peripheral/tcpwm/cy_tcpwm.h **** #define CY_TCPWM_ID                     (CY_PDL_DRV_ID(0x2DU))
 275:Generated_Source\PSoC6\pdl\drivers/peripheral/tcpwm/cy_tcpwm.h **** 
 276:Generated_Source\PSoC6\pdl\drivers/peripheral/tcpwm/cy_tcpwm.h **** /** \defgroup group_tcpwm_input_selection  TCPWM Input Selection
 277:Generated_Source\PSoC6\pdl\drivers/peripheral/tcpwm/cy_tcpwm.h **** * \{
 278:Generated_Source\PSoC6\pdl\drivers/peripheral/tcpwm/cy_tcpwm.h **** * Selects which input to use
 279:Generated_Source\PSoC6\pdl\drivers/peripheral/tcpwm/cy_tcpwm.h **** */
 280:Generated_Source\PSoC6\pdl\drivers/peripheral/tcpwm/cy_tcpwm.h **** #define CY_TCPWM_INPUT_0                (0U)  /**< Input is tied to logic 0 */
 281:Generated_Source\PSoC6\pdl\drivers/peripheral/tcpwm/cy_tcpwm.h **** #define CY_TCPWM_INPUT_1                (1U)  /**< Input is tied to logic 1 */
 282:Generated_Source\PSoC6\pdl\drivers/peripheral/tcpwm/cy_tcpwm.h **** #define CY_TCPWM_INPUT_TRIG_0           (2U)  /**< Input is connected to the trigger input 0 */
 283:Generated_Source\PSoC6\pdl\drivers/peripheral/tcpwm/cy_tcpwm.h **** #define CY_TCPWM_INPUT_TRIG_1           (3U)  /**< Input is connected to the trigger input 1 */
 284:Generated_Source\PSoC6\pdl\drivers/peripheral/tcpwm/cy_tcpwm.h **** #define CY_TCPWM_INPUT_TRIG_2           (4U)  /**< Input is connected to the trigger input 2 */
 285:Generated_Source\PSoC6\pdl\drivers/peripheral/tcpwm/cy_tcpwm.h **** #define CY_TCPWM_INPUT_TRIG_3           (5U)  /**< Input is connected to the trigger input 3 */
 286:Generated_Source\PSoC6\pdl\drivers/peripheral/tcpwm/cy_tcpwm.h **** #define CY_TCPWM_INPUT_TRIG_4           (6U)  /**< Input is connected to the trigger input 4 */
 287:Generated_Source\PSoC6\pdl\drivers/peripheral/tcpwm/cy_tcpwm.h **** #define CY_TCPWM_INPUT_TRIG_5           (7U)  /**< Input is connected to the trigger input 5 */
 288:Generated_Source\PSoC6\pdl\drivers/peripheral/tcpwm/cy_tcpwm.h **** #define CY_TCPWM_INPUT_TRIG_6           (8U)  /**< Input is connected to the trigger input 6 */
 289:Generated_Source\PSoC6\pdl\drivers/peripheral/tcpwm/cy_tcpwm.h **** #define CY_TCPWM_INPUT_TRIG_7           (9U)  /**< Input is connected to the trigger input 7 */
 290:Generated_Source\PSoC6\pdl\drivers/peripheral/tcpwm/cy_tcpwm.h **** #define CY_TCPWM_INPUT_TRIG_8           (10U) /**< Input is connected to the trigger input 8 */
ARM GAS  C:\Users\Smaug\AppData\Local\Temp\cc3T9BxE.s 			page 14


 291:Generated_Source\PSoC6\pdl\drivers/peripheral/tcpwm/cy_tcpwm.h **** #define CY_TCPWM_INPUT_TRIG_9           (11U) /**< Input is connected to the trigger input 9 */
 292:Generated_Source\PSoC6\pdl\drivers/peripheral/tcpwm/cy_tcpwm.h **** #define CY_TCPWM_INPUT_TRIG_10          (12U) /**< Input is connected to the trigger input 10 */
 293:Generated_Source\PSoC6\pdl\drivers/peripheral/tcpwm/cy_tcpwm.h **** #define CY_TCPWM_INPUT_TRIG_11          (13U) /**< Input is connected to the trigger input 11 */
 294:Generated_Source\PSoC6\pdl\drivers/peripheral/tcpwm/cy_tcpwm.h **** #define CY_TCPWM_INPUT_TRIG_12          (14U) /**< Input is connected to the trigger input 12 */
 295:Generated_Source\PSoC6\pdl\drivers/peripheral/tcpwm/cy_tcpwm.h **** #define CY_TCPWM_INPUT_TRIG_13          (15U) /**< Input is connected to the trigger input 13 */
 296:Generated_Source\PSoC6\pdl\drivers/peripheral/tcpwm/cy_tcpwm.h **** 
 297:Generated_Source\PSoC6\pdl\drivers/peripheral/tcpwm/cy_tcpwm.h **** /** Input is defined by Creator, and Init() function does not need to configure input */
 298:Generated_Source\PSoC6\pdl\drivers/peripheral/tcpwm/cy_tcpwm.h **** #define CY_TCPWM_INPUT_CREATOR          (0xFFFFFFFFU)
 299:Generated_Source\PSoC6\pdl\drivers/peripheral/tcpwm/cy_tcpwm.h **** /** \} group_tcpwm_input_selection */
 300:Generated_Source\PSoC6\pdl\drivers/peripheral/tcpwm/cy_tcpwm.h **** 
 301:Generated_Source\PSoC6\pdl\drivers/peripheral/tcpwm/cy_tcpwm.h **** /**
 302:Generated_Source\PSoC6\pdl\drivers/peripheral/tcpwm/cy_tcpwm.h **** * \defgroup group_tcpwm_input_modes  Input Modes
 303:Generated_Source\PSoC6\pdl\drivers/peripheral/tcpwm/cy_tcpwm.h **** * \{
 304:Generated_Source\PSoC6\pdl\drivers/peripheral/tcpwm/cy_tcpwm.h **** * Configures how TCPWM inputs behave
 305:Generated_Source\PSoC6\pdl\drivers/peripheral/tcpwm/cy_tcpwm.h **** */
 306:Generated_Source\PSoC6\pdl\drivers/peripheral/tcpwm/cy_tcpwm.h **** /** A rising edge triggers the event (Capture, Start, Reload, etc..) */
 307:Generated_Source\PSoC6\pdl\drivers/peripheral/tcpwm/cy_tcpwm.h **** #define CY_TCPWM_INPUT_RISINGEDGE       (0U)
 308:Generated_Source\PSoC6\pdl\drivers/peripheral/tcpwm/cy_tcpwm.h **** /** A falling edge triggers the event (Capture, Start, Reload, etc..) */
 309:Generated_Source\PSoC6\pdl\drivers/peripheral/tcpwm/cy_tcpwm.h **** #define CY_TCPWM_INPUT_FALLINGEDGE      (1U)
 310:Generated_Source\PSoC6\pdl\drivers/peripheral/tcpwm/cy_tcpwm.h **** /** A rising edge or falling edge triggers the event (Capture, Start, Reload, etc..) */
 311:Generated_Source\PSoC6\pdl\drivers/peripheral/tcpwm/cy_tcpwm.h **** #define CY_TCPWM_INPUT_EITHEREDGE       (2U)
 312:Generated_Source\PSoC6\pdl\drivers/peripheral/tcpwm/cy_tcpwm.h **** /** The event is triggered on each edge of the TCPWM clock if the input is high */
 313:Generated_Source\PSoC6\pdl\drivers/peripheral/tcpwm/cy_tcpwm.h **** #define CY_TCPWM_INPUT_LEVEL            (3U)
 314:Generated_Source\PSoC6\pdl\drivers/peripheral/tcpwm/cy_tcpwm.h **** /** \} group_tcpwm_input_modes */
 315:Generated_Source\PSoC6\pdl\drivers/peripheral/tcpwm/cy_tcpwm.h **** 
 316:Generated_Source\PSoC6\pdl\drivers/peripheral/tcpwm/cy_tcpwm.h **** /**
 317:Generated_Source\PSoC6\pdl\drivers/peripheral/tcpwm/cy_tcpwm.h **** * \defgroup group_tcpwm_interrupt_sources  Interrupt Sources
 318:Generated_Source\PSoC6\pdl\drivers/peripheral/tcpwm/cy_tcpwm.h **** * \{
 319:Generated_Source\PSoC6\pdl\drivers/peripheral/tcpwm/cy_tcpwm.h **** * Interrupt Sources 
 320:Generated_Source\PSoC6\pdl\drivers/peripheral/tcpwm/cy_tcpwm.h **** */
 321:Generated_Source\PSoC6\pdl\drivers/peripheral/tcpwm/cy_tcpwm.h **** #define CY_TCPWM_INT_ON_TC              (1U) /**< Interrupt on Terminal count(TC) */
 322:Generated_Source\PSoC6\pdl\drivers/peripheral/tcpwm/cy_tcpwm.h **** #define CY_TCPWM_INT_ON_CC              (2U) /**< Interrupt on Compare/Capture(CC) */
 323:Generated_Source\PSoC6\pdl\drivers/peripheral/tcpwm/cy_tcpwm.h **** #define CY_TCPWM_INT_NONE               (0U) /**< No Interrupt */
 324:Generated_Source\PSoC6\pdl\drivers/peripheral/tcpwm/cy_tcpwm.h **** #define CY_TCPWM_INT_ON_CC_OR_TC        (3U) /**< Interrupt on TC or CC */
 325:Generated_Source\PSoC6\pdl\drivers/peripheral/tcpwm/cy_tcpwm.h **** /** \} group_tcpwm_interrupt_sources */
 326:Generated_Source\PSoC6\pdl\drivers/peripheral/tcpwm/cy_tcpwm.h **** 
 327:Generated_Source\PSoC6\pdl\drivers/peripheral/tcpwm/cy_tcpwm.h **** 
 328:Generated_Source\PSoC6\pdl\drivers/peripheral/tcpwm/cy_tcpwm.h **** /***************************************
 329:Generated_Source\PSoC6\pdl\drivers/peripheral/tcpwm/cy_tcpwm.h **** *        Registers Constants
 330:Generated_Source\PSoC6\pdl\drivers/peripheral/tcpwm/cy_tcpwm.h **** ***************************************/
 331:Generated_Source\PSoC6\pdl\drivers/peripheral/tcpwm/cy_tcpwm.h **** 
 332:Generated_Source\PSoC6\pdl\drivers/peripheral/tcpwm/cy_tcpwm.h **** /**
 333:Generated_Source\PSoC6\pdl\drivers/peripheral/tcpwm/cy_tcpwm.h **** * \defgroup group_tcpwm_reg_const Default registers constants
 334:Generated_Source\PSoC6\pdl\drivers/peripheral/tcpwm/cy_tcpwm.h **** * \{
 335:Generated_Source\PSoC6\pdl\drivers/peripheral/tcpwm/cy_tcpwm.h **** * Default constants for CNT Registers
 336:Generated_Source\PSoC6\pdl\drivers/peripheral/tcpwm/cy_tcpwm.h **** */
 337:Generated_Source\PSoC6\pdl\drivers/peripheral/tcpwm/cy_tcpwm.h **** #define CY_TCPWM_CNT_CTRL_DEFAULT           (0x0U) /**< Default value for CTRL register */
 338:Generated_Source\PSoC6\pdl\drivers/peripheral/tcpwm/cy_tcpwm.h **** #define CY_TCPWM_CNT_COUNTER_DEFAULT        (0x0U) /**< Default value for COUNTER register */
 339:Generated_Source\PSoC6\pdl\drivers/peripheral/tcpwm/cy_tcpwm.h **** #define CY_TCPWM_CNT_CC_DEFAULT             (0xFFFFFFFFU) /**< Default value for CC register */
 340:Generated_Source\PSoC6\pdl\drivers/peripheral/tcpwm/cy_tcpwm.h **** #define CY_TCPWM_CNT_CC_BUFF_DEFAULT        (0xFFFFFFFFU) /**< Default value for CC_BUFF register *
 341:Generated_Source\PSoC6\pdl\drivers/peripheral/tcpwm/cy_tcpwm.h **** #define CY_TCPWM_CNT_PERIOD_DEFAULT         (0xFFFFFFFFU) /**< Default value for PERIOD register */
 342:Generated_Source\PSoC6\pdl\drivers/peripheral/tcpwm/cy_tcpwm.h **** #define CY_TCPWM_CNT_PERIOD_BUFF_DEFAULT    (0xFFFFFFFFU) /**< Default value for PERIOD_BUFF regist
 343:Generated_Source\PSoC6\pdl\drivers/peripheral/tcpwm/cy_tcpwm.h **** #define CY_TCPWM_CNT_TR_CTRL0_DEFAULT       (0x10U)  /**< Default value for TR_CTRL0 register */
 344:Generated_Source\PSoC6\pdl\drivers/peripheral/tcpwm/cy_tcpwm.h **** #define CY_TCPWM_CNT_TR_CTRL1_DEFAULT       (0x3FFU) /**< Default value for TR_CTRL1 register */
 345:Generated_Source\PSoC6\pdl\drivers/peripheral/tcpwm/cy_tcpwm.h **** #define CY_TCPWM_CNT_TR_CTRL2_DEFAULT       (0x3FU)  /**< Default value for TR_CTRL2 register */
 346:Generated_Source\PSoC6\pdl\drivers/peripheral/tcpwm/cy_tcpwm.h **** #define CY_TCPWM_CNT_INTR_DEFAULT           (0x3U)   /**< Default value for INTR register */
 347:Generated_Source\PSoC6\pdl\drivers/peripheral/tcpwm/cy_tcpwm.h **** #define CY_TCPWM_CNT_INTR_SET_DEFAULT       (0x0U)   /**< Default value for INTR_SET register */
ARM GAS  C:\Users\Smaug\AppData\Local\Temp\cc3T9BxE.s 			page 15


 348:Generated_Source\PSoC6\pdl\drivers/peripheral/tcpwm/cy_tcpwm.h **** #define CY_TCPWM_CNT_INTR_MASK_DEFAULT      (0x0U)   /**< Default value for INTR_MASK register */
 349:Generated_Source\PSoC6\pdl\drivers/peripheral/tcpwm/cy_tcpwm.h **** /** \} group_tcpwm_reg_const */
 350:Generated_Source\PSoC6\pdl\drivers/peripheral/tcpwm/cy_tcpwm.h **** 
 351:Generated_Source\PSoC6\pdl\drivers/peripheral/tcpwm/cy_tcpwm.h **** /** Position of Up counting counter status */
 352:Generated_Source\PSoC6\pdl\drivers/peripheral/tcpwm/cy_tcpwm.h **** #define CY_TCPWM_CNT_STATUS_UP_POS          (0x1U)
 353:Generated_Source\PSoC6\pdl\drivers/peripheral/tcpwm/cy_tcpwm.h **** /** Initial value for the counter in the Up counting mode */
 354:Generated_Source\PSoC6\pdl\drivers/peripheral/tcpwm/cy_tcpwm.h **** #define CY_TCPWM_CNT_UP_INIT_VAL            (0x0U)
 355:Generated_Source\PSoC6\pdl\drivers/peripheral/tcpwm/cy_tcpwm.h **** /** Initial value for the counter in the Up/Down counting modes */
 356:Generated_Source\PSoC6\pdl\drivers/peripheral/tcpwm/cy_tcpwm.h **** #define CY_TCPWM_CNT_UP_DOWN_INIT_VAL       (0x1U)
 357:Generated_Source\PSoC6\pdl\drivers/peripheral/tcpwm/cy_tcpwm.h **** /** \} group_tcpwm_macros_common */
 358:Generated_Source\PSoC6\pdl\drivers/peripheral/tcpwm/cy_tcpwm.h **** 
 359:Generated_Source\PSoC6\pdl\drivers/peripheral/tcpwm/cy_tcpwm.h **** 
 360:Generated_Source\PSoC6\pdl\drivers/peripheral/tcpwm/cy_tcpwm.h **** /*******************************************************************************
 361:Generated_Source\PSoC6\pdl\drivers/peripheral/tcpwm/cy_tcpwm.h ****  * Enumerations
 362:Generated_Source\PSoC6\pdl\drivers/peripheral/tcpwm/cy_tcpwm.h ****  ******************************************************************************/
 363:Generated_Source\PSoC6\pdl\drivers/peripheral/tcpwm/cy_tcpwm.h **** 
 364:Generated_Source\PSoC6\pdl\drivers/peripheral/tcpwm/cy_tcpwm.h ****  /**
 365:Generated_Source\PSoC6\pdl\drivers/peripheral/tcpwm/cy_tcpwm.h **** * \addtogroup group_tcpwm_enums
 366:Generated_Source\PSoC6\pdl\drivers/peripheral/tcpwm/cy_tcpwm.h **** * \{
 367:Generated_Source\PSoC6\pdl\drivers/peripheral/tcpwm/cy_tcpwm.h **** */
 368:Generated_Source\PSoC6\pdl\drivers/peripheral/tcpwm/cy_tcpwm.h **** 
 369:Generated_Source\PSoC6\pdl\drivers/peripheral/tcpwm/cy_tcpwm.h **** /** TCPWM status definitions */
 370:Generated_Source\PSoC6\pdl\drivers/peripheral/tcpwm/cy_tcpwm.h **** typedef enum 
 371:Generated_Source\PSoC6\pdl\drivers/peripheral/tcpwm/cy_tcpwm.h **** {
 372:Generated_Source\PSoC6\pdl\drivers/peripheral/tcpwm/cy_tcpwm.h ****     CY_TCPWM_SUCCESS = 0x00U,                                           /**< Successful */
 373:Generated_Source\PSoC6\pdl\drivers/peripheral/tcpwm/cy_tcpwm.h ****     CY_TCPWM_BAD_PARAM = CY_TCPWM_ID | CY_PDL_STATUS_ERROR | 0x01U,     /**< One or more invalid pa
 374:Generated_Source\PSoC6\pdl\drivers/peripheral/tcpwm/cy_tcpwm.h **** } cy_en_tcpwm_status_t;
 375:Generated_Source\PSoC6\pdl\drivers/peripheral/tcpwm/cy_tcpwm.h **** /** \} group_tcpwm_enums */
 376:Generated_Source\PSoC6\pdl\drivers/peripheral/tcpwm/cy_tcpwm.h ****  
 377:Generated_Source\PSoC6\pdl\drivers/peripheral/tcpwm/cy_tcpwm.h **** /*******************************************************************************
 378:Generated_Source\PSoC6\pdl\drivers/peripheral/tcpwm/cy_tcpwm.h **** *        Function Prototypes
 379:Generated_Source\PSoC6\pdl\drivers/peripheral/tcpwm/cy_tcpwm.h **** *******************************************************************************/
 380:Generated_Source\PSoC6\pdl\drivers/peripheral/tcpwm/cy_tcpwm.h **** 
 381:Generated_Source\PSoC6\pdl\drivers/peripheral/tcpwm/cy_tcpwm.h **** /**
 382:Generated_Source\PSoC6\pdl\drivers/peripheral/tcpwm/cy_tcpwm.h **** * \addtogroup group_tcpwm_functions_common
 383:Generated_Source\PSoC6\pdl\drivers/peripheral/tcpwm/cy_tcpwm.h **** * \{
 384:Generated_Source\PSoC6\pdl\drivers/peripheral/tcpwm/cy_tcpwm.h **** */
 385:Generated_Source\PSoC6\pdl\drivers/peripheral/tcpwm/cy_tcpwm.h **** 
 386:Generated_Source\PSoC6\pdl\drivers/peripheral/tcpwm/cy_tcpwm.h **** __STATIC_INLINE void Cy_TCPWM_Enable_Multiple(TCPWM_Type *base, uint32_t counters);
 387:Generated_Source\PSoC6\pdl\drivers/peripheral/tcpwm/cy_tcpwm.h **** __STATIC_INLINE void Cy_TCPWM_Disable_Multiple(TCPWM_Type *base, uint32_t counters);
 388:Generated_Source\PSoC6\pdl\drivers/peripheral/tcpwm/cy_tcpwm.h **** __STATIC_INLINE void Cy_TCPWM_TriggerStart(TCPWM_Type *base, uint32_t counters);
 389:Generated_Source\PSoC6\pdl\drivers/peripheral/tcpwm/cy_tcpwm.h **** __STATIC_INLINE void Cy_TCPWM_TriggerReloadOrIndex(TCPWM_Type *base, uint32_t counters);
 390:Generated_Source\PSoC6\pdl\drivers/peripheral/tcpwm/cy_tcpwm.h **** __STATIC_INLINE void Cy_TCPWM_TriggerStopOrKill(TCPWM_Type *base, uint32_t counters);
 391:Generated_Source\PSoC6\pdl\drivers/peripheral/tcpwm/cy_tcpwm.h **** __STATIC_INLINE void Cy_TCPWM_TriggerCaptureOrSwap(TCPWM_Type *base, uint32_t counters);
 392:Generated_Source\PSoC6\pdl\drivers/peripheral/tcpwm/cy_tcpwm.h **** __STATIC_INLINE uint32_t Cy_TCPWM_GetInterruptStatus(TCPWM_Type const *base, uint32_t cntNum);
 393:Generated_Source\PSoC6\pdl\drivers/peripheral/tcpwm/cy_tcpwm.h **** __STATIC_INLINE void Cy_TCPWM_ClearInterrupt(TCPWM_Type *base, uint32_t cntNum, uint32_t source);
 394:Generated_Source\PSoC6\pdl\drivers/peripheral/tcpwm/cy_tcpwm.h **** __STATIC_INLINE void Cy_TCPWM_SetInterrupt(TCPWM_Type *base, uint32_t cntNum, uint32_t source);
 395:Generated_Source\PSoC6\pdl\drivers/peripheral/tcpwm/cy_tcpwm.h **** __STATIC_INLINE void Cy_TCPWM_SetInterruptMask(TCPWM_Type *base, uint32_t cntNum, uint32_t mask);
 396:Generated_Source\PSoC6\pdl\drivers/peripheral/tcpwm/cy_tcpwm.h **** __STATIC_INLINE uint32_t Cy_TCPWM_GetInterruptMask(TCPWM_Type const *base, uint32_t cntNum);
 397:Generated_Source\PSoC6\pdl\drivers/peripheral/tcpwm/cy_tcpwm.h **** __STATIC_INLINE uint32_t Cy_TCPWM_GetInterruptStatusMasked(TCPWM_Type const *base, uint32_t cntNum)
 398:Generated_Source\PSoC6\pdl\drivers/peripheral/tcpwm/cy_tcpwm.h **** 
 399:Generated_Source\PSoC6\pdl\drivers/peripheral/tcpwm/cy_tcpwm.h **** 
 400:Generated_Source\PSoC6\pdl\drivers/peripheral/tcpwm/cy_tcpwm.h **** /*******************************************************************************
 401:Generated_Source\PSoC6\pdl\drivers/peripheral/tcpwm/cy_tcpwm.h **** * Function Name: Cy_TCPWM_Enable_Multiple
 402:Generated_Source\PSoC6\pdl\drivers/peripheral/tcpwm/cy_tcpwm.h **** ****************************************************************************//**
 403:Generated_Source\PSoC6\pdl\drivers/peripheral/tcpwm/cy_tcpwm.h **** *
 404:Generated_Source\PSoC6\pdl\drivers/peripheral/tcpwm/cy_tcpwm.h **** * Enables the counter(s) in the TCPWM block. Multiple blocks can be started 
ARM GAS  C:\Users\Smaug\AppData\Local\Temp\cc3T9BxE.s 			page 16


 405:Generated_Source\PSoC6\pdl\drivers/peripheral/tcpwm/cy_tcpwm.h **** * simultaneously.
 406:Generated_Source\PSoC6\pdl\drivers/peripheral/tcpwm/cy_tcpwm.h **** *
 407:Generated_Source\PSoC6\pdl\drivers/peripheral/tcpwm/cy_tcpwm.h **** * \param base
 408:Generated_Source\PSoC6\pdl\drivers/peripheral/tcpwm/cy_tcpwm.h **** * The pointer to a TCPWM instance.
 409:Generated_Source\PSoC6\pdl\drivers/peripheral/tcpwm/cy_tcpwm.h **** *
 410:Generated_Source\PSoC6\pdl\drivers/peripheral/tcpwm/cy_tcpwm.h **** * \param counters
 411:Generated_Source\PSoC6\pdl\drivers/peripheral/tcpwm/cy_tcpwm.h **** * A bit field representing each counter in the TCPWM block.
 412:Generated_Source\PSoC6\pdl\drivers/peripheral/tcpwm/cy_tcpwm.h **** *
 413:Generated_Source\PSoC6\pdl\drivers/peripheral/tcpwm/cy_tcpwm.h **** * \funcusage
 414:Generated_Source\PSoC6\pdl\drivers/peripheral/tcpwm/cy_tcpwm.h **** * \snippet tcpwm\1.10\counter\snippet\main.c snippet_Cy_TCPWM_Enable_Multiple
 415:Generated_Source\PSoC6\pdl\drivers/peripheral/tcpwm/cy_tcpwm.h **** *
 416:Generated_Source\PSoC6\pdl\drivers/peripheral/tcpwm/cy_tcpwm.h **** *******************************************************************************/
 417:Generated_Source\PSoC6\pdl\drivers/peripheral/tcpwm/cy_tcpwm.h **** __STATIC_INLINE void Cy_TCPWM_Enable_Multiple(TCPWM_Type *base, uint32_t counters)
 418:Generated_Source\PSoC6\pdl\drivers/peripheral/tcpwm/cy_tcpwm.h **** {
 419:Generated_Source\PSoC6\pdl\drivers/peripheral/tcpwm/cy_tcpwm.h ****     TCPWM_CTRL_SET(base) = counters;
 288              		.loc 2 419 0
 289 000e 0123     		movs	r3, #1
 290 0010 A360     		str	r3, [r4, #8]
 291              	.LVL42:
 292              	.LBE33:
 293              	.LBE32:
 294              	.LBB34:
 295              	.LBB35:
 296              	.LBB36:
 297              		.file 3 "Generated_Source\\PSoC6\\pdl\\drivers/peripheral/tcpwm/cy_tcpwm_pwm.h"
   1:Generated_Source\PSoC6\pdl\drivers/peripheral/tcpwm/cy_tcpwm_pwm.h **** /***************************************************************************//**
   2:Generated_Source\PSoC6\pdl\drivers/peripheral/tcpwm/cy_tcpwm_pwm.h **** * \file cy_tcpwm_pwm.h
   3:Generated_Source\PSoC6\pdl\drivers/peripheral/tcpwm/cy_tcpwm_pwm.h **** * \version 1.10
   4:Generated_Source\PSoC6\pdl\drivers/peripheral/tcpwm/cy_tcpwm_pwm.h **** *
   5:Generated_Source\PSoC6\pdl\drivers/peripheral/tcpwm/cy_tcpwm_pwm.h **** * \brief
   6:Generated_Source\PSoC6\pdl\drivers/peripheral/tcpwm/cy_tcpwm_pwm.h **** * The header file of the TCPWM PWM driver.
   7:Generated_Source\PSoC6\pdl\drivers/peripheral/tcpwm/cy_tcpwm_pwm.h **** *
   8:Generated_Source\PSoC6\pdl\drivers/peripheral/tcpwm/cy_tcpwm_pwm.h **** ********************************************************************************
   9:Generated_Source\PSoC6\pdl\drivers/peripheral/tcpwm/cy_tcpwm_pwm.h **** * \copyright
  10:Generated_Source\PSoC6\pdl\drivers/peripheral/tcpwm/cy_tcpwm_pwm.h **** * Copyright 2016-2018, Cypress Semiconductor Corporation. All rights reserved.
  11:Generated_Source\PSoC6\pdl\drivers/peripheral/tcpwm/cy_tcpwm_pwm.h **** * You may use this file only in accordance with the license, terms, conditions,
  12:Generated_Source\PSoC6\pdl\drivers/peripheral/tcpwm/cy_tcpwm_pwm.h **** * disclaimers, and limitations in the end user license agreement accompanying
  13:Generated_Source\PSoC6\pdl\drivers/peripheral/tcpwm/cy_tcpwm_pwm.h **** * the software package with which this file was provided.
  14:Generated_Source\PSoC6\pdl\drivers/peripheral/tcpwm/cy_tcpwm_pwm.h **** *******************************************************************************/
  15:Generated_Source\PSoC6\pdl\drivers/peripheral/tcpwm/cy_tcpwm_pwm.h **** 
  16:Generated_Source\PSoC6\pdl\drivers/peripheral/tcpwm/cy_tcpwm_pwm.h **** #if !defined(CY_TCPWM_PWM_H)
  17:Generated_Source\PSoC6\pdl\drivers/peripheral/tcpwm/cy_tcpwm_pwm.h **** #define CY_TCPWM_PWM_H
  18:Generated_Source\PSoC6\pdl\drivers/peripheral/tcpwm/cy_tcpwm_pwm.h **** 
  19:Generated_Source\PSoC6\pdl\drivers/peripheral/tcpwm/cy_tcpwm_pwm.h **** #include "cy_tcpwm.h"
  20:Generated_Source\PSoC6\pdl\drivers/peripheral/tcpwm/cy_tcpwm_pwm.h **** 
  21:Generated_Source\PSoC6\pdl\drivers/peripheral/tcpwm/cy_tcpwm_pwm.h **** #if defined(__cplusplus)
  22:Generated_Source\PSoC6\pdl\drivers/peripheral/tcpwm/cy_tcpwm_pwm.h **** extern "C" {
  23:Generated_Source\PSoC6\pdl\drivers/peripheral/tcpwm/cy_tcpwm_pwm.h **** #endif
  24:Generated_Source\PSoC6\pdl\drivers/peripheral/tcpwm/cy_tcpwm_pwm.h **** 
  25:Generated_Source\PSoC6\pdl\drivers/peripheral/tcpwm/cy_tcpwm_pwm.h **** /**
  26:Generated_Source\PSoC6\pdl\drivers/peripheral/tcpwm/cy_tcpwm_pwm.h **** * \addtogroup group_tcpwm_pwm
  27:Generated_Source\PSoC6\pdl\drivers/peripheral/tcpwm/cy_tcpwm_pwm.h **** * Driver API for PWM.
  28:Generated_Source\PSoC6\pdl\drivers/peripheral/tcpwm/cy_tcpwm_pwm.h **** *
  29:Generated_Source\PSoC6\pdl\drivers/peripheral/tcpwm/cy_tcpwm_pwm.h **** * The functions and other declarations used in this part of the driver are in cy_tcpwm_pwm.h. 
  30:Generated_Source\PSoC6\pdl\drivers/peripheral/tcpwm/cy_tcpwm_pwm.h **** * You can also include cy_pdl.h (ModusToolbox only) to get access to all  
  31:Generated_Source\PSoC6\pdl\drivers/peripheral/tcpwm/cy_tcpwm_pwm.h **** * functions and declarations in the PDL.
  32:Generated_Source\PSoC6\pdl\drivers/peripheral/tcpwm/cy_tcpwm_pwm.h **** * \{
ARM GAS  C:\Users\Smaug\AppData\Local\Temp\cc3T9BxE.s 			page 17


  33:Generated_Source\PSoC6\pdl\drivers/peripheral/tcpwm/cy_tcpwm_pwm.h **** */
  34:Generated_Source\PSoC6\pdl\drivers/peripheral/tcpwm/cy_tcpwm_pwm.h **** 
  35:Generated_Source\PSoC6\pdl\drivers/peripheral/tcpwm/cy_tcpwm_pwm.h **** /**
  36:Generated_Source\PSoC6\pdl\drivers/peripheral/tcpwm/cy_tcpwm_pwm.h **** * \defgroup group_tcpwm_macros_pwm          Macros
  37:Generated_Source\PSoC6\pdl\drivers/peripheral/tcpwm/cy_tcpwm_pwm.h **** * \defgroup group_tcpwm_functions_pwm       Functions
  38:Generated_Source\PSoC6\pdl\drivers/peripheral/tcpwm/cy_tcpwm_pwm.h **** * \defgroup group_tcpwm_data_structures_pwm Data Structures
  39:Generated_Source\PSoC6\pdl\drivers/peripheral/tcpwm/cy_tcpwm_pwm.h **** * \} */
  40:Generated_Source\PSoC6\pdl\drivers/peripheral/tcpwm/cy_tcpwm_pwm.h **** 
  41:Generated_Source\PSoC6\pdl\drivers/peripheral/tcpwm/cy_tcpwm_pwm.h **** /**
  42:Generated_Source\PSoC6\pdl\drivers/peripheral/tcpwm/cy_tcpwm_pwm.h **** * \addtogroup group_tcpwm_data_structures_pwm
  43:Generated_Source\PSoC6\pdl\drivers/peripheral/tcpwm/cy_tcpwm_pwm.h **** * \{
  44:Generated_Source\PSoC6\pdl\drivers/peripheral/tcpwm/cy_tcpwm_pwm.h **** */
  45:Generated_Source\PSoC6\pdl\drivers/peripheral/tcpwm/cy_tcpwm_pwm.h **** 
  46:Generated_Source\PSoC6\pdl\drivers/peripheral/tcpwm/cy_tcpwm_pwm.h **** /** PWM configuration structure */
  47:Generated_Source\PSoC6\pdl\drivers/peripheral/tcpwm/cy_tcpwm_pwm.h **** typedef struct cy_stc_tcpwm_pwm_config
  48:Generated_Source\PSoC6\pdl\drivers/peripheral/tcpwm/cy_tcpwm_pwm.h **** {
  49:Generated_Source\PSoC6\pdl\drivers/peripheral/tcpwm/cy_tcpwm_pwm.h ****     uint32_t    pwmMode;            /**< Sets the PWM mode. See \ref group_tcpwm_pwm_modes */
  50:Generated_Source\PSoC6\pdl\drivers/peripheral/tcpwm/cy_tcpwm_pwm.h ****     /** Sets the clock prescaler inside the TCWPM block. See \ref group_tcpwm_pwm_clk_prescalers */
  51:Generated_Source\PSoC6\pdl\drivers/peripheral/tcpwm/cy_tcpwm_pwm.h ****     uint32_t     clockPrescaler;
  52:Generated_Source\PSoC6\pdl\drivers/peripheral/tcpwm/cy_tcpwm_pwm.h ****     uint32_t    pwmAlignment;       /**< Sets the PWM alignment. See \ref group_tcpwm_pwm_alignment
  53:Generated_Source\PSoC6\pdl\drivers/peripheral/tcpwm/cy_tcpwm_pwm.h ****     uint32_t    deadTimeClocks;     /**< The number of dead time-clocks if PWM with dead time is ch
  54:Generated_Source\PSoC6\pdl\drivers/peripheral/tcpwm/cy_tcpwm_pwm.h ****     uint32_t    runMode;            /**< Sets the PWM run mode. See \ref group_tcpwm_pwm_run_modes 
  55:Generated_Source\PSoC6\pdl\drivers/peripheral/tcpwm/cy_tcpwm_pwm.h ****     uint32_t    period0;            /**< Sets the period0 of the pwm */
  56:Generated_Source\PSoC6\pdl\drivers/peripheral/tcpwm/cy_tcpwm_pwm.h ****     uint32_t    period1;            /**< Sets the period1 of the pwm */
  57:Generated_Source\PSoC6\pdl\drivers/peripheral/tcpwm/cy_tcpwm_pwm.h ****     bool        enablePeriodSwap;   /**< Enables swapping of period 0 and period 1 on terminal coun
  58:Generated_Source\PSoC6\pdl\drivers/peripheral/tcpwm/cy_tcpwm_pwm.h ****     uint32_t    compare0;           /**< Sets the value for Compare0 */
  59:Generated_Source\PSoC6\pdl\drivers/peripheral/tcpwm/cy_tcpwm_pwm.h ****     uint32_t    compare1;           /**< Sets the value for Compare1 */
  60:Generated_Source\PSoC6\pdl\drivers/peripheral/tcpwm/cy_tcpwm_pwm.h ****     bool        enableCompareSwap;  /**< If enabled, the compare values are swapped on the terminal
  61:Generated_Source\PSoC6\pdl\drivers/peripheral/tcpwm/cy_tcpwm_pwm.h ****     /** Enables an interrupt on the terminal count, capture or compare. See \ref group_tcpwm_interr
  62:Generated_Source\PSoC6\pdl\drivers/peripheral/tcpwm/cy_tcpwm_pwm.h ****     uint32_t    interruptSources;
  63:Generated_Source\PSoC6\pdl\drivers/peripheral/tcpwm/cy_tcpwm_pwm.h ****     uint32_t    invertPWMOut;       /**< Inverts the PWM output */
  64:Generated_Source\PSoC6\pdl\drivers/peripheral/tcpwm/cy_tcpwm_pwm.h ****     uint32_t    invertPWMOutN;      /**< Inverts the PWM_n output */
  65:Generated_Source\PSoC6\pdl\drivers/peripheral/tcpwm/cy_tcpwm_pwm.h ****     uint32_t    killMode;           /**< Configures the PWM kill modes. See \ref group_tcpwm_pwm_ki
  66:Generated_Source\PSoC6\pdl\drivers/peripheral/tcpwm/cy_tcpwm_pwm.h ****     uint32_t    swapInputMode;      /**< Configures how the swap input behaves. See \ref group_tcpw
  67:Generated_Source\PSoC6\pdl\drivers/peripheral/tcpwm/cy_tcpwm_pwm.h ****     /** Selects which input the swap uses. Inputs are device-specific. See \ref group_tcpwm_input_s
  68:Generated_Source\PSoC6\pdl\drivers/peripheral/tcpwm/cy_tcpwm_pwm.h ****     uint32_t    swapInput;
  69:Generated_Source\PSoC6\pdl\drivers/peripheral/tcpwm/cy_tcpwm_pwm.h ****     uint32_t    reloadInputMode;    /**< Configures how the reload input behaves. See \ref group_tc
  70:Generated_Source\PSoC6\pdl\drivers/peripheral/tcpwm/cy_tcpwm_pwm.h ****     /** Selects which input the reload uses. The inputs are device-specific. See \ref group_tcpwm_i
  71:Generated_Source\PSoC6\pdl\drivers/peripheral/tcpwm/cy_tcpwm_pwm.h ****     uint32_t    reloadInput;            
  72:Generated_Source\PSoC6\pdl\drivers/peripheral/tcpwm/cy_tcpwm_pwm.h ****     uint32_t    startInputMode;     /**< Configures how the start input behaves. See \ref group_tcp
  73:Generated_Source\PSoC6\pdl\drivers/peripheral/tcpwm/cy_tcpwm_pwm.h ****     /** Selects which input the start uses. The inputs are device-specific. See \ref group_tcpwm_in
  74:Generated_Source\PSoC6\pdl\drivers/peripheral/tcpwm/cy_tcpwm_pwm.h ****     uint32_t    startInput;                
  75:Generated_Source\PSoC6\pdl\drivers/peripheral/tcpwm/cy_tcpwm_pwm.h ****     uint32_t    killInputMode;      /**< Configures how the kill input behaves. See \ref group_tcpw
  76:Generated_Source\PSoC6\pdl\drivers/peripheral/tcpwm/cy_tcpwm_pwm.h ****     /** Selects which input the kill uses. The inputs are device-specific. See \ref group_tcpwm_inp
  77:Generated_Source\PSoC6\pdl\drivers/peripheral/tcpwm/cy_tcpwm_pwm.h ****     uint32_t    killInput;
  78:Generated_Source\PSoC6\pdl\drivers/peripheral/tcpwm/cy_tcpwm_pwm.h ****     uint32_t    countInputMode;     /**< Configures how the count input behaves. See \ref group_tcp
  79:Generated_Source\PSoC6\pdl\drivers/peripheral/tcpwm/cy_tcpwm_pwm.h ****     /** Selects which input the count uses. The inputs are device-specific. See \ref group_tcpwm_in
  80:Generated_Source\PSoC6\pdl\drivers/peripheral/tcpwm/cy_tcpwm_pwm.h ****     uint32_t    countInput;
  81:Generated_Source\PSoC6\pdl\drivers/peripheral/tcpwm/cy_tcpwm_pwm.h **** }cy_stc_tcpwm_pwm_config_t;
  82:Generated_Source\PSoC6\pdl\drivers/peripheral/tcpwm/cy_tcpwm_pwm.h **** /** \} group_tcpwm_data_structures_pwm */
  83:Generated_Source\PSoC6\pdl\drivers/peripheral/tcpwm/cy_tcpwm_pwm.h **** 
  84:Generated_Source\PSoC6\pdl\drivers/peripheral/tcpwm/cy_tcpwm_pwm.h **** /**
  85:Generated_Source\PSoC6\pdl\drivers/peripheral/tcpwm/cy_tcpwm_pwm.h **** * \addtogroup group_tcpwm_macros_pwm
  86:Generated_Source\PSoC6\pdl\drivers/peripheral/tcpwm/cy_tcpwm_pwm.h **** * \{
  87:Generated_Source\PSoC6\pdl\drivers/peripheral/tcpwm/cy_tcpwm_pwm.h **** * \defgroup group_tcpwm_pwm_run_modes PWM run modes
  88:Generated_Source\PSoC6\pdl\drivers/peripheral/tcpwm/cy_tcpwm_pwm.h **** * \{
  89:Generated_Source\PSoC6\pdl\drivers/peripheral/tcpwm/cy_tcpwm_pwm.h **** * Run modes for the pwm timer.
ARM GAS  C:\Users\Smaug\AppData\Local\Temp\cc3T9BxE.s 			page 18


  90:Generated_Source\PSoC6\pdl\drivers/peripheral/tcpwm/cy_tcpwm_pwm.h **** */
  91:Generated_Source\PSoC6\pdl\drivers/peripheral/tcpwm/cy_tcpwm_pwm.h **** #define CY_TCPWM_PWM_ONESHOT            (1U)    /**< Counter runs once and then stops */
  92:Generated_Source\PSoC6\pdl\drivers/peripheral/tcpwm/cy_tcpwm_pwm.h **** #define CY_TCPWM_PWM_CONTINUOUS         (0U)    /**< Counter runs forever */
  93:Generated_Source\PSoC6\pdl\drivers/peripheral/tcpwm/cy_tcpwm_pwm.h **** /** \} group_tcpwm_pwm_run_modes */
  94:Generated_Source\PSoC6\pdl\drivers/peripheral/tcpwm/cy_tcpwm_pwm.h **** 
  95:Generated_Source\PSoC6\pdl\drivers/peripheral/tcpwm/cy_tcpwm_pwm.h **** /** \defgroup group_tcpwm_pwm_modes PWM modes 
  96:Generated_Source\PSoC6\pdl\drivers/peripheral/tcpwm/cy_tcpwm_pwm.h **** * \{
  97:Generated_Source\PSoC6\pdl\drivers/peripheral/tcpwm/cy_tcpwm_pwm.h **** * Sets the PWM modes.
  98:Generated_Source\PSoC6\pdl\drivers/peripheral/tcpwm/cy_tcpwm_pwm.h **** */
  99:Generated_Source\PSoC6\pdl\drivers/peripheral/tcpwm/cy_tcpwm_pwm.h **** #define CY_TCPWM_PWM_MODE_PWM           (4U) /**< Standard PWM Mode*/
 100:Generated_Source\PSoC6\pdl\drivers/peripheral/tcpwm/cy_tcpwm_pwm.h **** #define CY_TCPWM_PWM_MODE_DEADTIME      (5U)    /**< PWM with deadtime mode*/
 101:Generated_Source\PSoC6\pdl\drivers/peripheral/tcpwm/cy_tcpwm_pwm.h **** #define CY_TCPWM_PWM_MODE_PSEUDORANDOM  (6U)    /**< Pseudo Random PWM */
 102:Generated_Source\PSoC6\pdl\drivers/peripheral/tcpwm/cy_tcpwm_pwm.h **** /** \} group_tcpwm_pwm_modes */
 103:Generated_Source\PSoC6\pdl\drivers/peripheral/tcpwm/cy_tcpwm_pwm.h **** 
 104:Generated_Source\PSoC6\pdl\drivers/peripheral/tcpwm/cy_tcpwm_pwm.h **** /** \defgroup group_tcpwm_pwm_alignment PWM Alignment
 105:Generated_Source\PSoC6\pdl\drivers/peripheral/tcpwm/cy_tcpwm_pwm.h **** * Sets the alignment of the PWM.
 106:Generated_Source\PSoC6\pdl\drivers/peripheral/tcpwm/cy_tcpwm_pwm.h **** * \{
 107:Generated_Source\PSoC6\pdl\drivers/peripheral/tcpwm/cy_tcpwm_pwm.h **** */
 108:Generated_Source\PSoC6\pdl\drivers/peripheral/tcpwm/cy_tcpwm_pwm.h **** #define CY_TCPWM_PWM_LEFT_ALIGN         (0U)     /**< PWM is left aligned, meaning it starts high *
 109:Generated_Source\PSoC6\pdl\drivers/peripheral/tcpwm/cy_tcpwm_pwm.h **** #define CY_TCPWM_PWM_RIGHT_ALIGN        (1U)        /**< PWM is right aligned, meaning it starts lo
 110:Generated_Source\PSoC6\pdl\drivers/peripheral/tcpwm/cy_tcpwm_pwm.h **** /** PWM is centered aligned, terminal count only occurs on underflow */
 111:Generated_Source\PSoC6\pdl\drivers/peripheral/tcpwm/cy_tcpwm_pwm.h **** #define CY_TCPWM_PWM_CENTER_ALIGN       (2U)
 112:Generated_Source\PSoC6\pdl\drivers/peripheral/tcpwm/cy_tcpwm_pwm.h **** /** PWM is asymmetrically aligned, terminal count occurs on overflow and underflow */
 113:Generated_Source\PSoC6\pdl\drivers/peripheral/tcpwm/cy_tcpwm_pwm.h **** #define CY_TCPWM_PWM_ASYMMETRIC_ALIGN   (3U)
 114:Generated_Source\PSoC6\pdl\drivers/peripheral/tcpwm/cy_tcpwm_pwm.h **** /** \} group_tcpwm_pwm_alignment */
 115:Generated_Source\PSoC6\pdl\drivers/peripheral/tcpwm/cy_tcpwm_pwm.h **** 
 116:Generated_Source\PSoC6\pdl\drivers/peripheral/tcpwm/cy_tcpwm_pwm.h **** /** \defgroup group_tcpwm_pwm_kill_modes PWM kill modes
 117:Generated_Source\PSoC6\pdl\drivers/peripheral/tcpwm/cy_tcpwm_pwm.h **** * Sets the kill mode for the PWM.
 118:Generated_Source\PSoC6\pdl\drivers/peripheral/tcpwm/cy_tcpwm_pwm.h **** * \{
 119:Generated_Source\PSoC6\pdl\drivers/peripheral/tcpwm/cy_tcpwm_pwm.h **** */
 120:Generated_Source\PSoC6\pdl\drivers/peripheral/tcpwm/cy_tcpwm_pwm.h **** #define CY_TCPWM_PWM_STOP_ON_KILL       (2U)    /**< PWM stops counting on kill */
 121:Generated_Source\PSoC6\pdl\drivers/peripheral/tcpwm/cy_tcpwm_pwm.h **** #define CY_TCPWM_PWM_SYNCH_KILL         (1U)    /**< PWM output is killed after next TC*/
 122:Generated_Source\PSoC6\pdl\drivers/peripheral/tcpwm/cy_tcpwm_pwm.h **** #define CY_TCPWM_PWM_ASYNC_KILL         (0U)    /**< PWM output is killed instantly */
 123:Generated_Source\PSoC6\pdl\drivers/peripheral/tcpwm/cy_tcpwm_pwm.h **** /** \} group_tcpwm_pwm_kill_modes */
 124:Generated_Source\PSoC6\pdl\drivers/peripheral/tcpwm/cy_tcpwm_pwm.h **** 
 125:Generated_Source\PSoC6\pdl\drivers/peripheral/tcpwm/cy_tcpwm_pwm.h **** /** \defgroup group_tcpwm_pwm_clk_prescalers PWM CLK Prescaler values
 126:Generated_Source\PSoC6\pdl\drivers/peripheral/tcpwm/cy_tcpwm_pwm.h **** * \{
 127:Generated_Source\PSoC6\pdl\drivers/peripheral/tcpwm/cy_tcpwm_pwm.h **** * Clock prescaler values.
 128:Generated_Source\PSoC6\pdl\drivers/peripheral/tcpwm/cy_tcpwm_pwm.h **** */
 129:Generated_Source\PSoC6\pdl\drivers/peripheral/tcpwm/cy_tcpwm_pwm.h **** #define CY_TCPWM_PWM_PRESCALER_DIVBY_1      (0U) /**< Divide by 1 */
 130:Generated_Source\PSoC6\pdl\drivers/peripheral/tcpwm/cy_tcpwm_pwm.h **** #define CY_TCPWM_PWM_PRESCALER_DIVBY_2      (1U) /**< Divide by 2 */
 131:Generated_Source\PSoC6\pdl\drivers/peripheral/tcpwm/cy_tcpwm_pwm.h **** #define CY_TCPWM_PWM_PRESCALER_DIVBY_4      (2U) /**< Divide by 4 */
 132:Generated_Source\PSoC6\pdl\drivers/peripheral/tcpwm/cy_tcpwm_pwm.h **** #define CY_TCPWM_PWM_PRESCALER_DIVBY_8      (3U) /**< Divide by 8 */
 133:Generated_Source\PSoC6\pdl\drivers/peripheral/tcpwm/cy_tcpwm_pwm.h **** #define CY_TCPWM_PWM_PRESCALER_DIVBY_16     (4U) /**< Divide by 16 */
 134:Generated_Source\PSoC6\pdl\drivers/peripheral/tcpwm/cy_tcpwm_pwm.h **** #define CY_TCPWM_PWM_PRESCALER_DIVBY_32     (5U) /**< Divide by 32 */
 135:Generated_Source\PSoC6\pdl\drivers/peripheral/tcpwm/cy_tcpwm_pwm.h **** #define CY_TCPWM_PWM_PRESCALER_DIVBY_64     (6U) /**< Divide by 64 */
 136:Generated_Source\PSoC6\pdl\drivers/peripheral/tcpwm/cy_tcpwm_pwm.h **** #define CY_TCPWM_PWM_PRESCALER_DIVBY_128    (7U) /**< Divide by 128 */
 137:Generated_Source\PSoC6\pdl\drivers/peripheral/tcpwm/cy_tcpwm_pwm.h **** /** \} group_tcpwm_pwm_clk_prescalers */
 138:Generated_Source\PSoC6\pdl\drivers/peripheral/tcpwm/cy_tcpwm_pwm.h **** 
 139:Generated_Source\PSoC6\pdl\drivers/peripheral/tcpwm/cy_tcpwm_pwm.h **** /** \defgroup group_tcpwm_pwm_output_invert PWM output invert
 140:Generated_Source\PSoC6\pdl\drivers/peripheral/tcpwm/cy_tcpwm_pwm.h **** * \{
 141:Generated_Source\PSoC6\pdl\drivers/peripheral/tcpwm/cy_tcpwm_pwm.h **** * Output invert modes.
 142:Generated_Source\PSoC6\pdl\drivers/peripheral/tcpwm/cy_tcpwm_pwm.h **** */
 143:Generated_Source\PSoC6\pdl\drivers/peripheral/tcpwm/cy_tcpwm_pwm.h **** #define CY_TCPWM_PWM_INVERT_ENABLE          (1U)  /**< Invert the output mode */
 144:Generated_Source\PSoC6\pdl\drivers/peripheral/tcpwm/cy_tcpwm_pwm.h **** #define CY_TCPWM_PWM_INVERT_DISABLE         (0U)  /**< Do not invert the output mode */
 145:Generated_Source\PSoC6\pdl\drivers/peripheral/tcpwm/cy_tcpwm_pwm.h **** /** \} group_tcpwm_pwm_output_invert */
 146:Generated_Source\PSoC6\pdl\drivers/peripheral/tcpwm/cy_tcpwm_pwm.h **** 
ARM GAS  C:\Users\Smaug\AppData\Local\Temp\cc3T9BxE.s 			page 19


 147:Generated_Source\PSoC6\pdl\drivers/peripheral/tcpwm/cy_tcpwm_pwm.h **** /** \defgroup group_tcpwm_pwm_status PWM Status
 148:Generated_Source\PSoC6\pdl\drivers/peripheral/tcpwm/cy_tcpwm_pwm.h **** * \{
 149:Generated_Source\PSoC6\pdl\drivers/peripheral/tcpwm/cy_tcpwm_pwm.h **** * The counter status.
 150:Generated_Source\PSoC6\pdl\drivers/peripheral/tcpwm/cy_tcpwm_pwm.h **** */
 151:Generated_Source\PSoC6\pdl\drivers/peripheral/tcpwm/cy_tcpwm_pwm.h **** #define CY_TCPWM_PWM_STATUS_DOWN_COUNTING   (0x1UL)        /**< PWM is down counting */
 152:Generated_Source\PSoC6\pdl\drivers/peripheral/tcpwm/cy_tcpwm_pwm.h **** #define CY_TCPWM_PWM_STATUS_UP_COUNTING     (0x2UL)        /**< PWM is up counting */
 153:Generated_Source\PSoC6\pdl\drivers/peripheral/tcpwm/cy_tcpwm_pwm.h **** #define CY_TCPWM_PWM_STATUS_COUNTER_RUNNING (TCPWM_CNT_STATUS_RUNNING_Msk)     /**< PWM counter is 
 154:Generated_Source\PSoC6\pdl\drivers/peripheral/tcpwm/cy_tcpwm_pwm.h **** /** \} group_tcpwm_pwm_status */
 155:Generated_Source\PSoC6\pdl\drivers/peripheral/tcpwm/cy_tcpwm_pwm.h **** /** \} group_tcpwm_macros_pwm */
 156:Generated_Source\PSoC6\pdl\drivers/peripheral/tcpwm/cy_tcpwm_pwm.h **** 
 157:Generated_Source\PSoC6\pdl\drivers/peripheral/tcpwm/cy_tcpwm_pwm.h **** 
 158:Generated_Source\PSoC6\pdl\drivers/peripheral/tcpwm/cy_tcpwm_pwm.h **** /***************************************
 159:Generated_Source\PSoC6\pdl\drivers/peripheral/tcpwm/cy_tcpwm_pwm.h **** *        Registers Constants
 160:Generated_Source\PSoC6\pdl\drivers/peripheral/tcpwm/cy_tcpwm_pwm.h **** ***************************************/
 161:Generated_Source\PSoC6\pdl\drivers/peripheral/tcpwm/cy_tcpwm_pwm.h **** 
 162:Generated_Source\PSoC6\pdl\drivers/peripheral/tcpwm/cy_tcpwm_pwm.h **** /** \cond INTERNAL */
 163:Generated_Source\PSoC6\pdl\drivers/peripheral/tcpwm/cy_tcpwm_pwm.h **** #define CY_TCPWM_PWM_CTRL_SYNC_KILL_OR_STOP_ON_KILL_POS  (2U)
 164:Generated_Source\PSoC6\pdl\drivers/peripheral/tcpwm/cy_tcpwm_pwm.h **** #define CY_TCPWM_PWM_CTRL_SYNC_KILL_OR_STOP_ON_KILL_MASK (0x3UL << CY_TCPWM_PWM_CTRL_SYNC_KILL_OR_S
 165:Generated_Source\PSoC6\pdl\drivers/peripheral/tcpwm/cy_tcpwm_pwm.h **** 
 166:Generated_Source\PSoC6\pdl\drivers/peripheral/tcpwm/cy_tcpwm_pwm.h **** #define CY_TCPWM_PWM_TR_CTRL2_SET           (0UL) /**< Set define for PWM output signal configurati
 167:Generated_Source\PSoC6\pdl\drivers/peripheral/tcpwm/cy_tcpwm_pwm.h **** #define CY_TCPWM_PWM_TR_CTRL2_CLEAR         (1UL) /**< Clear define for PWM output signal configura
 168:Generated_Source\PSoC6\pdl\drivers/peripheral/tcpwm/cy_tcpwm_pwm.h **** #define CY_TCPWM_PWM_TR_CTRL2_INVERT        (2UL) /**< Invert define for PWM output signal configur
 169:Generated_Source\PSoC6\pdl\drivers/peripheral/tcpwm/cy_tcpwm_pwm.h **** #define CY_TCPWM_PWM_TR_CTRL2_NO_CHANGE     (3UL) /**< No change define for PWM output signal confi
 170:Generated_Source\PSoC6\pdl\drivers/peripheral/tcpwm/cy_tcpwm_pwm.h **** 
 171:Generated_Source\PSoC6\pdl\drivers/peripheral/tcpwm/cy_tcpwm_pwm.h **** /** The configuration of PWM output signal in Pseudo Random Mode */
 172:Generated_Source\PSoC6\pdl\drivers/peripheral/tcpwm/cy_tcpwm_pwm.h **** #define CY_TCPWM_PWM_MODE_PR         (_VAL2FLD(TCPWM_CNT_TR_CTRL2_CC_MATCH_MODE, CY_TCPWM_PWM_TR_CT
 173:Generated_Source\PSoC6\pdl\drivers/peripheral/tcpwm/cy_tcpwm_pwm.h ****                                       _VAL2FLD(TCPWM_CNT_TR_CTRL2_OVERFLOW_MODE, CY_TCPWM_PWM_TR_CT
 174:Generated_Source\PSoC6\pdl\drivers/peripheral/tcpwm/cy_tcpwm_pwm.h ****                                       _VAL2FLD(TCPWM_CNT_TR_CTRL2_UNDERFLOW_MODE, CY_TCPWM_PWM_TR_C
 175:Generated_Source\PSoC6\pdl\drivers/peripheral/tcpwm/cy_tcpwm_pwm.h **** 
 176:Generated_Source\PSoC6\pdl\drivers/peripheral/tcpwm/cy_tcpwm_pwm.h **** /** The configuration of PWM output signal for Left alignment */
 177:Generated_Source\PSoC6\pdl\drivers/peripheral/tcpwm/cy_tcpwm_pwm.h **** #define CY_TCPWM_PWM_MODE_LEFT       (_VAL2FLD(TCPWM_CNT_TR_CTRL2_CC_MATCH_MODE, CY_TCPWM_PWM_TR_CT
 178:Generated_Source\PSoC6\pdl\drivers/peripheral/tcpwm/cy_tcpwm_pwm.h ****                                       _VAL2FLD(TCPWM_CNT_TR_CTRL2_OVERFLOW_MODE, CY_TCPWM_PWM_TR_CT
 179:Generated_Source\PSoC6\pdl\drivers/peripheral/tcpwm/cy_tcpwm_pwm.h ****                                       _VAL2FLD(TCPWM_CNT_TR_CTRL2_UNDERFLOW_MODE, CY_TCPWM_PWM_TR_C
 180:Generated_Source\PSoC6\pdl\drivers/peripheral/tcpwm/cy_tcpwm_pwm.h **** 
 181:Generated_Source\PSoC6\pdl\drivers/peripheral/tcpwm/cy_tcpwm_pwm.h **** /** The configuration of PWM output signal for Right alignment */
 182:Generated_Source\PSoC6\pdl\drivers/peripheral/tcpwm/cy_tcpwm_pwm.h **** #define CY_TCPWM_PWM_MODE_RIGHT      (_VAL2FLD(TCPWM_CNT_TR_CTRL2_CC_MATCH_MODE, CY_TCPWM_PWM_TR_CT
 183:Generated_Source\PSoC6\pdl\drivers/peripheral/tcpwm/cy_tcpwm_pwm.h ****                                       _VAL2FLD(TCPWM_CNT_TR_CTRL2_OVERFLOW_MODE, CY_TCPWM_PWM_TR_CT
 184:Generated_Source\PSoC6\pdl\drivers/peripheral/tcpwm/cy_tcpwm_pwm.h ****                                       _VAL2FLD(TCPWM_CNT_TR_CTRL2_UNDERFLOW_MODE, CY_TCPWM_PWM_TR_C
 185:Generated_Source\PSoC6\pdl\drivers/peripheral/tcpwm/cy_tcpwm_pwm.h **** 
 186:Generated_Source\PSoC6\pdl\drivers/peripheral/tcpwm/cy_tcpwm_pwm.h **** /** The configuration of PWM output signal for Center and Asymmetric alignment */
 187:Generated_Source\PSoC6\pdl\drivers/peripheral/tcpwm/cy_tcpwm_pwm.h **** #define CY_TCPWM_PWM_MODE_CNTR_OR_ASYMM (_VAL2FLD(TCPWM_CNT_TR_CTRL2_CC_MATCH_MODE, CY_TCPWM_PWM_TR
 188:Generated_Source\PSoC6\pdl\drivers/peripheral/tcpwm/cy_tcpwm_pwm.h ****                                          _VAL2FLD(TCPWM_CNT_TR_CTRL2_OVERFLOW_MODE, CY_TCPWM_PWM_TR
 189:Generated_Source\PSoC6\pdl\drivers/peripheral/tcpwm/cy_tcpwm_pwm.h ****                                          _VAL2FLD(TCPWM_CNT_TR_CTRL2_UNDERFLOW_MODE, CY_TCPWM_PWM_T
 190:Generated_Source\PSoC6\pdl\drivers/peripheral/tcpwm/cy_tcpwm_pwm.h **** /** \endcond */
 191:Generated_Source\PSoC6\pdl\drivers/peripheral/tcpwm/cy_tcpwm_pwm.h **** 
 192:Generated_Source\PSoC6\pdl\drivers/peripheral/tcpwm/cy_tcpwm_pwm.h **** 
 193:Generated_Source\PSoC6\pdl\drivers/peripheral/tcpwm/cy_tcpwm_pwm.h **** /*******************************************************************************
 194:Generated_Source\PSoC6\pdl\drivers/peripheral/tcpwm/cy_tcpwm_pwm.h **** *        Function Prototypes
 195:Generated_Source\PSoC6\pdl\drivers/peripheral/tcpwm/cy_tcpwm_pwm.h **** *******************************************************************************/
 196:Generated_Source\PSoC6\pdl\drivers/peripheral/tcpwm/cy_tcpwm_pwm.h **** 
 197:Generated_Source\PSoC6\pdl\drivers/peripheral/tcpwm/cy_tcpwm_pwm.h **** /**
 198:Generated_Source\PSoC6\pdl\drivers/peripheral/tcpwm/cy_tcpwm_pwm.h **** * \addtogroup group_tcpwm_functions_pwm
 199:Generated_Source\PSoC6\pdl\drivers/peripheral/tcpwm/cy_tcpwm_pwm.h **** * \{
 200:Generated_Source\PSoC6\pdl\drivers/peripheral/tcpwm/cy_tcpwm_pwm.h **** */
 201:Generated_Source\PSoC6\pdl\drivers/peripheral/tcpwm/cy_tcpwm_pwm.h **** 
 202:Generated_Source\PSoC6\pdl\drivers/peripheral/tcpwm/cy_tcpwm_pwm.h **** cy_en_tcpwm_status_t Cy_TCPWM_PWM_Init(TCPWM_Type *base, uint32_t cntNum, cy_stc_tcpwm_pwm_config_t
 203:Generated_Source\PSoC6\pdl\drivers/peripheral/tcpwm/cy_tcpwm_pwm.h **** void Cy_TCPWM_PWM_DeInit(TCPWM_Type *base, uint32_t cntNum, cy_stc_tcpwm_pwm_config_t const *config
ARM GAS  C:\Users\Smaug\AppData\Local\Temp\cc3T9BxE.s 			page 20


 204:Generated_Source\PSoC6\pdl\drivers/peripheral/tcpwm/cy_tcpwm_pwm.h **** __STATIC_INLINE void Cy_TCPWM_PWM_Enable(TCPWM_Type *base, uint32_t cntNum);
 205:Generated_Source\PSoC6\pdl\drivers/peripheral/tcpwm/cy_tcpwm_pwm.h **** __STATIC_INLINE void Cy_TCPWM_PWM_Disable(TCPWM_Type *base, uint32_t cntNum);
 206:Generated_Source\PSoC6\pdl\drivers/peripheral/tcpwm/cy_tcpwm_pwm.h **** __STATIC_INLINE uint32_t Cy_TCPWM_PWM_GetStatus(TCPWM_Type const *base, uint32_t cntNum);
 207:Generated_Source\PSoC6\pdl\drivers/peripheral/tcpwm/cy_tcpwm_pwm.h **** __STATIC_INLINE void Cy_TCPWM_PWM_SetCompare0(TCPWM_Type *base, uint32_t cntNum, uint32_t compare0)
 208:Generated_Source\PSoC6\pdl\drivers/peripheral/tcpwm/cy_tcpwm_pwm.h **** __STATIC_INLINE uint32_t Cy_TCPWM_PWM_GetCompare0(TCPWM_Type const *base, uint32_t cntNum);
 209:Generated_Source\PSoC6\pdl\drivers/peripheral/tcpwm/cy_tcpwm_pwm.h **** __STATIC_INLINE void Cy_TCPWM_PWM_SetCompare1(TCPWM_Type *base, uint32_t cntNum, uint32_t compare1)
 210:Generated_Source\PSoC6\pdl\drivers/peripheral/tcpwm/cy_tcpwm_pwm.h **** __STATIC_INLINE uint32_t Cy_TCPWM_PWM_GetCompare1(TCPWM_Type const *base, uint32_t cntNum);
 211:Generated_Source\PSoC6\pdl\drivers/peripheral/tcpwm/cy_tcpwm_pwm.h **** __STATIC_INLINE void Cy_TCPWM_PWM_EnableCompareSwap(TCPWM_Type *base, uint32_t cntNum, bool enable)
 212:Generated_Source\PSoC6\pdl\drivers/peripheral/tcpwm/cy_tcpwm_pwm.h **** __STATIC_INLINE void Cy_TCPWM_PWM_SetCounter(TCPWM_Type *base, uint32_t cntNum, uint32_t count);
 213:Generated_Source\PSoC6\pdl\drivers/peripheral/tcpwm/cy_tcpwm_pwm.h **** __STATIC_INLINE uint32_t Cy_TCPWM_PWM_GetCounter(TCPWM_Type const *base, uint32_t cntNum);
 214:Generated_Source\PSoC6\pdl\drivers/peripheral/tcpwm/cy_tcpwm_pwm.h **** __STATIC_INLINE void Cy_TCPWM_PWM_SetPeriod0(TCPWM_Type *base, uint32_t cntNum, uint32_t period0);
 215:Generated_Source\PSoC6\pdl\drivers/peripheral/tcpwm/cy_tcpwm_pwm.h **** __STATIC_INLINE uint32_t Cy_TCPWM_PWM_GetPeriod0(TCPWM_Type const *base, uint32_t cntNum);
 216:Generated_Source\PSoC6\pdl\drivers/peripheral/tcpwm/cy_tcpwm_pwm.h **** __STATIC_INLINE void Cy_TCPWM_PWM_SetPeriod1(TCPWM_Type *base, uint32_t cntNum, uint32_t period1);
 217:Generated_Source\PSoC6\pdl\drivers/peripheral/tcpwm/cy_tcpwm_pwm.h **** __STATIC_INLINE uint32_t Cy_TCPWM_PWM_GetPeriod1(TCPWM_Type const *base, uint32_t cntNum);
 218:Generated_Source\PSoC6\pdl\drivers/peripheral/tcpwm/cy_tcpwm_pwm.h **** __STATIC_INLINE void Cy_TCPWM_PWM_EnablePeriodSwap(TCPWM_Type *base, uint32_t cntNum, bool enable);
 219:Generated_Source\PSoC6\pdl\drivers/peripheral/tcpwm/cy_tcpwm_pwm.h **** 
 220:Generated_Source\PSoC6\pdl\drivers/peripheral/tcpwm/cy_tcpwm_pwm.h **** 
 221:Generated_Source\PSoC6\pdl\drivers/peripheral/tcpwm/cy_tcpwm_pwm.h **** /*******************************************************************************
 222:Generated_Source\PSoC6\pdl\drivers/peripheral/tcpwm/cy_tcpwm_pwm.h **** * Function Name: Cy_TCPWM_PWM_Enable
 223:Generated_Source\PSoC6\pdl\drivers/peripheral/tcpwm/cy_tcpwm_pwm.h **** ****************************************************************************//**
 224:Generated_Source\PSoC6\pdl\drivers/peripheral/tcpwm/cy_tcpwm_pwm.h **** *
 225:Generated_Source\PSoC6\pdl\drivers/peripheral/tcpwm/cy_tcpwm_pwm.h **** * Enables the counter in the TCPWM block for the PWM operation.
 226:Generated_Source\PSoC6\pdl\drivers/peripheral/tcpwm/cy_tcpwm_pwm.h **** *
 227:Generated_Source\PSoC6\pdl\drivers/peripheral/tcpwm/cy_tcpwm_pwm.h **** * \param base
 228:Generated_Source\PSoC6\pdl\drivers/peripheral/tcpwm/cy_tcpwm_pwm.h **** * The pointer to a TCPWM instance.
 229:Generated_Source\PSoC6\pdl\drivers/peripheral/tcpwm/cy_tcpwm_pwm.h **** *
 230:Generated_Source\PSoC6\pdl\drivers/peripheral/tcpwm/cy_tcpwm_pwm.h **** * \param cntNum 
 231:Generated_Source\PSoC6\pdl\drivers/peripheral/tcpwm/cy_tcpwm_pwm.h **** * The Counter instance number in the selected TCPWM.
 232:Generated_Source\PSoC6\pdl\drivers/peripheral/tcpwm/cy_tcpwm_pwm.h **** *
 233:Generated_Source\PSoC6\pdl\drivers/peripheral/tcpwm/cy_tcpwm_pwm.h **** * \funcusage
 234:Generated_Source\PSoC6\pdl\drivers/peripheral/tcpwm/cy_tcpwm_pwm.h **** * \snippet tcpwm\1.10\pwm\snippet\main.c snippet_Cy_TCPWM_PWM_Init
 235:Generated_Source\PSoC6\pdl\drivers/peripheral/tcpwm/cy_tcpwm_pwm.h **** *
 236:Generated_Source\PSoC6\pdl\drivers/peripheral/tcpwm/cy_tcpwm_pwm.h **** *******************************************************************************/
 237:Generated_Source\PSoC6\pdl\drivers/peripheral/tcpwm/cy_tcpwm_pwm.h **** __STATIC_INLINE void Cy_TCPWM_PWM_Enable(TCPWM_Type *base, uint32_t cntNum)
 238:Generated_Source\PSoC6\pdl\drivers/peripheral/tcpwm/cy_tcpwm_pwm.h **** {
 239:Generated_Source\PSoC6\pdl\drivers/peripheral/tcpwm/cy_tcpwm_pwm.h ****     TCPWM_CTRL_SET(base) = (1UL << cntNum);
 240:Generated_Source\PSoC6\pdl\drivers/peripheral/tcpwm/cy_tcpwm_pwm.h **** }
 241:Generated_Source\PSoC6\pdl\drivers/peripheral/tcpwm/cy_tcpwm_pwm.h **** 
 242:Generated_Source\PSoC6\pdl\drivers/peripheral/tcpwm/cy_tcpwm_pwm.h **** /*******************************************************************************
 243:Generated_Source\PSoC6\pdl\drivers/peripheral/tcpwm/cy_tcpwm_pwm.h **** * Function Name: Cy_TCPWM_PWM_Disable
 244:Generated_Source\PSoC6\pdl\drivers/peripheral/tcpwm/cy_tcpwm_pwm.h **** ****************************************************************************//**
 245:Generated_Source\PSoC6\pdl\drivers/peripheral/tcpwm/cy_tcpwm_pwm.h **** *
 246:Generated_Source\PSoC6\pdl\drivers/peripheral/tcpwm/cy_tcpwm_pwm.h **** * Disables the counter in the TCPWM block.
 247:Generated_Source\PSoC6\pdl\drivers/peripheral/tcpwm/cy_tcpwm_pwm.h **** *
 248:Generated_Source\PSoC6\pdl\drivers/peripheral/tcpwm/cy_tcpwm_pwm.h **** * \param base
 249:Generated_Source\PSoC6\pdl\drivers/peripheral/tcpwm/cy_tcpwm_pwm.h **** * The pointer to a TCPWM instance.
 250:Generated_Source\PSoC6\pdl\drivers/peripheral/tcpwm/cy_tcpwm_pwm.h **** *
 251:Generated_Source\PSoC6\pdl\drivers/peripheral/tcpwm/cy_tcpwm_pwm.h **** * \param cntNum 
 252:Generated_Source\PSoC6\pdl\drivers/peripheral/tcpwm/cy_tcpwm_pwm.h **** * The Counter instance number in the selected TCPWM.
 253:Generated_Source\PSoC6\pdl\drivers/peripheral/tcpwm/cy_tcpwm_pwm.h **** *
 254:Generated_Source\PSoC6\pdl\drivers/peripheral/tcpwm/cy_tcpwm_pwm.h **** * \funcusage
 255:Generated_Source\PSoC6\pdl\drivers/peripheral/tcpwm/cy_tcpwm_pwm.h **** * \snippet tcpwm\1.10\pwm\snippet\main.c snippet_Cy_TCPWM_PWM_DeInit
 256:Generated_Source\PSoC6\pdl\drivers/peripheral/tcpwm/cy_tcpwm_pwm.h **** *
 257:Generated_Source\PSoC6\pdl\drivers/peripheral/tcpwm/cy_tcpwm_pwm.h **** *******************************************************************************/
 258:Generated_Source\PSoC6\pdl\drivers/peripheral/tcpwm/cy_tcpwm_pwm.h **** __STATIC_INLINE void Cy_TCPWM_PWM_Disable(TCPWM_Type *base, uint32_t cntNum)
 259:Generated_Source\PSoC6\pdl\drivers/peripheral/tcpwm/cy_tcpwm_pwm.h **** {
 260:Generated_Source\PSoC6\pdl\drivers/peripheral/tcpwm/cy_tcpwm_pwm.h ****     TCPWM_CTRL_CLR(base) = (1UL << cntNum);
ARM GAS  C:\Users\Smaug\AppData\Local\Temp\cc3T9BxE.s 			page 21


 261:Generated_Source\PSoC6\pdl\drivers/peripheral/tcpwm/cy_tcpwm_pwm.h **** }
 262:Generated_Source\PSoC6\pdl\drivers/peripheral/tcpwm/cy_tcpwm_pwm.h **** 
 263:Generated_Source\PSoC6\pdl\drivers/peripheral/tcpwm/cy_tcpwm_pwm.h **** 
 264:Generated_Source\PSoC6\pdl\drivers/peripheral/tcpwm/cy_tcpwm_pwm.h **** /*******************************************************************************
 265:Generated_Source\PSoC6\pdl\drivers/peripheral/tcpwm/cy_tcpwm_pwm.h **** * Function Name: Cy_TCPWM_PWM_GetStatus
 266:Generated_Source\PSoC6\pdl\drivers/peripheral/tcpwm/cy_tcpwm_pwm.h **** ****************************************************************************//**
 267:Generated_Source\PSoC6\pdl\drivers/peripheral/tcpwm/cy_tcpwm_pwm.h **** *
 268:Generated_Source\PSoC6\pdl\drivers/peripheral/tcpwm/cy_tcpwm_pwm.h **** * Returns the status of the PWM.
 269:Generated_Source\PSoC6\pdl\drivers/peripheral/tcpwm/cy_tcpwm_pwm.h **** *
 270:Generated_Source\PSoC6\pdl\drivers/peripheral/tcpwm/cy_tcpwm_pwm.h **** * \param base
 271:Generated_Source\PSoC6\pdl\drivers/peripheral/tcpwm/cy_tcpwm_pwm.h **** * The pointer to a TCPWM instance.
 272:Generated_Source\PSoC6\pdl\drivers/peripheral/tcpwm/cy_tcpwm_pwm.h **** *
 273:Generated_Source\PSoC6\pdl\drivers/peripheral/tcpwm/cy_tcpwm_pwm.h **** * \param cntNum 
 274:Generated_Source\PSoC6\pdl\drivers/peripheral/tcpwm/cy_tcpwm_pwm.h **** * The Counter instance number in the selected TCPWM.
 275:Generated_Source\PSoC6\pdl\drivers/peripheral/tcpwm/cy_tcpwm_pwm.h **** *
 276:Generated_Source\PSoC6\pdl\drivers/peripheral/tcpwm/cy_tcpwm_pwm.h **** * \return
 277:Generated_Source\PSoC6\pdl\drivers/peripheral/tcpwm/cy_tcpwm_pwm.h **** * The status. See \ref group_tcpwm_pwm_status
 278:Generated_Source\PSoC6\pdl\drivers/peripheral/tcpwm/cy_tcpwm_pwm.h **** *
 279:Generated_Source\PSoC6\pdl\drivers/peripheral/tcpwm/cy_tcpwm_pwm.h **** * \funcusage
 280:Generated_Source\PSoC6\pdl\drivers/peripheral/tcpwm/cy_tcpwm_pwm.h **** * \snippet tcpwm\1.10\pwm\snippet\main.c snippet_Cy_TCPWM_PWM_GetStatus
 281:Generated_Source\PSoC6\pdl\drivers/peripheral/tcpwm/cy_tcpwm_pwm.h **** *
 282:Generated_Source\PSoC6\pdl\drivers/peripheral/tcpwm/cy_tcpwm_pwm.h **** *******************************************************************************/
 283:Generated_Source\PSoC6\pdl\drivers/peripheral/tcpwm/cy_tcpwm_pwm.h **** __STATIC_INLINE uint32_t Cy_TCPWM_PWM_GetStatus(TCPWM_Type const *base, uint32_t cntNum)
 284:Generated_Source\PSoC6\pdl\drivers/peripheral/tcpwm/cy_tcpwm_pwm.h **** {
 285:Generated_Source\PSoC6\pdl\drivers/peripheral/tcpwm/cy_tcpwm_pwm.h ****     uint32_t status = TCPWM_CNT_STATUS(base, cntNum);
 286:Generated_Source\PSoC6\pdl\drivers/peripheral/tcpwm/cy_tcpwm_pwm.h ****     
 287:Generated_Source\PSoC6\pdl\drivers/peripheral/tcpwm/cy_tcpwm_pwm.h ****     /* Generates proper up counting status, does not generated by HW */
 288:Generated_Source\PSoC6\pdl\drivers/peripheral/tcpwm/cy_tcpwm_pwm.h ****     status &= ~CY_TCPWM_PWM_STATUS_UP_COUNTING;
 289:Generated_Source\PSoC6\pdl\drivers/peripheral/tcpwm/cy_tcpwm_pwm.h ****     status |= ((~status & CY_TCPWM_PWM_STATUS_DOWN_COUNTING & (status >> TCPWM_CNT_STATUS_RUNNING_P
 290:Generated_Source\PSoC6\pdl\drivers/peripheral/tcpwm/cy_tcpwm_pwm.h ****                CY_TCPWM_CNT_STATUS_UP_POS);
 291:Generated_Source\PSoC6\pdl\drivers/peripheral/tcpwm/cy_tcpwm_pwm.h ****     
 292:Generated_Source\PSoC6\pdl\drivers/peripheral/tcpwm/cy_tcpwm_pwm.h ****     return(status);
 293:Generated_Source\PSoC6\pdl\drivers/peripheral/tcpwm/cy_tcpwm_pwm.h **** }
 294:Generated_Source\PSoC6\pdl\drivers/peripheral/tcpwm/cy_tcpwm_pwm.h **** 
 295:Generated_Source\PSoC6\pdl\drivers/peripheral/tcpwm/cy_tcpwm_pwm.h **** 
 296:Generated_Source\PSoC6\pdl\drivers/peripheral/tcpwm/cy_tcpwm_pwm.h **** /*******************************************************************************
 297:Generated_Source\PSoC6\pdl\drivers/peripheral/tcpwm/cy_tcpwm_pwm.h **** * Function Name: Cy_TCPWM_PWM_SetCompare0
 298:Generated_Source\PSoC6\pdl\drivers/peripheral/tcpwm/cy_tcpwm_pwm.h **** ****************************************************************************//**
 299:Generated_Source\PSoC6\pdl\drivers/peripheral/tcpwm/cy_tcpwm_pwm.h **** *
 300:Generated_Source\PSoC6\pdl\drivers/peripheral/tcpwm/cy_tcpwm_pwm.h **** * Sets the compare value for Compare0 when the compare mode enabled.
 301:Generated_Source\PSoC6\pdl\drivers/peripheral/tcpwm/cy_tcpwm_pwm.h **** *
 302:Generated_Source\PSoC6\pdl\drivers/peripheral/tcpwm/cy_tcpwm_pwm.h **** * \param base
 303:Generated_Source\PSoC6\pdl\drivers/peripheral/tcpwm/cy_tcpwm_pwm.h **** * The pointer to a TCPWM instance.
 304:Generated_Source\PSoC6\pdl\drivers/peripheral/tcpwm/cy_tcpwm_pwm.h **** *
 305:Generated_Source\PSoC6\pdl\drivers/peripheral/tcpwm/cy_tcpwm_pwm.h **** * \param cntNum 
 306:Generated_Source\PSoC6\pdl\drivers/peripheral/tcpwm/cy_tcpwm_pwm.h **** * The Counter instance number in the selected TCPWM.
 307:Generated_Source\PSoC6\pdl\drivers/peripheral/tcpwm/cy_tcpwm_pwm.h **** *
 308:Generated_Source\PSoC6\pdl\drivers/peripheral/tcpwm/cy_tcpwm_pwm.h **** * \param compare0
 309:Generated_Source\PSoC6\pdl\drivers/peripheral/tcpwm/cy_tcpwm_pwm.h **** * The Compare0 value.
 310:Generated_Source\PSoC6\pdl\drivers/peripheral/tcpwm/cy_tcpwm_pwm.h **** *
 311:Generated_Source\PSoC6\pdl\drivers/peripheral/tcpwm/cy_tcpwm_pwm.h **** * \funcusage
 312:Generated_Source\PSoC6\pdl\drivers/peripheral/tcpwm/cy_tcpwm_pwm.h **** * \snippet tcpwm\1.10\pwm\snippet\main.c snippet_Cy_TCPWM_PWM_SetCompare0
 313:Generated_Source\PSoC6\pdl\drivers/peripheral/tcpwm/cy_tcpwm_pwm.h **** *
 314:Generated_Source\PSoC6\pdl\drivers/peripheral/tcpwm/cy_tcpwm_pwm.h **** *******************************************************************************/
 315:Generated_Source\PSoC6\pdl\drivers/peripheral/tcpwm/cy_tcpwm_pwm.h **** __STATIC_INLINE void Cy_TCPWM_PWM_SetCompare0(TCPWM_Type *base, uint32_t cntNum,  uint32_t compare0
 316:Generated_Source\PSoC6\pdl\drivers/peripheral/tcpwm/cy_tcpwm_pwm.h **** {
 317:Generated_Source\PSoC6\pdl\drivers/peripheral/tcpwm/cy_tcpwm_pwm.h ****     TCPWM_CNT_CC(base, cntNum) = compare0;
ARM GAS  C:\Users\Smaug\AppData\Local\Temp\cc3T9BxE.s 			page 22


 298              		.loc 3 317 0
 299 0012 0022     		movs	r2, #0
 300 0014 C4F80C21 		str	r2, [r4, #268]
 301              	.LVL43:
 302              	.LBE36:
 303              	.LBE35:
 304              	.LBE34:
 305              	.LBB37:
 306              	.LBB38:
 420:Generated_Source\PSoC6\pdl\drivers/peripheral/tcpwm/cy_tcpwm.h **** }
 421:Generated_Source\PSoC6\pdl\drivers/peripheral/tcpwm/cy_tcpwm.h **** 
 422:Generated_Source\PSoC6\pdl\drivers/peripheral/tcpwm/cy_tcpwm.h **** 
 423:Generated_Source\PSoC6\pdl\drivers/peripheral/tcpwm/cy_tcpwm.h **** /*******************************************************************************
 424:Generated_Source\PSoC6\pdl\drivers/peripheral/tcpwm/cy_tcpwm.h **** * Function Name: Cy_TCPWM_Disable_Multiple
 425:Generated_Source\PSoC6\pdl\drivers/peripheral/tcpwm/cy_tcpwm.h **** ****************************************************************************//**
 426:Generated_Source\PSoC6\pdl\drivers/peripheral/tcpwm/cy_tcpwm.h **** *
 427:Generated_Source\PSoC6\pdl\drivers/peripheral/tcpwm/cy_tcpwm.h **** * Disables the counter(s) in the TCPWM block. Multiple TCPWM can be disabled 
 428:Generated_Source\PSoC6\pdl\drivers/peripheral/tcpwm/cy_tcpwm.h **** * simultaneously.
 429:Generated_Source\PSoC6\pdl\drivers/peripheral/tcpwm/cy_tcpwm.h **** *
 430:Generated_Source\PSoC6\pdl\drivers/peripheral/tcpwm/cy_tcpwm.h **** * \param base
 431:Generated_Source\PSoC6\pdl\drivers/peripheral/tcpwm/cy_tcpwm.h **** * The pointer to a TCPWM instance.
 432:Generated_Source\PSoC6\pdl\drivers/peripheral/tcpwm/cy_tcpwm.h **** *
 433:Generated_Source\PSoC6\pdl\drivers/peripheral/tcpwm/cy_tcpwm.h **** * \param counters
 434:Generated_Source\PSoC6\pdl\drivers/peripheral/tcpwm/cy_tcpwm.h **** * A bit field representing each counter in the TCPWM block.
 435:Generated_Source\PSoC6\pdl\drivers/peripheral/tcpwm/cy_tcpwm.h **** *
 436:Generated_Source\PSoC6\pdl\drivers/peripheral/tcpwm/cy_tcpwm.h **** * \funcusage
 437:Generated_Source\PSoC6\pdl\drivers/peripheral/tcpwm/cy_tcpwm.h **** * \snippet tcpwm\1.10\counter\snippet\main.c snippet_Cy_TCPWM_Disable_Multiple
 438:Generated_Source\PSoC6\pdl\drivers/peripheral/tcpwm/cy_tcpwm.h **** *
 439:Generated_Source\PSoC6\pdl\drivers/peripheral/tcpwm/cy_tcpwm.h **** *******************************************************************************/
 440:Generated_Source\PSoC6\pdl\drivers/peripheral/tcpwm/cy_tcpwm.h **** __STATIC_INLINE void Cy_TCPWM_Disable_Multiple(TCPWM_Type *base, uint32_t counters)
 441:Generated_Source\PSoC6\pdl\drivers/peripheral/tcpwm/cy_tcpwm.h **** {
 442:Generated_Source\PSoC6\pdl\drivers/peripheral/tcpwm/cy_tcpwm.h ****     TCPWM_CTRL_CLR(base) = counters;
 443:Generated_Source\PSoC6\pdl\drivers/peripheral/tcpwm/cy_tcpwm.h **** }
 444:Generated_Source\PSoC6\pdl\drivers/peripheral/tcpwm/cy_tcpwm.h **** 
 445:Generated_Source\PSoC6\pdl\drivers/peripheral/tcpwm/cy_tcpwm.h **** 
 446:Generated_Source\PSoC6\pdl\drivers/peripheral/tcpwm/cy_tcpwm.h **** /*******************************************************************************
 447:Generated_Source\PSoC6\pdl\drivers/peripheral/tcpwm/cy_tcpwm.h **** * Function Name: Cy_TCPWM_TriggerStart
 448:Generated_Source\PSoC6\pdl\drivers/peripheral/tcpwm/cy_tcpwm.h **** ****************************************************************************//**
 449:Generated_Source\PSoC6\pdl\drivers/peripheral/tcpwm/cy_tcpwm.h **** *
 450:Generated_Source\PSoC6\pdl\drivers/peripheral/tcpwm/cy_tcpwm.h **** * Triggers a software start on the selected TCPWMs.
 451:Generated_Source\PSoC6\pdl\drivers/peripheral/tcpwm/cy_tcpwm.h **** *
 452:Generated_Source\PSoC6\pdl\drivers/peripheral/tcpwm/cy_tcpwm.h **** * \param base
 453:Generated_Source\PSoC6\pdl\drivers/peripheral/tcpwm/cy_tcpwm.h **** * The pointer to a TCPWM instance.
 454:Generated_Source\PSoC6\pdl\drivers/peripheral/tcpwm/cy_tcpwm.h **** *
 455:Generated_Source\PSoC6\pdl\drivers/peripheral/tcpwm/cy_tcpwm.h **** * \param counters
 456:Generated_Source\PSoC6\pdl\drivers/peripheral/tcpwm/cy_tcpwm.h **** * A bit field representing each counter in the TCPWM block.
 457:Generated_Source\PSoC6\pdl\drivers/peripheral/tcpwm/cy_tcpwm.h **** *
 458:Generated_Source\PSoC6\pdl\drivers/peripheral/tcpwm/cy_tcpwm.h **** * \funcusage
 459:Generated_Source\PSoC6\pdl\drivers/peripheral/tcpwm/cy_tcpwm.h **** * \snippet tcpwm\1.10\counter\snippet\main.c snippet_Cy_TCPWM_Enable_Multiple
 460:Generated_Source\PSoC6\pdl\drivers/peripheral/tcpwm/cy_tcpwm.h **** *
 461:Generated_Source\PSoC6\pdl\drivers/peripheral/tcpwm/cy_tcpwm.h **** *******************************************************************************/
 462:Generated_Source\PSoC6\pdl\drivers/peripheral/tcpwm/cy_tcpwm.h **** __STATIC_INLINE  void Cy_TCPWM_TriggerStart(TCPWM_Type *base, uint32_t counters)
 463:Generated_Source\PSoC6\pdl\drivers/peripheral/tcpwm/cy_tcpwm.h **** {
 464:Generated_Source\PSoC6\pdl\drivers/peripheral/tcpwm/cy_tcpwm.h ****     TCPWM_CMD_START(base) = counters;
 307              		.loc 2 464 0
 308 0018 A361     		str	r3, [r4, #24]
 309              	.LVL44:
ARM GAS  C:\Users\Smaug\AppData\Local\Temp\cc3T9BxE.s 			page 23


 310 001a 10BD     		pop	{r4, pc}
 311              	.L21:
 312              		.align	2
 313              	.L20:
 314 001c 00003840 		.word	1077411840
 315 0020 00000000 		.word	PWM_Buz_config
 316              	.LBE38:
 317              	.LBE37:
 318              		.cfi_endproc
 319              	.LFE757:
 320              		.size	Sound_Init, .-Sound_Init
 321              		.section	.text.Sound_WriteTone,"ax",%progbits
 322              		.align	2
 323              		.global	Sound_WriteTone
 324              		.thumb
 325              		.thumb_func
 326              		.type	Sound_WriteTone, %function
 327              	Sound_WriteTone:
 328              	.LFB758:
  91:car.c         ****     uint32_t period;
 329              		.loc 1 91 0
 330              		.cfi_startproc
 331              		@ args = 0, pretend = 0, frame = 0
 332              		@ frame_needed = 0, uses_anonymous_args = 0
 333              		@ link register save eliminated.
 334              	.LVL45:
  93:car.c         ****     {
 335              		.loc 1 93 0
 336 0000 0346     		mov	r3, r0
 337 0002 60B1     		cbz	r0, .L23
  95:car.c         ****         PWM_Buz_SetPeriod0(period);
 338              		.loc 1 95 0
 339 0004 0848     		ldr	r0, .L25
 340              	.LVL46:
 341 0006 B0FBF3F0 		udiv	r0, r0, r3
 342              	.LVL47:
 343              	.LBB39:
 344              	.LBB40:
 345              	.LBB41:
 318:Generated_Source\PSoC6\pdl\drivers/peripheral/tcpwm/cy_tcpwm_pwm.h **** }
 319:Generated_Source\PSoC6\pdl\drivers/peripheral/tcpwm/cy_tcpwm_pwm.h **** 
 320:Generated_Source\PSoC6\pdl\drivers/peripheral/tcpwm/cy_tcpwm_pwm.h **** 
 321:Generated_Source\PSoC6\pdl\drivers/peripheral/tcpwm/cy_tcpwm_pwm.h **** /*******************************************************************************
 322:Generated_Source\PSoC6\pdl\drivers/peripheral/tcpwm/cy_tcpwm_pwm.h **** * Function Name: Cy_TCPWM_PWM_GetCompare0
 323:Generated_Source\PSoC6\pdl\drivers/peripheral/tcpwm/cy_tcpwm_pwm.h **** ****************************************************************************//**
 324:Generated_Source\PSoC6\pdl\drivers/peripheral/tcpwm/cy_tcpwm_pwm.h **** *
 325:Generated_Source\PSoC6\pdl\drivers/peripheral/tcpwm/cy_tcpwm_pwm.h **** * Returns compare value 0.
 326:Generated_Source\PSoC6\pdl\drivers/peripheral/tcpwm/cy_tcpwm_pwm.h **** *
 327:Generated_Source\PSoC6\pdl\drivers/peripheral/tcpwm/cy_tcpwm_pwm.h **** * \param base
 328:Generated_Source\PSoC6\pdl\drivers/peripheral/tcpwm/cy_tcpwm_pwm.h **** * The pointer to a TCPWM instance.
 329:Generated_Source\PSoC6\pdl\drivers/peripheral/tcpwm/cy_tcpwm_pwm.h **** *
 330:Generated_Source\PSoC6\pdl\drivers/peripheral/tcpwm/cy_tcpwm_pwm.h **** * \param cntNum 
 331:Generated_Source\PSoC6\pdl\drivers/peripheral/tcpwm/cy_tcpwm_pwm.h **** * The Counter instance number in the selected TCPWM.
 332:Generated_Source\PSoC6\pdl\drivers/peripheral/tcpwm/cy_tcpwm_pwm.h **** *
 333:Generated_Source\PSoC6\pdl\drivers/peripheral/tcpwm/cy_tcpwm_pwm.h **** * \return
 334:Generated_Source\PSoC6\pdl\drivers/peripheral/tcpwm/cy_tcpwm_pwm.h **** * Compare value 0.
 335:Generated_Source\PSoC6\pdl\drivers/peripheral/tcpwm/cy_tcpwm_pwm.h **** *
ARM GAS  C:\Users\Smaug\AppData\Local\Temp\cc3T9BxE.s 			page 24


 336:Generated_Source\PSoC6\pdl\drivers/peripheral/tcpwm/cy_tcpwm_pwm.h **** * \funcusage
 337:Generated_Source\PSoC6\pdl\drivers/peripheral/tcpwm/cy_tcpwm_pwm.h **** * \snippet tcpwm\1.10\pwm\snippet\main.c snippet_Cy_TCPWM_PWM_SetCompare0
 338:Generated_Source\PSoC6\pdl\drivers/peripheral/tcpwm/cy_tcpwm_pwm.h **** *
 339:Generated_Source\PSoC6\pdl\drivers/peripheral/tcpwm/cy_tcpwm_pwm.h **** *******************************************************************************/
 340:Generated_Source\PSoC6\pdl\drivers/peripheral/tcpwm/cy_tcpwm_pwm.h **** __STATIC_INLINE uint32_t Cy_TCPWM_PWM_GetCompare0(TCPWM_Type const *base, uint32_t cntNum)
 341:Generated_Source\PSoC6\pdl\drivers/peripheral/tcpwm/cy_tcpwm_pwm.h **** {
 342:Generated_Source\PSoC6\pdl\drivers/peripheral/tcpwm/cy_tcpwm_pwm.h ****     return(TCPWM_CNT_CC(base, cntNum));
 343:Generated_Source\PSoC6\pdl\drivers/peripheral/tcpwm/cy_tcpwm_pwm.h **** }
 344:Generated_Source\PSoC6\pdl\drivers/peripheral/tcpwm/cy_tcpwm_pwm.h **** 
 345:Generated_Source\PSoC6\pdl\drivers/peripheral/tcpwm/cy_tcpwm_pwm.h **** 
 346:Generated_Source\PSoC6\pdl\drivers/peripheral/tcpwm/cy_tcpwm_pwm.h **** /*******************************************************************************
 347:Generated_Source\PSoC6\pdl\drivers/peripheral/tcpwm/cy_tcpwm_pwm.h **** * Function Name: Cy_TCPWM_PWM_SetCompare1
 348:Generated_Source\PSoC6\pdl\drivers/peripheral/tcpwm/cy_tcpwm_pwm.h **** ****************************************************************************//**
 349:Generated_Source\PSoC6\pdl\drivers/peripheral/tcpwm/cy_tcpwm_pwm.h **** *
 350:Generated_Source\PSoC6\pdl\drivers/peripheral/tcpwm/cy_tcpwm_pwm.h **** * Sets the compare value for Compare1 when the compare mode is enabled.
 351:Generated_Source\PSoC6\pdl\drivers/peripheral/tcpwm/cy_tcpwm_pwm.h **** *
 352:Generated_Source\PSoC6\pdl\drivers/peripheral/tcpwm/cy_tcpwm_pwm.h **** * \param base
 353:Generated_Source\PSoC6\pdl\drivers/peripheral/tcpwm/cy_tcpwm_pwm.h **** * The pointer to a TCPWM instance.
 354:Generated_Source\PSoC6\pdl\drivers/peripheral/tcpwm/cy_tcpwm_pwm.h **** *
 355:Generated_Source\PSoC6\pdl\drivers/peripheral/tcpwm/cy_tcpwm_pwm.h **** * \param cntNum 
 356:Generated_Source\PSoC6\pdl\drivers/peripheral/tcpwm/cy_tcpwm_pwm.h **** * The Counter instance number in the selected TCPWM.
 357:Generated_Source\PSoC6\pdl\drivers/peripheral/tcpwm/cy_tcpwm_pwm.h **** *
 358:Generated_Source\PSoC6\pdl\drivers/peripheral/tcpwm/cy_tcpwm_pwm.h **** * \param compare1
 359:Generated_Source\PSoC6\pdl\drivers/peripheral/tcpwm/cy_tcpwm_pwm.h **** * The Compare1 value.
 360:Generated_Source\PSoC6\pdl\drivers/peripheral/tcpwm/cy_tcpwm_pwm.h **** *
 361:Generated_Source\PSoC6\pdl\drivers/peripheral/tcpwm/cy_tcpwm_pwm.h **** * \funcusage
 362:Generated_Source\PSoC6\pdl\drivers/peripheral/tcpwm/cy_tcpwm_pwm.h **** * \snippet tcpwm\1.10\pwm\snippet\main.c snippet_Cy_TCPWM_PWM_SetCompare1
 363:Generated_Source\PSoC6\pdl\drivers/peripheral/tcpwm/cy_tcpwm_pwm.h **** *
 364:Generated_Source\PSoC6\pdl\drivers/peripheral/tcpwm/cy_tcpwm_pwm.h **** *******************************************************************************/
 365:Generated_Source\PSoC6\pdl\drivers/peripheral/tcpwm/cy_tcpwm_pwm.h **** __STATIC_INLINE void Cy_TCPWM_PWM_SetCompare1(TCPWM_Type *base, uint32_t cntNum,  uint32_t compare1
 366:Generated_Source\PSoC6\pdl\drivers/peripheral/tcpwm/cy_tcpwm_pwm.h **** {
 367:Generated_Source\PSoC6\pdl\drivers/peripheral/tcpwm/cy_tcpwm_pwm.h ****     TCPWM_CNT_CC_BUFF(base, cntNum) = compare1;
 368:Generated_Source\PSoC6\pdl\drivers/peripheral/tcpwm/cy_tcpwm_pwm.h **** }
 369:Generated_Source\PSoC6\pdl\drivers/peripheral/tcpwm/cy_tcpwm_pwm.h **** 
 370:Generated_Source\PSoC6\pdl\drivers/peripheral/tcpwm/cy_tcpwm_pwm.h **** 
 371:Generated_Source\PSoC6\pdl\drivers/peripheral/tcpwm/cy_tcpwm_pwm.h **** /*******************************************************************************
 372:Generated_Source\PSoC6\pdl\drivers/peripheral/tcpwm/cy_tcpwm_pwm.h **** * Function Name: Cy_TCPWM_PWM_GetCompare1
 373:Generated_Source\PSoC6\pdl\drivers/peripheral/tcpwm/cy_tcpwm_pwm.h **** ****************************************************************************//**
 374:Generated_Source\PSoC6\pdl\drivers/peripheral/tcpwm/cy_tcpwm_pwm.h **** *
 375:Generated_Source\PSoC6\pdl\drivers/peripheral/tcpwm/cy_tcpwm_pwm.h **** * Returns compare value 1.
 376:Generated_Source\PSoC6\pdl\drivers/peripheral/tcpwm/cy_tcpwm_pwm.h **** *
 377:Generated_Source\PSoC6\pdl\drivers/peripheral/tcpwm/cy_tcpwm_pwm.h **** * \param base
 378:Generated_Source\PSoC6\pdl\drivers/peripheral/tcpwm/cy_tcpwm_pwm.h **** * The pointer to a TCPWM instance.
 379:Generated_Source\PSoC6\pdl\drivers/peripheral/tcpwm/cy_tcpwm_pwm.h **** *
 380:Generated_Source\PSoC6\pdl\drivers/peripheral/tcpwm/cy_tcpwm_pwm.h **** * \param cntNum 
 381:Generated_Source\PSoC6\pdl\drivers/peripheral/tcpwm/cy_tcpwm_pwm.h **** * The Counter instance number in the selected TCPWM.
 382:Generated_Source\PSoC6\pdl\drivers/peripheral/tcpwm/cy_tcpwm_pwm.h **** *
 383:Generated_Source\PSoC6\pdl\drivers/peripheral/tcpwm/cy_tcpwm_pwm.h **** * \return
 384:Generated_Source\PSoC6\pdl\drivers/peripheral/tcpwm/cy_tcpwm_pwm.h **** * Compare value 1.
 385:Generated_Source\PSoC6\pdl\drivers/peripheral/tcpwm/cy_tcpwm_pwm.h **** *
 386:Generated_Source\PSoC6\pdl\drivers/peripheral/tcpwm/cy_tcpwm_pwm.h **** * \funcusage
 387:Generated_Source\PSoC6\pdl\drivers/peripheral/tcpwm/cy_tcpwm_pwm.h **** * \snippet tcpwm\1.10\pwm\snippet\main.c snippet_Cy_TCPWM_PWM_SetCompare1
 388:Generated_Source\PSoC6\pdl\drivers/peripheral/tcpwm/cy_tcpwm_pwm.h **** *
 389:Generated_Source\PSoC6\pdl\drivers/peripheral/tcpwm/cy_tcpwm_pwm.h **** *******************************************************************************/
 390:Generated_Source\PSoC6\pdl\drivers/peripheral/tcpwm/cy_tcpwm_pwm.h **** __STATIC_INLINE uint32_t Cy_TCPWM_PWM_GetCompare1(TCPWM_Type const *base, uint32_t cntNum)
 391:Generated_Source\PSoC6\pdl\drivers/peripheral/tcpwm/cy_tcpwm_pwm.h **** {
 392:Generated_Source\PSoC6\pdl\drivers/peripheral/tcpwm/cy_tcpwm_pwm.h ****     return(TCPWM_CNT_CC_BUFF(base, cntNum));
ARM GAS  C:\Users\Smaug\AppData\Local\Temp\cc3T9BxE.s 			page 25


 393:Generated_Source\PSoC6\pdl\drivers/peripheral/tcpwm/cy_tcpwm_pwm.h **** }
 394:Generated_Source\PSoC6\pdl\drivers/peripheral/tcpwm/cy_tcpwm_pwm.h **** 
 395:Generated_Source\PSoC6\pdl\drivers/peripheral/tcpwm/cy_tcpwm_pwm.h **** 
 396:Generated_Source\PSoC6\pdl\drivers/peripheral/tcpwm/cy_tcpwm_pwm.h **** /*******************************************************************************
 397:Generated_Source\PSoC6\pdl\drivers/peripheral/tcpwm/cy_tcpwm_pwm.h **** * Function Name: Cy_TCPWM_PWM_EnableCompareSwap
 398:Generated_Source\PSoC6\pdl\drivers/peripheral/tcpwm/cy_tcpwm_pwm.h **** ****************************************************************************//**
 399:Generated_Source\PSoC6\pdl\drivers/peripheral/tcpwm/cy_tcpwm_pwm.h **** *
 400:Generated_Source\PSoC6\pdl\drivers/peripheral/tcpwm/cy_tcpwm_pwm.h **** * Enables the comparison swap on OV and/or UN, depending on the PWM alignment.
 401:Generated_Source\PSoC6\pdl\drivers/peripheral/tcpwm/cy_tcpwm_pwm.h **** *
 402:Generated_Source\PSoC6\pdl\drivers/peripheral/tcpwm/cy_tcpwm_pwm.h **** * \param base
 403:Generated_Source\PSoC6\pdl\drivers/peripheral/tcpwm/cy_tcpwm_pwm.h **** * The pointer to a TCPWM instance.
 404:Generated_Source\PSoC6\pdl\drivers/peripheral/tcpwm/cy_tcpwm_pwm.h **** *
 405:Generated_Source\PSoC6\pdl\drivers/peripheral/tcpwm/cy_tcpwm_pwm.h **** * \param cntNum 
 406:Generated_Source\PSoC6\pdl\drivers/peripheral/tcpwm/cy_tcpwm_pwm.h **** * The Counter instance number in the selected TCPWM.
 407:Generated_Source\PSoC6\pdl\drivers/peripheral/tcpwm/cy_tcpwm_pwm.h **** *
 408:Generated_Source\PSoC6\pdl\drivers/peripheral/tcpwm/cy_tcpwm_pwm.h **** * \param enable
 409:Generated_Source\PSoC6\pdl\drivers/peripheral/tcpwm/cy_tcpwm_pwm.h **** * true = swap enabled; false = swap disabled
 410:Generated_Source\PSoC6\pdl\drivers/peripheral/tcpwm/cy_tcpwm_pwm.h **** *
 411:Generated_Source\PSoC6\pdl\drivers/peripheral/tcpwm/cy_tcpwm_pwm.h **** * \funcusage
 412:Generated_Source\PSoC6\pdl\drivers/peripheral/tcpwm/cy_tcpwm_pwm.h **** * \snippet tcpwm\1.10\pwm\snippet\main.c snippet_Cy_TCPWM_PWM_EnableCompareSwap
 413:Generated_Source\PSoC6\pdl\drivers/peripheral/tcpwm/cy_tcpwm_pwm.h **** *
 414:Generated_Source\PSoC6\pdl\drivers/peripheral/tcpwm/cy_tcpwm_pwm.h **** *******************************************************************************/
 415:Generated_Source\PSoC6\pdl\drivers/peripheral/tcpwm/cy_tcpwm_pwm.h **** __STATIC_INLINE void Cy_TCPWM_PWM_EnableCompareSwap(TCPWM_Type *base, uint32_t cntNum,  bool enable
 416:Generated_Source\PSoC6\pdl\drivers/peripheral/tcpwm/cy_tcpwm_pwm.h **** {
 417:Generated_Source\PSoC6\pdl\drivers/peripheral/tcpwm/cy_tcpwm_pwm.h ****     if (enable)
 418:Generated_Source\PSoC6\pdl\drivers/peripheral/tcpwm/cy_tcpwm_pwm.h ****     {
 419:Generated_Source\PSoC6\pdl\drivers/peripheral/tcpwm/cy_tcpwm_pwm.h ****         TCPWM_CNT_CTRL(base, cntNum) |=  TCPWM_CNT_CTRL_AUTO_RELOAD_CC_Msk;
 420:Generated_Source\PSoC6\pdl\drivers/peripheral/tcpwm/cy_tcpwm_pwm.h ****     }
 421:Generated_Source\PSoC6\pdl\drivers/peripheral/tcpwm/cy_tcpwm_pwm.h ****     else
 422:Generated_Source\PSoC6\pdl\drivers/peripheral/tcpwm/cy_tcpwm_pwm.h ****     {
 423:Generated_Source\PSoC6\pdl\drivers/peripheral/tcpwm/cy_tcpwm_pwm.h ****         TCPWM_CNT_CTRL(base, cntNum) &= ~TCPWM_CNT_CTRL_AUTO_RELOAD_CC_Msk;
 424:Generated_Source\PSoC6\pdl\drivers/peripheral/tcpwm/cy_tcpwm_pwm.h ****     }
 425:Generated_Source\PSoC6\pdl\drivers/peripheral/tcpwm/cy_tcpwm_pwm.h **** }
 426:Generated_Source\PSoC6\pdl\drivers/peripheral/tcpwm/cy_tcpwm_pwm.h **** 
 427:Generated_Source\PSoC6\pdl\drivers/peripheral/tcpwm/cy_tcpwm_pwm.h **** 
 428:Generated_Source\PSoC6\pdl\drivers/peripheral/tcpwm/cy_tcpwm_pwm.h **** /*******************************************************************************
 429:Generated_Source\PSoC6\pdl\drivers/peripheral/tcpwm/cy_tcpwm_pwm.h **** * Function Name: Cy_TCPWM_PWM_SetCounter
 430:Generated_Source\PSoC6\pdl\drivers/peripheral/tcpwm/cy_tcpwm_pwm.h **** ****************************************************************************//**
 431:Generated_Source\PSoC6\pdl\drivers/peripheral/tcpwm/cy_tcpwm_pwm.h **** *
 432:Generated_Source\PSoC6\pdl\drivers/peripheral/tcpwm/cy_tcpwm_pwm.h **** * Sets the value of the counter.
 433:Generated_Source\PSoC6\pdl\drivers/peripheral/tcpwm/cy_tcpwm_pwm.h **** *
 434:Generated_Source\PSoC6\pdl\drivers/peripheral/tcpwm/cy_tcpwm_pwm.h **** * \param base
 435:Generated_Source\PSoC6\pdl\drivers/peripheral/tcpwm/cy_tcpwm_pwm.h **** * The pointer to a TCPWM instance.
 436:Generated_Source\PSoC6\pdl\drivers/peripheral/tcpwm/cy_tcpwm_pwm.h **** *
 437:Generated_Source\PSoC6\pdl\drivers/peripheral/tcpwm/cy_tcpwm_pwm.h **** * \param cntNum 
 438:Generated_Source\PSoC6\pdl\drivers/peripheral/tcpwm/cy_tcpwm_pwm.h **** * The Counter instance number in the selected TCPWM.
 439:Generated_Source\PSoC6\pdl\drivers/peripheral/tcpwm/cy_tcpwm_pwm.h **** *
 440:Generated_Source\PSoC6\pdl\drivers/peripheral/tcpwm/cy_tcpwm_pwm.h **** * \param count
 441:Generated_Source\PSoC6\pdl\drivers/peripheral/tcpwm/cy_tcpwm_pwm.h **** * The value to write into the counter.
 442:Generated_Source\PSoC6\pdl\drivers/peripheral/tcpwm/cy_tcpwm_pwm.h **** *
 443:Generated_Source\PSoC6\pdl\drivers/peripheral/tcpwm/cy_tcpwm_pwm.h **** * \funcusage
 444:Generated_Source\PSoC6\pdl\drivers/peripheral/tcpwm/cy_tcpwm_pwm.h **** * \snippet tcpwm\1.10\pwm\snippet\main.c snippet_Cy_TCPWM_PWM_SetCounter
 445:Generated_Source\PSoC6\pdl\drivers/peripheral/tcpwm/cy_tcpwm_pwm.h **** *
 446:Generated_Source\PSoC6\pdl\drivers/peripheral/tcpwm/cy_tcpwm_pwm.h **** *******************************************************************************/
 447:Generated_Source\PSoC6\pdl\drivers/peripheral/tcpwm/cy_tcpwm_pwm.h **** __STATIC_INLINE void Cy_TCPWM_PWM_SetCounter(TCPWM_Type *base, uint32_t cntNum,  uint32_t count)
 448:Generated_Source\PSoC6\pdl\drivers/peripheral/tcpwm/cy_tcpwm_pwm.h **** {
 449:Generated_Source\PSoC6\pdl\drivers/peripheral/tcpwm/cy_tcpwm_pwm.h ****     TCPWM_CNT_COUNTER(base, cntNum) = count;
ARM GAS  C:\Users\Smaug\AppData\Local\Temp\cc3T9BxE.s 			page 26


 450:Generated_Source\PSoC6\pdl\drivers/peripheral/tcpwm/cy_tcpwm_pwm.h **** }
 451:Generated_Source\PSoC6\pdl\drivers/peripheral/tcpwm/cy_tcpwm_pwm.h **** 
 452:Generated_Source\PSoC6\pdl\drivers/peripheral/tcpwm/cy_tcpwm_pwm.h **** 
 453:Generated_Source\PSoC6\pdl\drivers/peripheral/tcpwm/cy_tcpwm_pwm.h **** /*******************************************************************************
 454:Generated_Source\PSoC6\pdl\drivers/peripheral/tcpwm/cy_tcpwm_pwm.h **** * Function Name: Cy_TCPWM_PWM_GetCounter
 455:Generated_Source\PSoC6\pdl\drivers/peripheral/tcpwm/cy_tcpwm_pwm.h **** ****************************************************************************//**
 456:Generated_Source\PSoC6\pdl\drivers/peripheral/tcpwm/cy_tcpwm_pwm.h **** *
 457:Generated_Source\PSoC6\pdl\drivers/peripheral/tcpwm/cy_tcpwm_pwm.h **** * Returns the value in the counter.
 458:Generated_Source\PSoC6\pdl\drivers/peripheral/tcpwm/cy_tcpwm_pwm.h **** *
 459:Generated_Source\PSoC6\pdl\drivers/peripheral/tcpwm/cy_tcpwm_pwm.h **** * \param base
 460:Generated_Source\PSoC6\pdl\drivers/peripheral/tcpwm/cy_tcpwm_pwm.h **** * The pointer to a TCPWM instance.
 461:Generated_Source\PSoC6\pdl\drivers/peripheral/tcpwm/cy_tcpwm_pwm.h **** *
 462:Generated_Source\PSoC6\pdl\drivers/peripheral/tcpwm/cy_tcpwm_pwm.h **** * \param cntNum 
 463:Generated_Source\PSoC6\pdl\drivers/peripheral/tcpwm/cy_tcpwm_pwm.h **** * The Counter instance number in the selected TCPWM.
 464:Generated_Source\PSoC6\pdl\drivers/peripheral/tcpwm/cy_tcpwm_pwm.h **** *
 465:Generated_Source\PSoC6\pdl\drivers/peripheral/tcpwm/cy_tcpwm_pwm.h **** * \return
 466:Generated_Source\PSoC6\pdl\drivers/peripheral/tcpwm/cy_tcpwm_pwm.h **** * The current counter value.
 467:Generated_Source\PSoC6\pdl\drivers/peripheral/tcpwm/cy_tcpwm_pwm.h **** *
 468:Generated_Source\PSoC6\pdl\drivers/peripheral/tcpwm/cy_tcpwm_pwm.h **** * \funcusage
 469:Generated_Source\PSoC6\pdl\drivers/peripheral/tcpwm/cy_tcpwm_pwm.h **** * \snippet tcpwm\1.10\pwm\snippet\main.c snippet_Cy_TCPWM_PWM_GetCounter
 470:Generated_Source\PSoC6\pdl\drivers/peripheral/tcpwm/cy_tcpwm_pwm.h **** *
 471:Generated_Source\PSoC6\pdl\drivers/peripheral/tcpwm/cy_tcpwm_pwm.h **** *******************************************************************************/
 472:Generated_Source\PSoC6\pdl\drivers/peripheral/tcpwm/cy_tcpwm_pwm.h **** __STATIC_INLINE uint32_t Cy_TCPWM_PWM_GetCounter(TCPWM_Type const *base, uint32_t cntNum)
 473:Generated_Source\PSoC6\pdl\drivers/peripheral/tcpwm/cy_tcpwm_pwm.h **** {
 474:Generated_Source\PSoC6\pdl\drivers/peripheral/tcpwm/cy_tcpwm_pwm.h ****     return(TCPWM_CNT_COUNTER(base, cntNum));
 475:Generated_Source\PSoC6\pdl\drivers/peripheral/tcpwm/cy_tcpwm_pwm.h **** }
 476:Generated_Source\PSoC6\pdl\drivers/peripheral/tcpwm/cy_tcpwm_pwm.h **** 
 477:Generated_Source\PSoC6\pdl\drivers/peripheral/tcpwm/cy_tcpwm_pwm.h **** 
 478:Generated_Source\PSoC6\pdl\drivers/peripheral/tcpwm/cy_tcpwm_pwm.h **** /*******************************************************************************
 479:Generated_Source\PSoC6\pdl\drivers/peripheral/tcpwm/cy_tcpwm_pwm.h **** * Function Name: Cy_TCPWM_PWM_SetPeriod0
 480:Generated_Source\PSoC6\pdl\drivers/peripheral/tcpwm/cy_tcpwm_pwm.h **** ****************************************************************************//**
 481:Generated_Source\PSoC6\pdl\drivers/peripheral/tcpwm/cy_tcpwm_pwm.h **** *
 482:Generated_Source\PSoC6\pdl\drivers/peripheral/tcpwm/cy_tcpwm_pwm.h **** * Sets the value of the period register.
 483:Generated_Source\PSoC6\pdl\drivers/peripheral/tcpwm/cy_tcpwm_pwm.h **** *
 484:Generated_Source\PSoC6\pdl\drivers/peripheral/tcpwm/cy_tcpwm_pwm.h **** * \param base
 485:Generated_Source\PSoC6\pdl\drivers/peripheral/tcpwm/cy_tcpwm_pwm.h **** * The pointer to a TCPWM instance.
 486:Generated_Source\PSoC6\pdl\drivers/peripheral/tcpwm/cy_tcpwm_pwm.h **** *
 487:Generated_Source\PSoC6\pdl\drivers/peripheral/tcpwm/cy_tcpwm_pwm.h **** * \param cntNum 
 488:Generated_Source\PSoC6\pdl\drivers/peripheral/tcpwm/cy_tcpwm_pwm.h **** * The Counter instance number in the selected TCPWM.
 489:Generated_Source\PSoC6\pdl\drivers/peripheral/tcpwm/cy_tcpwm_pwm.h **** *
 490:Generated_Source\PSoC6\pdl\drivers/peripheral/tcpwm/cy_tcpwm_pwm.h **** * \param period0
 491:Generated_Source\PSoC6\pdl\drivers/peripheral/tcpwm/cy_tcpwm_pwm.h **** * The value to write into a period.
 492:Generated_Source\PSoC6\pdl\drivers/peripheral/tcpwm/cy_tcpwm_pwm.h **** *
 493:Generated_Source\PSoC6\pdl\drivers/peripheral/tcpwm/cy_tcpwm_pwm.h **** * \funcusage
 494:Generated_Source\PSoC6\pdl\drivers/peripheral/tcpwm/cy_tcpwm_pwm.h **** * \snippet tcpwm\1.10\pwm\snippet\main.c snippet_Cy_TCPWM_PWM_SetPeriod0
 495:Generated_Source\PSoC6\pdl\drivers/peripheral/tcpwm/cy_tcpwm_pwm.h **** *
 496:Generated_Source\PSoC6\pdl\drivers/peripheral/tcpwm/cy_tcpwm_pwm.h **** *******************************************************************************/
 497:Generated_Source\PSoC6\pdl\drivers/peripheral/tcpwm/cy_tcpwm_pwm.h **** __STATIC_INLINE void Cy_TCPWM_PWM_SetPeriod0(TCPWM_Type *base, uint32_t cntNum,  uint32_t period0)
 498:Generated_Source\PSoC6\pdl\drivers/peripheral/tcpwm/cy_tcpwm_pwm.h **** {
 499:Generated_Source\PSoC6\pdl\drivers/peripheral/tcpwm/cy_tcpwm_pwm.h ****     TCPWM_CNT_PERIOD(base, cntNum) = period0;
 346              		.loc 3 499 0
 347 000a 084B     		ldr	r3, .L25+4
 348              	.LVL48:
 349 000c C3F81401 		str	r0, [r3, #276]
 350              	.LVL49:
 351              	.LBE41:
 352              	.LBE40:
ARM GAS  C:\Users\Smaug\AppData\Local\Temp\cc3T9BxE.s 			page 27


 353              	.LBE39:
  97:car.c         ****         PWM_Buz_SetCounter(0);
 354              		.loc 1 97 0
 355 0010 4008     		lsrs	r0, r0, #1
 356              	.LVL50:
 357              	.LBB42:
 358              	.LBB43:
 359              	.LBB44:
 317:Generated_Source\PSoC6\pdl\drivers/peripheral/tcpwm/cy_tcpwm_pwm.h **** }
 360              		.loc 3 317 0
 361 0012 C3F80C01 		str	r0, [r3, #268]
 362              	.LVL51:
 363              	.LBE44:
 364              	.LBE43:
 365              	.LBE42:
 366              	.LBB45:
 367              	.LBB46:
 368              	.LBB47:
 449:Generated_Source\PSoC6\pdl\drivers/peripheral/tcpwm/cy_tcpwm_pwm.h **** }
 369              		.loc 3 449 0
 370 0016 0022     		movs	r2, #0
 371 0018 C3F80821 		str	r2, [r3, #264]
 372              	.LVL52:
 373 001c 7047     		bx	lr
 374              	.LVL53:
 375              	.L23:
 376              	.LBE47:
 377              	.LBE46:
 378              	.LBE45:
 379              	.LBB48:
 380              	.LBB49:
 381              	.LBB50:
 317:Generated_Source\PSoC6\pdl\drivers/peripheral/tcpwm/cy_tcpwm_pwm.h **** }
 382              		.loc 3 317 0
 383 001e 0022     		movs	r2, #0
 384 0020 024B     		ldr	r3, .L25+4
 385 0022 C3F80C21 		str	r2, [r3, #268]
 386              	.LVL54:
 387 0026 7047     		bx	lr
 388              	.L26:
 389              		.align	2
 390              	.L25:
 391 0028 40420F00 		.word	1000000
 392 002c 00003840 		.word	1077411840
 393              	.LBE50:
 394              	.LBE49:
 395              	.LBE48:
 396              		.cfi_endproc
 397              	.LFE758:
 398              		.size	Sound_WriteTone, .-Sound_WriteTone
 399              		.section	.text.Sound_Play,"ax",%progbits
 400              		.align	2
 401              		.global	Sound_Play
 402              		.thumb
 403              		.thumb_func
 404              		.type	Sound_Play, %function
 405              	Sound_Play:
ARM GAS  C:\Users\Smaug\AppData\Local\Temp\cc3T9BxE.s 			page 28


 406              	.LFB759:
 108:car.c         ****     Sound_WriteTone(freq);
 407              		.loc 1 108 0
 408              		.cfi_startproc
 409              		@ args = 0, pretend = 0, frame = 0
 410              		@ frame_needed = 0, uses_anonymous_args = 0
 411              	.LVL55:
 412 0000 10B5     		push	{r4, lr}
 413              		.cfi_def_cfa_offset 8
 414              		.cfi_offset 4, -8
 415              		.cfi_offset 14, -4
 416 0002 0C46     		mov	r4, r1
 109:car.c         ****     CyDelay(duration);
 417              		.loc 1 109 0
 418 0004 FFF7FEFF 		bl	Sound_WriteTone
 419              	.LVL56:
 110:car.c         ****     Sound_WriteTone(0);
 420              		.loc 1 110 0
 421 0008 2046     		mov	r0, r4
 422 000a FFF7FEFF 		bl	Cy_SysLib_Delay
 423              	.LVL57:
 111:car.c         **** }
 424              		.loc 1 111 0
 425 000e 0020     		movs	r0, #0
 426 0010 FFF7FEFF 		bl	Sound_WriteTone
 427              	.LVL58:
 428 0014 10BD     		pop	{r4, pc}
 429              		.cfi_endproc
 430              	.LFE759:
 431              		.size	Sound_Play, .-Sound_Play
 432 0016 00BF     		.section	.text.Track_Init,"ax",%progbits
 433              		.align	2
 434              		.global	Track_Init
 435              		.thumb
 436              		.thumb_func
 437              		.type	Track_Init, %function
 438              	Track_Init:
 439              	.LFB760:
 117:car.c         ****     PCF8574_begin();
 440              		.loc 1 117 0
 441              		.cfi_startproc
 442              		@ args = 0, pretend = 0, frame = 0
 443              		@ frame_needed = 0, uses_anonymous_args = 0
 444 0000 08B5     		push	{r3, lr}
 445              		.cfi_def_cfa_offset 8
 446              		.cfi_offset 3, -8
 447              		.cfi_offset 14, -4
 118:car.c         **** }
 448              		.loc 1 118 0
 449 0002 FFF7FEFF 		bl	PCF8574_begin
 450              	.LVL59:
 451 0006 08BD     		pop	{r3, pc}
 452              		.cfi_endproc
 453              	.LFE760:
 454              		.size	Track_Init, .-Track_Init
 455              		.section	.text.Track_Read,"ax",%progbits
 456              		.align	2
ARM GAS  C:\Users\Smaug\AppData\Local\Temp\cc3T9BxE.s 			page 29


 457              		.global	Track_Read
 458              		.thumb
 459              		.thumb_func
 460              		.type	Track_Read, %function
 461              	Track_Read:
 462              	.LFB761:
 123:car.c         ****   return (PCF8574_read8() & 0x7F); 
 463              		.loc 1 123 0
 464              		.cfi_startproc
 465              		@ args = 0, pretend = 0, frame = 0
 466              		@ frame_needed = 0, uses_anonymous_args = 0
 467 0000 08B5     		push	{r3, lr}
 468              		.cfi_def_cfa_offset 8
 469              		.cfi_offset 3, -8
 470              		.cfi_offset 14, -4
 124:car.c         **** }
 471              		.loc 1 124 0
 472 0002 FFF7FEFF 		bl	PCF8574_read8
 473              	.LVL60:
 125:car.c         **** 
 474              		.loc 1 125 0
 475 0006 00F07F00 		and	r0, r0, #127
 476 000a 08BD     		pop	{r3, pc}
 477              		.cfi_endproc
 478              	.LFE761:
 479              		.size	Track_Read, .-Track_Read
 480              		.section	.text.Timing_Init,"ax",%progbits
 481              		.align	2
 482              		.global	Timing_Init
 483              		.thumb
 484              		.thumb_func
 485              		.type	Timing_Init, %function
 486              	Timing_Init:
 487              	.LFB763:
 131:car.c         **** }
 132:car.c         **** 
 133:car.c         **** void Timing_Init(void)
 134:car.c         **** {
 488              		.loc 1 134 0
 489              		.cfi_startproc
 490              		@ args = 0, pretend = 0, frame = 0
 491              		@ frame_needed = 0, uses_anonymous_args = 0
 492 0000 08B5     		push	{r3, lr}
 493              		.cfi_def_cfa_offset 8
 494              		.cfi_offset 3, -8
 495              		.cfi_offset 14, -4
 135:car.c         ****     /* Enable Systick and the Systick interrupt */
 136:car.c         ****     Cy_SysTick_Enable();
 496              		.loc 1 136 0
 497 0002 FFF7FEFF 		bl	Cy_SysTick_Enable
 498              	.LVL61:
 137:car.c         ****     
 138:car.c         ****     /* Initialize the systick, set the 8MHz IMO as clock source */
 139:car.c         ****     Cy_SysTick_Init(CY_SYSTICK_CLOCK_SOURCE_CLK_IMO, SYSTICK_RELOAD_VAL);
 499              		.loc 1 139 0
 500 0006 4FF4FA51 		mov	r1, #8000
 501 000a 0120     		movs	r0, #1
ARM GAS  C:\Users\Smaug\AppData\Local\Temp\cc3T9BxE.s 			page 30


 502 000c FFF7FEFF 		bl	Cy_SysTick_Init
 503              	.LVL62:
 140:car.c         **** 
 141:car.c         ****     /* Set Systick interrupt callback */
 142:car.c         ****     Cy_SysTick_SetCallback(0, systick_handler);
 504              		.loc 1 142 0
 505 0010 0249     		ldr	r1, .L35
 506 0012 0020     		movs	r0, #0
 507 0014 FFF7FEFF 		bl	Cy_SysTick_SetCallback
 508              	.LVL63:
 509 0018 08BD     		pop	{r3, pc}
 510              	.L36:
 511 001a 00BF     		.align	2
 512              	.L35:
 513 001c 00000000 		.word	systick_handler
 514              		.cfi_endproc
 515              	.LFE763:
 516              		.size	Timing_Init, .-Timing_Init
 517              		.section	.text.Timing_GetMillisecongs,"ax",%progbits
 518              		.align	2
 519              		.global	Timing_GetMillisecongs
 520              		.thumb
 521              		.thumb_func
 522              		.type	Timing_GetMillisecongs, %function
 523              	Timing_GetMillisecongs:
 524              	.LFB764:
 143:car.c         **** }
 144:car.c         **** 
 145:car.c         **** uint32_t Timing_GetMillisecongs(void)
 146:car.c         **** {
 525              		.loc 1 146 0
 526              		.cfi_startproc
 527              		@ args = 0, pretend = 0, frame = 0
 528              		@ frame_needed = 0, uses_anonymous_args = 0
 529              		@ link register save eliminated.
 147:car.c         ****    return milliseconds;   
 530              		.loc 1 147 0
 531 0000 014B     		ldr	r3, .L38
 532 0002 1868     		ldr	r0, [r3]
 148:car.c         **** }...
 533              		.loc 1 148 0
 534 0004 7047     		bx	lr
 535              	.L39:
 536 0006 00BF     		.align	2
 537              	.L38:
 538 0008 00000000 		.word	.LANCHOR0
 539              		.cfi_endproc
 540              	.LFE764:
 541              		.size	Timing_GetMillisecongs, .-Timing_GetMillisecongs
 542              		.bss
 543              		.align	2
 544              		.set	.LANCHOR0,. + 0
 545              		.type	milliseconds, %object
 546              		.size	milliseconds, 4
 547              	milliseconds:
 548 0000 00000000 		.space	4
 549              		.text
ARM GAS  C:\Users\Smaug\AppData\Local\Temp\cc3T9BxE.s 			page 31


 550              	.Letext0:
 551              		.file 4 "c:\\program files (x86)\\cypress\\psoc creator\\4.4\\psoc creator\\import\\gnu\\arm\\5.4.
 552              		.file 5 "c:\\program files (x86)\\cypress\\psoc creator\\4.4\\psoc creator\\import\\gnu\\arm\\5.4.
 553              		.file 6 "Generated_Source\\PSoC6\\pdl\\devices/psoc6/include/ip/cyip_tcpwm.h"
 554              		.file 7 "Generated_Source\\PSoC6\\pdl\\devices/psoc6/include/psoc6_01_config.h"
 555              		.file 8 "Generated_Source\\PSoC6\\pdl\\drivers/peripheral/device/cy_device.h"
 556              		.file 9 "Generated_Source\\PSoC6\\pdl\\drivers/peripheral/sar/cy_sar.h"
 557              		.file 10 "Generated_Source\\PSoC6\\pdl\\drivers/peripheral/scb/cy_scb_i2c.h"
 558              		.file 11 "Generated_Source\\PSoC6\\pdl\\drivers/peripheral/scb/cy_scb_spi.h"
 559              		.file 12 "Generated_Source\\PSoC6\\pdl\\drivers/peripheral/scb/cy_scb_uart.h"
 560              		.file 13 "Generated_Source\\PSoC6\\pdl\\drivers/peripheral/systick/cy_systick.h"
 561              		.file 14 "Generated_Source\\PSoC6\\pdl\\drivers/peripheral/tcpwm/cy_tcpwm_counter.h"
 562              		.file 15 "Generated_Source\\PSoC6/ADC.h"
 563              		.file 16 "Generated_Source\\PSoC6/PWM_Buz.h"
 564              		.file 17 "Generated_Source\\PSoC6\\pdl\\cmsis/include/core_cm4.h"
 565              		.file 18 "Generated_Source\\PSoC6/I2C_Main.h"
 566              		.file 19 "Generated_Source\\PSoC6/UART_Debug.h"
 567              		.file 20 "Generated_Source\\PSoC6/PWM_Trig.h"
 568              		.file 21 "Generated_Source\\PSoC6/Counter_Echo.h"
 569              		.file 22 "Generated_Source\\PSoC6/IR.h"
 570              		.file 23 "Generated_Source\\PSoC6/SPI_LEDCTRL.h"
 571              		.file 24 "./PCA9685.h"
 572              		.file 25 "utils.h"
 573              		.file 26 "Generated_Source\\PSoC6\\pdl\\drivers/peripheral/syslib/cy_syslib.h"
 574              		.file 27 "./PCF8574.h"