ARM GAS  C:\Users\Smaug\AppData\Local\Temp\ccEuhDLI.s 			page 1


   1              		.syntax unified
   2              		.cpu cortex-m4
   3              		.eabi_attribute 27, 1
   4              		.fpu fpv4-sp-d16
   5              		.eabi_attribute 20, 1
   6              		.eabi_attribute 21, 1
   7              		.eabi_attribute 23, 3
   8              		.eabi_attribute 24, 1
   9              		.eabi_attribute 25, 1
  10              		.eabi_attribute 26, 1
  11              		.eabi_attribute 30, 1
  12              		.eabi_attribute 34, 1
  13              		.eabi_attribute 18, 4
  14              		.thumb
  15              		.syntax unified
  16              		.file	"cm4_ipc.c"
  17              		.text
  18              	.Ltext0:
  19              		.cfi_sections	.debug_frame
  20              		.section	.text.CM4_ReleaseCallback,"ax",%progbits
  21              		.align	2
  22              		.global	CM4_ReleaseCallback
  23              		.thumb
  24              		.thumb_func
  25              		.type	CM4_ReleaseCallback, %function
  26              	CM4_ReleaseCallback:
  27              	.LFB756:
  28              		.file 1 "cm4_ipc.c"
   1:cm4_ipc.c     **** /* ========================================
   2:cm4_ipc.c     ****  *
   3:cm4_ipc.c     ****  * Copyright YOUR COMPANY, THE YEAR
   4:cm4_ipc.c     ****  * All Rights Reserved
   5:cm4_ipc.c     ****  * UNPUBLISHED, LICENSED SOFTWARE.
   6:cm4_ipc.c     ****  *
   7:cm4_ipc.c     ****  * CONFIDENTIAL AND PROPRIETARY INFORMATION
   8:cm4_ipc.c     ****  * WHICH IS THE PROPERTY OF your company.
   9:cm4_ipc.c     ****  *
  10:cm4_ipc.c     ****  * ========================================
  11:cm4_ipc.c     **** */
  12:cm4_ipc.c     **** 
  13:cm4_ipc.c     **** #include "project.h"
  14:cm4_ipc.c     **** #include "ipc_def.h"
  15:cm4_ipc.c     **** 
  16:cm4_ipc.c     **** static bool isCM0Ready = true;
  17:cm4_ipc.c     **** static bool isDataAvailableFromCM0 = false;
  18:cm4_ipc.c     **** 
  19:cm4_ipc.c     **** static ipc_msg_t ipcMsgFromCM0_Local;
  20:cm4_ipc.c     **** 
  21:cm4_ipc.c     **** // Do not use directly, only pass to IPC functions!
  22:cm4_ipc.c     **** void CM4_MessageCallback(uint32_t *msg)
  23:cm4_ipc.c     **** {
  24:cm4_ipc.c     ****     ipc_msg_t *ipcMsgFromCM0;
  25:cm4_ipc.c     ****     
  26:cm4_ipc.c     ****     if (msg != NULL)
  27:cm4_ipc.c     ****     {
  28:cm4_ipc.c     ****         /* Cast the message received to the IPC structure */
  29:cm4_ipc.c     ****         ipcMsgFromCM0 = (ipc_msg_t*)msg;
ARM GAS  C:\Users\Smaug\AppData\Local\Temp\ccEuhDLI.s 			page 2


  30:cm4_ipc.c     ****         
  31:cm4_ipc.c     ****         // Store the message locally
  32:cm4_ipc.c     ****         memcpy((void*)&ipcMsgFromCM0_Local,
  33:cm4_ipc.c     ****                (void*)ipcMsgFromCM0,
  34:cm4_ipc.c     ****                 sizeof(ipc_msg_t));
  35:cm4_ipc.c     ****         
  36:cm4_ipc.c     ****         // Mark new data is available
  37:cm4_ipc.c     ****         isDataAvailableFromCM0 = true;
  38:cm4_ipc.c     ****     }
  39:cm4_ipc.c     **** }
  40:cm4_ipc.c     **** 
  41:cm4_ipc.c     **** // Do not use directly, only pass to IPC functions!
  42:cm4_ipc.c     **** void CM4_ReleaseCallback(void)
  43:cm4_ipc.c     **** {
  29              		.loc 1 43 0
  30              		.cfi_startproc
  31              		@ args = 0, pretend = 0, frame = 0
  32              		@ frame_needed = 0, uses_anonymous_args = 0
  33              		@ link register save eliminated.
  44:cm4_ipc.c     ****     /* Message processed by CM0. Ready to receive a new message */
  45:cm4_ipc.c     ****     isCM0Ready = true;
  34              		.loc 1 45 0
  35 0000 0122     		movs	r2, #1
  36 0002 014B     		ldr	r3, .L2
  37 0004 1A70     		strb	r2, [r3]
  38 0006 7047     		bx	lr
  39              	.L3:
  40              		.align	2
  41              	.L2:
  42 0008 00000000 		.word	.LANCHOR0
  43              		.cfi_endproc
  44              	.LFE756:
  45              		.size	CM4_ReleaseCallback, .-CM4_ReleaseCallback
  46              		.section	.text.CM4_MessageCallback,"ax",%progbits
  47              		.align	2
  48              		.global	CM4_MessageCallback
  49              		.thumb
  50              		.thumb_func
  51              		.type	CM4_MessageCallback, %function
  52              	CM4_MessageCallback:
  53              	.LFB755:
  23:cm4_ipc.c     ****     ipc_msg_t *ipcMsgFromCM0;
  54              		.loc 1 23 0
  55              		.cfi_startproc
  56              		@ args = 0, pretend = 0, frame = 0
  57              		@ frame_needed = 0, uses_anonymous_args = 0
  58              	.LVL0:
  26:cm4_ipc.c     ****     {
  59              		.loc 1 26 0
  60 0000 58B1     		cbz	r0, .L7
  23:cm4_ipc.c     ****     ipc_msg_t *ipcMsgFromCM0;
  61              		.loc 1 23 0
  62 0002 10B5     		push	{r4, lr}
  63              		.cfi_def_cfa_offset 8
  64              		.cfi_offset 4, -8
  65              		.cfi_offset 14, -4
  66 0004 0146     		mov	r1, r0
ARM GAS  C:\Users\Smaug\AppData\Local\Temp\ccEuhDLI.s 			page 3


  67              	.LVL1:
  32:cm4_ipc.c     ****                (void*)ipcMsgFromCM0,
  68              		.loc 1 32 0
  69 0006 054C     		ldr	r4, .L8
  70 0008 4FF48472 		mov	r2, #264
  71 000c 2046     		mov	r0, r4
  72              	.LVL2:
  73 000e FFF7FEFF 		bl	memcpy
  74              	.LVL3:
  37:cm4_ipc.c     ****     }
  75              		.loc 1 37 0
  76 0012 0123     		movs	r3, #1
  77 0014 84F80831 		strb	r3, [r4, #264]
  78 0018 10BD     		pop	{r4, pc}
  79              	.LVL4:
  80              	.L7:
  81              		.cfi_def_cfa_offset 0
  82              		.cfi_restore 4
  83              		.cfi_restore 14
  84 001a 7047     		bx	lr
  85              	.L9:
  86              		.align	2
  87              	.L8:
  88 001c 00000000 		.word	.LANCHOR1
  89              		.cfi_endproc
  90              	.LFE755:
  91              		.size	CM4_MessageCallback, .-CM4_MessageCallback
  92              		.section	.text.CM4_IsCM0Ready,"ax",%progbits
  93              		.align	2
  94              		.global	CM4_IsCM0Ready
  95              		.thumb
  96              		.thumb_func
  97              		.type	CM4_IsCM0Ready, %function
  98              	CM4_IsCM0Ready:
  99              	.LFB757:
  46:cm4_ipc.c     **** }
  47:cm4_ipc.c     **** 
  48:cm4_ipc.c     **** bool CM4_IsCM0Ready(void)
  49:cm4_ipc.c     **** {
 100              		.loc 1 49 0
 101              		.cfi_startproc
 102              		@ args = 0, pretend = 0, frame = 0
 103              		@ frame_needed = 0, uses_anonymous_args = 0
 104              		@ link register save eliminated.
  50:cm4_ipc.c     ****     return isCM0Ready;
  51:cm4_ipc.c     **** }
 105              		.loc 1 51 0
 106 0000 014B     		ldr	r3, .L11
 107 0002 1878     		ldrb	r0, [r3]	@ zero_extendqisi2
 108 0004 7047     		bx	lr
 109              	.L12:
 110 0006 00BF     		.align	2
 111              	.L11:
 112 0008 00000000 		.word	.LANCHOR0
 113              		.cfi_endproc
 114              	.LFE757:
 115              		.size	CM4_IsCM0Ready, .-CM4_IsCM0Ready
ARM GAS  C:\Users\Smaug\AppData\Local\Temp\ccEuhDLI.s 			page 4


 116              		.section	.text.CM4_isDataAvailableFromCM0,"ax",%progbits
 117              		.align	2
 118              		.global	CM4_isDataAvailableFromCM0
 119              		.thumb
 120              		.thumb_func
 121              		.type	CM4_isDataAvailableFromCM0, %function
 122              	CM4_isDataAvailableFromCM0:
 123              	.LFB758:
  52:cm4_ipc.c     **** 
  53:cm4_ipc.c     **** bool CM4_isDataAvailableFromCM0(void)
  54:cm4_ipc.c     **** {
 124              		.loc 1 54 0
 125              		.cfi_startproc
 126              		@ args = 0, pretend = 0, frame = 0
 127              		@ frame_needed = 0, uses_anonymous_args = 0
 128              		@ link register save eliminated.
  55:cm4_ipc.c     ****     return isDataAvailableFromCM0;
  56:cm4_ipc.c     **** }
 129              		.loc 1 56 0
 130 0000 014B     		ldr	r3, .L14
 131 0002 93F80801 		ldrb	r0, [r3, #264]	@ zero_extendqisi2
 132 0006 7047     		bx	lr
 133              	.L15:
 134              		.align	2
 135              	.L14:
 136 0008 00000000 		.word	.LANCHOR1
 137              		.cfi_endproc
 138              	.LFE758:
 139              		.size	CM4_isDataAvailableFromCM0, .-CM4_isDataAvailableFromCM0
 140              		.section	.text.CM4_GetCM0Message,"ax",%progbits
 141              		.align	2
 142              		.global	CM4_GetCM0Message
 143              		.thumb
 144              		.thumb_func
 145              		.type	CM4_GetCM0Message, %function
 146              	CM4_GetCM0Message:
 147              	.LFB759:
  57:cm4_ipc.c     **** 
  58:cm4_ipc.c     **** ipc_msg_t* CM4_GetCM0Message(void)
  59:cm4_ipc.c     **** {
 148              		.loc 1 59 0
 149              		.cfi_startproc
 150              		@ args = 0, pretend = 0, frame = 0
 151              		@ frame_needed = 0, uses_anonymous_args = 0
 152              		@ link register save eliminated.
  60:cm4_ipc.c     ****     // Mark that no new data is available from CM0 (we read it just now).
  61:cm4_ipc.c     ****     isDataAvailableFromCM0 = false;
 153              		.loc 1 61 0
 154 0000 0248     		ldr	r0, .L17
 155 0002 0023     		movs	r3, #0
 156 0004 80F80831 		strb	r3, [r0, #264]
  62:cm4_ipc.c     ****     // This is a programmer responsibility to check for NULL pointer!
  63:cm4_ipc.c     ****     return &ipcMsgFromCM0_Local;
  64:cm4_ipc.c     **** }
 157              		.loc 1 64 0
 158 0008 7047     		bx	lr
 159              	.L18:
ARM GAS  C:\Users\Smaug\AppData\Local\Temp\ccEuhDLI.s 			page 5


 160 000a 00BF     		.align	2
 161              	.L17:
 162 000c 00000000 		.word	.LANCHOR1
 163              		.cfi_endproc
 164              	.LFE759:
 165              		.size	CM4_GetCM0Message, .-CM4_GetCM0Message
 166              		.section	.text.CM4_SendCM0Message,"ax",%progbits
 167              		.align	2
 168              		.global	CM4_SendCM0Message
 169              		.thumb
 170              		.thumb_func
 171              		.type	CM4_SendCM0Message, %function
 172              	CM4_SendCM0Message:
 173              	.LFB760:
  65:cm4_ipc.c     **** 
  66:cm4_ipc.c     **** bool CM4_SendCM0Message(ipc_msg_t* msg)
  67:cm4_ipc.c     **** {
 174              		.loc 1 67 0
 175              		.cfi_startproc
 176              		@ args = 0, pretend = 0, frame = 0
 177              		@ frame_needed = 0, uses_anonymous_args = 0
 178              	.LVL5:
 179 0000 08B5     		push	{r3, lr}
 180              		.cfi_def_cfa_offset 8
 181              		.cfi_offset 3, -8
 182              		.cfi_offset 14, -4
 183              	.LVL6:
  68:cm4_ipc.c     ****     bool ret = true;
  69:cm4_ipc.c     ****     /* Send the string message to CM0 */
  70:cm4_ipc.c     ****     // For the sake of simplicity, we won't record exact error.
  71:cm4_ipc.c     ****     // Inversion is needed so retuned 0 error will be actually converted to true
  72:cm4_ipc.c     ****     ret = (bool)!Cy_IPC_Pipe_SendMessage(CY_IPC_EP_CYPIPE_CM0_ADDR,
 184              		.loc 1 72 0
 185 0002 054B     		ldr	r3, .L21
 186 0004 0246     		mov	r2, r0
 187 0006 0121     		movs	r1, #1
 188 0008 0020     		movs	r0, #0
 189              	.LVL7:
 190 000a FFF7FEFF 		bl	Cy_IPC_Pipe_SendMessage
 191              	.LVL8:
  73:cm4_ipc.c     ****                                          CY_IPC_EP_CYPIPE_CM4_ADDR,
  74:cm4_ipc.c     ****                                          (void *)msg,
  75:cm4_ipc.c     ****                                          CM4_ReleaseCallback);
  76:cm4_ipc.c     ****     return ret;
  77:cm4_ipc.c     **** }
 192              		.loc 1 77 0
 193 000e B0FA80F0 		clz	r0, r0
 194              	.LVL9:
 195 0012 4009     		lsrs	r0, r0, #5
 196 0014 08BD     		pop	{r3, pc}
 197              	.L22:
 198 0016 00BF     		.align	2
 199              	.L21:
 200 0018 00000000 		.word	CM4_ReleaseCallback
 201              		.cfi_endproc
 202              	.LFE760:
 203              		.size	CM4_SendCM0Message, .-CM4_SendCM0Message
ARM GAS  C:\Users\Smaug\AppData\Local\Temp\ccEuhDLI.s 			page 6


 204              		.data
 205              		.set	.LANCHOR0,. + 0
 206              		.type	isCM0Ready, %object
 207              		.size	isCM0Ready, 1
 208              	isCM0Ready:
 209 0000 01       		.byte	1
 210              		.bss
 211              		.align	2
 212              		.set	.LANCHOR1,. + 0
 213              		.type	ipcMsgFromCM0_Local, %object
 214              		.size	ipcMsgFromCM0_Local, 264
 215              	ipcMsgFromCM0_Local:
 216 0000 00000000 		.space	264
 216      00000000 
 216      00000000 
 216      00000000 
 216      00000000 
 217              		.type	isDataAvailableFromCM0, %object
 218              		.size	isDataAvailableFromCM0, 1
 219              	isDataAvailableFromCM0:
 220 0108 00       		.space	1
 221              		.text
 222              	.Letext0:
 223              		.file 2 "c:\\program files (x86)\\cypress\\psoc creator\\4.4\\psoc creator\\import\\gnu\\arm\\5.4.
 224              		.file 3 "c:\\program files (x86)\\cypress\\psoc creator\\4.4\\psoc creator\\import\\gnu\\arm\\5.4.
 225              		.file 4 "Generated_Source\\PSoC6\\pdl\\drivers/peripheral/device/cy_device.h"
 226              		.file 5 "Generated_Source\\PSoC6\\pdl\\drivers/peripheral/sar/cy_sar.h"
 227              		.file 6 "Generated_Source\\PSoC6\\pdl\\drivers/peripheral/scb/cy_scb_i2c.h"
 228              		.file 7 "Generated_Source\\PSoC6\\pdl\\drivers/peripheral/scb/cy_scb_spi.h"
 229              		.file 8 "Generated_Source\\PSoC6\\pdl\\drivers/peripheral/scb/cy_scb_uart.h"
 230              		.file 9 "Generated_Source\\PSoC6\\pdl\\drivers/peripheral/tcpwm/cy_tcpwm_counter.h"
 231              		.file 10 "Generated_Source\\PSoC6\\pdl\\drivers/peripheral/tcpwm/cy_tcpwm_pwm.h"
 232              		.file 11 "Generated_Source\\PSoC6/ADC.h"
 233              		.file 12 "ipc_def.h"
 234              		.file 13 "Generated_Source\\PSoC6\\pdl\\cmsis/include/core_cm4.h"
 235              		.file 14 "Generated_Source\\PSoC6/I2C_Main.h"
 236              		.file 15 "Generated_Source\\PSoC6/UART_Debug.h"
 237              		.file 16 "Generated_Source\\PSoC6/PWM_Trig.h"
 238              		.file 17 "Generated_Source\\PSoC6/Counter_Echo.h"
 239              		.file 18 "Generated_Source\\PSoC6/IR.h"
 240              		.file 19 "Generated_Source\\PSoC6/PWM_Buz.h"
 241              		.file 20 "Generated_Source\\PSoC6/SPI_LEDCTRL.h"
 242              		.file 21 "Generated_Source\\PSoC6\\pdl\\drivers/peripheral/ipc/cy_ipc_pipe.h"