ARM GAS  C:\Users\Smaug\AppData\Local\Temp\ccw2FZX5.s 			page 1


   1              		.syntax unified
   2              		.cpu cortex-m4
   3              		.eabi_attribute 27, 1
   4              		.fpu fpv4-sp-d16
   5              		.eabi_attribute 20, 1
   6              		.eabi_attribute 21, 1
   7              		.eabi_attribute 23, 3
   8              		.eabi_attribute 24, 1
   9              		.eabi_attribute 25, 1
  10              		.eabi_attribute 26, 1
  11              		.eabi_attribute 30, 1
  12              		.eabi_attribute 34, 1
  13              		.eabi_attribute 18, 4
  14              		.thumb
  15              		.syntax unified
  16              		.file	"debug_cm4.c"
  17              		.text
  18              	.Ltext0:
  19              		.cfi_sections	.debug_frame
  20              		.section	.text.ShowValue,"ax",%progbits
  21              		.align	2
  22              		.global	ShowValue
  23              		.thumb
  24              		.thumb_func
  25              		.type	ShowValue, %function
  26              	ShowValue:
  27              	.LFB756:
  28              		.file 1 "debug_cm4.c"
   1:debug_cm4.c   **** /*******************************************************************************
   2:debug_cm4.c   **** * File Name: debug.c
   3:debug_cm4.c   **** *
   4:debug_cm4.c   **** * Version: 1.0
   5:debug_cm4.c   **** *
   6:debug_cm4.c   **** * Description:
   7:debug_cm4.c   **** *  This file contains functions for printf functionality.
   8:debug_cm4.c   **** *
   9:debug_cm4.c   **** * Hardware Dependency:
  10:debug_cm4.c   **** *  CY8CKIT-062 PSoC6 BLE Pioneer Kit
  11:debug_cm4.c   **** * 
  12:debug_cm4.c   **** ********************************************************************************
  13:debug_cm4.c   **** * Copyright 2017, Cypress Semiconductor Corporation.  All rights reserved.
  14:debug_cm4.c   **** * You may use this file only in accordance with the license, terms, conditions,
  15:debug_cm4.c   **** * disclaimers, and limitations in the end user license agreement accompanying
  16:debug_cm4.c   **** * the software package with which this file was provided.
  17:debug_cm4.c   **** *******************************************************************************/
  18:debug_cm4.c   **** 
  19:debug_cm4.c   **** #include <project.h>
  20:debug_cm4.c   **** #include "debug_cm4.h"
  21:debug_cm4.c   **** 
  22:debug_cm4.c   **** #if (DEBUG_UART_ENABLED == 1)
  23:debug_cm4.c   **** 
  24:debug_cm4.c   **** #if defined(__ARMCC_VERSION)
  25:debug_cm4.c   ****     
  26:debug_cm4.c   **** /* For MDK/RVDS compiler revise fputc function for printf functionality */
  27:debug_cm4.c   **** struct __FILE 
  28:debug_cm4.c   **** {
  29:debug_cm4.c   ****     int handle;  
ARM GAS  C:\Users\Smaug\AppData\Local\Temp\ccw2FZX5.s 			page 2


  30:debug_cm4.c   **** };
  31:debug_cm4.c   **** 
  32:debug_cm4.c   **** enum 
  33:debug_cm4.c   **** {
  34:debug_cm4.c   ****     STDIN_HANDLE,
  35:debug_cm4.c   ****     STDOUT_HANDLE,
  36:debug_cm4.c   ****     STDERR_HANDLE
  37:debug_cm4.c   **** };
  38:debug_cm4.c   **** 
  39:debug_cm4.c   **** FILE __stdin = {STDIN_HANDLE};
  40:debug_cm4.c   **** FILE __stdout = {STDOUT_HANDLE};
  41:debug_cm4.c   **** FILE __stderr = {STDERR_HANDLE};
  42:debug_cm4.c   **** 
  43:debug_cm4.c   **** int fputc(int ch, FILE *file) 
  44:debug_cm4.c   **** {
  45:debug_cm4.c   ****     int ret = EOF;
  46:debug_cm4.c   **** 
  47:debug_cm4.c   ****     switch( file->handle )
  48:debug_cm4.c   ****     {
  49:debug_cm4.c   ****         case STDOUT_HANDLE:
  50:debug_cm4.c   ****             UART_DEB_PUT_CHAR(ch);
  51:debug_cm4.c   ****             ret = ch ;
  52:debug_cm4.c   ****             break ;
  53:debug_cm4.c   **** 
  54:debug_cm4.c   ****         case STDERR_HANDLE:
  55:debug_cm4.c   ****             ret = ch ;
  56:debug_cm4.c   ****             break ;
  57:debug_cm4.c   **** 
  58:debug_cm4.c   ****         default:
  59:debug_cm4.c   ****             file = file;
  60:debug_cm4.c   ****             break ;
  61:debug_cm4.c   ****     }
  62:debug_cm4.c   ****     return ret ;
  63:debug_cm4.c   **** }
  64:debug_cm4.c   **** 
  65:debug_cm4.c   **** #elif defined (__ICCARM__)      /* IAR */
  66:debug_cm4.c   **** 
  67:debug_cm4.c   **** /* For IAR compiler revise __write() function for printf functionality */
  68:debug_cm4.c   **** size_t __write(int handle, const unsigned char * buffer, size_t size)
  69:debug_cm4.c   **** {
  70:debug_cm4.c   ****     size_t nChars = 0;
  71:debug_cm4.c   **** 
  72:debug_cm4.c   ****     if (buffer == 0)
  73:debug_cm4.c   ****     {
  74:debug_cm4.c   ****         /*
  75:debug_cm4.c   ****          * This means that we should flush internal buffers. Since we
  76:debug_cm4.c   ****          * don't we just return. (Remember, "handle" == -1 means that all
  77:debug_cm4.c   ****          * handles should be flushed.)
  78:debug_cm4.c   ****          */
  79:debug_cm4.c   ****         return (0);
  80:debug_cm4.c   ****     }
  81:debug_cm4.c   **** 
  82:debug_cm4.c   ****     for (/* Empty */; size != 0; --size)
  83:debug_cm4.c   ****     {
  84:debug_cm4.c   ****         UART_DEB_PUT_CHAR(*buffer);
  85:debug_cm4.c   ****         ++buffer;
  86:debug_cm4.c   ****         ++nChars;
ARM GAS  C:\Users\Smaug\AppData\Local\Temp\ccw2FZX5.s 			page 3


  87:debug_cm4.c   ****     }
  88:debug_cm4.c   **** 
  89:debug_cm4.c   ****     return (nChars);
  90:debug_cm4.c   **** }
  91:debug_cm4.c   **** 
  92:debug_cm4.c   **** #else  /* (__GNUC__)  GCC */
  93:debug_cm4.c   **** 
  94:debug_cm4.c   **** /* For GCC compiler revise _write() function for printf functionality */
  95:debug_cm4.c   **** int _write(int file, char *ptr, int len)
  96:debug_cm4.c   **** {
  97:debug_cm4.c   ****     int i;
  98:debug_cm4.c   ****     file = file;
  99:debug_cm4.c   ****     for (i = 0; i < len; i++)
 100:debug_cm4.c   ****     {
 101:debug_cm4.c   ****         UART_DEB_PUT_CHAR(*ptr);
 102:debug_cm4.c   ****         ++ptr;
 103:debug_cm4.c   ****     }
 104:debug_cm4.c   ****     return len;
 105:debug_cm4.c   **** }
 106:debug_cm4.c   **** 
 107:debug_cm4.c   **** 
 108:debug_cm4.c   **** #endif  /* (__ARMCC_VERSION) */   
 109:debug_cm4.c   **** 
 110:debug_cm4.c   **** #endif /* DEBUG_UART_ENABLED == ENABLED */
 111:debug_cm4.c   **** 
 112:debug_cm4.c   **** void ShowValue(cy_stc_ble_gatt_value_t *value)
 113:debug_cm4.c   **** {
  29              		.loc 1 113 0
  30              		.cfi_startproc
  31              		@ args = 0, pretend = 0, frame = 0
  32              		@ frame_needed = 0, uses_anonymous_args = 0
  33              		@ link register save eliminated.
  34              	.LVL0:
 114:debug_cm4.c   ****     int16_t i;
 115:debug_cm4.c   ****     
 116:debug_cm4.c   ****     for(i = 0; i < value->len; i++)
  35              		.loc 1 116 0
  36 0000 0023     		movs	r3, #0
  37 0002 01E0     		b	.L2
  38              	.LVL1:
  39              	.L3:
  40              		.loc 1 116 0 is_stmt 0 discriminator 3
  41 0004 0133     		adds	r3, r3, #1
  42              	.LVL2:
  43 0006 1BB2     		sxth	r3, r3
  44              	.LVL3:
  45              	.L2:
  46              		.loc 1 116 0 discriminator 1
  47 0008 8288     		ldrh	r2, [r0, #4]
  48 000a 9342     		cmp	r3, r2
  49 000c FADB     		blt	.L3
 117:debug_cm4.c   ****     {
 118:debug_cm4.c   ****         DBG_PRINTF("%2.2x ", value->val[i]);
 119:debug_cm4.c   ****     }
 120:debug_cm4.c   ****     DBG_PRINTF("\r\n");
 121:debug_cm4.c   **** }
  50              		.loc 1 121 0 is_stmt 1
ARM GAS  C:\Users\Smaug\AppData\Local\Temp\ccw2FZX5.s 			page 4


  51 000e 7047     		bx	lr
  52              		.cfi_endproc
  53              	.LFE756:
  54              		.size	ShowValue, .-ShowValue
  55              		.section	.text.Set32ByPtr,"ax",%progbits
  56              		.align	2
  57              		.global	Set32ByPtr
  58              		.thumb
  59              		.thumb_func
  60              		.type	Set32ByPtr, %function
  61              	Set32ByPtr:
  62              	.LFB757:
 122:debug_cm4.c   **** 
 123:debug_cm4.c   **** 
 124:debug_cm4.c   **** void Set32ByPtr(uint8_t ptr[], uint32_t value)
 125:debug_cm4.c   **** {
  63              		.loc 1 125 0
  64              		.cfi_startproc
  65              		@ args = 0, pretend = 0, frame = 0
  66              		@ frame_needed = 0, uses_anonymous_args = 0
  67              		@ link register save eliminated.
  68              	.LVL4:
 126:debug_cm4.c   ****     ptr[0u] = (uint8_t) value;
  69              		.loc 1 126 0
  70 0000 0170     		strb	r1, [r0]
 127:debug_cm4.c   ****     ptr[1u] = (uint8_t) (value >> 8u);    
  71              		.loc 1 127 0
  72 0002 C1F30723 		ubfx	r3, r1, #8, #8
  73 0006 4370     		strb	r3, [r0, #1]
 128:debug_cm4.c   ****     ptr[2u] = (uint8_t) (value >> 16u);    
  74              		.loc 1 128 0
  75 0008 C1F30743 		ubfx	r3, r1, #16, #8
  76 000c 8370     		strb	r3, [r0, #2]
 129:debug_cm4.c   ****     ptr[3u] = (uint8_t) (value >> 24u);
  77              		.loc 1 129 0
  78 000e 090E     		lsrs	r1, r1, #24
  79              	.LVL5:
  80 0010 C170     		strb	r1, [r0, #3]
  81 0012 7047     		bx	lr
  82              		.cfi_endproc
  83              	.LFE757:
  84              		.size	Set32ByPtr, .-Set32ByPtr
  85              		.section	.text.ShowError,"ax",%progbits
  86              		.align	2
  87              		.global	ShowError
  88              		.thumb
  89              		.thumb_func
  90              		.type	ShowError, %function
  91              	ShowError:
  92              	.LFB758:
 130:debug_cm4.c   **** }
 131:debug_cm4.c   **** 
 132:debug_cm4.c   **** 
 133:debug_cm4.c   **** /*******************************************************************************
 134:debug_cm4.c   **** * Function Name: ShowError
 135:debug_cm4.c   **** ********************************************************************************
 136:debug_cm4.c   **** *
ARM GAS  C:\Users\Smaug\AppData\Local\Temp\ccw2FZX5.s 			page 5


 137:debug_cm4.c   **** * Summary:
 138:debug_cm4.c   **** *   Shows error condition: Turn On all LEDs - white color will indicate error.
 139:debug_cm4.c   **** *
 140:debug_cm4.c   **** *******************************************************************************/
 141:debug_cm4.c   **** void ShowError(void)
 142:debug_cm4.c   **** {
  93              		.loc 1 142 0
  94              		.cfi_startproc
  95              		@ args = 0, pretend = 0, frame = 0
  96              		@ frame_needed = 0, uses_anonymous_args = 0
  97 0000 08B5     		push	{r3, lr}
  98              		.cfi_def_cfa_offset 8
  99              		.cfi_offset 3, -8
 100              		.cfi_offset 14, -4
 143:debug_cm4.c   ****     // EnableAllLeds();
 144:debug_cm4.c   ****     
 145:debug_cm4.c   ****     /* Halt CPU in Debug mode */
 146:debug_cm4.c   ****     CY_ASSERT(0u != 0u);
 101              		.loc 1 146 0
 102 0002 9221     		movs	r1, #146
 103 0004 0148     		ldr	r0, .L7
 104 0006 FFF7FEFF 		bl	Cy_SysLib_AssertFailed
 105              	.LVL6:
 106 000a 08BD     		pop	{r3, pc}
 107              	.L8:
 108              		.align	2
 109              	.L7:
 110 000c 00000000 		.word	.LC0
 111              		.cfi_endproc
 112              	.LFE758:
 113              		.size	ShowError, .-ShowError
 114              		.section	.text.HexToAscii,"ax",%progbits
 115              		.align	2
 116              		.global	HexToAscii
 117              		.thumb
 118              		.thumb_func
 119              		.type	HexToAscii, %function
 120              	HexToAscii:
 121              	.LFB759:
 147:debug_cm4.c   **** }
 148:debug_cm4.c   **** 
 149:debug_cm4.c   **** 
 150:debug_cm4.c   **** /*******************************************************************************
 151:debug_cm4.c   **** * Function Name: HexToAscii
 152:debug_cm4.c   **** ********************************************************************************
 153:debug_cm4.c   **** *
 154:debug_cm4.c   **** * Summary:
 155:debug_cm4.c   **** *   Hexadecimal to ASCII converter
 156:debug_cm4.c   **** *
 157:debug_cm4.c   **** * Parameters:
 158:debug_cm4.c   **** *   value: Hexadecimal value
 159:debug_cm4.c   **** *   digit: Which nibble to be obtained
 160:debug_cm4.c   **** *
 161:debug_cm4.c   **** * Return:
 162:debug_cm4.c   **** *   char: the ASCII equivalent of that nibble
 163:debug_cm4.c   **** *
 164:debug_cm4.c   **** * Theory:
ARM GAS  C:\Users\Smaug\AppData\Local\Temp\ccw2FZX5.s 			page 6


 165:debug_cm4.c   **** *   Converts hexadecimal to ASCII
 166:debug_cm4.c   **** *
 167:debug_cm4.c   **** *******************************************************************************/
 168:debug_cm4.c   **** char HexToAscii(uint8_t value, uint8_t nibble)
 169:debug_cm4.c   **** {
 122              		.loc 1 169 0
 123              		.cfi_startproc
 124              		@ args = 0, pretend = 0, frame = 0
 125              		@ frame_needed = 0, uses_anonymous_args = 0
 126              		@ link register save eliminated.
 127              	.LVL7:
 170:debug_cm4.c   ****     if(nibble == 1)
 128              		.loc 1 170 0
 129 0000 0129     		cmp	r1, #1
 130 0002 06D1     		bne	.L10
 131              	.LVL8:
 132 0004 0009     		lsrs	r0, r0, #4
 133              	.LVL9:
 171:debug_cm4.c   ****     {
 172:debug_cm4.c   ****         value = value & 0xf0;
 173:debug_cm4.c   ****         value = value >> 4;
 174:debug_cm4.c   ****         
 175:debug_cm4.c   ****         /* bit-shift the result to the right by four bits (i.e. quickly divides by 16) */
 176:debug_cm4.c   ****         if (value > 9)
 134              		.loc 1 176 0
 135 0006 0928     		cmp	r0, #9
 136 0008 01D9     		bls	.L11
 177:debug_cm4.c   ****         {
 178:debug_cm4.c   ****             value = value - 10 + 'A';
 137              		.loc 1 178 0
 138 000a 3730     		adds	r0, r0, #55
 139              	.LVL10:
 140 000c 7047     		bx	lr
 141              	.L11:
 179:debug_cm4.c   ****         }
 180:debug_cm4.c   ****         else
 181:debug_cm4.c   ****         {
 182:debug_cm4.c   ****             value = value + '0';
 142              		.loc 1 182 0
 143 000e 3030     		adds	r0, r0, #48
 144              	.LVL11:
 145 0010 7047     		bx	lr
 146              	.L10:
 183:debug_cm4.c   ****         }
 184:debug_cm4.c   ****     }
 185:debug_cm4.c   ****     else if (nibble == 0)
 147              		.loc 1 185 0
 148 0012 39B9     		cbnz	r1, .L14
 186:debug_cm4.c   ****     {
 187:debug_cm4.c   ****         /* means use a bitwise AND to take the bottom four bits from the byte,
 188:debug_cm4.c   ****         0x0F is 00001111 in binary */
 189:debug_cm4.c   ****         value = value & 0x0F;
 149              		.loc 1 189 0
 150 0014 00F00F00 		and	r0, r0, #15
 151              	.LVL12:
 190:debug_cm4.c   ****         if (value > 9)
 152              		.loc 1 190 0
ARM GAS  C:\Users\Smaug\AppData\Local\Temp\ccw2FZX5.s 			page 7


 153 0018 0928     		cmp	r0, #9
 154 001a 01D9     		bls	.L13
 191:debug_cm4.c   ****         {
 192:debug_cm4.c   ****             value = value - 10 + 'A';
 155              		.loc 1 192 0
 156 001c 3730     		adds	r0, r0, #55
 157              	.LVL13:
 158 001e 7047     		bx	lr
 159              	.L13:
 193:debug_cm4.c   ****         }
 194:debug_cm4.c   ****         else
 195:debug_cm4.c   ****         {
 196:debug_cm4.c   ****             value = value + '0';
 160              		.loc 1 196 0
 161 0020 3030     		adds	r0, r0, #48
 162              	.LVL14:
 163 0022 7047     		bx	lr
 164              	.L14:
 197:debug_cm4.c   ****         }
 198:debug_cm4.c   ****     }
 199:debug_cm4.c   ****     else
 200:debug_cm4.c   ****     {
 201:debug_cm4.c   ****         value = ' ';    
 165              		.loc 1 201 0
 166 0024 2020     		movs	r0, #32
 167              	.LVL15:
 202:debug_cm4.c   ****     }
 203:debug_cm4.c   ****     
 204:debug_cm4.c   ****     return value;
 205:debug_cm4.c   **** }
 168              		.loc 1 205 0
 169 0026 7047     		bx	lr
 170              		.cfi_endproc
 171              	.LFE759:
 172              		.size	HexToAscii, .-HexToAscii
 173              		.section	.text.PrintStackVersion,"ax",%progbits
 174              		.align	2
 175              		.global	PrintStackVersion
 176              		.thumb
 177              		.thumb_func
 178              		.type	PrintStackVersion, %function
 179              	PrintStackVersion:
 180              	.LFB760:
 206:debug_cm4.c   **** 
 207:debug_cm4.c   **** /*******************************************************************************
 208:debug_cm4.c   **** * Function Name: PrintStackVersion
 209:debug_cm4.c   **** ********************************************************************************
 210:debug_cm4.c   **** *
 211:debug_cm4.c   **** * Summary:
 212:debug_cm4.c   **** *   Prints the BLE Stack version if the PRINT_STACK_VERSION is defined.
 213:debug_cm4.c   **** *
 214:debug_cm4.c   **** *******************************************************************************/
 215:debug_cm4.c   **** void PrintStackVersion(void)
 216:debug_cm4.c   **** {
 181              		.loc 1 216 0
 182              		.cfi_startproc
 183              		@ args = 0, pretend = 0, frame = 8
ARM GAS  C:\Users\Smaug\AppData\Local\Temp\ccw2FZX5.s 			page 8


 184              		@ frame_needed = 0, uses_anonymous_args = 0
 185 0000 00B5     		push	{lr}
 186              		.cfi_def_cfa_offset 4
 187              		.cfi_offset 14, -4
 188 0002 83B0     		sub	sp, sp, #12
 189              		.cfi_def_cfa_offset 16
 217:debug_cm4.c   ****     cy_stc_ble_stack_lib_version_t stackVersion;
 218:debug_cm4.c   ****     cy_en_ble_api_result_t apiResult;
 219:debug_cm4.c   ****     
 220:debug_cm4.c   ****     apiResult = Cy_BLE_GetStackLibraryVersion(&stackVersion);
 190              		.loc 1 220 0
 191 0004 6846     		mov	r0, sp
 192 0006 FFF7FEFF 		bl	Cy_BLE_GetStackLibraryVersion
 193              	.LVL16:
 221:debug_cm4.c   ****     if(apiResult != CY_BLE_SUCCESS)
 222:debug_cm4.c   ****     {
 223:debug_cm4.c   ****         DBG_PRINTF("Cy_BLE_GetStackLibraryVersion API Error: ");
 224:debug_cm4.c   ****         //PrintApiResult(apiResult);
 225:debug_cm4.c   ****     }
 226:debug_cm4.c   ****     else
 227:debug_cm4.c   ****     {
 228:debug_cm4.c   ****         DBG_PRINTF("BLE Stack Version: %d.%d.%d.%d\r\n", stackVersion.majorVersion, 
 229:debug_cm4.c   ****                                                          stackVersion.minorVersion,
 230:debug_cm4.c   ****                                                          stackVersion.patch,
 231:debug_cm4.c   ****                                                          stackVersion.buildNumber);
 232:debug_cm4.c   ****     }
 233:debug_cm4.c   **** }
 194              		.loc 1 233 0
 195 000a 03B0     		add	sp, sp, #12
 196              		.cfi_def_cfa_offset 4
 197              		@ sp needed
 198 000c 5DF804FB 		ldr	pc, [sp], #4
 199              		.cfi_endproc
 200              	.LFE760:
 201              		.size	PrintStackVersion, .-PrintStackVersion
 202              		.section	.text.PrintApiResult,"ax",%progbits
 203              		.align	2
 204              		.global	PrintApiResult
 205              		.thumb
 206              		.thumb_func
 207              		.type	PrintApiResult, %function
 208              	PrintApiResult:
 209              	.LFB761:
 234:debug_cm4.c   **** 
 235:debug_cm4.c   **** /*******************************************************************************
 236:debug_cm4.c   **** * Function Name: PrintApiResult
 237:debug_cm4.c   **** ********************************************************************************
 238:debug_cm4.c   **** *
 239:debug_cm4.c   **** * Summary:
 240:debug_cm4.c   **** *   Decodes and prints the apiResult global variable value.
 241:debug_cm4.c   **** *
 242:debug_cm4.c   **** *******************************************************************************/
 243:debug_cm4.c   **** void PrintApiResult(cy_en_ble_api_result_t apiResult)
 244:debug_cm4.c   **** {
 210              		.loc 1 244 0
 211              		.cfi_startproc
 212              		@ args = 0, pretend = 0, frame = 0
ARM GAS  C:\Users\Smaug\AppData\Local\Temp\ccw2FZX5.s 			page 9


 213              		@ frame_needed = 0, uses_anonymous_args = 0
 214              		@ link register save eliminated.
 215              	.LVL17:
 216 0000 7047     		bx	lr
 217              		.cfi_endproc
 218              	.LFE761:
 219              		.size	PrintApiResult, .-PrintApiResult
 220 0002 00BF     		.section	.rodata.str1.4,"aMS",%progbits,1
 221              		.align	2
 222              	.LC0:
 223 0000 64656275 		.ascii	"debug_cm4.c\000"
 223      675F636D 
 223      342E6300 
 224              		.text
 225              	.Letext0:
 226              		.file 2 "c:\\program files (x86)\\cypress\\psoc creator\\4.4\\psoc creator\\import\\gnu\\arm\\5.4.
 227              		.file 3 "c:\\program files (x86)\\cypress\\psoc creator\\4.4\\psoc creator\\import\\gnu\\arm\\5.4.
 228              		.file 4 "Generated_Source\\PSoC6\\pdl\\drivers/peripheral/device/cy_device.h"
 229              		.file 5 "Generated_Source\\PSoC6\\pdl\\drivers/peripheral/syslib/cy_syslib.h"
 230              		.file 6 "Generated_Source\\PSoC6\\pdl\\drivers/peripheral/sar/cy_sar.h"
 231              		.file 7 "Generated_Source\\PSoC6\\pdl\\drivers/peripheral/scb/cy_scb_i2c.h"
 232              		.file 8 "Generated_Source\\PSoC6\\pdl\\drivers/peripheral/scb/cy_scb_spi.h"
 233              		.file 9 "Generated_Source\\PSoC6\\pdl\\drivers/peripheral/scb/cy_scb_uart.h"
 234              		.file 10 "Generated_Source\\PSoC6\\pdl\\drivers/peripheral/tcpwm/cy_tcpwm_counter.h"
 235              		.file 11 "Generated_Source\\PSoC6\\pdl\\drivers/peripheral/tcpwm/cy_tcpwm_pwm.h"
 236              		.file 12 "Generated_Source\\PSoC6\\pdl\\middleware/ble/cy_ble_stack.h"
 237              		.file 13 "Generated_Source\\PSoC6\\pdl\\middleware/ble/cy_ble_stack_gatt.h"
 238              		.file 14 "Generated_Source\\PSoC6/ADC.h"
 239              		.file 15 "Generated_Source\\PSoC6\\pdl\\cmsis/include/core_cm4.h"
 240              		.file 16 "Generated_Source\\PSoC6/I2C_Main.h"
 241              		.file 17 "Generated_Source\\PSoC6/UART_Debug.h"
 242              		.file 18 "Generated_Source\\PSoC6/PWM_Trig.h"
 243              		.file 19 "Generated_Source\\PSoC6/Counter_Echo.h"
 244              		.file 20 "Generated_Source\\PSoC6/IR.h"
 245              		.file 21 "Generated_Source\\PSoC6/PWM_Buz.h"
 246              		.file 22 "Generated_Source\\PSoC6/SPI_LEDCTRL.h"