ARM GAS  C:\Users\Smaug\AppData\Local\Temp\ccJKcizn.s 			page 1


   1              		.syntax unified
   2              		.cpu cortex-m4
   3              		.eabi_attribute 27, 1
   4              		.fpu fpv4-sp-d16
   5              		.eabi_attribute 20, 1
   6              		.eabi_attribute 21, 1
   7              		.eabi_attribute 23, 3
   8              		.eabi_attribute 24, 1
   9              		.eabi_attribute 25, 1
  10              		.eabi_attribute 26, 1
  11              		.eabi_attribute 30, 1
  12              		.eabi_attribute 34, 1
  13              		.eabi_attribute 18, 4
  14              		.thumb
  15              		.syntax unified
  16              		.file	"ledctrl.c"
  17              		.text
  18              	.Ltext0:
  19              		.cfi_sections	.debug_frame
  20              		.section	.text.Leds_ColorToRawBitstream,"ax",%progbits
  21              		.align	2
  22              		.thumb
  23              		.thumb_func
  24              		.type	Leds_ColorToRawBitstream, %function
  25              	Leds_ColorToRawBitstream:
  26              	.LFB757:
  27              		.file 1 "ledctrl.c"
   1:ledctrl.c     **** /* ========================================
   2:ledctrl.c     ****  *
   3:ledctrl.c     ****  * Copyright YOUR COMPANY, THE YEAR
   4:ledctrl.c     ****  * All Rights Reserved
   5:ledctrl.c     ****  * UNPUBLISHED, LICENSED SOFTWARE.
   6:ledctrl.c     ****  *
   7:ledctrl.c     ****  * CONFIDENTIAL AND PROPRIETARY INFORMATION
   8:ledctrl.c     ****  * WHICH IS THE PROPERTY OF your company.
   9:ledctrl.c     ****  *
  10:ledctrl.c     ****  * ========================================
  11:ledctrl.c     **** */
  12:ledctrl.c     **** 
  13:ledctrl.c     **** #include "ledctrl.h"
  14:ledctrl.c     **** 
  15:ledctrl.c     **** // Blanking frame (all zeros) because of how SCB SPI works.
  16:ledctrl.c     **** static uint8_t blankingFrame = 0x00;
  17:ledctrl.c     **** 
  18:ledctrl.c     **** static void Leds_SendData(void* data, uint16_t len);
  19:ledctrl.c     **** 
  20:ledctrl.c     **** // This is a buffer with raw data prepared for SPI transmission to WS2812 LEDs
  21:ledctrl.c     **** // Not made static in case you want to control it manually (not recommended, but you can modify the
  22:ledctrl.c     **** uint8_t Leds_rawColorBuffer[WS2812_BUFFER_SIZE] = {0,};
  23:ledctrl.c     **** 
  24:ledctrl.c     **** cy_en_scb_spi_status_t Leds_Init(void)
  25:ledctrl.c     **** {
  26:ledctrl.c     ****     cy_en_scb_spi_status_t initStatus;
  27:ledctrl.c     ****     
  28:ledctrl.c     ****     /* Configure component */
  29:ledctrl.c     ****     initStatus = Cy_SCB_SPI_Init(SPI_LEDCTRL_HW, &SPI_LEDCTRL_config, NULL);
  30:ledctrl.c     ****     if(initStatus == CY_SCB_SPI_SUCCESS)
ARM GAS  C:\Users\Smaug\AppData\Local\Temp\ccJKcizn.s 			page 2


  31:ledctrl.c     ****     {
  32:ledctrl.c     ****         /* Enable SPI master hardware. */
  33:ledctrl.c     ****         Cy_SCB_SPI_Enable(SPI_LEDCTRL_HW);
  34:ledctrl.c     ****     }
  35:ledctrl.c     ****     
  36:ledctrl.c     ****     return initStatus;
  37:ledctrl.c     **** }
  38:ledctrl.c     **** 
  39:ledctrl.c     **** // Send data array to LED strip.
  40:ledctrl.c     **** static void Leds_SendData(void* data, uint16_t len)
  41:ledctrl.c     **** {
  42:ledctrl.c     ****     // Perform blanking so WS2812 would think that RESET state occured
  43:ledctrl.c     ****     Cy_SCB_SPI_WriteArrayBlocking(SPI_LEDCTRL_HW, &blankingFrame, 1);
  44:ledctrl.c     ****     // Send actual data
  45:ledctrl.c     ****     Cy_SCB_SPI_WriteArrayBlocking(SPI_LEDCTRL_HW, data, len);
  46:ledctrl.c     ****     // Perform blanking so WS2812 would think that RESET state occured (lock colors) 
  47:ledctrl.c     ****     Cy_SCB_SPI_WriteArrayBlocking(SPI_LEDCTRL_HW, &blankingFrame, 1);
  48:ledctrl.c     **** }
  49:ledctrl.c     **** 
  50:ledctrl.c     **** // Convert GRB 8 bit components to SPI-friendly data for transmission
  51:ledctrl.c     **** static void Leds_ColorToRawBitstream(uint8_t g, uint8_t r, uint8_t b, uint8_t* out_data)
  52:ledctrl.c     **** {
  28              		.loc 1 52 0
  29              		.cfi_startproc
  30              		@ args = 0, pretend = 0, frame = 0
  31              		@ frame_needed = 0, uses_anonymous_args = 0
  32              		@ link register save eliminated.
  33              	.LVL0:
  34 0000 30B4     		push	{r4, r5}
  35              		.cfi_def_cfa_offset 8
  36              		.cfi_offset 4, -8
  37              		.cfi_offset 5, -4
  53:ledctrl.c     **** 	uint32_t color = (g << 16) | (r << 8) | b;
  38              		.loc 1 53 0
  39 0002 0902     		lsls	r1, r1, #8
  40              	.LVL1:
  41 0004 41EA0040 		orr	r0, r1, r0, lsl #16
  42              	.LVL2:
  43 0008 0243     		orrs	r2, r2, r0
  44              	.LVL3:
  45              	.LBB8:
  54:ledctrl.c     **** 	uint16_t idx = 0;
  55:ledctrl.c     **** 
  56:ledctrl.c     **** 	for (int16_t i = 23; i >= 0; i--)
  46              		.loc 1 56 0
  47 000a 1721     		movs	r1, #23
  48              	.LBE8:
  54:ledctrl.c     **** 	uint16_t idx = 0;
  49              		.loc 1 54 0
  50 000c 0024     		movs	r4, #0
  51              	.LBB9:
  52              		.loc 1 56 0
  53 000e 0FE0     		b	.L2
  54              	.LVL4:
  55              	.L5:
  57:ledctrl.c     **** 	{
  58:ledctrl.c     ****         // If original color is 1...
ARM GAS  C:\Users\Smaug\AppData\Local\Temp\ccJKcizn.s 			page 3


  59:ledctrl.c     **** 		if (((color >> i) & 0x01) == 1)
  56              		.loc 1 59 0
  57 0010 22FA01F5 		lsr	r5, r2, r1
  58 0014 15F0010F 		tst	r5, #1
  59 0018 04D0     		beq	.L3
  60:ledctrl.c     ****         {
  61:ledctrl.c     ****             out_data[idx++] = 0b110;  // ...store 1
  60              		.loc 1 61 0
  61 001a 601C     		adds	r0, r4, #1
  62              	.LVL5:
  63 001c 0625     		movs	r5, #6
  64 001e 1D55     		strb	r5, [r3, r4]
  65 0020 84B2     		uxth	r4, r0
  66 0022 03E0     		b	.L4
  67              	.LVL6:
  68              	.L3:
  62:ledctrl.c     ****         }
  63:ledctrl.c     **** 		else
  64:ledctrl.c     ****         {
  65:ledctrl.c     ****             out_data[idx++] = 0b100;  // ...store 0
  69              		.loc 1 65 0
  70 0024 601C     		adds	r0, r4, #1
  71              	.LVL7:
  72 0026 0425     		movs	r5, #4
  73 0028 1D55     		strb	r5, [r3, r4]
  74 002a 84B2     		uxth	r4, r0
  75              	.L4:
  76              	.LVL8:
  56:ledctrl.c     **** 	{
  77              		.loc 1 56 0 discriminator 2
  78 002c 0139     		subs	r1, r1, #1
  79              	.LVL9:
  80 002e 09B2     		sxth	r1, r1
  81              	.LVL10:
  82              	.L2:
  56:ledctrl.c     **** 	{
  83              		.loc 1 56 0 is_stmt 0 discriminator 1
  84 0030 0029     		cmp	r1, #0
  85 0032 EDDA     		bge	.L5
  86              	.LBE9:
  66:ledctrl.c     ****         }
  67:ledctrl.c     **** 	}
  68:ledctrl.c     **** }
  87              		.loc 1 68 0 is_stmt 1
  88 0034 30BC     		pop	{r4, r5}
  89              		.cfi_restore 5
  90              		.cfi_restore 4
  91              		.cfi_def_cfa_offset 0
  92              	.LVL11:
  93 0036 7047     		bx	lr
  94              		.cfi_endproc
  95              	.LFE757:
  96              		.size	Leds_ColorToRawBitstream, .-Leds_ColorToRawBitstream
  97              		.section	.text.Leds_SendData,"ax",%progbits
  98              		.align	2
  99              		.thumb
 100              		.thumb_func
ARM GAS  C:\Users\Smaug\AppData\Local\Temp\ccJKcizn.s 			page 4


 101              		.type	Leds_SendData, %function
 102              	Leds_SendData:
 103              	.LFB756:
  41:ledctrl.c     ****     // Perform blanking so WS2812 would think that RESET state occured
 104              		.loc 1 41 0
 105              		.cfi_startproc
 106              		@ args = 0, pretend = 0, frame = 0
 107              		@ frame_needed = 0, uses_anonymous_args = 0
 108              	.LVL12:
 109 0000 70B5     		push	{r4, r5, r6, lr}
 110              		.cfi_def_cfa_offset 16
 111              		.cfi_offset 4, -16
 112              		.cfi_offset 5, -12
 113              		.cfi_offset 6, -8
 114              		.cfi_offset 14, -4
 115 0002 0546     		mov	r5, r0
 116 0004 0E46     		mov	r6, r1
 117              	.LVL13:
 118              	.LBB16:
 119              	.LBB17:
 120              		.file 2 "Generated_Source\\PSoC6\\pdl\\drivers/peripheral/scb/cy_scb_spi.h"
   1:Generated_Source\PSoC6\pdl\drivers/peripheral/scb/cy_scb_spi.h **** /***************************************************************************//**
   2:Generated_Source\PSoC6\pdl\drivers/peripheral/scb/cy_scb_spi.h **** * \file cy_scb_spi.h
   3:Generated_Source\PSoC6\pdl\drivers/peripheral/scb/cy_scb_spi.h **** * \version 2.30
   4:Generated_Source\PSoC6\pdl\drivers/peripheral/scb/cy_scb_spi.h **** *
   5:Generated_Source\PSoC6\pdl\drivers/peripheral/scb/cy_scb_spi.h **** * Provides SPI API declarations of the SCB driver.
   6:Generated_Source\PSoC6\pdl\drivers/peripheral/scb/cy_scb_spi.h **** *
   7:Generated_Source\PSoC6\pdl\drivers/peripheral/scb/cy_scb_spi.h **** ********************************************************************************
   8:Generated_Source\PSoC6\pdl\drivers/peripheral/scb/cy_scb_spi.h **** * \copyright
   9:Generated_Source\PSoC6\pdl\drivers/peripheral/scb/cy_scb_spi.h **** * Copyright 2016-2021, Cypress Semiconductor Corporation.  All rights reserved.
  10:Generated_Source\PSoC6\pdl\drivers/peripheral/scb/cy_scb_spi.h **** * You may use this file only in accordance with the license, terms, conditions,
  11:Generated_Source\PSoC6\pdl\drivers/peripheral/scb/cy_scb_spi.h **** * disclaimers, and limitations in the end user license agreement accompanying
  12:Generated_Source\PSoC6\pdl\drivers/peripheral/scb/cy_scb_spi.h **** * the software package with which this file was provided.
  13:Generated_Source\PSoC6\pdl\drivers/peripheral/scb/cy_scb_spi.h **** *******************************************************************************/
  14:Generated_Source\PSoC6\pdl\drivers/peripheral/scb/cy_scb_spi.h **** 
  15:Generated_Source\PSoC6\pdl\drivers/peripheral/scb/cy_scb_spi.h **** /**
  16:Generated_Source\PSoC6\pdl\drivers/peripheral/scb/cy_scb_spi.h **** * \addtogroup group_scb_spi
  17:Generated_Source\PSoC6\pdl\drivers/peripheral/scb/cy_scb_spi.h **** * \{
  18:Generated_Source\PSoC6\pdl\drivers/peripheral/scb/cy_scb_spi.h **** * Driver API for SPI Peripheral.
  19:Generated_Source\PSoC6\pdl\drivers/peripheral/scb/cy_scb_spi.h **** *
  20:Generated_Source\PSoC6\pdl\drivers/peripheral/scb/cy_scb_spi.h **** * The functions and other declarations used in this part of the driver are in
  21:Generated_Source\PSoC6\pdl\drivers/peripheral/scb/cy_scb_spi.h **** * cy_scb_spi.h. You can also include cy_pdl.h (ModusToolbox only) to get access
  22:Generated_Source\PSoC6\pdl\drivers/peripheral/scb/cy_scb_spi.h **** * to all functions and declarations in the PDL.
  23:Generated_Source\PSoC6\pdl\drivers/peripheral/scb/cy_scb_spi.h **** *
  24:Generated_Source\PSoC6\pdl\drivers/peripheral/scb/cy_scb_spi.h **** * The SPI protocol is a synchronous serial interface protocol. Devices operate
  25:Generated_Source\PSoC6\pdl\drivers/peripheral/scb/cy_scb_spi.h **** * in either master or slave mode. The master initiates the data transfer.
  26:Generated_Source\PSoC6\pdl\drivers/peripheral/scb/cy_scb_spi.h **** * The SCB supports single-master-multiple-slaves topology for SPI. Multiple
  27:Generated_Source\PSoC6\pdl\drivers/peripheral/scb/cy_scb_spi.h **** * slaves are supported with individual slave select lines.
  28:Generated_Source\PSoC6\pdl\drivers/peripheral/scb/cy_scb_spi.h **** *
  29:Generated_Source\PSoC6\pdl\drivers/peripheral/scb/cy_scb_spi.h **** * Features:
  30:Generated_Source\PSoC6\pdl\drivers/peripheral/scb/cy_scb_spi.h **** * * Supports master and slave functionalitySupports three types of SPI protocols:
  31:Generated_Source\PSoC6\pdl\drivers/peripheral/scb/cy_scb_spi.h **** *  * Motorola SPI - modes 0, 1, 2, and 3
  32:Generated_Source\PSoC6\pdl\drivers/peripheral/scb/cy_scb_spi.h **** *  * Texas Instruments SPI, with coinciding and preceding data frame indicator - mode 1 only
  33:Generated_Source\PSoC6\pdl\drivers/peripheral/scb/cy_scb_spi.h **** *  * National Semiconductor (MicroWire) SPI - mode 0 only
  34:Generated_Source\PSoC6\pdl\drivers/peripheral/scb/cy_scb_spi.h **** * * Master supports up to four slave select lines
  35:Generated_Source\PSoC6\pdl\drivers/peripheral/scb/cy_scb_spi.h **** *   * Each slave select has configurable active polarity (high or low)
  36:Generated_Source\PSoC6\pdl\drivers/peripheral/scb/cy_scb_spi.h **** *   * Slave select can be programmed to stay active for a whole transfer, or
ARM GAS  C:\Users\Smaug\AppData\Local\Temp\ccJKcizn.s 			page 5


  37:Generated_Source\PSoC6\pdl\drivers/peripheral/scb/cy_scb_spi.h **** *     just for each byte
  38:Generated_Source\PSoC6\pdl\drivers/peripheral/scb/cy_scb_spi.h **** * * Master supports late sampling for better timing margin
  39:Generated_Source\PSoC6\pdl\drivers/peripheral/scb/cy_scb_spi.h **** * * Master supports continuous SPI clock
  40:Generated_Source\PSoC6\pdl\drivers/peripheral/scb/cy_scb_spi.h **** * * Data frame size programmable from 4 bits to 16 bits
  41:Generated_Source\PSoC6\pdl\drivers/peripheral/scb/cy_scb_spi.h **** * * Programmable oversampling
  42:Generated_Source\PSoC6\pdl\drivers/peripheral/scb/cy_scb_spi.h **** * * MSb or LSb first
  43:Generated_Source\PSoC6\pdl\drivers/peripheral/scb/cy_scb_spi.h **** * * Median filter available for inputs
  44:Generated_Source\PSoC6\pdl\drivers/peripheral/scb/cy_scb_spi.h **** *
  45:Generated_Source\PSoC6\pdl\drivers/peripheral/scb/cy_scb_spi.h **** ********************************************************************************
  46:Generated_Source\PSoC6\pdl\drivers/peripheral/scb/cy_scb_spi.h **** * \section group_scb_spi_configuration Configuration Considerations
  47:Generated_Source\PSoC6\pdl\drivers/peripheral/scb/cy_scb_spi.h **** ********************************************************************************
  48:Generated_Source\PSoC6\pdl\drivers/peripheral/scb/cy_scb_spi.h **** * The SPI driver configuration can be divided to number of sequential
  49:Generated_Source\PSoC6\pdl\drivers/peripheral/scb/cy_scb_spi.h **** * steps listed below:
  50:Generated_Source\PSoC6\pdl\drivers/peripheral/scb/cy_scb_spi.h **** * * \ref group_scb_spi_config
  51:Generated_Source\PSoC6\pdl\drivers/peripheral/scb/cy_scb_spi.h **** * * \ref group_scb_spi_pins
  52:Generated_Source\PSoC6\pdl\drivers/peripheral/scb/cy_scb_spi.h **** * * \ref group_scb_spi_clock
  53:Generated_Source\PSoC6\pdl\drivers/peripheral/scb/cy_scb_spi.h **** * * \ref group_scb_spi_data_rate
  54:Generated_Source\PSoC6\pdl\drivers/peripheral/scb/cy_scb_spi.h **** * * \ref group_scb_spi_intr
  55:Generated_Source\PSoC6\pdl\drivers/peripheral/scb/cy_scb_spi.h **** * * \ref group_scb_spi_enable
  56:Generated_Source\PSoC6\pdl\drivers/peripheral/scb/cy_scb_spi.h **** *
  57:Generated_Source\PSoC6\pdl\drivers/peripheral/scb/cy_scb_spi.h **** * \note
  58:Generated_Source\PSoC6\pdl\drivers/peripheral/scb/cy_scb_spi.h **** * The SPI driver is built on top of the SCB hardware block. The SCB1 instance is
  59:Generated_Source\PSoC6\pdl\drivers/peripheral/scb/cy_scb_spi.h **** * used as an example for all code snippets. Modify the code to match your
  60:Generated_Source\PSoC6\pdl\drivers/peripheral/scb/cy_scb_spi.h **** * design.
  61:Generated_Source\PSoC6\pdl\drivers/peripheral/scb/cy_scb_spi.h **** *
  62:Generated_Source\PSoC6\pdl\drivers/peripheral/scb/cy_scb_spi.h **** ********************************************************************************
  63:Generated_Source\PSoC6\pdl\drivers/peripheral/scb/cy_scb_spi.h **** * \subsection group_scb_spi_config Configure SPI
  64:Generated_Source\PSoC6\pdl\drivers/peripheral/scb/cy_scb_spi.h **** ********************************************************************************
  65:Generated_Source\PSoC6\pdl\drivers/peripheral/scb/cy_scb_spi.h **** * To set up the SPI driver, provide the configuration parameters in the
  66:Generated_Source\PSoC6\pdl\drivers/peripheral/scb/cy_scb_spi.h **** * \ref cy_stc_scb_spi_config_t structure. For example: provide spiMode,
  67:Generated_Source\PSoC6\pdl\drivers/peripheral/scb/cy_scb_spi.h **** * subMode, sclkMode, oversample, rxDataWidth, and txDataWidth. The other
  68:Generated_Source\PSoC6\pdl\drivers/peripheral/scb/cy_scb_spi.h **** * parameters are optional for operation. To initialize the driver, call
  69:Generated_Source\PSoC6\pdl\drivers/peripheral/scb/cy_scb_spi.h **** * \ref Cy_SCB_SPI_Init function providing a pointer to the populated
  70:Generated_Source\PSoC6\pdl\drivers/peripheral/scb/cy_scb_spi.h **** * \ref cy_stc_scb_spi_config_t structure and the allocated
  71:Generated_Source\PSoC6\pdl\drivers/peripheral/scb/cy_scb_spi.h **** * \ref cy_stc_scb_spi_context_t structure.
  72:Generated_Source\PSoC6\pdl\drivers/peripheral/scb/cy_scb_spi.h **** *
  73:Generated_Source\PSoC6\pdl\drivers/peripheral/scb/cy_scb_spi.h **** * \snippet SCB_CompDatasheet_sut_01_revA.cydsn\spi_snippets.c SPI_CFG
  74:Generated_Source\PSoC6\pdl\drivers/peripheral/scb/cy_scb_spi.h **** *
  75:Generated_Source\PSoC6\pdl\drivers/peripheral/scb/cy_scb_spi.h **** ********************************************************************************
  76:Generated_Source\PSoC6\pdl\drivers/peripheral/scb/cy_scb_spi.h **** * \subsection group_scb_spi_pins Assign and Configure Pins
  77:Generated_Source\PSoC6\pdl\drivers/peripheral/scb/cy_scb_spi.h **** ********************************************************************************
  78:Generated_Source\PSoC6\pdl\drivers/peripheral/scb/cy_scb_spi.h **** * Only dedicated SCB pins can be used for SPI operation. The HSIOM
  79:Generated_Source\PSoC6\pdl\drivers/peripheral/scb/cy_scb_spi.h **** * register must be configured to connect dedicated SCB SPI pins to the
  80:Generated_Source\PSoC6\pdl\drivers/peripheral/scb/cy_scb_spi.h **** * SCB block. Also, the SPI output pins must be configured in Strong Drive Input
  81:Generated_Source\PSoC6\pdl\drivers/peripheral/scb/cy_scb_spi.h **** * Off mode and SPI input pins in Digital High-Z.
  82:Generated_Source\PSoC6\pdl\drivers/peripheral/scb/cy_scb_spi.h **** *
  83:Generated_Source\PSoC6\pdl\drivers/peripheral/scb/cy_scb_spi.h **** * \snippet SCB_CompDatasheet_sut_01_revA.cydsn\spi_snippets.c SPI_CFG_PINS
  84:Generated_Source\PSoC6\pdl\drivers/peripheral/scb/cy_scb_spi.h **** *
  85:Generated_Source\PSoC6\pdl\drivers/peripheral/scb/cy_scb_spi.h **** ********************************************************************************
  86:Generated_Source\PSoC6\pdl\drivers/peripheral/scb/cy_scb_spi.h **** * \subsection group_scb_spi_clock Assign Clock Divider
  87:Generated_Source\PSoC6\pdl\drivers/peripheral/scb/cy_scb_spi.h **** ********************************************************************************
  88:Generated_Source\PSoC6\pdl\drivers/peripheral/scb/cy_scb_spi.h **** * A clock source must be connected to the SCB block to oversample input and
  89:Generated_Source\PSoC6\pdl\drivers/peripheral/scb/cy_scb_spi.h **** * output signals, in this document this clock will be referred as clk_scb.
  90:Generated_Source\PSoC6\pdl\drivers/peripheral/scb/cy_scb_spi.h **** * You must use one of the 8-bit or 16-bit dividers. Use the \ref group_sysclk
  91:Generated_Source\PSoC6\pdl\drivers/peripheral/scb/cy_scb_spi.h **** * driver API to do this.
  92:Generated_Source\PSoC6\pdl\drivers/peripheral/scb/cy_scb_spi.h **** *
  93:Generated_Source\PSoC6\pdl\drivers/peripheral/scb/cy_scb_spi.h **** * \snippet SCB_CompDatasheet_sut_01_revA.cydsn\spi_snippets.c SPI_CFG_ASSIGN_CLOCK
ARM GAS  C:\Users\Smaug\AppData\Local\Temp\ccJKcizn.s 			page 6


  94:Generated_Source\PSoC6\pdl\drivers/peripheral/scb/cy_scb_spi.h **** *
  95:Generated_Source\PSoC6\pdl\drivers/peripheral/scb/cy_scb_spi.h **** ********************************************************************************
  96:Generated_Source\PSoC6\pdl\drivers/peripheral/scb/cy_scb_spi.h **** * \subsection group_scb_spi_data_rate Configure Data Rate
  97:Generated_Source\PSoC6\pdl\drivers/peripheral/scb/cy_scb_spi.h **** ********************************************************************************
  98:Generated_Source\PSoC6\pdl\drivers/peripheral/scb/cy_scb_spi.h **** * To get the SPI slave to operate with the desired data rate, the clk_scb must be
  99:Generated_Source\PSoC6\pdl\drivers/peripheral/scb/cy_scb_spi.h **** * fast enough to provide sufficient oversampling. Use the \ref group_sysclk driver
 100:Generated_Source\PSoC6\pdl\drivers/peripheral/scb/cy_scb_spi.h **** * API to do that.
 101:Generated_Source\PSoC6\pdl\drivers/peripheral/scb/cy_scb_spi.h **** *
 102:Generated_Source\PSoC6\pdl\drivers/peripheral/scb/cy_scb_spi.h **** * \snippet SCB_CompDatasheet_sut_01_revA.cydsn\spi_snippets.c SPI_CFG_DATA_RATE_SLAVE
 103:Generated_Source\PSoC6\pdl\drivers/peripheral/scb/cy_scb_spi.h **** *
 104:Generated_Source\PSoC6\pdl\drivers/peripheral/scb/cy_scb_spi.h **** * To get the SPI master to operate with the desired data rate, multiply the
 105:Generated_Source\PSoC6\pdl\drivers/peripheral/scb/cy_scb_spi.h **** * oversample factor by the desired data rate to determine the required
 106:Generated_Source\PSoC6\pdl\drivers/peripheral/scb/cy_scb_spi.h **** * frequency for clk_scb. Use the \ref group_sysclk driver API to configure
 107:Generated_Source\PSoC6\pdl\drivers/peripheral/scb/cy_scb_spi.h **** * clk_scb frequency. Set the <em><b>oversample parameter in configuration
 108:Generated_Source\PSoC6\pdl\drivers/peripheral/scb/cy_scb_spi.h **** * structure</b></em> to define number of SCB clocks in one SCLK period.
 109:Generated_Source\PSoC6\pdl\drivers/peripheral/scb/cy_scb_spi.h **** * When this value is even, the first and second phases of the SCLK period are
 110:Generated_Source\PSoC6\pdl\drivers/peripheral/scb/cy_scb_spi.h **** * the same. Otherwise, the first phase is one SCB clock cycle longer than the
 111:Generated_Source\PSoC6\pdl\drivers/peripheral/scb/cy_scb_spi.h **** * second phase. The level of the first phase of the clock period depends on CPOL
 112:Generated_Source\PSoC6\pdl\drivers/peripheral/scb/cy_scb_spi.h **** * settings: 0 - low level and 1 - high level.
 113:Generated_Source\PSoC6\pdl\drivers/peripheral/scb/cy_scb_spi.h **** *
 114:Generated_Source\PSoC6\pdl\drivers/peripheral/scb/cy_scb_spi.h **** * \snippet SCB_CompDatasheet_sut_01_revA.cydsn\spi_snippets.c SPI_CFG_DATA_RATE_MASTER
 115:Generated_Source\PSoC6\pdl\drivers/peripheral/scb/cy_scb_spi.h **** *
 116:Generated_Source\PSoC6\pdl\drivers/peripheral/scb/cy_scb_spi.h **** * <b>Refer to the technical reference manual (TRM) section SPI sub-section
 117:Generated_Source\PSoC6\pdl\drivers/peripheral/scb/cy_scb_spi.h **** * Oversampling and Bit Rate to get information about how to configure SPI to run
 118:Generated_Source\PSoC6\pdl\drivers/peripheral/scb/cy_scb_spi.h **** * with desired data rate</b>.
 119:Generated_Source\PSoC6\pdl\drivers/peripheral/scb/cy_scb_spi.h **** *
 120:Generated_Source\PSoC6\pdl\drivers/peripheral/scb/cy_scb_spi.h **** ********************************************************************************
 121:Generated_Source\PSoC6\pdl\drivers/peripheral/scb/cy_scb_spi.h **** * \subsection group_scb_spi_intr Configure Interrupt
 122:Generated_Source\PSoC6\pdl\drivers/peripheral/scb/cy_scb_spi.h **** ********************************************************************************
 123:Generated_Source\PSoC6\pdl\drivers/peripheral/scb/cy_scb_spi.h **** * The interrupt is optional for the SPI operation. To configure the interrupt,
 124:Generated_Source\PSoC6\pdl\drivers/peripheral/scb/cy_scb_spi.h **** * the \ref Cy_SCB_SPI_Interrupt function must be called in the interrupt
 125:Generated_Source\PSoC6\pdl\drivers/peripheral/scb/cy_scb_spi.h **** * handler for the selected SCB instance. Also, this interrupt must be enabled
 126:Generated_Source\PSoC6\pdl\drivers/peripheral/scb/cy_scb_spi.h **** * in the NVIC.
 127:Generated_Source\PSoC6\pdl\drivers/peripheral/scb/cy_scb_spi.h **** * The interrupt must be configured when \ref group_scb_spi_hl will be used.
 128:Generated_Source\PSoC6\pdl\drivers/peripheral/scb/cy_scb_spi.h **** *
 129:Generated_Source\PSoC6\pdl\drivers/peripheral/scb/cy_scb_spi.h **** * \snippet SCB_CompDatasheet_sut_01_revA.cydsn\spi_snippets.c SPI_INTR_A
 130:Generated_Source\PSoC6\pdl\drivers/peripheral/scb/cy_scb_spi.h **** * \snippet SCB_CompDatasheet_sut_01_revA.cydsn\spi_snippets.c SPI_INTR_B
 131:Generated_Source\PSoC6\pdl\drivers/peripheral/scb/cy_scb_spi.h **** *
 132:Generated_Source\PSoC6\pdl\drivers/peripheral/scb/cy_scb_spi.h **** ********************************************************************************
 133:Generated_Source\PSoC6\pdl\drivers/peripheral/scb/cy_scb_spi.h **** * \subsection group_scb_spi_enable Enable SPI
 134:Generated_Source\PSoC6\pdl\drivers/peripheral/scb/cy_scb_spi.h **** ********************************************************************************
 135:Generated_Source\PSoC6\pdl\drivers/peripheral/scb/cy_scb_spi.h **** * Finally, enable the SPI operation by calling \ref Cy_SCB_SPI_Enable.
 136:Generated_Source\PSoC6\pdl\drivers/peripheral/scb/cy_scb_spi.h **** * For the slave, this means that SPI device starts responding to the transfers.
 137:Generated_Source\PSoC6\pdl\drivers/peripheral/scb/cy_scb_spi.h **** * For the master, it is ready to execute transfers.
 138:Generated_Source\PSoC6\pdl\drivers/peripheral/scb/cy_scb_spi.h **** *
 139:Generated_Source\PSoC6\pdl\drivers/peripheral/scb/cy_scb_spi.h **** * \snippet SCB_CompDatasheet_sut_01_revA.cydsn\spi_snippets.c SPI_ENABLE
 140:Generated_Source\PSoC6\pdl\drivers/peripheral/scb/cy_scb_spi.h **** *
 141:Generated_Source\PSoC6\pdl\drivers/peripheral/scb/cy_scb_spi.h **** ********************************************************************************
 142:Generated_Source\PSoC6\pdl\drivers/peripheral/scb/cy_scb_spi.h **** * \section group_scb_spi_use_cases Common Use Cases
 143:Generated_Source\PSoC6\pdl\drivers/peripheral/scb/cy_scb_spi.h **** ********************************************************************************
 144:Generated_Source\PSoC6\pdl\drivers/peripheral/scb/cy_scb_spi.h **** * The SPI API is the same for the master and slave mode operation and
 145:Generated_Source\PSoC6\pdl\drivers/peripheral/scb/cy_scb_spi.h **** * is divided into two categories: \ref group_scb_spi_low_level_functions
 146:Generated_Source\PSoC6\pdl\drivers/peripheral/scb/cy_scb_spi.h **** * and \ref group_scb_spi_high_level_functions. \n
 147:Generated_Source\PSoC6\pdl\drivers/peripheral/scb/cy_scb_spi.h **** * <em>Do not mix <b>High-Level</b> and <b>Low-Level</b> API because a Low-Level
 148:Generated_Source\PSoC6\pdl\drivers/peripheral/scb/cy_scb_spi.h **** * API can adversely affect the operation of a High-Level API.</em>
 149:Generated_Source\PSoC6\pdl\drivers/peripheral/scb/cy_scb_spi.h **** *
 150:Generated_Source\PSoC6\pdl\drivers/peripheral/scb/cy_scb_spi.h **** ********************************************************************************
ARM GAS  C:\Users\Smaug\AppData\Local\Temp\ccJKcizn.s 			page 7


 151:Generated_Source\PSoC6\pdl\drivers/peripheral/scb/cy_scb_spi.h **** * \subsection group_scb_spi_ll Low-Level API
 152:Generated_Source\PSoC6\pdl\drivers/peripheral/scb/cy_scb_spi.h **** ********************************************************************************
 153:Generated_Source\PSoC6\pdl\drivers/peripheral/scb/cy_scb_spi.h **** * The \ref group_scb_spi_low_level_functions functions allow
 154:Generated_Source\PSoC6\pdl\drivers/peripheral/scb/cy_scb_spi.h **** * interacting directly with the hardware and do not use \ref Cy_SCB_SPI_Interrupt.
 155:Generated_Source\PSoC6\pdl\drivers/peripheral/scb/cy_scb_spi.h **** * These functions do not require context for operation. Thus, NULL can be
 156:Generated_Source\PSoC6\pdl\drivers/peripheral/scb/cy_scb_spi.h **** * passed for context parameter in \ref Cy_SCB_SPI_Init and \ref Cy_SCB_SPI_Disable
 157:Generated_Source\PSoC6\pdl\drivers/peripheral/scb/cy_scb_spi.h **** * instead of a pointer to the context structure.
 158:Generated_Source\PSoC6\pdl\drivers/peripheral/scb/cy_scb_spi.h **** *
 159:Generated_Source\PSoC6\pdl\drivers/peripheral/scb/cy_scb_spi.h **** * * To write data into the TX FIFO, use one of the provided functions:
 160:Generated_Source\PSoC6\pdl\drivers/peripheral/scb/cy_scb_spi.h **** *   \ref Cy_SCB_SPI_Write, \ref Cy_SCB_SPI_WriteArray or
 161:Generated_Source\PSoC6\pdl\drivers/peripheral/scb/cy_scb_spi.h **** *   \ref Cy_SCB_SPI_WriteArrayBlocking.
 162:Generated_Source\PSoC6\pdl\drivers/peripheral/scb/cy_scb_spi.h **** *   Note that in the master mode, putting data into the TX FIFO starts a
 163:Generated_Source\PSoC6\pdl\drivers/peripheral/scb/cy_scb_spi.h **** *   transfer. Due to the nature of SPI, the received data is put into the RX FIFO.
 164:Generated_Source\PSoC6\pdl\drivers/peripheral/scb/cy_scb_spi.h **** *
 165:Generated_Source\PSoC6\pdl\drivers/peripheral/scb/cy_scb_spi.h **** * * To read data from the RX FIFO, use one of the provided functions:
 166:Generated_Source\PSoC6\pdl\drivers/peripheral/scb/cy_scb_spi.h **** *   \ref Cy_SCB_SPI_Read or \ref Cy_SCB_SPI_ReadArray. Again due to the nature
 167:Generated_Source\PSoC6\pdl\drivers/peripheral/scb/cy_scb_spi.h **** *   of SPI these functions do not start a transfer on the bus, they only read
 168:Generated_Source\PSoC6\pdl\drivers/peripheral/scb/cy_scb_spi.h **** *   data out of the RX FIFO that has already been received.
 169:Generated_Source\PSoC6\pdl\drivers/peripheral/scb/cy_scb_spi.h **** *
 170:Generated_Source\PSoC6\pdl\drivers/peripheral/scb/cy_scb_spi.h **** * * The statuses can be polled using: \ref Cy_SCB_SPI_GetRxFifoStatus,
 171:Generated_Source\PSoC6\pdl\drivers/peripheral/scb/cy_scb_spi.h **** *   \ref Cy_SCB_SPI_GetTxFifoStatus and \ref Cy_SCB_SPI_GetSlaveMasterStatus.
 172:Generated_Source\PSoC6\pdl\drivers/peripheral/scb/cy_scb_spi.h **** *   <em>The statuses are <b>W1C (Write 1 to Clear)</b> and after a status
 173:Generated_Source\PSoC6\pdl\drivers/peripheral/scb/cy_scb_spi.h **** *   is set, it must be cleared.</em> Note that there are statuses evaluated as level.
 174:Generated_Source\PSoC6\pdl\drivers/peripheral/scb/cy_scb_spi.h **** *   These statuses remain set until an event is true. Therefore, after the clear
 175:Generated_Source\PSoC6\pdl\drivers/peripheral/scb/cy_scb_spi.h **** *   operation, the status is cleared but then it is restored (if the event is still
 176:Generated_Source\PSoC6\pdl\drivers/peripheral/scb/cy_scb_spi.h **** *   true).
 177:Generated_Source\PSoC6\pdl\drivers/peripheral/scb/cy_scb_spi.h **** *   Also, the following functions can be used for polling as well
 178:Generated_Source\PSoC6\pdl\drivers/peripheral/scb/cy_scb_spi.h **** *   \ref Cy_SCB_SPI_IsBusBusy, \ref Cy_SCB_SPI_IsTxComplete,
 179:Generated_Source\PSoC6\pdl\drivers/peripheral/scb/cy_scb_spi.h **** *   \ref Cy_SCB_SPI_GetNumInRxFifo and \ref Cy_SCB_SPI_GetNumInTxFifo.
 180:Generated_Source\PSoC6\pdl\drivers/peripheral/scb/cy_scb_spi.h **** *
 181:Generated_Source\PSoC6\pdl\drivers/peripheral/scb/cy_scb_spi.h **** * \snippet SCB_CompDatasheet_sut_01_revA.cydsn\spi_snippets.c SPI_TRANFER_DATA_LL
 182:Generated_Source\PSoC6\pdl\drivers/peripheral/scb/cy_scb_spi.h **** *
 183:Generated_Source\PSoC6\pdl\drivers/peripheral/scb/cy_scb_spi.h **** ********************************************************************************
 184:Generated_Source\PSoC6\pdl\drivers/peripheral/scb/cy_scb_spi.h **** * \subsection group_scb_spi_hl High-Level API
 185:Generated_Source\PSoC6\pdl\drivers/peripheral/scb/cy_scb_spi.h **** ********************************************************************************
 186:Generated_Source\PSoC6\pdl\drivers/peripheral/scb/cy_scb_spi.h **** * The \ref group_scb_spi_high_level_functions API use \ref Cy_SCB_SPI_Interrupt
 187:Generated_Source\PSoC6\pdl\drivers/peripheral/scb/cy_scb_spi.h **** * to execute the transfer. Call \ref Cy_SCB_SPI_Transfer to start communication: for master
 188:Generated_Source\PSoC6\pdl\drivers/peripheral/scb/cy_scb_spi.h **** * mode calling this function starts a transaction with the slave. For slave mode
 189:Generated_Source\PSoC6\pdl\drivers/peripheral/scb/cy_scb_spi.h **** * the read and write buffers are prepared for the communication with the master.
 190:Generated_Source\PSoC6\pdl\drivers/peripheral/scb/cy_scb_spi.h **** * After a transfer is started, the \ref Cy_SCB_SPI_Interrupt handles the
 191:Generated_Source\PSoC6\pdl\drivers/peripheral/scb/cy_scb_spi.h **** * transfer until its completion. Therefore, the \ref Cy_SCB_SPI_Interrupt function
 192:Generated_Source\PSoC6\pdl\drivers/peripheral/scb/cy_scb_spi.h **** * must be called inside the user interrupt handler to make the High-Level API work.
 193:Generated_Source\PSoC6\pdl\drivers/peripheral/scb/cy_scb_spi.h **** * To monitor the status of the transfer operation, use \ref Cy_SCB_SPI_GetTransferStatus.
 194:Generated_Source\PSoC6\pdl\drivers/peripheral/scb/cy_scb_spi.h **** * Alternatively, use \ref Cy_SCB_SPI_RegisterCallback to register a callback
 195:Generated_Source\PSoC6\pdl\drivers/peripheral/scb/cy_scb_spi.h **** * function to be notified about \ref group_scb_spi_macros_callback_events.
 196:Generated_Source\PSoC6\pdl\drivers/peripheral/scb/cy_scb_spi.h **** *
 197:Generated_Source\PSoC6\pdl\drivers/peripheral/scb/cy_scb_spi.h **** * \snippet SCB_CompDatasheet_sut_01_revA.cydsn\spi_snippets.c SPI_TRANFER_DATA
 198:Generated_Source\PSoC6\pdl\drivers/peripheral/scb/cy_scb_spi.h **** *
 199:Generated_Source\PSoC6\pdl\drivers/peripheral/scb/cy_scb_spi.h **** ********************************************************************************
 200:Generated_Source\PSoC6\pdl\drivers/peripheral/scb/cy_scb_spi.h **** * \section group_scb_spi_dma_trig DMA Trigger
 201:Generated_Source\PSoC6\pdl\drivers/peripheral/scb/cy_scb_spi.h **** ********************************************************************************
 202:Generated_Source\PSoC6\pdl\drivers/peripheral/scb/cy_scb_spi.h **** * The SCB provides TX and RX output trigger signals that can be routed to the
 203:Generated_Source\PSoC6\pdl\drivers/peripheral/scb/cy_scb_spi.h **** * DMA controller inputs. These signals are assigned based on the data availability
 204:Generated_Source\PSoC6\pdl\drivers/peripheral/scb/cy_scb_spi.h **** * in the TX and RX FIFOs appropriately.
 205:Generated_Source\PSoC6\pdl\drivers/peripheral/scb/cy_scb_spi.h **** *
 206:Generated_Source\PSoC6\pdl\drivers/peripheral/scb/cy_scb_spi.h **** * * The RX trigger signal is active while the number of data
 207:Generated_Source\PSoC6\pdl\drivers/peripheral/scb/cy_scb_spi.h **** *   elements in the RX FIFO is greater than the value of RX FIFO level. Use
ARM GAS  C:\Users\Smaug\AppData\Local\Temp\ccJKcizn.s 			page 8


 208:Generated_Source\PSoC6\pdl\drivers/peripheral/scb/cy_scb_spi.h **** *   function \ref Cy_SCB_SetRxFifoLevel or set configuration structure
 209:Generated_Source\PSoC6\pdl\drivers/peripheral/scb/cy_scb_spi.h **** *   rxFifoTriggerLevel parameter to configure RX FIFO level value. \n
 210:Generated_Source\PSoC6\pdl\drivers/peripheral/scb/cy_scb_spi.h **** *   <em>For example, the RX FIFO has 8 data elements and the RX FIFO level is 0.
 211:Generated_Source\PSoC6\pdl\drivers/peripheral/scb/cy_scb_spi.h **** *   The RX trigger signal is active until DMA reads all data from
 212:Generated_Source\PSoC6\pdl\drivers/peripheral/scb/cy_scb_spi.h **** *   the RX FIFO.</em>
 213:Generated_Source\PSoC6\pdl\drivers/peripheral/scb/cy_scb_spi.h **** *
 214:Generated_Source\PSoC6\pdl\drivers/peripheral/scb/cy_scb_spi.h **** * * The TX trigger signal is active while the number of data elements
 215:Generated_Source\PSoC6\pdl\drivers/peripheral/scb/cy_scb_spi.h **** *   in the TX FIFO is less than the value of TX FIFO level. Use function
 216:Generated_Source\PSoC6\pdl\drivers/peripheral/scb/cy_scb_spi.h **** *   \ref Cy_SCB_SetTxFifoLevel or set configuration structure txFifoTriggerLevel
 217:Generated_Source\PSoC6\pdl\drivers/peripheral/scb/cy_scb_spi.h **** *   parameter to configure TX FIFO level value. \n
 218:Generated_Source\PSoC6\pdl\drivers/peripheral/scb/cy_scb_spi.h **** *   <em>For example, the TX FIFO has 0 data elements (empty) and the TX FIFO level
 219:Generated_Source\PSoC6\pdl\drivers/peripheral/scb/cy_scb_spi.h **** *   is 7. The TX trigger signal is active until DMA loads TX FIFO
 220:Generated_Source\PSoC6\pdl\drivers/peripheral/scb/cy_scb_spi.h **** *   with 8 data elements (note that after the first TX load operation, the data
 221:Generated_Source\PSoC6\pdl\drivers/peripheral/scb/cy_scb_spi.h **** *   element goes to the shift register and TX FIFO is empty).</em>
 222:Generated_Source\PSoC6\pdl\drivers/peripheral/scb/cy_scb_spi.h **** *
 223:Generated_Source\PSoC6\pdl\drivers/peripheral/scb/cy_scb_spi.h **** * To route SCB TX or RX trigger signals to the DMA controller, use \ref group_trigmux
 224:Generated_Source\PSoC6\pdl\drivers/peripheral/scb/cy_scb_spi.h **** * driver API.
 225:Generated_Source\PSoC6\pdl\drivers/peripheral/scb/cy_scb_spi.h **** *
 226:Generated_Source\PSoC6\pdl\drivers/peripheral/scb/cy_scb_spi.h **** * \note
 227:Generated_Source\PSoC6\pdl\drivers/peripheral/scb/cy_scb_spi.h **** * To properly handle DMA level request signal activation and de-activation from the SCB
 228:Generated_Source\PSoC6\pdl\drivers/peripheral/scb/cy_scb_spi.h **** * peripheral block the DMA Descriptor typically must be configured to re-trigger
 229:Generated_Source\PSoC6\pdl\drivers/peripheral/scb/cy_scb_spi.h **** * after 16 Clk_Slow cycles.
 230:Generated_Source\PSoC6\pdl\drivers/peripheral/scb/cy_scb_spi.h **** *
 231:Generated_Source\PSoC6\pdl\drivers/peripheral/scb/cy_scb_spi.h **** ********************************************************************************
 232:Generated_Source\PSoC6\pdl\drivers/peripheral/scb/cy_scb_spi.h **** * \section group_scb_spi_lp Low Power Support
 233:Generated_Source\PSoC6\pdl\drivers/peripheral/scb/cy_scb_spi.h **** ********************************************************************************
 234:Generated_Source\PSoC6\pdl\drivers/peripheral/scb/cy_scb_spi.h **** * The SPI driver provides callback functions to handle power mode transitions.
 235:Generated_Source\PSoC6\pdl\drivers/peripheral/scb/cy_scb_spi.h **** * The callback \ref Cy_SCB_SPI_DeepSleepCallback must be called
 236:Generated_Source\PSoC6\pdl\drivers/peripheral/scb/cy_scb_spi.h **** * during execution of \ref Cy_SysPm_CpuEnterDeepSleep; \ref Cy_SCB_SPI_HibernateCallback
 237:Generated_Source\PSoC6\pdl\drivers/peripheral/scb/cy_scb_spi.h **** * must be called during execution of \ref Cy_SysPm_SystemEnterHibernate. To trigger the
 238:Generated_Source\PSoC6\pdl\drivers/peripheral/scb/cy_scb_spi.h **** * callback execution, the callback must be registered before calling the
 239:Generated_Source\PSoC6\pdl\drivers/peripheral/scb/cy_scb_spi.h **** * power mode transition function. Refer to \ref group_syspm driver for more
 240:Generated_Source\PSoC6\pdl\drivers/peripheral/scb/cy_scb_spi.h **** * information about power mode transitions and callback registration.
 241:Generated_Source\PSoC6\pdl\drivers/peripheral/scb/cy_scb_spi.h **** *
 242:Generated_Source\PSoC6\pdl\drivers/peripheral/scb/cy_scb_spi.h **** * The SPI master is disabled during Deep Sleep and Hibernate and stops driving
 243:Generated_Source\PSoC6\pdl\drivers/peripheral/scb/cy_scb_spi.h **** * the output pins. The state of the SPI master output pins SCLK, SS, and MOSI is
 244:Generated_Source\PSoC6\pdl\drivers/peripheral/scb/cy_scb_spi.h **** * High-Z, which can cause unexpected behavior of the SPI Slave due to possible
 245:Generated_Source\PSoC6\pdl\drivers/peripheral/scb/cy_scb_spi.h **** * glitches on these lines. These pins must keep the inactive level (the same state
 246:Generated_Source\PSoC6\pdl\drivers/peripheral/scb/cy_scb_spi.h **** * when SPI master is enabled and does not transfer data) before entering Deep
 247:Generated_Source\PSoC6\pdl\drivers/peripheral/scb/cy_scb_spi.h **** * Sleep or Hibernate mode. To do that, write the GPIO data register of each pin
 248:Generated_Source\PSoC6\pdl\drivers/peripheral/scb/cy_scb_spi.h **** * to the inactive level for each output pin. Then configure High-Speed Input
 249:Generated_Source\PSoC6\pdl\drivers/peripheral/scb/cy_scb_spi.h **** * Output Multiplexer (HSIOM) of each pin to be controlled by the GPIO (use
 250:Generated_Source\PSoC6\pdl\drivers/peripheral/scb/cy_scb_spi.h **** * \ref group_gpio driver API). After after exiting Deep Sleep mode the SPI
 251:Generated_Source\PSoC6\pdl\drivers/peripheral/scb/cy_scb_spi.h **** * master must be enabled and the pins configuration restored to return the
 252:Generated_Source\PSoC6\pdl\drivers/peripheral/scb/cy_scb_spi.h **** * SPI master control of the pins (after exiting Hibernate mode, the
 253:Generated_Source\PSoC6\pdl\drivers/peripheral/scb/cy_scb_spi.h **** * system initialization code does the same). Copy either or
 254:Generated_Source\PSoC6\pdl\drivers/peripheral/scb/cy_scb_spi.h **** * both \ref Cy_SCB_SPI_DeepSleepCallback and \ref Cy_SCB_SPI_HibernateCallback
 255:Generated_Source\PSoC6\pdl\drivers/peripheral/scb/cy_scb_spi.h **** * as appropriate, and make the changes described above inside the function.
 256:Generated_Source\PSoC6\pdl\drivers/peripheral/scb/cy_scb_spi.h **** * Alternately, external pull-up or pull-down resistors can be connected
 257:Generated_Source\PSoC6\pdl\drivers/peripheral/scb/cy_scb_spi.h **** * to the appropriate SPI lines to keep them inactive during Deep-Sleep or
 258:Generated_Source\PSoC6\pdl\drivers/peripheral/scb/cy_scb_spi.h **** * Hibernate.
 259:Generated_Source\PSoC6\pdl\drivers/peripheral/scb/cy_scb_spi.h **** *
 260:Generated_Source\PSoC6\pdl\drivers/peripheral/scb/cy_scb_spi.h **** * \note
 261:Generated_Source\PSoC6\pdl\drivers/peripheral/scb/cy_scb_spi.h **** * Only applicable for <b>rev-08 of the CY8CKIT-062-BLE</b>.
 262:Generated_Source\PSoC6\pdl\drivers/peripheral/scb/cy_scb_spi.h **** * For proper operation, when the SPI slave is configured to be a wakeup
 263:Generated_Source\PSoC6\pdl\drivers/peripheral/scb/cy_scb_spi.h **** * source from Deep Sleep mode, the \ref Cy_SCB_SPI_DeepSleepCallback must be
 264:Generated_Source\PSoC6\pdl\drivers/peripheral/scb/cy_scb_spi.h **** * copied and modified. Refer to the function description to get the details.
ARM GAS  C:\Users\Smaug\AppData\Local\Temp\ccJKcizn.s 			page 9


 265:Generated_Source\PSoC6\pdl\drivers/peripheral/scb/cy_scb_spi.h **** *
 266:Generated_Source\PSoC6\pdl\drivers/peripheral/scb/cy_scb_spi.h **** ********************************************************************************
 267:Generated_Source\PSoC6\pdl\drivers/peripheral/scb/cy_scb_spi.h **** * \section group_scb_spi_more_information More Information
 268:Generated_Source\PSoC6\pdl\drivers/peripheral/scb/cy_scb_spi.h **** ********************************************************************************
 269:Generated_Source\PSoC6\pdl\drivers/peripheral/scb/cy_scb_spi.h **** * For more information on the SCB peripheral, refer to the technical reference
 270:Generated_Source\PSoC6\pdl\drivers/peripheral/scb/cy_scb_spi.h **** * manual (TRM).
 271:Generated_Source\PSoC6\pdl\drivers/peripheral/scb/cy_scb_spi.h **** *
 272:Generated_Source\PSoC6\pdl\drivers/peripheral/scb/cy_scb_spi.h **** ********************************************************************************
 273:Generated_Source\PSoC6\pdl\drivers/peripheral/scb/cy_scb_spi.h **** * \section group_scb_spi_MISRA MISRA-C Compliance
 274:Generated_Source\PSoC6\pdl\drivers/peripheral/scb/cy_scb_spi.h **** ********************************************************************************
 275:Generated_Source\PSoC6\pdl\drivers/peripheral/scb/cy_scb_spi.h **** * <table class="doxtable">
 276:Generated_Source\PSoC6\pdl\drivers/peripheral/scb/cy_scb_spi.h **** *   <tr>
 277:Generated_Source\PSoC6\pdl\drivers/peripheral/scb/cy_scb_spi.h **** *     <th>MISRA Rule</th>
 278:Generated_Source\PSoC6\pdl\drivers/peripheral/scb/cy_scb_spi.h **** *     <th>Rule Class (Required/Advisory)</th>
 279:Generated_Source\PSoC6\pdl\drivers/peripheral/scb/cy_scb_spi.h **** *     <th>Rule Description</th>
 280:Generated_Source\PSoC6\pdl\drivers/peripheral/scb/cy_scb_spi.h **** *     <th>Description of Deviation(s)</th>
 281:Generated_Source\PSoC6\pdl\drivers/peripheral/scb/cy_scb_spi.h **** *   </tr>
 282:Generated_Source\PSoC6\pdl\drivers/peripheral/scb/cy_scb_spi.h **** *   <tr>
 283:Generated_Source\PSoC6\pdl\drivers/peripheral/scb/cy_scb_spi.h **** *     <td>11.4</td>
 284:Generated_Source\PSoC6\pdl\drivers/peripheral/scb/cy_scb_spi.h **** *     <td>A</td>
 285:Generated_Source\PSoC6\pdl\drivers/peripheral/scb/cy_scb_spi.h **** *     <td>A cast should not be performed between a pointer to object type and
 286:Generated_Source\PSoC6\pdl\drivers/peripheral/scb/cy_scb_spi.h **** *         a different pointer to object type.</td>
 287:Generated_Source\PSoC6\pdl\drivers/peripheral/scb/cy_scb_spi.h **** *     <td>
 288:Generated_Source\PSoC6\pdl\drivers/peripheral/scb/cy_scb_spi.h **** *         * The pointer to the buffer memory is void to allow handling
 289:Generated_Source\PSoC6\pdl\drivers/peripheral/scb/cy_scb_spi.h **** *         different data types: uint8_t (4-8 bits) or uint16_t (9-16 bits).
 290:Generated_Source\PSoC6\pdl\drivers/peripheral/scb/cy_scb_spi.h **** *         The cast operation is safe because the configuration is verified
 291:Generated_Source\PSoC6\pdl\drivers/peripheral/scb/cy_scb_spi.h **** *         before operation is performed.
 292:Generated_Source\PSoC6\pdl\drivers/peripheral/scb/cy_scb_spi.h **** *         * The functions \ref Cy_SCB_SPI_DeepSleepCallback and
 293:Generated_Source\PSoC6\pdl\drivers/peripheral/scb/cy_scb_spi.h **** *         \ref Cy_SCB_SPI_HibernateCallback are callback of
 294:Generated_Source\PSoC6\pdl\drivers/peripheral/scb/cy_scb_spi.h **** *         \ref cy_en_syspm_status_t type. The cast operation safety in these
 295:Generated_Source\PSoC6\pdl\drivers/peripheral/scb/cy_scb_spi.h **** *         functions becomes the user's responsibility because pointers are
 296:Generated_Source\PSoC6\pdl\drivers/peripheral/scb/cy_scb_spi.h **** *         initialized when callback is registered in SysPm driver.</td>
 297:Generated_Source\PSoC6\pdl\drivers/peripheral/scb/cy_scb_spi.h **** *   </tr>
 298:Generated_Source\PSoC6\pdl\drivers/peripheral/scb/cy_scb_spi.h **** *   <tr>
 299:Generated_Source\PSoC6\pdl\drivers/peripheral/scb/cy_scb_spi.h **** *     <td>13.7</td>
 300:Generated_Source\PSoC6\pdl\drivers/peripheral/scb/cy_scb_spi.h **** *     <td>R</td>
 301:Generated_Source\PSoC6\pdl\drivers/peripheral/scb/cy_scb_spi.h **** *     <td>Boolean operations whose results are invariant shall not be
 302:Generated_Source\PSoC6\pdl\drivers/peripheral/scb/cy_scb_spi.h **** *         permitted.</td>
 303:Generated_Source\PSoC6\pdl\drivers/peripheral/scb/cy_scb_spi.h **** *     <td>The SCB block parameters can be a constant false or true depends on
 304:Generated_Source\PSoC6\pdl\drivers/peripheral/scb/cy_scb_spi.h **** *         the selected device and cause this violation.</td>
 305:Generated_Source\PSoC6\pdl\drivers/peripheral/scb/cy_scb_spi.h **** *   </tr>
 306:Generated_Source\PSoC6\pdl\drivers/peripheral/scb/cy_scb_spi.h **** *   <tr>
 307:Generated_Source\PSoC6\pdl\drivers/peripheral/scb/cy_scb_spi.h **** *     <td>14.1</td>
 308:Generated_Source\PSoC6\pdl\drivers/peripheral/scb/cy_scb_spi.h **** *     <td>R</td>
 309:Generated_Source\PSoC6\pdl\drivers/peripheral/scb/cy_scb_spi.h **** *     <td>There shall be no unreachable code.</td>
 310:Generated_Source\PSoC6\pdl\drivers/peripheral/scb/cy_scb_spi.h **** *     <td>The SCB block parameters can be a constant false or true depends on
 311:Generated_Source\PSoC6\pdl\drivers/peripheral/scb/cy_scb_spi.h **** *         the selected device and cause code to be unreachable.</td>
 312:Generated_Source\PSoC6\pdl\drivers/peripheral/scb/cy_scb_spi.h **** *   </tr>
 313:Generated_Source\PSoC6\pdl\drivers/peripheral/scb/cy_scb_spi.h **** *   <tr>
 314:Generated_Source\PSoC6\pdl\drivers/peripheral/scb/cy_scb_spi.h **** *     <td>14.2</td>
 315:Generated_Source\PSoC6\pdl\drivers/peripheral/scb/cy_scb_spi.h **** *     <td>R</td>
 316:Generated_Source\PSoC6\pdl\drivers/peripheral/scb/cy_scb_spi.h **** *     <td>All non-null statements shall either: a) have at least one side-effect
 317:Generated_Source\PSoC6\pdl\drivers/peripheral/scb/cy_scb_spi.h **** *         however executed, or b) cause control flow to change.</td>
 318:Generated_Source\PSoC6\pdl\drivers/peripheral/scb/cy_scb_spi.h **** *     <td>The unused function parameters are cast to void. This statement
 319:Generated_Source\PSoC6\pdl\drivers/peripheral/scb/cy_scb_spi.h **** *         has no side-effect and is used to suppress a compiler warning.</td>
 320:Generated_Source\PSoC6\pdl\drivers/peripheral/scb/cy_scb_spi.h **** *   </tr>
 321:Generated_Source\PSoC6\pdl\drivers/peripheral/scb/cy_scb_spi.h **** *   <tr>
ARM GAS  C:\Users\Smaug\AppData\Local\Temp\ccJKcizn.s 			page 10


 322:Generated_Source\PSoC6\pdl\drivers/peripheral/scb/cy_scb_spi.h **** *     <td>14.7</td>
 323:Generated_Source\PSoC6\pdl\drivers/peripheral/scb/cy_scb_spi.h **** *     <td>R</td>
 324:Generated_Source\PSoC6\pdl\drivers/peripheral/scb/cy_scb_spi.h **** *     <td>A function shall have a single point of exit at the end of the
 325:Generated_Source\PSoC6\pdl\drivers/peripheral/scb/cy_scb_spi.h **** *         function.</td>
 326:Generated_Source\PSoC6\pdl\drivers/peripheral/scb/cy_scb_spi.h **** *     <td>The functions can return from several points. This is done to improve
 327:Generated_Source\PSoC6\pdl\drivers/peripheral/scb/cy_scb_spi.h **** *         code clarity when returning error status code if input parameters
 328:Generated_Source\PSoC6\pdl\drivers/peripheral/scb/cy_scb_spi.h **** *         validation is failed.</td>
 329:Generated_Source\PSoC6\pdl\drivers/peripheral/scb/cy_scb_spi.h **** *   </tr>
 330:Generated_Source\PSoC6\pdl\drivers/peripheral/scb/cy_scb_spi.h **** * </table>
 331:Generated_Source\PSoC6\pdl\drivers/peripheral/scb/cy_scb_spi.h **** *
 332:Generated_Source\PSoC6\pdl\drivers/peripheral/scb/cy_scb_spi.h **** * \section group_scb_spi_changelog Changelog
 333:Generated_Source\PSoC6\pdl\drivers/peripheral/scb/cy_scb_spi.h **** * <table class="doxtable">
 334:Generated_Source\PSoC6\pdl\drivers/peripheral/scb/cy_scb_spi.h **** *   <tr><th>Version</th><th>Changes</th><th>Reason for Change</th></tr>
 335:Generated_Source\PSoC6\pdl\drivers/peripheral/scb/cy_scb_spi.h **** *   <tr>
 336:Generated_Source\PSoC6\pdl\drivers/peripheral/scb/cy_scb_spi.h **** *     <td rowspan="2">2.20</td>
 337:Generated_Source\PSoC6\pdl\drivers/peripheral/scb/cy_scb_spi.h **** *     <td>Flattened the organization of the driver source code into the single
 338:Generated_Source\PSoC6\pdl\drivers/peripheral/scb/cy_scb_spi.h **** *         source directory and the single include directory.
 339:Generated_Source\PSoC6\pdl\drivers/peripheral/scb/cy_scb_spi.h **** *     </td>
 340:Generated_Source\PSoC6\pdl\drivers/peripheral/scb/cy_scb_spi.h **** *     <td>Driver library directory-structure simplification.</td>
 341:Generated_Source\PSoC6\pdl\drivers/peripheral/scb/cy_scb_spi.h **** *   </tr>
 342:Generated_Source\PSoC6\pdl\drivers/peripheral/scb/cy_scb_spi.h **** *   <tr>
 343:Generated_Source\PSoC6\pdl\drivers/peripheral/scb/cy_scb_spi.h **** *     <td>Added register access layer. Use register access macros instead
 344:Generated_Source\PSoC6\pdl\drivers/peripheral/scb/cy_scb_spi.h **** *         of direct register access using dereferenced pointers.</td>
 345:Generated_Source\PSoC6\pdl\drivers/peripheral/scb/cy_scb_spi.h **** *     <td>Makes register access device-independent, so that the PDL does
 346:Generated_Source\PSoC6\pdl\drivers/peripheral/scb/cy_scb_spi.h **** *         not need to be recompiled for each supported part number.</td>
 347:Generated_Source\PSoC6\pdl\drivers/peripheral/scb/cy_scb_spi.h **** *   </tr>
 348:Generated_Source\PSoC6\pdl\drivers/peripheral/scb/cy_scb_spi.h **** *   <tr>
 349:Generated_Source\PSoC6\pdl\drivers/peripheral/scb/cy_scb_spi.h **** *     <td>2.10</td>
 350:Generated_Source\PSoC6\pdl\drivers/peripheral/scb/cy_scb_spi.h **** *     <td>None.</td>
 351:Generated_Source\PSoC6\pdl\drivers/peripheral/scb/cy_scb_spi.h **** *     <td>SCB I2C driver updated.</td>
 352:Generated_Source\PSoC6\pdl\drivers/peripheral/scb/cy_scb_spi.h **** *   </tr>
 353:Generated_Source\PSoC6\pdl\drivers/peripheral/scb/cy_scb_spi.h **** *   <tr>
 354:Generated_Source\PSoC6\pdl\drivers/peripheral/scb/cy_scb_spi.h **** *     <td rowspan="4"> 2.0</td>
 355:Generated_Source\PSoC6\pdl\drivers/peripheral/scb/cy_scb_spi.h **** *     <td>Fixed SPI callback notification when error event occurred.</td>
 356:Generated_Source\PSoC6\pdl\drivers/peripheral/scb/cy_scb_spi.h **** *     <td>The SPI callback passed incorrect event value if error event occurred.</td>
 357:Generated_Source\PSoC6\pdl\drivers/peripheral/scb/cy_scb_spi.h **** *   </tr>
 358:Generated_Source\PSoC6\pdl\drivers/peripheral/scb/cy_scb_spi.h **** *   <tr>
 359:Generated_Source\PSoC6\pdl\drivers/peripheral/scb/cy_scb_spi.h **** *     <td>Added parameters validation for public API.</td>
 360:Generated_Source\PSoC6\pdl\drivers/peripheral/scb/cy_scb_spi.h **** *     <td></td>
 361:Generated_Source\PSoC6\pdl\drivers/peripheral/scb/cy_scb_spi.h **** *   </tr>
 362:Generated_Source\PSoC6\pdl\drivers/peripheral/scb/cy_scb_spi.h **** *   <tr>
 363:Generated_Source\PSoC6\pdl\drivers/peripheral/scb/cy_scb_spi.h **** *     <td>Replaced variables that have limited range of values with enumerated
 364:Generated_Source\PSoC6\pdl\drivers/peripheral/scb/cy_scb_spi.h **** *         types.</td>
 365:Generated_Source\PSoC6\pdl\drivers/peripheral/scb/cy_scb_spi.h **** *     <td></td>
 366:Generated_Source\PSoC6\pdl\drivers/peripheral/scb/cy_scb_spi.h **** *   </tr>
 367:Generated_Source\PSoC6\pdl\drivers/peripheral/scb/cy_scb_spi.h **** *   <tr>
 368:Generated_Source\PSoC6\pdl\drivers/peripheral/scb/cy_scb_spi.h **** *     <td>Added missing "cy_cb_" to the callback function type names.</td>
 369:Generated_Source\PSoC6\pdl\drivers/peripheral/scb/cy_scb_spi.h **** *     <td></td>
 370:Generated_Source\PSoC6\pdl\drivers/peripheral/scb/cy_scb_spi.h **** *   </tr>
 371:Generated_Source\PSoC6\pdl\drivers/peripheral/scb/cy_scb_spi.h **** *   <tr>
 372:Generated_Source\PSoC6\pdl\drivers/peripheral/scb/cy_scb_spi.h **** *     <td>1.0</td>
 373:Generated_Source\PSoC6\pdl\drivers/peripheral/scb/cy_scb_spi.h **** *     <td>Initial version.</td>
 374:Generated_Source\PSoC6\pdl\drivers/peripheral/scb/cy_scb_spi.h **** *     <td></td>
 375:Generated_Source\PSoC6\pdl\drivers/peripheral/scb/cy_scb_spi.h **** *   </tr>
 376:Generated_Source\PSoC6\pdl\drivers/peripheral/scb/cy_scb_spi.h **** * </table>
 377:Generated_Source\PSoC6\pdl\drivers/peripheral/scb/cy_scb_spi.h **** *
 378:Generated_Source\PSoC6\pdl\drivers/peripheral/scb/cy_scb_spi.h **** * \defgroup group_scb_spi_macros Macros
ARM GAS  C:\Users\Smaug\AppData\Local\Temp\ccJKcizn.s 			page 11


 379:Generated_Source\PSoC6\pdl\drivers/peripheral/scb/cy_scb_spi.h **** * \defgroup group_scb_spi_functions Functions
 380:Generated_Source\PSoC6\pdl\drivers/peripheral/scb/cy_scb_spi.h **** * \{
 381:Generated_Source\PSoC6\pdl\drivers/peripheral/scb/cy_scb_spi.h **** * \defgroup group_scb_spi_general_functions General
 382:Generated_Source\PSoC6\pdl\drivers/peripheral/scb/cy_scb_spi.h **** * \defgroup group_scb_spi_high_level_functions High-Level
 383:Generated_Source\PSoC6\pdl\drivers/peripheral/scb/cy_scb_spi.h **** * \defgroup group_scb_spi_low_level_functions Low-Level
 384:Generated_Source\PSoC6\pdl\drivers/peripheral/scb/cy_scb_spi.h **** * \defgroup group_scb_spi_interrupt_functions Interrupt
 385:Generated_Source\PSoC6\pdl\drivers/peripheral/scb/cy_scb_spi.h **** * \defgroup group_scb_spi_low_power_functions Low Power Callbacks
 386:Generated_Source\PSoC6\pdl\drivers/peripheral/scb/cy_scb_spi.h **** * \}
 387:Generated_Source\PSoC6\pdl\drivers/peripheral/scb/cy_scb_spi.h **** * \defgroup group_scb_spi_data_structures Data Structures
 388:Generated_Source\PSoC6\pdl\drivers/peripheral/scb/cy_scb_spi.h **** * \defgroup group_scb_spi_enums Enumerated Types
 389:Generated_Source\PSoC6\pdl\drivers/peripheral/scb/cy_scb_spi.h **** */
 390:Generated_Source\PSoC6\pdl\drivers/peripheral/scb/cy_scb_spi.h **** 
 391:Generated_Source\PSoC6\pdl\drivers/peripheral/scb/cy_scb_spi.h **** #if !defined(CY_SCB_SPI_H)
 392:Generated_Source\PSoC6\pdl\drivers/peripheral/scb/cy_scb_spi.h **** #define CY_SCB_SPI_H
 393:Generated_Source\PSoC6\pdl\drivers/peripheral/scb/cy_scb_spi.h **** 
 394:Generated_Source\PSoC6\pdl\drivers/peripheral/scb/cy_scb_spi.h **** #include "cy_scb_common.h"
 395:Generated_Source\PSoC6\pdl\drivers/peripheral/scb/cy_scb_spi.h **** 
 396:Generated_Source\PSoC6\pdl\drivers/peripheral/scb/cy_scb_spi.h **** #if defined(__cplusplus)
 397:Generated_Source\PSoC6\pdl\drivers/peripheral/scb/cy_scb_spi.h **** extern "C" {
 398:Generated_Source\PSoC6\pdl\drivers/peripheral/scb/cy_scb_spi.h **** #endif
 399:Generated_Source\PSoC6\pdl\drivers/peripheral/scb/cy_scb_spi.h **** 
 400:Generated_Source\PSoC6\pdl\drivers/peripheral/scb/cy_scb_spi.h **** /*******************************************************************************
 401:Generated_Source\PSoC6\pdl\drivers/peripheral/scb/cy_scb_spi.h **** *                               Enumerated Types
 402:Generated_Source\PSoC6\pdl\drivers/peripheral/scb/cy_scb_spi.h **** *******************************************************************************/
 403:Generated_Source\PSoC6\pdl\drivers/peripheral/scb/cy_scb_spi.h **** 
 404:Generated_Source\PSoC6\pdl\drivers/peripheral/scb/cy_scb_spi.h **** /**
 405:Generated_Source\PSoC6\pdl\drivers/peripheral/scb/cy_scb_spi.h **** * \addtogroup group_scb_spi_enums
 406:Generated_Source\PSoC6\pdl\drivers/peripheral/scb/cy_scb_spi.h **** * \{
 407:Generated_Source\PSoC6\pdl\drivers/peripheral/scb/cy_scb_spi.h **** */
 408:Generated_Source\PSoC6\pdl\drivers/peripheral/scb/cy_scb_spi.h **** 
 409:Generated_Source\PSoC6\pdl\drivers/peripheral/scb/cy_scb_spi.h **** /** SPI status codes */
 410:Generated_Source\PSoC6\pdl\drivers/peripheral/scb/cy_scb_spi.h **** typedef enum
 411:Generated_Source\PSoC6\pdl\drivers/peripheral/scb/cy_scb_spi.h **** {
 412:Generated_Source\PSoC6\pdl\drivers/peripheral/scb/cy_scb_spi.h ****     /** Operation completed successfully */
 413:Generated_Source\PSoC6\pdl\drivers/peripheral/scb/cy_scb_spi.h ****     CY_SCB_SPI_SUCCESS = 0U,
 414:Generated_Source\PSoC6\pdl\drivers/peripheral/scb/cy_scb_spi.h **** 
 415:Generated_Source\PSoC6\pdl\drivers/peripheral/scb/cy_scb_spi.h ****     /** One or more of input parameters are invalid */
 416:Generated_Source\PSoC6\pdl\drivers/peripheral/scb/cy_scb_spi.h ****     CY_SCB_SPI_BAD_PARAM = (CY_SCB_ID | CY_PDL_STATUS_ERROR | CY_SCB_SPI_ID | 1U),
 417:Generated_Source\PSoC6\pdl\drivers/peripheral/scb/cy_scb_spi.h **** 
 418:Generated_Source\PSoC6\pdl\drivers/peripheral/scb/cy_scb_spi.h ****     /**
 419:Generated_Source\PSoC6\pdl\drivers/peripheral/scb/cy_scb_spi.h ****     * SPI is busy processing a transfer.
 420:Generated_Source\PSoC6\pdl\drivers/peripheral/scb/cy_scb_spi.h ****     */
 421:Generated_Source\PSoC6\pdl\drivers/peripheral/scb/cy_scb_spi.h ****     CY_SCB_SPI_TRANSFER_BUSY = (CY_SCB_ID | CY_PDL_STATUS_ERROR | CY_SCB_SPI_ID | 2U)
 422:Generated_Source\PSoC6\pdl\drivers/peripheral/scb/cy_scb_spi.h **** } cy_en_scb_spi_status_t;
 423:Generated_Source\PSoC6\pdl\drivers/peripheral/scb/cy_scb_spi.h **** 
 424:Generated_Source\PSoC6\pdl\drivers/peripheral/scb/cy_scb_spi.h **** /** SPI Modes */
 425:Generated_Source\PSoC6\pdl\drivers/peripheral/scb/cy_scb_spi.h **** typedef enum
 426:Generated_Source\PSoC6\pdl\drivers/peripheral/scb/cy_scb_spi.h **** {
 427:Generated_Source\PSoC6\pdl\drivers/peripheral/scb/cy_scb_spi.h ****     CY_SCB_SPI_SLAVE,   /**< Configures SCB for SPI Slave operation  */
 428:Generated_Source\PSoC6\pdl\drivers/peripheral/scb/cy_scb_spi.h ****     CY_SCB_SPI_MASTER,  /**< Configures SCB for SPI Master operation */
 429:Generated_Source\PSoC6\pdl\drivers/peripheral/scb/cy_scb_spi.h **** } cy_en_scb_spi_mode_t;
 430:Generated_Source\PSoC6\pdl\drivers/peripheral/scb/cy_scb_spi.h **** 
 431:Generated_Source\PSoC6\pdl\drivers/peripheral/scb/cy_scb_spi.h **** /** SPI Submodes */
 432:Generated_Source\PSoC6\pdl\drivers/peripheral/scb/cy_scb_spi.h **** typedef enum
 433:Generated_Source\PSoC6\pdl\drivers/peripheral/scb/cy_scb_spi.h **** {
 434:Generated_Source\PSoC6\pdl\drivers/peripheral/scb/cy_scb_spi.h ****     /** Configures an SPI for a standard Motorola SPI operation */
 435:Generated_Source\PSoC6\pdl\drivers/peripheral/scb/cy_scb_spi.h ****     CY_SCB_SPI_MOTOROLA     = 0x0U,
ARM GAS  C:\Users\Smaug\AppData\Local\Temp\ccJKcizn.s 			page 12


 436:Generated_Source\PSoC6\pdl\drivers/peripheral/scb/cy_scb_spi.h **** 
 437:Generated_Source\PSoC6\pdl\drivers/peripheral/scb/cy_scb_spi.h ****     /**
 438:Generated_Source\PSoC6\pdl\drivers/peripheral/scb/cy_scb_spi.h ****     * Configures the SPI for the TI SPI operation. In the TI mode, the slave
 439:Generated_Source\PSoC6\pdl\drivers/peripheral/scb/cy_scb_spi.h ****     * select is a pulse. In this case, the pulse coincides with the first bit.
 440:Generated_Source\PSoC6\pdl\drivers/peripheral/scb/cy_scb_spi.h ****     */
 441:Generated_Source\PSoC6\pdl\drivers/peripheral/scb/cy_scb_spi.h ****     CY_SCB_SPI_TI_COINCIDES = 0x01U,
 442:Generated_Source\PSoC6\pdl\drivers/peripheral/scb/cy_scb_spi.h **** 
 443:Generated_Source\PSoC6\pdl\drivers/peripheral/scb/cy_scb_spi.h ****     /**
 444:Generated_Source\PSoC6\pdl\drivers/peripheral/scb/cy_scb_spi.h ****     * Configures an SPI for the National SPI operation. This is a half-duplex
 445:Generated_Source\PSoC6\pdl\drivers/peripheral/scb/cy_scb_spi.h ****     * mode of operation.
 446:Generated_Source\PSoC6\pdl\drivers/peripheral/scb/cy_scb_spi.h ****     */
 447:Generated_Source\PSoC6\pdl\drivers/peripheral/scb/cy_scb_spi.h ****     CY_SCB_SPI_NATIONAL     = 0x02U,
 448:Generated_Source\PSoC6\pdl\drivers/peripheral/scb/cy_scb_spi.h **** 
 449:Generated_Source\PSoC6\pdl\drivers/peripheral/scb/cy_scb_spi.h ****     /**
 450:Generated_Source\PSoC6\pdl\drivers/peripheral/scb/cy_scb_spi.h ****     * Configures an SPI for the TI SPI operation, in the TI mode. The slave
 451:Generated_Source\PSoC6\pdl\drivers/peripheral/scb/cy_scb_spi.h ****     * select is a pulse. In this case the pulse precedes the first bit.
 452:Generated_Source\PSoC6\pdl\drivers/peripheral/scb/cy_scb_spi.h ****     */
 453:Generated_Source\PSoC6\pdl\drivers/peripheral/scb/cy_scb_spi.h ****     CY_SCB_SPI_TI_PRECEDES  = 0x05U,
 454:Generated_Source\PSoC6\pdl\drivers/peripheral/scb/cy_scb_spi.h **** } cy_en_scb_spi_sub_mode_t;
 455:Generated_Source\PSoC6\pdl\drivers/peripheral/scb/cy_scb_spi.h **** 
 456:Generated_Source\PSoC6\pdl\drivers/peripheral/scb/cy_scb_spi.h **** /** SPI SCLK Modes */
 457:Generated_Source\PSoC6\pdl\drivers/peripheral/scb/cy_scb_spi.h **** typedef enum
 458:Generated_Source\PSoC6\pdl\drivers/peripheral/scb/cy_scb_spi.h **** {
 459:Generated_Source\PSoC6\pdl\drivers/peripheral/scb/cy_scb_spi.h ****     CY_SCB_SPI_CPHA0_CPOL0 = 0U,   /**< Clock is active low, data is changed on first edge   */
 460:Generated_Source\PSoC6\pdl\drivers/peripheral/scb/cy_scb_spi.h ****     CY_SCB_SPI_CPHA0_CPOL1 = 1U,   /**< Clock is active high, data is changed on first edge  */
 461:Generated_Source\PSoC6\pdl\drivers/peripheral/scb/cy_scb_spi.h ****     CY_SCB_SPI_CPHA1_CPOL0 = 2U,   /**< Clock is active low, data is changed on second edge  */
 462:Generated_Source\PSoC6\pdl\drivers/peripheral/scb/cy_scb_spi.h ****     CY_SCB_SPI_CPHA1_CPOL1 = 3U,   /**< Clock is active high, data is changed on second edge */
 463:Generated_Source\PSoC6\pdl\drivers/peripheral/scb/cy_scb_spi.h **** } cy_en_scb_spi_sclk_mode_t;
 464:Generated_Source\PSoC6\pdl\drivers/peripheral/scb/cy_scb_spi.h **** 
 465:Generated_Source\PSoC6\pdl\drivers/peripheral/scb/cy_scb_spi.h **** /** SPI Slave Selects */
 466:Generated_Source\PSoC6\pdl\drivers/peripheral/scb/cy_scb_spi.h **** typedef enum
 467:Generated_Source\PSoC6\pdl\drivers/peripheral/scb/cy_scb_spi.h **** {
 468:Generated_Source\PSoC6\pdl\drivers/peripheral/scb/cy_scb_spi.h ****     CY_SCB_SPI_SLAVE_SELECT0 = 0U,   /**< Master will use Slave Select 0 */
 469:Generated_Source\PSoC6\pdl\drivers/peripheral/scb/cy_scb_spi.h ****     CY_SCB_SPI_SLAVE_SELECT1 = 1U,   /**< Master will use Slave Select 1 */
 470:Generated_Source\PSoC6\pdl\drivers/peripheral/scb/cy_scb_spi.h ****     CY_SCB_SPI_SLAVE_SELECT2 = 2U,   /**< Master will use Slave Select 2 */
 471:Generated_Source\PSoC6\pdl\drivers/peripheral/scb/cy_scb_spi.h ****     CY_SCB_SPI_SLAVE_SELECT3 = 3U,   /**< Master will use Slave Select 3 */
 472:Generated_Source\PSoC6\pdl\drivers/peripheral/scb/cy_scb_spi.h **** } cy_en_scb_spi_slave_select_t;
 473:Generated_Source\PSoC6\pdl\drivers/peripheral/scb/cy_scb_spi.h **** 
 474:Generated_Source\PSoC6\pdl\drivers/peripheral/scb/cy_scb_spi.h **** /** SPI Polarity */
 475:Generated_Source\PSoC6\pdl\drivers/peripheral/scb/cy_scb_spi.h **** typedef enum
 476:Generated_Source\PSoC6\pdl\drivers/peripheral/scb/cy_scb_spi.h **** {
 477:Generated_Source\PSoC6\pdl\drivers/peripheral/scb/cy_scb_spi.h ****     CY_SCB_SPI_ACTIVE_LOW  = 0U,    /**< Signal in question is active low */
 478:Generated_Source\PSoC6\pdl\drivers/peripheral/scb/cy_scb_spi.h ****     CY_SCB_SPI_ACTIVE_HIGH = 1U,    /**< Signal in question is active high */
 479:Generated_Source\PSoC6\pdl\drivers/peripheral/scb/cy_scb_spi.h **** } cy_en_scb_spi_polarity_t;
 480:Generated_Source\PSoC6\pdl\drivers/peripheral/scb/cy_scb_spi.h **** 
 481:Generated_Source\PSoC6\pdl\drivers/peripheral/scb/cy_scb_spi.h **** /** \} group_scb_spi_enums */
 482:Generated_Source\PSoC6\pdl\drivers/peripheral/scb/cy_scb_spi.h **** 
 483:Generated_Source\PSoC6\pdl\drivers/peripheral/scb/cy_scb_spi.h **** 
 484:Generated_Source\PSoC6\pdl\drivers/peripheral/scb/cy_scb_spi.h **** /*******************************************************************************
 485:Generated_Source\PSoC6\pdl\drivers/peripheral/scb/cy_scb_spi.h **** *                            Type Definitions
 486:Generated_Source\PSoC6\pdl\drivers/peripheral/scb/cy_scb_spi.h **** *******************************************************************************/
 487:Generated_Source\PSoC6\pdl\drivers/peripheral/scb/cy_scb_spi.h **** 
 488:Generated_Source\PSoC6\pdl\drivers/peripheral/scb/cy_scb_spi.h **** /**
 489:Generated_Source\PSoC6\pdl\drivers/peripheral/scb/cy_scb_spi.h **** * \addtogroup group_scb_spi_data_structures
 490:Generated_Source\PSoC6\pdl\drivers/peripheral/scb/cy_scb_spi.h **** * \{
 491:Generated_Source\PSoC6\pdl\drivers/peripheral/scb/cy_scb_spi.h **** */
 492:Generated_Source\PSoC6\pdl\drivers/peripheral/scb/cy_scb_spi.h **** 
ARM GAS  C:\Users\Smaug\AppData\Local\Temp\ccJKcizn.s 			page 13


 493:Generated_Source\PSoC6\pdl\drivers/peripheral/scb/cy_scb_spi.h **** /**
 494:Generated_Source\PSoC6\pdl\drivers/peripheral/scb/cy_scb_spi.h **** * Provides the typedef for the callback function called in the
 495:Generated_Source\PSoC6\pdl\drivers/peripheral/scb/cy_scb_spi.h **** * \ref Cy_SCB_SPI_Interrupt to notify the user about occurrences of
 496:Generated_Source\PSoC6\pdl\drivers/peripheral/scb/cy_scb_spi.h **** * \ref group_scb_spi_macros_callback_events.
 497:Generated_Source\PSoC6\pdl\drivers/peripheral/scb/cy_scb_spi.h **** */
 498:Generated_Source\PSoC6\pdl\drivers/peripheral/scb/cy_scb_spi.h **** typedef void (* cy_cb_scb_spi_handle_events_t)(uint32_t event);
 499:Generated_Source\PSoC6\pdl\drivers/peripheral/scb/cy_scb_spi.h **** 
 500:Generated_Source\PSoC6\pdl\drivers/peripheral/scb/cy_scb_spi.h **** 
 501:Generated_Source\PSoC6\pdl\drivers/peripheral/scb/cy_scb_spi.h **** /** SPI configuration structure */
 502:Generated_Source\PSoC6\pdl\drivers/peripheral/scb/cy_scb_spi.h **** typedef struct cy_stc_scb_spi_config
 503:Generated_Source\PSoC6\pdl\drivers/peripheral/scb/cy_scb_spi.h **** {
 504:Generated_Source\PSoC6\pdl\drivers/peripheral/scb/cy_scb_spi.h ****     /** Specifies the mode of operation */
 505:Generated_Source\PSoC6\pdl\drivers/peripheral/scb/cy_scb_spi.h ****     cy_en_scb_spi_mode_t    spiMode;
 506:Generated_Source\PSoC6\pdl\drivers/peripheral/scb/cy_scb_spi.h **** 
 507:Generated_Source\PSoC6\pdl\drivers/peripheral/scb/cy_scb_spi.h ****     /** Specifies the submode of SPI operation */
 508:Generated_Source\PSoC6\pdl\drivers/peripheral/scb/cy_scb_spi.h ****     cy_en_scb_spi_sub_mode_t    subMode;
 509:Generated_Source\PSoC6\pdl\drivers/peripheral/scb/cy_scb_spi.h **** 
 510:Generated_Source\PSoC6\pdl\drivers/peripheral/scb/cy_scb_spi.h ****     /**
 511:Generated_Source\PSoC6\pdl\drivers/peripheral/scb/cy_scb_spi.h ****     * Configures the SCLK operation for Motorola sub-mode, ignored for all
 512:Generated_Source\PSoC6\pdl\drivers/peripheral/scb/cy_scb_spi.h ****     * other submodes
 513:Generated_Source\PSoC6\pdl\drivers/peripheral/scb/cy_scb_spi.h ****     */
 514:Generated_Source\PSoC6\pdl\drivers/peripheral/scb/cy_scb_spi.h ****     cy_en_scb_spi_sclk_mode_t    sclkMode;
 515:Generated_Source\PSoC6\pdl\drivers/peripheral/scb/cy_scb_spi.h **** 
 516:Generated_Source\PSoC6\pdl\drivers/peripheral/scb/cy_scb_spi.h ****     /**
 517:Generated_Source\PSoC6\pdl\drivers/peripheral/scb/cy_scb_spi.h ****     * Oversample factor for SPI.
 518:Generated_Source\PSoC6\pdl\drivers/peripheral/scb/cy_scb_spi.h ****     * * For the master mode, the data rate is the SCB clock / oversample
 519:Generated_Source\PSoC6\pdl\drivers/peripheral/scb/cy_scb_spi.h ****     *   (the valid range is 4 to 16, when MISO is used; if MISO is not used
 520:Generated_Source\PSoC6\pdl\drivers/peripheral/scb/cy_scb_spi.h ****     *   then the valid range is 2 to 16).
 521:Generated_Source\PSoC6\pdl\drivers/peripheral/scb/cy_scb_spi.h ****     * * For the slave mode, the oversample value is ignored. The data rate is
 522:Generated_Source\PSoC6\pdl\drivers/peripheral/scb/cy_scb_spi.h ****     *   determined by the SCB clock frequency.
 523:Generated_Source\PSoC6\pdl\drivers/peripheral/scb/cy_scb_spi.h ****     */
 524:Generated_Source\PSoC6\pdl\drivers/peripheral/scb/cy_scb_spi.h ****     uint32_t    oversample;
 525:Generated_Source\PSoC6\pdl\drivers/peripheral/scb/cy_scb_spi.h **** 
 526:Generated_Source\PSoC6\pdl\drivers/peripheral/scb/cy_scb_spi.h ****     /**
 527:Generated_Source\PSoC6\pdl\drivers/peripheral/scb/cy_scb_spi.h ****     * The width of RX data (valid range 4-16). It must be the same as
 528:Generated_Source\PSoC6\pdl\drivers/peripheral/scb/cy_scb_spi.h ****     * \ref txDataWidth except in National sub-mode.
 529:Generated_Source\PSoC6\pdl\drivers/peripheral/scb/cy_scb_spi.h ****     */
 530:Generated_Source\PSoC6\pdl\drivers/peripheral/scb/cy_scb_spi.h ****     uint32_t    rxDataWidth;
 531:Generated_Source\PSoC6\pdl\drivers/peripheral/scb/cy_scb_spi.h **** 
 532:Generated_Source\PSoC6\pdl\drivers/peripheral/scb/cy_scb_spi.h ****     /**
 533:Generated_Source\PSoC6\pdl\drivers/peripheral/scb/cy_scb_spi.h ****     * The width of TX data (valid range 4-16). It must be the same as
 534:Generated_Source\PSoC6\pdl\drivers/peripheral/scb/cy_scb_spi.h ****     * \ref rxDataWidth except in National sub-mode.
 535:Generated_Source\PSoC6\pdl\drivers/peripheral/scb/cy_scb_spi.h ****     */
 536:Generated_Source\PSoC6\pdl\drivers/peripheral/scb/cy_scb_spi.h ****     uint32_t    txDataWidth;
 537:Generated_Source\PSoC6\pdl\drivers/peripheral/scb/cy_scb_spi.h **** 
 538:Generated_Source\PSoC6\pdl\drivers/peripheral/scb/cy_scb_spi.h ****     /**
 539:Generated_Source\PSoC6\pdl\drivers/peripheral/scb/cy_scb_spi.h ****     * Enables the hardware to shift out the data element MSB first, otherwise,
 540:Generated_Source\PSoC6\pdl\drivers/peripheral/scb/cy_scb_spi.h ****     * LSB first
 541:Generated_Source\PSoC6\pdl\drivers/peripheral/scb/cy_scb_spi.h ****     */
 542:Generated_Source\PSoC6\pdl\drivers/peripheral/scb/cy_scb_spi.h ****     bool        enableMsbFirst;
 543:Generated_Source\PSoC6\pdl\drivers/peripheral/scb/cy_scb_spi.h **** 
 544:Generated_Source\PSoC6\pdl\drivers/peripheral/scb/cy_scb_spi.h ****     /**
 545:Generated_Source\PSoC6\pdl\drivers/peripheral/scb/cy_scb_spi.h ****     * Enables the master to generate a continuous SCLK regardless of whether
 546:Generated_Source\PSoC6\pdl\drivers/peripheral/scb/cy_scb_spi.h ****     * there is data to send
 547:Generated_Source\PSoC6\pdl\drivers/peripheral/scb/cy_scb_spi.h ****     */
 548:Generated_Source\PSoC6\pdl\drivers/peripheral/scb/cy_scb_spi.h ****     bool        enableFreeRunSclk;
 549:Generated_Source\PSoC6\pdl\drivers/peripheral/scb/cy_scb_spi.h **** 
ARM GAS  C:\Users\Smaug\AppData\Local\Temp\ccJKcizn.s 			page 14


 550:Generated_Source\PSoC6\pdl\drivers/peripheral/scb/cy_scb_spi.h ****     /**
 551:Generated_Source\PSoC6\pdl\drivers/peripheral/scb/cy_scb_spi.h ****     * Enables a digital 3-tap median filter to be applied to the input
 552:Generated_Source\PSoC6\pdl\drivers/peripheral/scb/cy_scb_spi.h ****     * of the RX FIFO to filter glitches on the line.
 553:Generated_Source\PSoC6\pdl\drivers/peripheral/scb/cy_scb_spi.h ****     */
 554:Generated_Source\PSoC6\pdl\drivers/peripheral/scb/cy_scb_spi.h ****     bool        enableInputFilter;
 555:Generated_Source\PSoC6\pdl\drivers/peripheral/scb/cy_scb_spi.h **** 
 556:Generated_Source\PSoC6\pdl\drivers/peripheral/scb/cy_scb_spi.h ****     /**
 557:Generated_Source\PSoC6\pdl\drivers/peripheral/scb/cy_scb_spi.h ****     * Enables the master to sample MISO line one half clock later to allow
 558:Generated_Source\PSoC6\pdl\drivers/peripheral/scb/cy_scb_spi.h ****     * better timings.
 559:Generated_Source\PSoC6\pdl\drivers/peripheral/scb/cy_scb_spi.h ****     */
 560:Generated_Source\PSoC6\pdl\drivers/peripheral/scb/cy_scb_spi.h ****     bool        enableMisoLateSample;
 561:Generated_Source\PSoC6\pdl\drivers/peripheral/scb/cy_scb_spi.h **** 
 562:Generated_Source\PSoC6\pdl\drivers/peripheral/scb/cy_scb_spi.h ****     /**
 563:Generated_Source\PSoC6\pdl\drivers/peripheral/scb/cy_scb_spi.h ****     * Enables the master to transmit each data element separated by a
 564:Generated_Source\PSoC6\pdl\drivers/peripheral/scb/cy_scb_spi.h ****     * de-assertion of the slave select line (only applicable for the master
 565:Generated_Source\PSoC6\pdl\drivers/peripheral/scb/cy_scb_spi.h ****     * mode)
 566:Generated_Source\PSoC6\pdl\drivers/peripheral/scb/cy_scb_spi.h ****     */
 567:Generated_Source\PSoC6\pdl\drivers/peripheral/scb/cy_scb_spi.h ****     bool        enableTransferSeperation;
 568:Generated_Source\PSoC6\pdl\drivers/peripheral/scb/cy_scb_spi.h **** 
 569:Generated_Source\PSoC6\pdl\drivers/peripheral/scb/cy_scb_spi.h ****     /**
 570:Generated_Source\PSoC6\pdl\drivers/peripheral/scb/cy_scb_spi.h ****     * Sets active polarity of each SS line.
 571:Generated_Source\PSoC6\pdl\drivers/peripheral/scb/cy_scb_spi.h ****     * This is a bit mask: bit 0 corresponds to SS0 and so on to SS3.
 572:Generated_Source\PSoC6\pdl\drivers/peripheral/scb/cy_scb_spi.h ****     * 1 means active high, a 0 means active low.
 573:Generated_Source\PSoC6\pdl\drivers/peripheral/scb/cy_scb_spi.h ****     */
 574:Generated_Source\PSoC6\pdl\drivers/peripheral/scb/cy_scb_spi.h ****     uint32_t    ssPolarity;
 575:Generated_Source\PSoC6\pdl\drivers/peripheral/scb/cy_scb_spi.h **** 
 576:Generated_Source\PSoC6\pdl\drivers/peripheral/scb/cy_scb_spi.h ****     /**
 577:Generated_Source\PSoC6\pdl\drivers/peripheral/scb/cy_scb_spi.h ****     * When set, the slave will wake the device when the slave select line
 578:Generated_Source\PSoC6\pdl\drivers/peripheral/scb/cy_scb_spi.h ****     * becomes active.
 579:Generated_Source\PSoC6\pdl\drivers/peripheral/scb/cy_scb_spi.h ****     * Note that not all SCBs support this mode. Consult the device
 580:Generated_Source\PSoC6\pdl\drivers/peripheral/scb/cy_scb_spi.h ****     * datasheet to determine which SCBs support wake from Deep Sleep.
 581:Generated_Source\PSoC6\pdl\drivers/peripheral/scb/cy_scb_spi.h ****     */
 582:Generated_Source\PSoC6\pdl\drivers/peripheral/scb/cy_scb_spi.h ****     bool        enableWakeFromSleep;
 583:Generated_Source\PSoC6\pdl\drivers/peripheral/scb/cy_scb_spi.h **** 
 584:Generated_Source\PSoC6\pdl\drivers/peripheral/scb/cy_scb_spi.h ****     /**
 585:Generated_Source\PSoC6\pdl\drivers/peripheral/scb/cy_scb_spi.h ****     * When there are more entries in the RX FIFO then this level
 586:Generated_Source\PSoC6\pdl\drivers/peripheral/scb/cy_scb_spi.h ****     * the RX trigger output goes high. This output can be connected
 587:Generated_Source\PSoC6\pdl\drivers/peripheral/scb/cy_scb_spi.h ****     * to a DMA channel through a trigger mux.
 588:Generated_Source\PSoC6\pdl\drivers/peripheral/scb/cy_scb_spi.h ****     * Also, it controls the \ref CY_SCB_SPI_RX_TRIGGER interrupt source.
 589:Generated_Source\PSoC6\pdl\drivers/peripheral/scb/cy_scb_spi.h ****     */
 590:Generated_Source\PSoC6\pdl\drivers/peripheral/scb/cy_scb_spi.h ****     uint32_t    rxFifoTriggerLevel;
 591:Generated_Source\PSoC6\pdl\drivers/peripheral/scb/cy_scb_spi.h **** 
 592:Generated_Source\PSoC6\pdl\drivers/peripheral/scb/cy_scb_spi.h ****     /**
 593:Generated_Source\PSoC6\pdl\drivers/peripheral/scb/cy_scb_spi.h ****     * Bits set in this mask will allow events to cause an interrupt
 594:Generated_Source\PSoC6\pdl\drivers/peripheral/scb/cy_scb_spi.h ****     * (See \ref group_scb_spi_macros_rx_fifo_status for the set of constant)
 595:Generated_Source\PSoC6\pdl\drivers/peripheral/scb/cy_scb_spi.h ****     */
 596:Generated_Source\PSoC6\pdl\drivers/peripheral/scb/cy_scb_spi.h ****     uint32_t    rxFifoIntEnableMask;
 597:Generated_Source\PSoC6\pdl\drivers/peripheral/scb/cy_scb_spi.h **** 
 598:Generated_Source\PSoC6\pdl\drivers/peripheral/scb/cy_scb_spi.h ****     /**
 599:Generated_Source\PSoC6\pdl\drivers/peripheral/scb/cy_scb_spi.h ****     * When there are fewer entries in the TX FIFO then this level
 600:Generated_Source\PSoC6\pdl\drivers/peripheral/scb/cy_scb_spi.h ****     * the TX trigger output goes high. This output can be connected
 601:Generated_Source\PSoC6\pdl\drivers/peripheral/scb/cy_scb_spi.h ****     * to a DMA channel through a trigger mux.
 602:Generated_Source\PSoC6\pdl\drivers/peripheral/scb/cy_scb_spi.h ****     * Also, it controls the \ref CY_SCB_SPI_TX_TRIGGER interrupt source.
 603:Generated_Source\PSoC6\pdl\drivers/peripheral/scb/cy_scb_spi.h ****     */
 604:Generated_Source\PSoC6\pdl\drivers/peripheral/scb/cy_scb_spi.h ****     uint32_t    txFifoTriggerLevel;
 605:Generated_Source\PSoC6\pdl\drivers/peripheral/scb/cy_scb_spi.h **** 
 606:Generated_Source\PSoC6\pdl\drivers/peripheral/scb/cy_scb_spi.h ****     /**
ARM GAS  C:\Users\Smaug\AppData\Local\Temp\ccJKcizn.s 			page 15


 607:Generated_Source\PSoC6\pdl\drivers/peripheral/scb/cy_scb_spi.h ****     * Bits set in this mask allow events to cause an interrupt
 608:Generated_Source\PSoC6\pdl\drivers/peripheral/scb/cy_scb_spi.h ****     * (See \ref group_scb_spi_macros_tx_fifo_status for the set of constants)
 609:Generated_Source\PSoC6\pdl\drivers/peripheral/scb/cy_scb_spi.h ****     */
 610:Generated_Source\PSoC6\pdl\drivers/peripheral/scb/cy_scb_spi.h ****     uint32_t    txFifoIntEnableMask;
 611:Generated_Source\PSoC6\pdl\drivers/peripheral/scb/cy_scb_spi.h **** 
 612:Generated_Source\PSoC6\pdl\drivers/peripheral/scb/cy_scb_spi.h ****     /**
 613:Generated_Source\PSoC6\pdl\drivers/peripheral/scb/cy_scb_spi.h ****     * Bits set in this mask allow events to cause an interrupt
 614:Generated_Source\PSoC6\pdl\drivers/peripheral/scb/cy_scb_spi.h ****     * (See \ref group_scb_spi_macros_master_slave_status for the set of
 615:Generated_Source\PSoC6\pdl\drivers/peripheral/scb/cy_scb_spi.h ****     * constants)
 616:Generated_Source\PSoC6\pdl\drivers/peripheral/scb/cy_scb_spi.h ****     */
 617:Generated_Source\PSoC6\pdl\drivers/peripheral/scb/cy_scb_spi.h ****     uint32_t    masterSlaveIntEnableMask;
 618:Generated_Source\PSoC6\pdl\drivers/peripheral/scb/cy_scb_spi.h **** 
 619:Generated_Source\PSoC6\pdl\drivers/peripheral/scb/cy_scb_spi.h **** }cy_stc_scb_spi_config_t;
 620:Generated_Source\PSoC6\pdl\drivers/peripheral/scb/cy_scb_spi.h **** 
 621:Generated_Source\PSoC6\pdl\drivers/peripheral/scb/cy_scb_spi.h **** /** SPI context structure.
 622:Generated_Source\PSoC6\pdl\drivers/peripheral/scb/cy_scb_spi.h **** * All fields for the context structure are internal. Firmware never reads or
 623:Generated_Source\PSoC6\pdl\drivers/peripheral/scb/cy_scb_spi.h **** * writes these values. Firmware allocates the structure and provides the
 624:Generated_Source\PSoC6\pdl\drivers/peripheral/scb/cy_scb_spi.h **** * address of the structure to the driver in function calls. Firmware must
 625:Generated_Source\PSoC6\pdl\drivers/peripheral/scb/cy_scb_spi.h **** * ensure that the defined instance of this structure remains in scope
 626:Generated_Source\PSoC6\pdl\drivers/peripheral/scb/cy_scb_spi.h **** * while the drive is in use.
 627:Generated_Source\PSoC6\pdl\drivers/peripheral/scb/cy_scb_spi.h **** */
 628:Generated_Source\PSoC6\pdl\drivers/peripheral/scb/cy_scb_spi.h **** typedef struct cy_stc_scb_spi_context
 629:Generated_Source\PSoC6\pdl\drivers/peripheral/scb/cy_scb_spi.h **** {
 630:Generated_Source\PSoC6\pdl\drivers/peripheral/scb/cy_scb_spi.h ****     /** \cond INTERNAL */
 631:Generated_Source\PSoC6\pdl\drivers/peripheral/scb/cy_scb_spi.h ****     uint32_t volatile status;       /**< The receive status */
 632:Generated_Source\PSoC6\pdl\drivers/peripheral/scb/cy_scb_spi.h **** 
 633:Generated_Source\PSoC6\pdl\drivers/peripheral/scb/cy_scb_spi.h ****     void    *rxBuf;                 /**< The pointer to the receive buffer */
 634:Generated_Source\PSoC6\pdl\drivers/peripheral/scb/cy_scb_spi.h ****     uint32_t rxBufSize;             /**< The receive buffer size */
 635:Generated_Source\PSoC6\pdl\drivers/peripheral/scb/cy_scb_spi.h ****     uint32_t volatile rxBufIdx;     /**< The current location in the receive buffer */
 636:Generated_Source\PSoC6\pdl\drivers/peripheral/scb/cy_scb_spi.h **** 
 637:Generated_Source\PSoC6\pdl\drivers/peripheral/scb/cy_scb_spi.h ****     void    *txBuf;                 /**< The pointer to the transmit buffer */
 638:Generated_Source\PSoC6\pdl\drivers/peripheral/scb/cy_scb_spi.h ****     uint32_t txBufSize;             /**< The transmit buffer size */
 639:Generated_Source\PSoC6\pdl\drivers/peripheral/scb/cy_scb_spi.h ****     uint32_t volatile txBufIdx;     /**< The current location in the transmit buffer */
 640:Generated_Source\PSoC6\pdl\drivers/peripheral/scb/cy_scb_spi.h **** 
 641:Generated_Source\PSoC6\pdl\drivers/peripheral/scb/cy_scb_spi.h ****     /**
 642:Generated_Source\PSoC6\pdl\drivers/peripheral/scb/cy_scb_spi.h ****     * The pointer to an event callback that is called when any of
 643:Generated_Source\PSoC6\pdl\drivers/peripheral/scb/cy_scb_spi.h ****     * \ref group_scb_spi_macros_callback_events occurs
 644:Generated_Source\PSoC6\pdl\drivers/peripheral/scb/cy_scb_spi.h ****     */
 645:Generated_Source\PSoC6\pdl\drivers/peripheral/scb/cy_scb_spi.h ****     cy_cb_scb_spi_handle_events_t cbEvents;
 646:Generated_Source\PSoC6\pdl\drivers/peripheral/scb/cy_scb_spi.h **** 
 647:Generated_Source\PSoC6\pdl\drivers/peripheral/scb/cy_scb_spi.h **** #if !defined(NDEBUG)
 648:Generated_Source\PSoC6\pdl\drivers/peripheral/scb/cy_scb_spi.h ****     uint32_t initKey;               /**< Tracks the context initialization */
 649:Generated_Source\PSoC6\pdl\drivers/peripheral/scb/cy_scb_spi.h **** #endif /* !(NDEBUG) */
 650:Generated_Source\PSoC6\pdl\drivers/peripheral/scb/cy_scb_spi.h ****     /** \endcond */
 651:Generated_Source\PSoC6\pdl\drivers/peripheral/scb/cy_scb_spi.h **** } cy_stc_scb_spi_context_t;
 652:Generated_Source\PSoC6\pdl\drivers/peripheral/scb/cy_scb_spi.h **** 
 653:Generated_Source\PSoC6\pdl\drivers/peripheral/scb/cy_scb_spi.h **** /** \} group_scb_spi_data_structures */
 654:Generated_Source\PSoC6\pdl\drivers/peripheral/scb/cy_scb_spi.h **** 
 655:Generated_Source\PSoC6\pdl\drivers/peripheral/scb/cy_scb_spi.h **** 
 656:Generated_Source\PSoC6\pdl\drivers/peripheral/scb/cy_scb_spi.h **** /*******************************************************************************
 657:Generated_Source\PSoC6\pdl\drivers/peripheral/scb/cy_scb_spi.h **** *                          Function Prototypes
 658:Generated_Source\PSoC6\pdl\drivers/peripheral/scb/cy_scb_spi.h **** *******************************************************************************/
 659:Generated_Source\PSoC6\pdl\drivers/peripheral/scb/cy_scb_spi.h **** 
 660:Generated_Source\PSoC6\pdl\drivers/peripheral/scb/cy_scb_spi.h **** /**
 661:Generated_Source\PSoC6\pdl\drivers/peripheral/scb/cy_scb_spi.h **** * \addtogroup group_scb_spi_general_functions
 662:Generated_Source\PSoC6\pdl\drivers/peripheral/scb/cy_scb_spi.h **** * \{
 663:Generated_Source\PSoC6\pdl\drivers/peripheral/scb/cy_scb_spi.h **** */
ARM GAS  C:\Users\Smaug\AppData\Local\Temp\ccJKcizn.s 			page 16


 664:Generated_Source\PSoC6\pdl\drivers/peripheral/scb/cy_scb_spi.h **** cy_en_scb_spi_status_t Cy_SCB_SPI_Init(CySCB_Type *base, cy_stc_scb_spi_config_t const *config,
 665:Generated_Source\PSoC6\pdl\drivers/peripheral/scb/cy_scb_spi.h ****                                        cy_stc_scb_spi_context_t *context);
 666:Generated_Source\PSoC6\pdl\drivers/peripheral/scb/cy_scb_spi.h **** void Cy_SCB_SPI_DeInit (CySCB_Type *base);
 667:Generated_Source\PSoC6\pdl\drivers/peripheral/scb/cy_scb_spi.h **** __STATIC_INLINE void Cy_SCB_SPI_Enable(CySCB_Type *base);
 668:Generated_Source\PSoC6\pdl\drivers/peripheral/scb/cy_scb_spi.h **** void Cy_SCB_SPI_Disable(CySCB_Type *base, cy_stc_scb_spi_context_t *context);
 669:Generated_Source\PSoC6\pdl\drivers/peripheral/scb/cy_scb_spi.h **** 
 670:Generated_Source\PSoC6\pdl\drivers/peripheral/scb/cy_scb_spi.h **** __STATIC_INLINE void Cy_SCB_SPI_SetActiveSlaveSelect(CySCB_Type *base,
 671:Generated_Source\PSoC6\pdl\drivers/peripheral/scb/cy_scb_spi.h ****                                     cy_en_scb_spi_slave_select_t slaveSelect);
 672:Generated_Source\PSoC6\pdl\drivers/peripheral/scb/cy_scb_spi.h **** __STATIC_INLINE void Cy_SCB_SPI_SetActiveSlaveSelectPolarity(CySCB_Type *base,
 673:Generated_Source\PSoC6\pdl\drivers/peripheral/scb/cy_scb_spi.h ****                                     cy_en_scb_spi_slave_select_t slaveSelect,
 674:Generated_Source\PSoC6\pdl\drivers/peripheral/scb/cy_scb_spi.h ****                                     cy_en_scb_spi_polarity_t polarity);
 675:Generated_Source\PSoC6\pdl\drivers/peripheral/scb/cy_scb_spi.h **** 
 676:Generated_Source\PSoC6\pdl\drivers/peripheral/scb/cy_scb_spi.h **** __STATIC_INLINE bool Cy_SCB_SPI_IsBusBusy(CySCB_Type const *base);
 677:Generated_Source\PSoC6\pdl\drivers/peripheral/scb/cy_scb_spi.h **** /** \} group_scb_spi_general_functions */
 678:Generated_Source\PSoC6\pdl\drivers/peripheral/scb/cy_scb_spi.h **** 
 679:Generated_Source\PSoC6\pdl\drivers/peripheral/scb/cy_scb_spi.h **** /**
 680:Generated_Source\PSoC6\pdl\drivers/peripheral/scb/cy_scb_spi.h **** * \addtogroup group_scb_spi_high_level_functions
 681:Generated_Source\PSoC6\pdl\drivers/peripheral/scb/cy_scb_spi.h **** * \{
 682:Generated_Source\PSoC6\pdl\drivers/peripheral/scb/cy_scb_spi.h **** */
 683:Generated_Source\PSoC6\pdl\drivers/peripheral/scb/cy_scb_spi.h **** cy_en_scb_spi_status_t Cy_SCB_SPI_Transfer(CySCB_Type *base, void *txBuffer, void *rxBuffer, uint32
 684:Generated_Source\PSoC6\pdl\drivers/peripheral/scb/cy_scb_spi.h ****                                            cy_stc_scb_spi_context_t *context);
 685:Generated_Source\PSoC6\pdl\drivers/peripheral/scb/cy_scb_spi.h **** void     Cy_SCB_SPI_AbortTransfer    (CySCB_Type *base, cy_stc_scb_spi_context_t *context);
 686:Generated_Source\PSoC6\pdl\drivers/peripheral/scb/cy_scb_spi.h **** uint32_t Cy_SCB_SPI_GetTransferStatus(CySCB_Type const *base, cy_stc_scb_spi_context_t const *conte
 687:Generated_Source\PSoC6\pdl\drivers/peripheral/scb/cy_scb_spi.h **** uint32_t Cy_SCB_SPI_GetNumTransfered (CySCB_Type const *base, cy_stc_scb_spi_context_t const *conte
 688:Generated_Source\PSoC6\pdl\drivers/peripheral/scb/cy_scb_spi.h **** /** \} group_scb_spi_high_level_functions */
 689:Generated_Source\PSoC6\pdl\drivers/peripheral/scb/cy_scb_spi.h **** 
 690:Generated_Source\PSoC6\pdl\drivers/peripheral/scb/cy_scb_spi.h **** /**
 691:Generated_Source\PSoC6\pdl\drivers/peripheral/scb/cy_scb_spi.h **** * \addtogroup group_scb_spi_low_level_functions
 692:Generated_Source\PSoC6\pdl\drivers/peripheral/scb/cy_scb_spi.h **** * \{
 693:Generated_Source\PSoC6\pdl\drivers/peripheral/scb/cy_scb_spi.h **** */
 694:Generated_Source\PSoC6\pdl\drivers/peripheral/scb/cy_scb_spi.h **** __STATIC_INLINE uint32_t Cy_SCB_SPI_Read     (CySCB_Type const *base);
 695:Generated_Source\PSoC6\pdl\drivers/peripheral/scb/cy_scb_spi.h **** __STATIC_INLINE uint32_t Cy_SCB_SPI_ReadArray(CySCB_Type const *base, void *buffer, uint32_t size);
 696:Generated_Source\PSoC6\pdl\drivers/peripheral/scb/cy_scb_spi.h **** 
 697:Generated_Source\PSoC6\pdl\drivers/peripheral/scb/cy_scb_spi.h **** __STATIC_INLINE uint32_t Cy_SCB_SPI_Write     (CySCB_Type *base, uint32_t data);
 698:Generated_Source\PSoC6\pdl\drivers/peripheral/scb/cy_scb_spi.h **** __STATIC_INLINE uint32_t Cy_SCB_SPI_WriteArray(CySCB_Type *base, void *buffer, uint32_t size);
 699:Generated_Source\PSoC6\pdl\drivers/peripheral/scb/cy_scb_spi.h **** __STATIC_INLINE void     Cy_SCB_SPI_WriteArrayBlocking(CySCB_Type *base, void *buffer, uint32_t siz
 700:Generated_Source\PSoC6\pdl\drivers/peripheral/scb/cy_scb_spi.h **** 
 701:Generated_Source\PSoC6\pdl\drivers/peripheral/scb/cy_scb_spi.h **** __STATIC_INLINE uint32_t Cy_SCB_SPI_GetTxFifoStatus  (CySCB_Type const *base);
 702:Generated_Source\PSoC6\pdl\drivers/peripheral/scb/cy_scb_spi.h **** __STATIC_INLINE void     Cy_SCB_SPI_ClearTxFifoStatus(CySCB_Type *base, uint32_t clearMask);
 703:Generated_Source\PSoC6\pdl\drivers/peripheral/scb/cy_scb_spi.h **** 
 704:Generated_Source\PSoC6\pdl\drivers/peripheral/scb/cy_scb_spi.h **** __STATIC_INLINE uint32_t Cy_SCB_SPI_GetRxFifoStatus  (CySCB_Type const *base);
 705:Generated_Source\PSoC6\pdl\drivers/peripheral/scb/cy_scb_spi.h **** __STATIC_INLINE void     Cy_SCB_SPI_ClearRxFifoStatus(CySCB_Type *base, uint32_t clearMask);
 706:Generated_Source\PSoC6\pdl\drivers/peripheral/scb/cy_scb_spi.h **** 
 707:Generated_Source\PSoC6\pdl\drivers/peripheral/scb/cy_scb_spi.h **** __STATIC_INLINE uint32_t Cy_SCB_SPI_GetSlaveMasterStatus  (CySCB_Type const *base);
 708:Generated_Source\PSoC6\pdl\drivers/peripheral/scb/cy_scb_spi.h **** __STATIC_INLINE void     Cy_SCB_SPI_ClearSlaveMasterStatus(CySCB_Type *base, uint32_t clearMask);
 709:Generated_Source\PSoC6\pdl\drivers/peripheral/scb/cy_scb_spi.h **** 
 710:Generated_Source\PSoC6\pdl\drivers/peripheral/scb/cy_scb_spi.h **** __STATIC_INLINE uint32_t Cy_SCB_SPI_GetNumInTxFifo(CySCB_Type const *base);
 711:Generated_Source\PSoC6\pdl\drivers/peripheral/scb/cy_scb_spi.h **** __STATIC_INLINE bool     Cy_SCB_SPI_IsTxComplete  (CySCB_Type const *base);
 712:Generated_Source\PSoC6\pdl\drivers/peripheral/scb/cy_scb_spi.h **** 
 713:Generated_Source\PSoC6\pdl\drivers/peripheral/scb/cy_scb_spi.h **** __STATIC_INLINE uint32_t Cy_SCB_SPI_GetNumInRxFifo(CySCB_Type const *base);
 714:Generated_Source\PSoC6\pdl\drivers/peripheral/scb/cy_scb_spi.h **** 
 715:Generated_Source\PSoC6\pdl\drivers/peripheral/scb/cy_scb_spi.h **** __STATIC_INLINE void Cy_SCB_SPI_ClearRxFifo(CySCB_Type *base);
 716:Generated_Source\PSoC6\pdl\drivers/peripheral/scb/cy_scb_spi.h **** __STATIC_INLINE void Cy_SCB_SPI_ClearTxFifo(CySCB_Type *base);
 717:Generated_Source\PSoC6\pdl\drivers/peripheral/scb/cy_scb_spi.h **** /** \} group_scb_spi_low_level_functions */
 718:Generated_Source\PSoC6\pdl\drivers/peripheral/scb/cy_scb_spi.h **** 
 719:Generated_Source\PSoC6\pdl\drivers/peripheral/scb/cy_scb_spi.h **** /**
 720:Generated_Source\PSoC6\pdl\drivers/peripheral/scb/cy_scb_spi.h **** * \addtogroup group_scb_spi_interrupt_functions
ARM GAS  C:\Users\Smaug\AppData\Local\Temp\ccJKcizn.s 			page 17


 721:Generated_Source\PSoC6\pdl\drivers/peripheral/scb/cy_scb_spi.h **** * \{
 722:Generated_Source\PSoC6\pdl\drivers/peripheral/scb/cy_scb_spi.h **** */
 723:Generated_Source\PSoC6\pdl\drivers/peripheral/scb/cy_scb_spi.h **** void Cy_SCB_SPI_Interrupt(CySCB_Type *base, cy_stc_scb_spi_context_t *context);
 724:Generated_Source\PSoC6\pdl\drivers/peripheral/scb/cy_scb_spi.h **** 
 725:Generated_Source\PSoC6\pdl\drivers/peripheral/scb/cy_scb_spi.h **** __STATIC_INLINE void Cy_SCB_SPI_RegisterCallback(CySCB_Type const *base, cy_cb_scb_spi_handle_event
 726:Generated_Source\PSoC6\pdl\drivers/peripheral/scb/cy_scb_spi.h ****                                                  cy_stc_scb_spi_context_t *context);
 727:Generated_Source\PSoC6\pdl\drivers/peripheral/scb/cy_scb_spi.h **** /** \} group_scb_spi_interrupt_functions */
 728:Generated_Source\PSoC6\pdl\drivers/peripheral/scb/cy_scb_spi.h **** 
 729:Generated_Source\PSoC6\pdl\drivers/peripheral/scb/cy_scb_spi.h **** /**
 730:Generated_Source\PSoC6\pdl\drivers/peripheral/scb/cy_scb_spi.h **** * \addtogroup group_scb_spi_low_power_functions
 731:Generated_Source\PSoC6\pdl\drivers/peripheral/scb/cy_scb_spi.h **** * \{
 732:Generated_Source\PSoC6\pdl\drivers/peripheral/scb/cy_scb_spi.h **** */
 733:Generated_Source\PSoC6\pdl\drivers/peripheral/scb/cy_scb_spi.h **** cy_en_syspm_status_t Cy_SCB_SPI_DeepSleepCallback(cy_stc_syspm_callback_params_t *callbackParams, c
 734:Generated_Source\PSoC6\pdl\drivers/peripheral/scb/cy_scb_spi.h **** cy_en_syspm_status_t Cy_SCB_SPI_HibernateCallback(cy_stc_syspm_callback_params_t *callbackParams, c
 735:Generated_Source\PSoC6\pdl\drivers/peripheral/scb/cy_scb_spi.h **** /** \} group_scb_spi_low_power_functions */
 736:Generated_Source\PSoC6\pdl\drivers/peripheral/scb/cy_scb_spi.h **** 
 737:Generated_Source\PSoC6\pdl\drivers/peripheral/scb/cy_scb_spi.h **** 
 738:Generated_Source\PSoC6\pdl\drivers/peripheral/scb/cy_scb_spi.h **** /*******************************************************************************
 739:Generated_Source\PSoC6\pdl\drivers/peripheral/scb/cy_scb_spi.h **** *                               API Constants
 740:Generated_Source\PSoC6\pdl\drivers/peripheral/scb/cy_scb_spi.h **** *******************************************************************************/
 741:Generated_Source\PSoC6\pdl\drivers/peripheral/scb/cy_scb_spi.h **** 
 742:Generated_Source\PSoC6\pdl\drivers/peripheral/scb/cy_scb_spi.h **** /**
 743:Generated_Source\PSoC6\pdl\drivers/peripheral/scb/cy_scb_spi.h **** * \addtogroup group_scb_spi_macros
 744:Generated_Source\PSoC6\pdl\drivers/peripheral/scb/cy_scb_spi.h **** * \{
 745:Generated_Source\PSoC6\pdl\drivers/peripheral/scb/cy_scb_spi.h **** */
 746:Generated_Source\PSoC6\pdl\drivers/peripheral/scb/cy_scb_spi.h **** 
 747:Generated_Source\PSoC6\pdl\drivers/peripheral/scb/cy_scb_spi.h **** /**
 748:Generated_Source\PSoC6\pdl\drivers/peripheral/scb/cy_scb_spi.h **** * \defgroup group_scb_spi_macros_tx_fifo_status SPI TX FIFO Statuses
 749:Generated_Source\PSoC6\pdl\drivers/peripheral/scb/cy_scb_spi.h **** * Macros to check SPI TX FIFO status returned by \ref Cy_SCB_SPI_GetTxFifoStatus
 750:Generated_Source\PSoC6\pdl\drivers/peripheral/scb/cy_scb_spi.h **** * function or assign mask for \ref Cy_SCB_SPI_ClearTxFifoStatus function.
 751:Generated_Source\PSoC6\pdl\drivers/peripheral/scb/cy_scb_spi.h **** * Each SPI TX FIFO status is encoded in a separate bit, therefore multiple bits
 752:Generated_Source\PSoC6\pdl\drivers/peripheral/scb/cy_scb_spi.h **** * may be set to indicate the current status.
 753:Generated_Source\PSoC6\pdl\drivers/peripheral/scb/cy_scb_spi.h **** * \{
 754:Generated_Source\PSoC6\pdl\drivers/peripheral/scb/cy_scb_spi.h **** */
 755:Generated_Source\PSoC6\pdl\drivers/peripheral/scb/cy_scb_spi.h **** /** The number of entries in the TX FIFO is less than the TX FIFO trigger level
 756:Generated_Source\PSoC6\pdl\drivers/peripheral/scb/cy_scb_spi.h **** * value
 757:Generated_Source\PSoC6\pdl\drivers/peripheral/scb/cy_scb_spi.h **** */
 758:Generated_Source\PSoC6\pdl\drivers/peripheral/scb/cy_scb_spi.h **** #define CY_SCB_SPI_TX_TRIGGER       (SCB_INTR_TX_TRIGGER_Msk)
 759:Generated_Source\PSoC6\pdl\drivers/peripheral/scb/cy_scb_spi.h **** 
 760:Generated_Source\PSoC6\pdl\drivers/peripheral/scb/cy_scb_spi.h **** /** The TX FIFO is not full, there is a space for more data */
 761:Generated_Source\PSoC6\pdl\drivers/peripheral/scb/cy_scb_spi.h **** #define CY_SCB_SPI_TX_NOT_FULL      (SCB_INTR_TX_NOT_FULL_Msk)
 762:Generated_Source\PSoC6\pdl\drivers/peripheral/scb/cy_scb_spi.h **** 
 763:Generated_Source\PSoC6\pdl\drivers/peripheral/scb/cy_scb_spi.h **** /**
 764:Generated_Source\PSoC6\pdl\drivers/peripheral/scb/cy_scb_spi.h **** * The TX FIFO is empty, note that there may still be data in the shift register.
 765:Generated_Source\PSoC6\pdl\drivers/peripheral/scb/cy_scb_spi.h **** */
 766:Generated_Source\PSoC6\pdl\drivers/peripheral/scb/cy_scb_spi.h **** #define CY_SCB_SPI_TX_EMPTY         (SCB_INTR_TX_EMPTY_Msk)
 767:Generated_Source\PSoC6\pdl\drivers/peripheral/scb/cy_scb_spi.h **** 
 768:Generated_Source\PSoC6\pdl\drivers/peripheral/scb/cy_scb_spi.h **** /** An attempt to write to the full TX FIFO */
 769:Generated_Source\PSoC6\pdl\drivers/peripheral/scb/cy_scb_spi.h **** #define CY_SCB_SPI_TX_OVERFLOW      (SCB_INTR_TX_OVERFLOW_Msk)
 770:Generated_Source\PSoC6\pdl\drivers/peripheral/scb/cy_scb_spi.h **** 
 771:Generated_Source\PSoC6\pdl\drivers/peripheral/scb/cy_scb_spi.h **** /**
 772:Generated_Source\PSoC6\pdl\drivers/peripheral/scb/cy_scb_spi.h **** * Applicable only for the slave mode. The master tried to read more
 773:Generated_Source\PSoC6\pdl\drivers/peripheral/scb/cy_scb_spi.h **** * data elements than available.
 774:Generated_Source\PSoC6\pdl\drivers/peripheral/scb/cy_scb_spi.h **** */
 775:Generated_Source\PSoC6\pdl\drivers/peripheral/scb/cy_scb_spi.h **** #define CY_SCB_SPI_TX_UNDERFLOW     (SCB_INTR_TX_UNDERFLOW_Msk)
 776:Generated_Source\PSoC6\pdl\drivers/peripheral/scb/cy_scb_spi.h **** /** \} group_scb_spi_macros_tx_fifo_status */
 777:Generated_Source\PSoC6\pdl\drivers/peripheral/scb/cy_scb_spi.h **** 
ARM GAS  C:\Users\Smaug\AppData\Local\Temp\ccJKcizn.s 			page 18


 778:Generated_Source\PSoC6\pdl\drivers/peripheral/scb/cy_scb_spi.h **** /**
 779:Generated_Source\PSoC6\pdl\drivers/peripheral/scb/cy_scb_spi.h **** * \defgroup group_scb_spi_macros_rx_fifo_status SPI RX FIFO Statuses
 780:Generated_Source\PSoC6\pdl\drivers/peripheral/scb/cy_scb_spi.h **** * \{
 781:Generated_Source\PSoC6\pdl\drivers/peripheral/scb/cy_scb_spi.h **** * Macros to check SPI RX FIFO status returned by \ref Cy_SCB_SPI_GetRxFifoStatus
 782:Generated_Source\PSoC6\pdl\drivers/peripheral/scb/cy_scb_spi.h **** * function or assign mask for \ref Cy_SCB_SPI_ClearRxFifoStatus function.
 783:Generated_Source\PSoC6\pdl\drivers/peripheral/scb/cy_scb_spi.h **** * Each SPI RX FIFO status is encoded in a separate bit, therefore multiple
 784:Generated_Source\PSoC6\pdl\drivers/peripheral/scb/cy_scb_spi.h **** * bits may be set to indicate the current status.
 785:Generated_Source\PSoC6\pdl\drivers/peripheral/scb/cy_scb_spi.h **** */
 786:Generated_Source\PSoC6\pdl\drivers/peripheral/scb/cy_scb_spi.h **** /** The number of entries in the RX FIFO is more than the RX FIFO trigger
 787:Generated_Source\PSoC6\pdl\drivers/peripheral/scb/cy_scb_spi.h **** * level value.
 788:Generated_Source\PSoC6\pdl\drivers/peripheral/scb/cy_scb_spi.h **** */
 789:Generated_Source\PSoC6\pdl\drivers/peripheral/scb/cy_scb_spi.h **** #define CY_SCB_SPI_RX_TRIGGER       (SCB_INTR_RX_TRIGGER_Msk)
 790:Generated_Source\PSoC6\pdl\drivers/peripheral/scb/cy_scb_spi.h **** 
 791:Generated_Source\PSoC6\pdl\drivers/peripheral/scb/cy_scb_spi.h **** /** The RX FIFO is not empty, there is data to read */
 792:Generated_Source\PSoC6\pdl\drivers/peripheral/scb/cy_scb_spi.h **** #define CY_SCB_SPI_RX_NOT_EMPTY     (SCB_INTR_RX_NOT_EMPTY_Msk)
 793:Generated_Source\PSoC6\pdl\drivers/peripheral/scb/cy_scb_spi.h **** 
 794:Generated_Source\PSoC6\pdl\drivers/peripheral/scb/cy_scb_spi.h **** /**
 795:Generated_Source\PSoC6\pdl\drivers/peripheral/scb/cy_scb_spi.h **** * The RX FIFO is full. There is no more space for additional data.
 796:Generated_Source\PSoC6\pdl\drivers/peripheral/scb/cy_scb_spi.h **** * Any additional data will be dropped.
 797:Generated_Source\PSoC6\pdl\drivers/peripheral/scb/cy_scb_spi.h **** */
 798:Generated_Source\PSoC6\pdl\drivers/peripheral/scb/cy_scb_spi.h **** #define CY_SCB_SPI_RX_FULL          (SCB_INTR_RX_FULL_Msk)
 799:Generated_Source\PSoC6\pdl\drivers/peripheral/scb/cy_scb_spi.h **** 
 800:Generated_Source\PSoC6\pdl\drivers/peripheral/scb/cy_scb_spi.h **** /**
 801:Generated_Source\PSoC6\pdl\drivers/peripheral/scb/cy_scb_spi.h **** * The RX FIFO was full and there was an attempt to write to it.
 802:Generated_Source\PSoC6\pdl\drivers/peripheral/scb/cy_scb_spi.h **** * This additional data was dropped.
 803:Generated_Source\PSoC6\pdl\drivers/peripheral/scb/cy_scb_spi.h **** */
 804:Generated_Source\PSoC6\pdl\drivers/peripheral/scb/cy_scb_spi.h **** #define CY_SCB_SPI_RX_OVERFLOW      (SCB_INTR_RX_OVERFLOW_Msk)
 805:Generated_Source\PSoC6\pdl\drivers/peripheral/scb/cy_scb_spi.h **** 
 806:Generated_Source\PSoC6\pdl\drivers/peripheral/scb/cy_scb_spi.h **** /** An attempt to read from an empty RX FIFO */
 807:Generated_Source\PSoC6\pdl\drivers/peripheral/scb/cy_scb_spi.h **** #define CY_SCB_SPI_RX_UNDERFLOW     (SCB_INTR_RX_UNDERFLOW_Msk)
 808:Generated_Source\PSoC6\pdl\drivers/peripheral/scb/cy_scb_spi.h **** /** \} group_scb_spi_macros_rx_fifo_status */
 809:Generated_Source\PSoC6\pdl\drivers/peripheral/scb/cy_scb_spi.h **** 
 810:Generated_Source\PSoC6\pdl\drivers/peripheral/scb/cy_scb_spi.h **** /**
 811:Generated_Source\PSoC6\pdl\drivers/peripheral/scb/cy_scb_spi.h **** * \defgroup group_scb_spi_macros_master_slave_status SPI Master and Slave Statuses
 812:Generated_Source\PSoC6\pdl\drivers/peripheral/scb/cy_scb_spi.h **** * \{
 813:Generated_Source\PSoC6\pdl\drivers/peripheral/scb/cy_scb_spi.h **** * Macros to check SPI Mater and Slave status returned by \ref Cy_SCB_SPI_GetSlaveMasterStatus
 814:Generated_Source\PSoC6\pdl\drivers/peripheral/scb/cy_scb_spi.h **** * function or assign mask for \ref Cy_SCB_SPI_ClearSlaveMasterStatus function.
 815:Generated_Source\PSoC6\pdl\drivers/peripheral/scb/cy_scb_spi.h **** */
 816:Generated_Source\PSoC6\pdl\drivers/peripheral/scb/cy_scb_spi.h **** /** The slave was deselected at the wrong time */
 817:Generated_Source\PSoC6\pdl\drivers/peripheral/scb/cy_scb_spi.h **** #define CY_SCB_SPI_SLAVE_ERR       (SCB_INTR_S_SPI_BUS_ERROR_Msk)
 818:Generated_Source\PSoC6\pdl\drivers/peripheral/scb/cy_scb_spi.h **** 
 819:Generated_Source\PSoC6\pdl\drivers/peripheral/scb/cy_scb_spi.h **** /** The master has transmitted all data elements from FIFO and shifter */
 820:Generated_Source\PSoC6\pdl\drivers/peripheral/scb/cy_scb_spi.h **** #define CY_SCB_SPI_MASTER_DONE     (SCB_INTR_M_SPI_DONE_Msk)
 821:Generated_Source\PSoC6\pdl\drivers/peripheral/scb/cy_scb_spi.h **** /** \} group_scb_spi_macros_master_slave_status */
 822:Generated_Source\PSoC6\pdl\drivers/peripheral/scb/cy_scb_spi.h **** 
 823:Generated_Source\PSoC6\pdl\drivers/peripheral/scb/cy_scb_spi.h **** /**
 824:Generated_Source\PSoC6\pdl\drivers/peripheral/scb/cy_scb_spi.h **** * \defgroup group_scb_spi_macros_xfer_status SPI Transfer Status
 825:Generated_Source\PSoC6\pdl\drivers/peripheral/scb/cy_scb_spi.h **** * \{
 826:Generated_Source\PSoC6\pdl\drivers/peripheral/scb/cy_scb_spi.h **** * Macros to check current SPI transfer status returned by
 827:Generated_Source\PSoC6\pdl\drivers/peripheral/scb/cy_scb_spi.h **** * \ref Cy_SCB_SPI_GetTransferStatus function.
 828:Generated_Source\PSoC6\pdl\drivers/peripheral/scb/cy_scb_spi.h **** * Each SPI transfer status is encoded in a separate bit, therefore multiple bits
 829:Generated_Source\PSoC6\pdl\drivers/peripheral/scb/cy_scb_spi.h **** * may be set to indicate the current status.
 830:Generated_Source\PSoC6\pdl\drivers/peripheral/scb/cy_scb_spi.h **** */
 831:Generated_Source\PSoC6\pdl\drivers/peripheral/scb/cy_scb_spi.h **** /**
 832:Generated_Source\PSoC6\pdl\drivers/peripheral/scb/cy_scb_spi.h **** * Transfer operation started by \ref Cy_SCB_SPI_Transfer is in progress
 833:Generated_Source\PSoC6\pdl\drivers/peripheral/scb/cy_scb_spi.h **** */
 834:Generated_Source\PSoC6\pdl\drivers/peripheral/scb/cy_scb_spi.h **** #define CY_SCB_SPI_TRANSFER_ACTIVE     (0x01UL)
ARM GAS  C:\Users\Smaug\AppData\Local\Temp\ccJKcizn.s 			page 19


 835:Generated_Source\PSoC6\pdl\drivers/peripheral/scb/cy_scb_spi.h **** 
 836:Generated_Source\PSoC6\pdl\drivers/peripheral/scb/cy_scb_spi.h **** /**
 837:Generated_Source\PSoC6\pdl\drivers/peripheral/scb/cy_scb_spi.h **** * All data elements specified by \ref Cy_SCB_SPI_Transfer for transmission
 838:Generated_Source\PSoC6\pdl\drivers/peripheral/scb/cy_scb_spi.h **** * have been loaded into the TX FIFO
 839:Generated_Source\PSoC6\pdl\drivers/peripheral/scb/cy_scb_spi.h **** */
 840:Generated_Source\PSoC6\pdl\drivers/peripheral/scb/cy_scb_spi.h **** #define CY_SCB_SPI_TRANSFER_IN_FIFO    (0x02UL)
 841:Generated_Source\PSoC6\pdl\drivers/peripheral/scb/cy_scb_spi.h **** 
 842:Generated_Source\PSoC6\pdl\drivers/peripheral/scb/cy_scb_spi.h **** /** The slave was deselected at the wrong time. */
 843:Generated_Source\PSoC6\pdl\drivers/peripheral/scb/cy_scb_spi.h **** #define CY_SCB_SPI_SLAVE_TRANSFER_ERR  (SCB_INTR_S_SPI_BUS_ERROR_Msk)
 844:Generated_Source\PSoC6\pdl\drivers/peripheral/scb/cy_scb_spi.h **** 
 845:Generated_Source\PSoC6\pdl\drivers/peripheral/scb/cy_scb_spi.h **** /**
 846:Generated_Source\PSoC6\pdl\drivers/peripheral/scb/cy_scb_spi.h **** * RX FIFO was full and there was an attempt to write to it.
 847:Generated_Source\PSoC6\pdl\drivers/peripheral/scb/cy_scb_spi.h **** * This additional data was dropped.
 848:Generated_Source\PSoC6\pdl\drivers/peripheral/scb/cy_scb_spi.h **** */
 849:Generated_Source\PSoC6\pdl\drivers/peripheral/scb/cy_scb_spi.h **** #define CY_SCB_SPI_TRANSFER_OVERFLOW   (SCB_INTR_RX_OVERFLOW_Msk)
 850:Generated_Source\PSoC6\pdl\drivers/peripheral/scb/cy_scb_spi.h **** 
 851:Generated_Source\PSoC6\pdl\drivers/peripheral/scb/cy_scb_spi.h **** /**
 852:Generated_Source\PSoC6\pdl\drivers/peripheral/scb/cy_scb_spi.h **** * Applicable only for the slave mode. The master tried to read more
 853:Generated_Source\PSoC6\pdl\drivers/peripheral/scb/cy_scb_spi.h **** * data elements than available in the TX FIFO.
 854:Generated_Source\PSoC6\pdl\drivers/peripheral/scb/cy_scb_spi.h **** */
 855:Generated_Source\PSoC6\pdl\drivers/peripheral/scb/cy_scb_spi.h **** #define CY_SCB_SPI_TRANSFER_UNDERFLOW  (SCB_INTR_TX_UNDERFLOW_Msk)
 856:Generated_Source\PSoC6\pdl\drivers/peripheral/scb/cy_scb_spi.h **** /** \} group_scb_spi_macros_xfer_status */
 857:Generated_Source\PSoC6\pdl\drivers/peripheral/scb/cy_scb_spi.h **** 
 858:Generated_Source\PSoC6\pdl\drivers/peripheral/scb/cy_scb_spi.h **** /**
 859:Generated_Source\PSoC6\pdl\drivers/peripheral/scb/cy_scb_spi.h **** * \defgroup group_scb_spi_macros_callback_events SPI Callback Events
 860:Generated_Source\PSoC6\pdl\drivers/peripheral/scb/cy_scb_spi.h **** * \{
 861:Generated_Source\PSoC6\pdl\drivers/peripheral/scb/cy_scb_spi.h **** * Macros to check SPI events passed by \ref cy_cb_scb_spi_handle_events_t callback.
 862:Generated_Source\PSoC6\pdl\drivers/peripheral/scb/cy_scb_spi.h **** * Note that only single event is notified by the callback when it is called.
 863:Generated_Source\PSoC6\pdl\drivers/peripheral/scb/cy_scb_spi.h **** */
 864:Generated_Source\PSoC6\pdl\drivers/peripheral/scb/cy_scb_spi.h **** /**
 865:Generated_Source\PSoC6\pdl\drivers/peripheral/scb/cy_scb_spi.h **** * All data elements specified by \ref Cy_SCB_SPI_Transfer for transmission
 866:Generated_Source\PSoC6\pdl\drivers/peripheral/scb/cy_scb_spi.h **** * have been loaded into the TX FIFO
 867:Generated_Source\PSoC6\pdl\drivers/peripheral/scb/cy_scb_spi.h **** */
 868:Generated_Source\PSoC6\pdl\drivers/peripheral/scb/cy_scb_spi.h **** #define CY_SCB_SPI_TRANSFER_IN_FIFO_EVENT  (0x01U)
 869:Generated_Source\PSoC6\pdl\drivers/peripheral/scb/cy_scb_spi.h **** 
 870:Generated_Source\PSoC6\pdl\drivers/peripheral/scb/cy_scb_spi.h **** /** The transfer operation started by \ref Cy_SCB_SPI_Transfer is complete */
 871:Generated_Source\PSoC6\pdl\drivers/peripheral/scb/cy_scb_spi.h **** #define CY_SCB_SPI_TRANSFER_CMPLT_EVENT    (0x02U)
 872:Generated_Source\PSoC6\pdl\drivers/peripheral/scb/cy_scb_spi.h **** 
 873:Generated_Source\PSoC6\pdl\drivers/peripheral/scb/cy_scb_spi.h **** /**
 874:Generated_Source\PSoC6\pdl\drivers/peripheral/scb/cy_scb_spi.h **** * An error occurred during the transfer. This includes overflow, underflow
 875:Generated_Source\PSoC6\pdl\drivers/peripheral/scb/cy_scb_spi.h **** * and a transfer error. Check \ref Cy_SCB_SPI_GetTransferStatus.
 876:Generated_Source\PSoC6\pdl\drivers/peripheral/scb/cy_scb_spi.h **** */
 877:Generated_Source\PSoC6\pdl\drivers/peripheral/scb/cy_scb_spi.h **** #define CY_SCB_SPI_TRANSFER_ERR_EVENT      (0x04U)
 878:Generated_Source\PSoC6\pdl\drivers/peripheral/scb/cy_scb_spi.h **** /** \} group_scb_spi_macros_callback_events */
 879:Generated_Source\PSoC6\pdl\drivers/peripheral/scb/cy_scb_spi.h **** 
 880:Generated_Source\PSoC6\pdl\drivers/peripheral/scb/cy_scb_spi.h **** 
 881:Generated_Source\PSoC6\pdl\drivers/peripheral/scb/cy_scb_spi.h **** /** Default TX value when no TX buffer is defined */
 882:Generated_Source\PSoC6\pdl\drivers/peripheral/scb/cy_scb_spi.h **** #define CY_SCB_SPI_DEFAULT_TX  (0x0000FFFFUL)
 883:Generated_Source\PSoC6\pdl\drivers/peripheral/scb/cy_scb_spi.h **** 
 884:Generated_Source\PSoC6\pdl\drivers/peripheral/scb/cy_scb_spi.h **** /** Data returned by the hardware when an empty RX FIFO is read */
 885:Generated_Source\PSoC6\pdl\drivers/peripheral/scb/cy_scb_spi.h **** #define CY_SCB_SPI_RX_NO_DATA  (0xFFFFFFFFUL)
 886:Generated_Source\PSoC6\pdl\drivers/peripheral/scb/cy_scb_spi.h **** 
 887:Generated_Source\PSoC6\pdl\drivers/peripheral/scb/cy_scb_spi.h **** 
 888:Generated_Source\PSoC6\pdl\drivers/peripheral/scb/cy_scb_spi.h **** /*******************************************************************************
 889:Generated_Source\PSoC6\pdl\drivers/peripheral/scb/cy_scb_spi.h **** *                          Internal Constants
 890:Generated_Source\PSoC6\pdl\drivers/peripheral/scb/cy_scb_spi.h **** *******************************************************************************/
 891:Generated_Source\PSoC6\pdl\drivers/peripheral/scb/cy_scb_spi.h **** 
ARM GAS  C:\Users\Smaug\AppData\Local\Temp\ccJKcizn.s 			page 20


 892:Generated_Source\PSoC6\pdl\drivers/peripheral/scb/cy_scb_spi.h **** /** \cond INTERNAL */
 893:Generated_Source\PSoC6\pdl\drivers/peripheral/scb/cy_scb_spi.h **** #define CY_SCB_SPI_RX_INTR_MASK  (CY_SCB_SPI_RX_TRIGGER  | CY_SCB_SPI_RX_NOT_EMPTY | CY_SCB_SPI_RX_
 894:Generated_Source\PSoC6\pdl\drivers/peripheral/scb/cy_scb_spi.h ****                                   CY_SCB_SPI_RX_OVERFLOW | CY_SCB_SPI_RX_UNDERFLOW)
 895:Generated_Source\PSoC6\pdl\drivers/peripheral/scb/cy_scb_spi.h **** 
 896:Generated_Source\PSoC6\pdl\drivers/peripheral/scb/cy_scb_spi.h **** #define CY_SCB_SPI_TX_INTR_MASK  (CY_SCB_SPI_TX_TRIGGER  | CY_SCB_SPI_TX_NOT_FULL | CY_SCB_SPI_TX_E
 897:Generated_Source\PSoC6\pdl\drivers/peripheral/scb/cy_scb_spi.h ****                                   CY_SCB_SPI_TX_OVERFLOW | CY_SCB_SPI_TX_UNDERFLOW)
 898:Generated_Source\PSoC6\pdl\drivers/peripheral/scb/cy_scb_spi.h **** 
 899:Generated_Source\PSoC6\pdl\drivers/peripheral/scb/cy_scb_spi.h **** #define CY_SCB_SPI_MASTER_SLAVE_INTR_MASK (CY_SCB_SPI_MASTER_DONE | CY_SCB_SPI_SLAVE_ERR)
 900:Generated_Source\PSoC6\pdl\drivers/peripheral/scb/cy_scb_spi.h **** 
 901:Generated_Source\PSoC6\pdl\drivers/peripheral/scb/cy_scb_spi.h **** #define CY_SCB_SPI_TRANSFER_ERR    (CY_SCB_SPI_SLAVE_TRANSFER_ERR | CY_SCB_SPI_TRANSFER_OVERFLOW | 
 902:Generated_Source\PSoC6\pdl\drivers/peripheral/scb/cy_scb_spi.h ****                                     CY_SCB_SPI_TRANSFER_UNDERFLOW)
 903:Generated_Source\PSoC6\pdl\drivers/peripheral/scb/cy_scb_spi.h **** 
 904:Generated_Source\PSoC6\pdl\drivers/peripheral/scb/cy_scb_spi.h **** #define CY_SCB_SPI_INIT_KEY        (0x00ABCDEFUL)
 905:Generated_Source\PSoC6\pdl\drivers/peripheral/scb/cy_scb_spi.h **** 
 906:Generated_Source\PSoC6\pdl\drivers/peripheral/scb/cy_scb_spi.h **** #define CY_SCB_SPI_IS_MODE_VALID(mode)          ( (CY_SCB_SPI_SLAVE  == (mode)) || \
 907:Generated_Source\PSoC6\pdl\drivers/peripheral/scb/cy_scb_spi.h ****                                                   (CY_SCB_SPI_MASTER == (mode)) )
 908:Generated_Source\PSoC6\pdl\drivers/peripheral/scb/cy_scb_spi.h **** 
 909:Generated_Source\PSoC6\pdl\drivers/peripheral/scb/cy_scb_spi.h **** #define CY_SCB_SPI_IS_SUB_MODE_VALID(subMode)   ( (CY_SCB_SPI_MOTOROLA     == (subMode)) || \
 910:Generated_Source\PSoC6\pdl\drivers/peripheral/scb/cy_scb_spi.h ****                                                   (CY_SCB_SPI_TI_COINCIDES == (subMode)) || \
 911:Generated_Source\PSoC6\pdl\drivers/peripheral/scb/cy_scb_spi.h ****                                                   (CY_SCB_SPI_TI_PRECEDES  == (subMode)) || \
 912:Generated_Source\PSoC6\pdl\drivers/peripheral/scb/cy_scb_spi.h ****                                                   (CY_SCB_SPI_NATIONAL     == (subMode)) )
 913:Generated_Source\PSoC6\pdl\drivers/peripheral/scb/cy_scb_spi.h **** 
 914:Generated_Source\PSoC6\pdl\drivers/peripheral/scb/cy_scb_spi.h **** #define CY_SCB_SPI_IS_SCLK_MODE_VALID(clkMode)  ( (CY_SCB_SPI_CPHA0_CPOL0 == (clkMode)) || \
 915:Generated_Source\PSoC6\pdl\drivers/peripheral/scb/cy_scb_spi.h ****                                                   (CY_SCB_SPI_CPHA0_CPOL1 == (clkMode)) || \
 916:Generated_Source\PSoC6\pdl\drivers/peripheral/scb/cy_scb_spi.h ****                                                   (CY_SCB_SPI_CPHA1_CPOL0 == (clkMode)) || \
 917:Generated_Source\PSoC6\pdl\drivers/peripheral/scb/cy_scb_spi.h ****                                                   (CY_SCB_SPI_CPHA1_CPOL1 == (clkMode)) )
 918:Generated_Source\PSoC6\pdl\drivers/peripheral/scb/cy_scb_spi.h **** 
 919:Generated_Source\PSoC6\pdl\drivers/peripheral/scb/cy_scb_spi.h **** #define CY_SCB_SPI_IS_POLARITY_VALID(polarity)  ( (CY_SCB_SPI_ACTIVE_LOW  == (polarity)) || \
 920:Generated_Source\PSoC6\pdl\drivers/peripheral/scb/cy_scb_spi.h ****                                                   (CY_SCB_SPI_ACTIVE_HIGH == (polarity)) )
 921:Generated_Source\PSoC6\pdl\drivers/peripheral/scb/cy_scb_spi.h **** 
 922:Generated_Source\PSoC6\pdl\drivers/peripheral/scb/cy_scb_spi.h **** #define CY_SCB_SPI_IS_SLAVE_SEL_VALID(ss)       ( (CY_SCB_SPI_SLAVE_SELECT0 == (ss)) || \
 923:Generated_Source\PSoC6\pdl\drivers/peripheral/scb/cy_scb_spi.h ****                                                   (CY_SCB_SPI_SLAVE_SELECT1 == (ss)) || \
 924:Generated_Source\PSoC6\pdl\drivers/peripheral/scb/cy_scb_spi.h ****                                                   (CY_SCB_SPI_SLAVE_SELECT2 == (ss)) || \
 925:Generated_Source\PSoC6\pdl\drivers/peripheral/scb/cy_scb_spi.h ****                                                   (CY_SCB_SPI_SLAVE_SELECT3 == (ss)) )
 926:Generated_Source\PSoC6\pdl\drivers/peripheral/scb/cy_scb_spi.h **** 
 927:Generated_Source\PSoC6\pdl\drivers/peripheral/scb/cy_scb_spi.h **** #define CY_SCB_SPI_IS_OVERSAMPLE_VALID(ovs, mode)   ( (CY_SCB_SPI_MASTER == (mode)) ? (((ovs) >= 2U
 928:Generated_Source\PSoC6\pdl\drivers/peripheral/scb/cy_scb_spi.h **** #define CY_SCB_SPI_IS_DATA_WIDTH_VALID(width)       ( ((width) >= 4UL) && ((width) <= 16UL) )
 929:Generated_Source\PSoC6\pdl\drivers/peripheral/scb/cy_scb_spi.h **** #define CY_SCB_SPI_IS_SS_POLARITY_VALID(polarity)   ( (0UL == ((polarity) & (~0x0FUL))) )
 930:Generated_Source\PSoC6\pdl\drivers/peripheral/scb/cy_scb_spi.h **** #define CY_SCB_SPI_IS_BUFFER_VALID(txBuffer, rxBuffer, size)  ( ((size) > 0UL)  && \
 931:Generated_Source\PSoC6\pdl\drivers/peripheral/scb/cy_scb_spi.h ****                                                                  (false == ((NULL == (txBuffer)) &&
 932:Generated_Source\PSoC6\pdl\drivers/peripheral/scb/cy_scb_spi.h **** 
 933:Generated_Source\PSoC6\pdl\drivers/peripheral/scb/cy_scb_spi.h **** #define CY_SCB_SPI_IS_BOTH_DATA_WIDTH_VALID(subMode, rxWidth, txWidth)  ( (CY_SCB_SPI_NATIONAL != (
 934:Generated_Source\PSoC6\pdl\drivers/peripheral/scb/cy_scb_spi.h ****                                                                                     ((rxWidth) == (
 935:Generated_Source\PSoC6\pdl\drivers/peripheral/scb/cy_scb_spi.h **** 
 936:Generated_Source\PSoC6\pdl\drivers/peripheral/scb/cy_scb_spi.h **** /** \endcond */
 937:Generated_Source\PSoC6\pdl\drivers/peripheral/scb/cy_scb_spi.h **** 
 938:Generated_Source\PSoC6\pdl\drivers/peripheral/scb/cy_scb_spi.h **** /** \} group_scb_spi_macros */
 939:Generated_Source\PSoC6\pdl\drivers/peripheral/scb/cy_scb_spi.h **** 
 940:Generated_Source\PSoC6\pdl\drivers/peripheral/scb/cy_scb_spi.h **** 
 941:Generated_Source\PSoC6\pdl\drivers/peripheral/scb/cy_scb_spi.h **** /*******************************************************************************
 942:Generated_Source\PSoC6\pdl\drivers/peripheral/scb/cy_scb_spi.h **** *                     In-line Function Implementation
 943:Generated_Source\PSoC6\pdl\drivers/peripheral/scb/cy_scb_spi.h **** *******************************************************************************/
 944:Generated_Source\PSoC6\pdl\drivers/peripheral/scb/cy_scb_spi.h **** 
 945:Generated_Source\PSoC6\pdl\drivers/peripheral/scb/cy_scb_spi.h **** /**
 946:Generated_Source\PSoC6\pdl\drivers/peripheral/scb/cy_scb_spi.h **** * \addtogroup group_scb_spi_general_functions
 947:Generated_Source\PSoC6\pdl\drivers/peripheral/scb/cy_scb_spi.h **** * \{
 948:Generated_Source\PSoC6\pdl\drivers/peripheral/scb/cy_scb_spi.h **** */
ARM GAS  C:\Users\Smaug\AppData\Local\Temp\ccJKcizn.s 			page 21


 949:Generated_Source\PSoC6\pdl\drivers/peripheral/scb/cy_scb_spi.h **** 
 950:Generated_Source\PSoC6\pdl\drivers/peripheral/scb/cy_scb_spi.h **** /*******************************************************************************
 951:Generated_Source\PSoC6\pdl\drivers/peripheral/scb/cy_scb_spi.h **** * Function Name: Cy_SCB_SPI_Enable
 952:Generated_Source\PSoC6\pdl\drivers/peripheral/scb/cy_scb_spi.h **** ****************************************************************************//**
 953:Generated_Source\PSoC6\pdl\drivers/peripheral/scb/cy_scb_spi.h **** *
 954:Generated_Source\PSoC6\pdl\drivers/peripheral/scb/cy_scb_spi.h **** * Enables the SCB block for the SPI operation.
 955:Generated_Source\PSoC6\pdl\drivers/peripheral/scb/cy_scb_spi.h **** *
 956:Generated_Source\PSoC6\pdl\drivers/peripheral/scb/cy_scb_spi.h **** * \param base
 957:Generated_Source\PSoC6\pdl\drivers/peripheral/scb/cy_scb_spi.h **** * The pointer to the SPI SCB instance.
 958:Generated_Source\PSoC6\pdl\drivers/peripheral/scb/cy_scb_spi.h **** *
 959:Generated_Source\PSoC6\pdl\drivers/peripheral/scb/cy_scb_spi.h **** *******************************************************************************/
 960:Generated_Source\PSoC6\pdl\drivers/peripheral/scb/cy_scb_spi.h **** __STATIC_INLINE void Cy_SCB_SPI_Enable(CySCB_Type *base)
 961:Generated_Source\PSoC6\pdl\drivers/peripheral/scb/cy_scb_spi.h **** {
 962:Generated_Source\PSoC6\pdl\drivers/peripheral/scb/cy_scb_spi.h ****     SCB_CTRL(base) |= SCB_CTRL_ENABLED_Msk;
 963:Generated_Source\PSoC6\pdl\drivers/peripheral/scb/cy_scb_spi.h **** }
 964:Generated_Source\PSoC6\pdl\drivers/peripheral/scb/cy_scb_spi.h **** 
 965:Generated_Source\PSoC6\pdl\drivers/peripheral/scb/cy_scb_spi.h **** 
 966:Generated_Source\PSoC6\pdl\drivers/peripheral/scb/cy_scb_spi.h **** /*******************************************************************************
 967:Generated_Source\PSoC6\pdl\drivers/peripheral/scb/cy_scb_spi.h **** * Function Name: Cy_SCB_SPI_IsBusBusy
 968:Generated_Source\PSoC6\pdl\drivers/peripheral/scb/cy_scb_spi.h **** ****************************************************************************//**
 969:Generated_Source\PSoC6\pdl\drivers/peripheral/scb/cy_scb_spi.h **** *
 970:Generated_Source\PSoC6\pdl\drivers/peripheral/scb/cy_scb_spi.h **** * Returns whether the SPI bus is busy or not. The bus busy is determined using
 971:Generated_Source\PSoC6\pdl\drivers/peripheral/scb/cy_scb_spi.h **** * the slave select signal.
 972:Generated_Source\PSoC6\pdl\drivers/peripheral/scb/cy_scb_spi.h **** * * Motorola and National Semiconductor sub-modes: the bus is busy after the
 973:Generated_Source\PSoC6\pdl\drivers/peripheral/scb/cy_scb_spi.h **** *   slave select line is activated and lasts until the slave select line is
 974:Generated_Source\PSoC6\pdl\drivers/peripheral/scb/cy_scb_spi.h **** *   deactivated.
 975:Generated_Source\PSoC6\pdl\drivers/peripheral/scb/cy_scb_spi.h **** * * Texas Instrument sub-modes: The bus is busy the moment of the initial
 976:Generated_Source\PSoC6\pdl\drivers/peripheral/scb/cy_scb_spi.h **** *   pulse on the slave select line and lasts until the transfer is complete
 977:Generated_Source\PSoC6\pdl\drivers/peripheral/scb/cy_scb_spi.h **** *   (all bytes from the TX FIFO area shifted-out on the bus).
 978:Generated_Source\PSoC6\pdl\drivers/peripheral/scb/cy_scb_spi.h **** *
 979:Generated_Source\PSoC6\pdl\drivers/peripheral/scb/cy_scb_spi.h **** * \param base
 980:Generated_Source\PSoC6\pdl\drivers/peripheral/scb/cy_scb_spi.h **** * The pointer to the SPI SCB instance.
 981:Generated_Source\PSoC6\pdl\drivers/peripheral/scb/cy_scb_spi.h **** *
 982:Generated_Source\PSoC6\pdl\drivers/peripheral/scb/cy_scb_spi.h **** * \return
 983:Generated_Source\PSoC6\pdl\drivers/peripheral/scb/cy_scb_spi.h **** * True - the bus is busy; false - the bus is idle.
 984:Generated_Source\PSoC6\pdl\drivers/peripheral/scb/cy_scb_spi.h **** *
 985:Generated_Source\PSoC6\pdl\drivers/peripheral/scb/cy_scb_spi.h **** * \note
 986:Generated_Source\PSoC6\pdl\drivers/peripheral/scb/cy_scb_spi.h **** * * The SPI master does not assign the slave select line immediately after
 987:Generated_Source\PSoC6\pdl\drivers/peripheral/scb/cy_scb_spi.h **** *   the first data element is written into the TX FIFO. It takes up to two SCLK
 988:Generated_Source\PSoC6\pdl\drivers/peripheral/scb/cy_scb_spi.h **** *   clocks to assign the slave select line. Before this happens, the bus
 989:Generated_Source\PSoC6\pdl\drivers/peripheral/scb/cy_scb_spi.h **** *   is considered idle.
 990:Generated_Source\PSoC6\pdl\drivers/peripheral/scb/cy_scb_spi.h **** * * If the SPI master is configured to transmit each data element separated by
 991:Generated_Source\PSoC6\pdl\drivers/peripheral/scb/cy_scb_spi.h **** *   a de-assertion of the slave select line, the bus is busy during each element
 992:Generated_Source\PSoC6\pdl\drivers/peripheral/scb/cy_scb_spi.h **** *   transfer and is free between them.
 993:Generated_Source\PSoC6\pdl\drivers/peripheral/scb/cy_scb_spi.h **** *
 994:Generated_Source\PSoC6\pdl\drivers/peripheral/scb/cy_scb_spi.h **** *******************************************************************************/
 995:Generated_Source\PSoC6\pdl\drivers/peripheral/scb/cy_scb_spi.h **** __STATIC_INLINE bool Cy_SCB_SPI_IsBusBusy(CySCB_Type const *base)
 996:Generated_Source\PSoC6\pdl\drivers/peripheral/scb/cy_scb_spi.h **** {
 997:Generated_Source\PSoC6\pdl\drivers/peripheral/scb/cy_scb_spi.h ****     return _FLD2BOOL(SCB_SPI_STATUS_BUS_BUSY, SCB_SPI_STATUS(base));
 998:Generated_Source\PSoC6\pdl\drivers/peripheral/scb/cy_scb_spi.h **** }
 999:Generated_Source\PSoC6\pdl\drivers/peripheral/scb/cy_scb_spi.h **** 
1000:Generated_Source\PSoC6\pdl\drivers/peripheral/scb/cy_scb_spi.h **** 
1001:Generated_Source\PSoC6\pdl\drivers/peripheral/scb/cy_scb_spi.h **** /*******************************************************************************
1002:Generated_Source\PSoC6\pdl\drivers/peripheral/scb/cy_scb_spi.h **** * Function Name: Cy_SCB_SPI_SetActiveSlaveSelect
1003:Generated_Source\PSoC6\pdl\drivers/peripheral/scb/cy_scb_spi.h **** ****************************************************************************//**
1004:Generated_Source\PSoC6\pdl\drivers/peripheral/scb/cy_scb_spi.h **** *
1005:Generated_Source\PSoC6\pdl\drivers/peripheral/scb/cy_scb_spi.h **** * Selects an active slave select line from one of four available.
ARM GAS  C:\Users\Smaug\AppData\Local\Temp\ccJKcizn.s 			page 22


1006:Generated_Source\PSoC6\pdl\drivers/peripheral/scb/cy_scb_spi.h **** * This function is applicable for the master and slave.
1007:Generated_Source\PSoC6\pdl\drivers/peripheral/scb/cy_scb_spi.h **** *
1008:Generated_Source\PSoC6\pdl\drivers/peripheral/scb/cy_scb_spi.h **** * \param base
1009:Generated_Source\PSoC6\pdl\drivers/peripheral/scb/cy_scb_spi.h **** * The pointer to the SPI SCB instance.
1010:Generated_Source\PSoC6\pdl\drivers/peripheral/scb/cy_scb_spi.h **** *
1011:Generated_Source\PSoC6\pdl\drivers/peripheral/scb/cy_scb_spi.h **** * \param slaveSelect
1012:Generated_Source\PSoC6\pdl\drivers/peripheral/scb/cy_scb_spi.h **** * The slave select line number.
1013:Generated_Source\PSoC6\pdl\drivers/peripheral/scb/cy_scb_spi.h **** * See \ref cy_en_scb_spi_slave_select_t for the set of constants.
1014:Generated_Source\PSoC6\pdl\drivers/peripheral/scb/cy_scb_spi.h **** *
1015:Generated_Source\PSoC6\pdl\drivers/peripheral/scb/cy_scb_spi.h **** * \note
1016:Generated_Source\PSoC6\pdl\drivers/peripheral/scb/cy_scb_spi.h **** * The SCB must be idle or disabled before calling this function.
1017:Generated_Source\PSoC6\pdl\drivers/peripheral/scb/cy_scb_spi.h **** *
1018:Generated_Source\PSoC6\pdl\drivers/peripheral/scb/cy_scb_spi.h **** *******************************************************************************/
1019:Generated_Source\PSoC6\pdl\drivers/peripheral/scb/cy_scb_spi.h **** __STATIC_INLINE void Cy_SCB_SPI_SetActiveSlaveSelect(CySCB_Type *base, cy_en_scb_spi_slave_select_t
1020:Generated_Source\PSoC6\pdl\drivers/peripheral/scb/cy_scb_spi.h **** {
1021:Generated_Source\PSoC6\pdl\drivers/peripheral/scb/cy_scb_spi.h ****     CY_ASSERT_L3(CY_SCB_SPI_IS_SLAVE_SEL_VALID(slaveSelect));
1022:Generated_Source\PSoC6\pdl\drivers/peripheral/scb/cy_scb_spi.h **** 
1023:Generated_Source\PSoC6\pdl\drivers/peripheral/scb/cy_scb_spi.h ****     CY_REG32_CLR_SET(SCB_SPI_CTRL(base), SCB_SPI_CTRL_SSEL, (uint32_t) slaveSelect);
1024:Generated_Source\PSoC6\pdl\drivers/peripheral/scb/cy_scb_spi.h **** }
1025:Generated_Source\PSoC6\pdl\drivers/peripheral/scb/cy_scb_spi.h **** 
1026:Generated_Source\PSoC6\pdl\drivers/peripheral/scb/cy_scb_spi.h **** 
1027:Generated_Source\PSoC6\pdl\drivers/peripheral/scb/cy_scb_spi.h **** /*******************************************************************************
1028:Generated_Source\PSoC6\pdl\drivers/peripheral/scb/cy_scb_spi.h **** * Function Name: Cy_SCB_SPI_SetActiveSlaveSelectPolarity
1029:Generated_Source\PSoC6\pdl\drivers/peripheral/scb/cy_scb_spi.h **** ****************************************************************************//**
1030:Generated_Source\PSoC6\pdl\drivers/peripheral/scb/cy_scb_spi.h **** *
1031:Generated_Source\PSoC6\pdl\drivers/peripheral/scb/cy_scb_spi.h **** * Sets the active polarity for the slave select line.
1032:Generated_Source\PSoC6\pdl\drivers/peripheral/scb/cy_scb_spi.h **** *
1033:Generated_Source\PSoC6\pdl\drivers/peripheral/scb/cy_scb_spi.h **** * \param base
1034:Generated_Source\PSoC6\pdl\drivers/peripheral/scb/cy_scb_spi.h **** * The pointer to the SPI SCB instance.
1035:Generated_Source\PSoC6\pdl\drivers/peripheral/scb/cy_scb_spi.h **** *
1036:Generated_Source\PSoC6\pdl\drivers/peripheral/scb/cy_scb_spi.h **** * \param slaveSelect
1037:Generated_Source\PSoC6\pdl\drivers/peripheral/scb/cy_scb_spi.h **** * The slave select line number.
1038:Generated_Source\PSoC6\pdl\drivers/peripheral/scb/cy_scb_spi.h **** * See \ref cy_en_scb_spi_slave_select_t for the set of constants.
1039:Generated_Source\PSoC6\pdl\drivers/peripheral/scb/cy_scb_spi.h **** *
1040:Generated_Source\PSoC6\pdl\drivers/peripheral/scb/cy_scb_spi.h **** * \param polarity
1041:Generated_Source\PSoC6\pdl\drivers/peripheral/scb/cy_scb_spi.h **** * The polarity of the slave select line.
1042:Generated_Source\PSoC6\pdl\drivers/peripheral/scb/cy_scb_spi.h **** * See \ref cy_en_scb_spi_polarity_t for the set of constants.
1043:Generated_Source\PSoC6\pdl\drivers/peripheral/scb/cy_scb_spi.h **** *
1044:Generated_Source\PSoC6\pdl\drivers/peripheral/scb/cy_scb_spi.h **** * \note
1045:Generated_Source\PSoC6\pdl\drivers/peripheral/scb/cy_scb_spi.h **** * The SCB must be idle or disabled before calling this function.
1046:Generated_Source\PSoC6\pdl\drivers/peripheral/scb/cy_scb_spi.h **** *
1047:Generated_Source\PSoC6\pdl\drivers/peripheral/scb/cy_scb_spi.h **** *******************************************************************************/
1048:Generated_Source\PSoC6\pdl\drivers/peripheral/scb/cy_scb_spi.h **** __STATIC_INLINE void Cy_SCB_SPI_SetActiveSlaveSelectPolarity(CySCB_Type *base,
1049:Generated_Source\PSoC6\pdl\drivers/peripheral/scb/cy_scb_spi.h ****                                 cy_en_scb_spi_slave_select_t slaveSelect,
1050:Generated_Source\PSoC6\pdl\drivers/peripheral/scb/cy_scb_spi.h ****                                 cy_en_scb_spi_polarity_t polarity)
1051:Generated_Source\PSoC6\pdl\drivers/peripheral/scb/cy_scb_spi.h **** {
1052:Generated_Source\PSoC6\pdl\drivers/peripheral/scb/cy_scb_spi.h ****     uint32_t mask = _VAL2FLD(CY_SCB_SPI_CTRL_SSEL_POLARITY, (0x01UL << slaveSelect));
1053:Generated_Source\PSoC6\pdl\drivers/peripheral/scb/cy_scb_spi.h **** 
1054:Generated_Source\PSoC6\pdl\drivers/peripheral/scb/cy_scb_spi.h ****     CY_ASSERT_L3(CY_SCB_SPI_IS_SLAVE_SEL_VALID(slaveSelect));
1055:Generated_Source\PSoC6\pdl\drivers/peripheral/scb/cy_scb_spi.h ****     CY_ASSERT_L3(CY_SCB_SPI_IS_POLARITY_VALID (polarity));
1056:Generated_Source\PSoC6\pdl\drivers/peripheral/scb/cy_scb_spi.h **** 
1057:Generated_Source\PSoC6\pdl\drivers/peripheral/scb/cy_scb_spi.h ****     if (CY_SCB_SPI_ACTIVE_HIGH != polarity)
1058:Generated_Source\PSoC6\pdl\drivers/peripheral/scb/cy_scb_spi.h ****     {
1059:Generated_Source\PSoC6\pdl\drivers/peripheral/scb/cy_scb_spi.h ****         SCB_SPI_CTRL(base) |= (uint32_t)  mask;
1060:Generated_Source\PSoC6\pdl\drivers/peripheral/scb/cy_scb_spi.h ****     }
1061:Generated_Source\PSoC6\pdl\drivers/peripheral/scb/cy_scb_spi.h ****     else
1062:Generated_Source\PSoC6\pdl\drivers/peripheral/scb/cy_scb_spi.h ****     {
ARM GAS  C:\Users\Smaug\AppData\Local\Temp\ccJKcizn.s 			page 23


1063:Generated_Source\PSoC6\pdl\drivers/peripheral/scb/cy_scb_spi.h ****         SCB_SPI_CTRL(base) &= (uint32_t) ~mask;
1064:Generated_Source\PSoC6\pdl\drivers/peripheral/scb/cy_scb_spi.h ****     }
1065:Generated_Source\PSoC6\pdl\drivers/peripheral/scb/cy_scb_spi.h **** }
1066:Generated_Source\PSoC6\pdl\drivers/peripheral/scb/cy_scb_spi.h **** /** \} group_scb_spi_general_functions */
1067:Generated_Source\PSoC6\pdl\drivers/peripheral/scb/cy_scb_spi.h **** 
1068:Generated_Source\PSoC6\pdl\drivers/peripheral/scb/cy_scb_spi.h **** 
1069:Generated_Source\PSoC6\pdl\drivers/peripheral/scb/cy_scb_spi.h **** /**
1070:Generated_Source\PSoC6\pdl\drivers/peripheral/scb/cy_scb_spi.h **** * \addtogroup group_scb_spi_low_level_functions
1071:Generated_Source\PSoC6\pdl\drivers/peripheral/scb/cy_scb_spi.h **** * \{
1072:Generated_Source\PSoC6\pdl\drivers/peripheral/scb/cy_scb_spi.h **** */
1073:Generated_Source\PSoC6\pdl\drivers/peripheral/scb/cy_scb_spi.h **** /*******************************************************************************
1074:Generated_Source\PSoC6\pdl\drivers/peripheral/scb/cy_scb_spi.h **** * Function Name: Cy_SCB_SPI_GetRxFifoStatus
1075:Generated_Source\PSoC6\pdl\drivers/peripheral/scb/cy_scb_spi.h **** ****************************************************************************//**
1076:Generated_Source\PSoC6\pdl\drivers/peripheral/scb/cy_scb_spi.h **** *
1077:Generated_Source\PSoC6\pdl\drivers/peripheral/scb/cy_scb_spi.h **** * Returns the current status of the RX FIFO.
1078:Generated_Source\PSoC6\pdl\drivers/peripheral/scb/cy_scb_spi.h **** *
1079:Generated_Source\PSoC6\pdl\drivers/peripheral/scb/cy_scb_spi.h **** * \param base
1080:Generated_Source\PSoC6\pdl\drivers/peripheral/scb/cy_scb_spi.h **** * The pointer to the SPI SCB instance.
1081:Generated_Source\PSoC6\pdl\drivers/peripheral/scb/cy_scb_spi.h **** *
1082:Generated_Source\PSoC6\pdl\drivers/peripheral/scb/cy_scb_spi.h **** * \return
1083:Generated_Source\PSoC6\pdl\drivers/peripheral/scb/cy_scb_spi.h **** * \ref group_scb_spi_macros_rx_fifo_status
1084:Generated_Source\PSoC6\pdl\drivers/peripheral/scb/cy_scb_spi.h **** *
1085:Generated_Source\PSoC6\pdl\drivers/peripheral/scb/cy_scb_spi.h **** *******************************************************************************/
1086:Generated_Source\PSoC6\pdl\drivers/peripheral/scb/cy_scb_spi.h **** __STATIC_INLINE uint32_t Cy_SCB_SPI_GetRxFifoStatus(CySCB_Type const *base)
1087:Generated_Source\PSoC6\pdl\drivers/peripheral/scb/cy_scb_spi.h **** {
1088:Generated_Source\PSoC6\pdl\drivers/peripheral/scb/cy_scb_spi.h ****     return (Cy_SCB_GetRxInterruptStatus(base) & CY_SCB_SPI_RX_INTR_MASK);
1089:Generated_Source\PSoC6\pdl\drivers/peripheral/scb/cy_scb_spi.h **** }
1090:Generated_Source\PSoC6\pdl\drivers/peripheral/scb/cy_scb_spi.h **** 
1091:Generated_Source\PSoC6\pdl\drivers/peripheral/scb/cy_scb_spi.h **** 
1092:Generated_Source\PSoC6\pdl\drivers/peripheral/scb/cy_scb_spi.h **** /*******************************************************************************
1093:Generated_Source\PSoC6\pdl\drivers/peripheral/scb/cy_scb_spi.h **** * Function Name: Cy_SCB_SPI_ClearRxFifoStatus
1094:Generated_Source\PSoC6\pdl\drivers/peripheral/scb/cy_scb_spi.h **** ****************************************************************************//**
1095:Generated_Source\PSoC6\pdl\drivers/peripheral/scb/cy_scb_spi.h **** *
1096:Generated_Source\PSoC6\pdl\drivers/peripheral/scb/cy_scb_spi.h **** * Clears the selected statuses of the RX FIFO.
1097:Generated_Source\PSoC6\pdl\drivers/peripheral/scb/cy_scb_spi.h **** *
1098:Generated_Source\PSoC6\pdl\drivers/peripheral/scb/cy_scb_spi.h **** * \param base
1099:Generated_Source\PSoC6\pdl\drivers/peripheral/scb/cy_scb_spi.h **** * The pointer to the SPI SCB instance.
1100:Generated_Source\PSoC6\pdl\drivers/peripheral/scb/cy_scb_spi.h **** *
1101:Generated_Source\PSoC6\pdl\drivers/peripheral/scb/cy_scb_spi.h **** * \param clearMask
1102:Generated_Source\PSoC6\pdl\drivers/peripheral/scb/cy_scb_spi.h **** * The mask of which statuses to clear.
1103:Generated_Source\PSoC6\pdl\drivers/peripheral/scb/cy_scb_spi.h **** * See \ref group_scb_spi_macros_rx_fifo_status for the set of constants.
1104:Generated_Source\PSoC6\pdl\drivers/peripheral/scb/cy_scb_spi.h **** *
1105:Generated_Source\PSoC6\pdl\drivers/peripheral/scb/cy_scb_spi.h **** * \note
1106:Generated_Source\PSoC6\pdl\drivers/peripheral/scb/cy_scb_spi.h **** * * This status is also used for interrupt generation, so clearing it also
1107:Generated_Source\PSoC6\pdl\drivers/peripheral/scb/cy_scb_spi.h **** *   clears the interrupt sources.
1108:Generated_Source\PSoC6\pdl\drivers/peripheral/scb/cy_scb_spi.h **** * * Level sensitive statuses such as \ref CY_SCB_SPI_RX_TRIGGER,
1109:Generated_Source\PSoC6\pdl\drivers/peripheral/scb/cy_scb_spi.h **** *   \ref CY_SCB_SPI_RX_NOT_EMPTY and \ref CY_SCB_SPI_RX_FULL set high again after
1110:Generated_Source\PSoC6\pdl\drivers/peripheral/scb/cy_scb_spi.h **** *   being cleared if the condition remains true.
1111:Generated_Source\PSoC6\pdl\drivers/peripheral/scb/cy_scb_spi.h **** *
1112:Generated_Source\PSoC6\pdl\drivers/peripheral/scb/cy_scb_spi.h **** *******************************************************************************/
1113:Generated_Source\PSoC6\pdl\drivers/peripheral/scb/cy_scb_spi.h **** __STATIC_INLINE void Cy_SCB_SPI_ClearRxFifoStatus(CySCB_Type *base, uint32_t clearMask)
1114:Generated_Source\PSoC6\pdl\drivers/peripheral/scb/cy_scb_spi.h **** {
1115:Generated_Source\PSoC6\pdl\drivers/peripheral/scb/cy_scb_spi.h ****     CY_ASSERT_L2(CY_SCB_IS_INTR_VALID(clearMask, CY_SCB_SPI_RX_INTR_MASK));
1116:Generated_Source\PSoC6\pdl\drivers/peripheral/scb/cy_scb_spi.h **** 
1117:Generated_Source\PSoC6\pdl\drivers/peripheral/scb/cy_scb_spi.h ****     Cy_SCB_ClearRxInterrupt(base, clearMask);
1118:Generated_Source\PSoC6\pdl\drivers/peripheral/scb/cy_scb_spi.h **** }
1119:Generated_Source\PSoC6\pdl\drivers/peripheral/scb/cy_scb_spi.h **** 
ARM GAS  C:\Users\Smaug\AppData\Local\Temp\ccJKcizn.s 			page 24


1120:Generated_Source\PSoC6\pdl\drivers/peripheral/scb/cy_scb_spi.h **** 
1121:Generated_Source\PSoC6\pdl\drivers/peripheral/scb/cy_scb_spi.h **** /*******************************************************************************
1122:Generated_Source\PSoC6\pdl\drivers/peripheral/scb/cy_scb_spi.h **** * Function Name: Cy_SCB_SPI_GetNumInRxFifo
1123:Generated_Source\PSoC6\pdl\drivers/peripheral/scb/cy_scb_spi.h **** ****************************************************************************//**
1124:Generated_Source\PSoC6\pdl\drivers/peripheral/scb/cy_scb_spi.h **** *
1125:Generated_Source\PSoC6\pdl\drivers/peripheral/scb/cy_scb_spi.h **** * Returns the number of data elements in the SPI RX FIFO.
1126:Generated_Source\PSoC6\pdl\drivers/peripheral/scb/cy_scb_spi.h **** *
1127:Generated_Source\PSoC6\pdl\drivers/peripheral/scb/cy_scb_spi.h **** * \param base
1128:Generated_Source\PSoC6\pdl\drivers/peripheral/scb/cy_scb_spi.h **** * The pointer to the SPI SCB instance.
1129:Generated_Source\PSoC6\pdl\drivers/peripheral/scb/cy_scb_spi.h **** *
1130:Generated_Source\PSoC6\pdl\drivers/peripheral/scb/cy_scb_spi.h **** * \return
1131:Generated_Source\PSoC6\pdl\drivers/peripheral/scb/cy_scb_spi.h **** * The number of data elements in the RX FIFO.
1132:Generated_Source\PSoC6\pdl\drivers/peripheral/scb/cy_scb_spi.h **** * The size of a data element defined by the configured RX data width.
1133:Generated_Source\PSoC6\pdl\drivers/peripheral/scb/cy_scb_spi.h **** *
1134:Generated_Source\PSoC6\pdl\drivers/peripheral/scb/cy_scb_spi.h **** * \note
1135:Generated_Source\PSoC6\pdl\drivers/peripheral/scb/cy_scb_spi.h **** * This number does not include any data currently in the RX shifter.
1136:Generated_Source\PSoC6\pdl\drivers/peripheral/scb/cy_scb_spi.h **** *
1137:Generated_Source\PSoC6\pdl\drivers/peripheral/scb/cy_scb_spi.h **** *******************************************************************************/
1138:Generated_Source\PSoC6\pdl\drivers/peripheral/scb/cy_scb_spi.h **** __STATIC_INLINE uint32_t Cy_SCB_SPI_GetNumInRxFifo(CySCB_Type const *base)
1139:Generated_Source\PSoC6\pdl\drivers/peripheral/scb/cy_scb_spi.h **** {
1140:Generated_Source\PSoC6\pdl\drivers/peripheral/scb/cy_scb_spi.h ****     return Cy_SCB_GetNumInRxFifo(base);
1141:Generated_Source\PSoC6\pdl\drivers/peripheral/scb/cy_scb_spi.h **** }
1142:Generated_Source\PSoC6\pdl\drivers/peripheral/scb/cy_scb_spi.h **** 
1143:Generated_Source\PSoC6\pdl\drivers/peripheral/scb/cy_scb_spi.h **** 
1144:Generated_Source\PSoC6\pdl\drivers/peripheral/scb/cy_scb_spi.h **** /*******************************************************************************
1145:Generated_Source\PSoC6\pdl\drivers/peripheral/scb/cy_scb_spi.h **** * Function Name: Cy_SCB_SPI_ClearRxFifo
1146:Generated_Source\PSoC6\pdl\drivers/peripheral/scb/cy_scb_spi.h **** ****************************************************************************//**
1147:Generated_Source\PSoC6\pdl\drivers/peripheral/scb/cy_scb_spi.h **** *
1148:Generated_Source\PSoC6\pdl\drivers/peripheral/scb/cy_scb_spi.h **** * Clears all data out of the SPI RX FIFO.
1149:Generated_Source\PSoC6\pdl\drivers/peripheral/scb/cy_scb_spi.h **** *
1150:Generated_Source\PSoC6\pdl\drivers/peripheral/scb/cy_scb_spi.h **** * \param base
1151:Generated_Source\PSoC6\pdl\drivers/peripheral/scb/cy_scb_spi.h **** * The pointer to the SPI SCB instance.
1152:Generated_Source\PSoC6\pdl\drivers/peripheral/scb/cy_scb_spi.h **** *
1153:Generated_Source\PSoC6\pdl\drivers/peripheral/scb/cy_scb_spi.h **** * \sideeffect
1154:Generated_Source\PSoC6\pdl\drivers/peripheral/scb/cy_scb_spi.h **** * Any data currently in the shifter is cleared and lost.
1155:Generated_Source\PSoC6\pdl\drivers/peripheral/scb/cy_scb_spi.h **** *
1156:Generated_Source\PSoC6\pdl\drivers/peripheral/scb/cy_scb_spi.h **** *******************************************************************************/
1157:Generated_Source\PSoC6\pdl\drivers/peripheral/scb/cy_scb_spi.h **** __STATIC_INLINE void Cy_SCB_SPI_ClearRxFifo(CySCB_Type *base)
1158:Generated_Source\PSoC6\pdl\drivers/peripheral/scb/cy_scb_spi.h **** {
1159:Generated_Source\PSoC6\pdl\drivers/peripheral/scb/cy_scb_spi.h ****     Cy_SCB_ClearRxFifo(base);
1160:Generated_Source\PSoC6\pdl\drivers/peripheral/scb/cy_scb_spi.h **** }
1161:Generated_Source\PSoC6\pdl\drivers/peripheral/scb/cy_scb_spi.h **** 
1162:Generated_Source\PSoC6\pdl\drivers/peripheral/scb/cy_scb_spi.h **** 
1163:Generated_Source\PSoC6\pdl\drivers/peripheral/scb/cy_scb_spi.h **** /*******************************************************************************
1164:Generated_Source\PSoC6\pdl\drivers/peripheral/scb/cy_scb_spi.h **** * Function Name: Cy_SCB_SPI_GetTxFifoStatus
1165:Generated_Source\PSoC6\pdl\drivers/peripheral/scb/cy_scb_spi.h **** ****************************************************************************//**
1166:Generated_Source\PSoC6\pdl\drivers/peripheral/scb/cy_scb_spi.h **** *
1167:Generated_Source\PSoC6\pdl\drivers/peripheral/scb/cy_scb_spi.h **** * Returns the current status of the TX FIFO.
1168:Generated_Source\PSoC6\pdl\drivers/peripheral/scb/cy_scb_spi.h **** *
1169:Generated_Source\PSoC6\pdl\drivers/peripheral/scb/cy_scb_spi.h **** * \param base
1170:Generated_Source\PSoC6\pdl\drivers/peripheral/scb/cy_scb_spi.h **** * The pointer to the SPI SCB instance.
1171:Generated_Source\PSoC6\pdl\drivers/peripheral/scb/cy_scb_spi.h **** *
1172:Generated_Source\PSoC6\pdl\drivers/peripheral/scb/cy_scb_spi.h **** * \return
1173:Generated_Source\PSoC6\pdl\drivers/peripheral/scb/cy_scb_spi.h **** * \ref group_scb_spi_macros_tx_fifo_status
1174:Generated_Source\PSoC6\pdl\drivers/peripheral/scb/cy_scb_spi.h **** *
1175:Generated_Source\PSoC6\pdl\drivers/peripheral/scb/cy_scb_spi.h **** *******************************************************************************/
1176:Generated_Source\PSoC6\pdl\drivers/peripheral/scb/cy_scb_spi.h **** __STATIC_INLINE uint32_t Cy_SCB_SPI_GetTxFifoStatus(CySCB_Type const *base)
ARM GAS  C:\Users\Smaug\AppData\Local\Temp\ccJKcizn.s 			page 25


1177:Generated_Source\PSoC6\pdl\drivers/peripheral/scb/cy_scb_spi.h **** {
1178:Generated_Source\PSoC6\pdl\drivers/peripheral/scb/cy_scb_spi.h ****     return (Cy_SCB_GetTxInterruptStatus(base) & CY_SCB_SPI_TX_INTR_MASK);
1179:Generated_Source\PSoC6\pdl\drivers/peripheral/scb/cy_scb_spi.h **** }
1180:Generated_Source\PSoC6\pdl\drivers/peripheral/scb/cy_scb_spi.h **** 
1181:Generated_Source\PSoC6\pdl\drivers/peripheral/scb/cy_scb_spi.h **** 
1182:Generated_Source\PSoC6\pdl\drivers/peripheral/scb/cy_scb_spi.h **** /*******************************************************************************
1183:Generated_Source\PSoC6\pdl\drivers/peripheral/scb/cy_scb_spi.h **** * Function Name: Cy_SCB_SPI_ClearTxFifoStatus
1184:Generated_Source\PSoC6\pdl\drivers/peripheral/scb/cy_scb_spi.h **** ****************************************************************************//**
1185:Generated_Source\PSoC6\pdl\drivers/peripheral/scb/cy_scb_spi.h **** *
1186:Generated_Source\PSoC6\pdl\drivers/peripheral/scb/cy_scb_spi.h **** * Clears the selected statuses of the TX FIFO.
1187:Generated_Source\PSoC6\pdl\drivers/peripheral/scb/cy_scb_spi.h **** *
1188:Generated_Source\PSoC6\pdl\drivers/peripheral/scb/cy_scb_spi.h **** * \param base
1189:Generated_Source\PSoC6\pdl\drivers/peripheral/scb/cy_scb_spi.h **** * The pointer to the SPI SCB instance.
1190:Generated_Source\PSoC6\pdl\drivers/peripheral/scb/cy_scb_spi.h **** *
1191:Generated_Source\PSoC6\pdl\drivers/peripheral/scb/cy_scb_spi.h **** * \param clearMask
1192:Generated_Source\PSoC6\pdl\drivers/peripheral/scb/cy_scb_spi.h **** * The mask of which statuses to clear.
1193:Generated_Source\PSoC6\pdl\drivers/peripheral/scb/cy_scb_spi.h **** * See \ref group_scb_spi_macros_tx_fifo_status for the set of constants.
1194:Generated_Source\PSoC6\pdl\drivers/peripheral/scb/cy_scb_spi.h **** *
1195:Generated_Source\PSoC6\pdl\drivers/peripheral/scb/cy_scb_spi.h **** * \note
1196:Generated_Source\PSoC6\pdl\drivers/peripheral/scb/cy_scb_spi.h **** * * The status is also used for interrupt generation, so clearing it also
1197:Generated_Source\PSoC6\pdl\drivers/peripheral/scb/cy_scb_spi.h **** *   clears the interrupt sources.
1198:Generated_Source\PSoC6\pdl\drivers/peripheral/scb/cy_scb_spi.h **** * * Level sensitive statuses such as \ref CY_SCB_SPI_TX_TRIGGER,
1199:Generated_Source\PSoC6\pdl\drivers/peripheral/scb/cy_scb_spi.h **** *   \ref CY_SCB_SPI_TX_EMPTY and \ref CY_SCB_SPI_TX_NOT_FULL set high again after
1200:Generated_Source\PSoC6\pdl\drivers/peripheral/scb/cy_scb_spi.h **** *   being cleared if the condition remains true.
1201:Generated_Source\PSoC6\pdl\drivers/peripheral/scb/cy_scb_spi.h **** *
1202:Generated_Source\PSoC6\pdl\drivers/peripheral/scb/cy_scb_spi.h **** *******************************************************************************/
1203:Generated_Source\PSoC6\pdl\drivers/peripheral/scb/cy_scb_spi.h **** __STATIC_INLINE void Cy_SCB_SPI_ClearTxFifoStatus(CySCB_Type *base, uint32_t clearMask)
1204:Generated_Source\PSoC6\pdl\drivers/peripheral/scb/cy_scb_spi.h **** {
1205:Generated_Source\PSoC6\pdl\drivers/peripheral/scb/cy_scb_spi.h ****     CY_ASSERT_L2(CY_SCB_IS_INTR_VALID(clearMask, CY_SCB_SPI_TX_INTR_MASK));
1206:Generated_Source\PSoC6\pdl\drivers/peripheral/scb/cy_scb_spi.h **** 
1207:Generated_Source\PSoC6\pdl\drivers/peripheral/scb/cy_scb_spi.h ****     Cy_SCB_ClearTxInterrupt(base, clearMask);
1208:Generated_Source\PSoC6\pdl\drivers/peripheral/scb/cy_scb_spi.h **** }
1209:Generated_Source\PSoC6\pdl\drivers/peripheral/scb/cy_scb_spi.h **** 
1210:Generated_Source\PSoC6\pdl\drivers/peripheral/scb/cy_scb_spi.h **** 
1211:Generated_Source\PSoC6\pdl\drivers/peripheral/scb/cy_scb_spi.h **** /*******************************************************************************
1212:Generated_Source\PSoC6\pdl\drivers/peripheral/scb/cy_scb_spi.h **** * Function Name: Cy_SCB_SPI_GetNumInTxFifo
1213:Generated_Source\PSoC6\pdl\drivers/peripheral/scb/cy_scb_spi.h **** ****************************************************************************//**
1214:Generated_Source\PSoC6\pdl\drivers/peripheral/scb/cy_scb_spi.h **** *
1215:Generated_Source\PSoC6\pdl\drivers/peripheral/scb/cy_scb_spi.h **** * Returns the number of data elements in the SPI TX FIFO.
1216:Generated_Source\PSoC6\pdl\drivers/peripheral/scb/cy_scb_spi.h **** *
1217:Generated_Source\PSoC6\pdl\drivers/peripheral/scb/cy_scb_spi.h **** * \param base
1218:Generated_Source\PSoC6\pdl\drivers/peripheral/scb/cy_scb_spi.h **** * The pointer to the SPI SCB instance.
1219:Generated_Source\PSoC6\pdl\drivers/peripheral/scb/cy_scb_spi.h **** *
1220:Generated_Source\PSoC6\pdl\drivers/peripheral/scb/cy_scb_spi.h **** * \return
1221:Generated_Source\PSoC6\pdl\drivers/peripheral/scb/cy_scb_spi.h **** * The number of data elements in the TX FIFO.
1222:Generated_Source\PSoC6\pdl\drivers/peripheral/scb/cy_scb_spi.h **** * The size of a data element defined by the configured TX data width.
1223:Generated_Source\PSoC6\pdl\drivers/peripheral/scb/cy_scb_spi.h **** *
1224:Generated_Source\PSoC6\pdl\drivers/peripheral/scb/cy_scb_spi.h **** * \note
1225:Generated_Source\PSoC6\pdl\drivers/peripheral/scb/cy_scb_spi.h **** * This number does not include any data currently in the TX shifter.
1226:Generated_Source\PSoC6\pdl\drivers/peripheral/scb/cy_scb_spi.h **** *
1227:Generated_Source\PSoC6\pdl\drivers/peripheral/scb/cy_scb_spi.h **** *******************************************************************************/
1228:Generated_Source\PSoC6\pdl\drivers/peripheral/scb/cy_scb_spi.h **** __STATIC_INLINE uint32_t Cy_SCB_SPI_GetNumInTxFifo(CySCB_Type const *base)
1229:Generated_Source\PSoC6\pdl\drivers/peripheral/scb/cy_scb_spi.h **** {
1230:Generated_Source\PSoC6\pdl\drivers/peripheral/scb/cy_scb_spi.h ****     return Cy_SCB_GetNumInTxFifo(base);
1231:Generated_Source\PSoC6\pdl\drivers/peripheral/scb/cy_scb_spi.h **** }
1232:Generated_Source\PSoC6\pdl\drivers/peripheral/scb/cy_scb_spi.h **** 
1233:Generated_Source\PSoC6\pdl\drivers/peripheral/scb/cy_scb_spi.h **** 
ARM GAS  C:\Users\Smaug\AppData\Local\Temp\ccJKcizn.s 			page 26


1234:Generated_Source\PSoC6\pdl\drivers/peripheral/scb/cy_scb_spi.h **** /*******************************************************************************
1235:Generated_Source\PSoC6\pdl\drivers/peripheral/scb/cy_scb_spi.h **** * Function Name: Cy_SCB_SPI_IsTxComplete
1236:Generated_Source\PSoC6\pdl\drivers/peripheral/scb/cy_scb_spi.h **** ****************************************************************************//**
1237:Generated_Source\PSoC6\pdl\drivers/peripheral/scb/cy_scb_spi.h **** *
1238:Generated_Source\PSoC6\pdl\drivers/peripheral/scb/cy_scb_spi.h **** * Checks whether the TX FIFO and Shifter are empty and there is no more data to send
1239:Generated_Source\PSoC6\pdl\drivers/peripheral/scb/cy_scb_spi.h **** *
1240:Generated_Source\PSoC6\pdl\drivers/peripheral/scb/cy_scb_spi.h **** * \param base
1241:Generated_Source\PSoC6\pdl\drivers/peripheral/scb/cy_scb_spi.h **** * Pointer to the SPI SCB instance.
1242:Generated_Source\PSoC6\pdl\drivers/peripheral/scb/cy_scb_spi.h **** *
1243:Generated_Source\PSoC6\pdl\drivers/peripheral/scb/cy_scb_spi.h **** * \return
1244:Generated_Source\PSoC6\pdl\drivers/peripheral/scb/cy_scb_spi.h **** * If true, transmission complete. If false, transmission is not complete.
1245:Generated_Source\PSoC6\pdl\drivers/peripheral/scb/cy_scb_spi.h **** *
1246:Generated_Source\PSoC6\pdl\drivers/peripheral/scb/cy_scb_spi.h **** *******************************************************************************/
1247:Generated_Source\PSoC6\pdl\drivers/peripheral/scb/cy_scb_spi.h **** __STATIC_INLINE bool Cy_SCB_SPI_IsTxComplete(CySCB_Type const *base)
1248:Generated_Source\PSoC6\pdl\drivers/peripheral/scb/cy_scb_spi.h **** {
1249:Generated_Source\PSoC6\pdl\drivers/peripheral/scb/cy_scb_spi.h ****     return Cy_SCB_IsTxComplete(base);
1250:Generated_Source\PSoC6\pdl\drivers/peripheral/scb/cy_scb_spi.h **** }
1251:Generated_Source\PSoC6\pdl\drivers/peripheral/scb/cy_scb_spi.h **** 
1252:Generated_Source\PSoC6\pdl\drivers/peripheral/scb/cy_scb_spi.h **** 
1253:Generated_Source\PSoC6\pdl\drivers/peripheral/scb/cy_scb_spi.h **** /*******************************************************************************
1254:Generated_Source\PSoC6\pdl\drivers/peripheral/scb/cy_scb_spi.h **** * Function Name: Cy_SCB_SPI_ClearTxFifo
1255:Generated_Source\PSoC6\pdl\drivers/peripheral/scb/cy_scb_spi.h **** ****************************************************************************//**
1256:Generated_Source\PSoC6\pdl\drivers/peripheral/scb/cy_scb_spi.h **** *
1257:Generated_Source\PSoC6\pdl\drivers/peripheral/scb/cy_scb_spi.h **** * Clears all data out of the SPI TX FIFO.
1258:Generated_Source\PSoC6\pdl\drivers/peripheral/scb/cy_scb_spi.h **** *
1259:Generated_Source\PSoC6\pdl\drivers/peripheral/scb/cy_scb_spi.h **** * \param base
1260:Generated_Source\PSoC6\pdl\drivers/peripheral/scb/cy_scb_spi.h **** * The pointer to the SPI SCB instance.
1261:Generated_Source\PSoC6\pdl\drivers/peripheral/scb/cy_scb_spi.h **** *
1262:Generated_Source\PSoC6\pdl\drivers/peripheral/scb/cy_scb_spi.h **** * \sideeffect
1263:Generated_Source\PSoC6\pdl\drivers/peripheral/scb/cy_scb_spi.h **** * The TX FIFO clear operation also clears the shift register;
1264:Generated_Source\PSoC6\pdl\drivers/peripheral/scb/cy_scb_spi.h **** * the shifter can be cleared in the middle of a data element transfer,
1265:Generated_Source\PSoC6\pdl\drivers/peripheral/scb/cy_scb_spi.h **** * corrupting it. The data element corruption means that all bits that have
1266:Generated_Source\PSoC6\pdl\drivers/peripheral/scb/cy_scb_spi.h **** * not been transmitted are transmitted as 1s on the bus.
1267:Generated_Source\PSoC6\pdl\drivers/peripheral/scb/cy_scb_spi.h **** *
1268:Generated_Source\PSoC6\pdl\drivers/peripheral/scb/cy_scb_spi.h **** *******************************************************************************/
1269:Generated_Source\PSoC6\pdl\drivers/peripheral/scb/cy_scb_spi.h **** __STATIC_INLINE void Cy_SCB_SPI_ClearTxFifo(CySCB_Type *base)
1270:Generated_Source\PSoC6\pdl\drivers/peripheral/scb/cy_scb_spi.h **** {
1271:Generated_Source\PSoC6\pdl\drivers/peripheral/scb/cy_scb_spi.h ****     Cy_SCB_ClearTxFifo(base);
1272:Generated_Source\PSoC6\pdl\drivers/peripheral/scb/cy_scb_spi.h **** }
1273:Generated_Source\PSoC6\pdl\drivers/peripheral/scb/cy_scb_spi.h **** 
1274:Generated_Source\PSoC6\pdl\drivers/peripheral/scb/cy_scb_spi.h **** 
1275:Generated_Source\PSoC6\pdl\drivers/peripheral/scb/cy_scb_spi.h **** /*******************************************************************************
1276:Generated_Source\PSoC6\pdl\drivers/peripheral/scb/cy_scb_spi.h **** * Function Name: Cy_SCB_SPI_GetSlaveMasterStatus
1277:Generated_Source\PSoC6\pdl\drivers/peripheral/scb/cy_scb_spi.h **** ****************************************************************************//**
1278:Generated_Source\PSoC6\pdl\drivers/peripheral/scb/cy_scb_spi.h **** *
1279:Generated_Source\PSoC6\pdl\drivers/peripheral/scb/cy_scb_spi.h **** * Returns the current status of either the slave or the master, depending
1280:Generated_Source\PSoC6\pdl\drivers/peripheral/scb/cy_scb_spi.h **** * on the configured SPI mode.
1281:Generated_Source\PSoC6\pdl\drivers/peripheral/scb/cy_scb_spi.h **** *
1282:Generated_Source\PSoC6\pdl\drivers/peripheral/scb/cy_scb_spi.h **** * \param base
1283:Generated_Source\PSoC6\pdl\drivers/peripheral/scb/cy_scb_spi.h **** * The pointer to the SPI SCB instance.
1284:Generated_Source\PSoC6\pdl\drivers/peripheral/scb/cy_scb_spi.h **** *
1285:Generated_Source\PSoC6\pdl\drivers/peripheral/scb/cy_scb_spi.h **** * \return
1286:Generated_Source\PSoC6\pdl\drivers/peripheral/scb/cy_scb_spi.h **** * \ref group_scb_spi_macros_master_slave_status
1287:Generated_Source\PSoC6\pdl\drivers/peripheral/scb/cy_scb_spi.h **** *
1288:Generated_Source\PSoC6\pdl\drivers/peripheral/scb/cy_scb_spi.h **** *******************************************************************************/
1289:Generated_Source\PSoC6\pdl\drivers/peripheral/scb/cy_scb_spi.h **** __STATIC_INLINE uint32_t Cy_SCB_SPI_GetSlaveMasterStatus(CySCB_Type const *base)
1290:Generated_Source\PSoC6\pdl\drivers/peripheral/scb/cy_scb_spi.h **** {
ARM GAS  C:\Users\Smaug\AppData\Local\Temp\ccJKcizn.s 			page 27


1291:Generated_Source\PSoC6\pdl\drivers/peripheral/scb/cy_scb_spi.h ****     uint32_t retStatus;
1292:Generated_Source\PSoC6\pdl\drivers/peripheral/scb/cy_scb_spi.h **** 
1293:Generated_Source\PSoC6\pdl\drivers/peripheral/scb/cy_scb_spi.h ****     if (_FLD2BOOL(SCB_SPI_CTRL_MASTER_MODE, SCB_SPI_CTRL(base)))
1294:Generated_Source\PSoC6\pdl\drivers/peripheral/scb/cy_scb_spi.h ****     {
1295:Generated_Source\PSoC6\pdl\drivers/peripheral/scb/cy_scb_spi.h ****         retStatus = (Cy_SCB_GetMasterInterruptStatus(base) & CY_SCB_MASTER_INTR_SPI_DONE);
1296:Generated_Source\PSoC6\pdl\drivers/peripheral/scb/cy_scb_spi.h ****     }
1297:Generated_Source\PSoC6\pdl\drivers/peripheral/scb/cy_scb_spi.h ****     else
1298:Generated_Source\PSoC6\pdl\drivers/peripheral/scb/cy_scb_spi.h ****     {
1299:Generated_Source\PSoC6\pdl\drivers/peripheral/scb/cy_scb_spi.h ****         retStatus = (Cy_SCB_GetSlaveInterruptStatus(base) & CY_SCB_SLAVE_INTR_SPI_BUS_ERROR);
1300:Generated_Source\PSoC6\pdl\drivers/peripheral/scb/cy_scb_spi.h ****     }
1301:Generated_Source\PSoC6\pdl\drivers/peripheral/scb/cy_scb_spi.h **** 
1302:Generated_Source\PSoC6\pdl\drivers/peripheral/scb/cy_scb_spi.h ****     return (retStatus);
1303:Generated_Source\PSoC6\pdl\drivers/peripheral/scb/cy_scb_spi.h **** }
1304:Generated_Source\PSoC6\pdl\drivers/peripheral/scb/cy_scb_spi.h **** 
1305:Generated_Source\PSoC6\pdl\drivers/peripheral/scb/cy_scb_spi.h **** 
1306:Generated_Source\PSoC6\pdl\drivers/peripheral/scb/cy_scb_spi.h **** /*******************************************************************************
1307:Generated_Source\PSoC6\pdl\drivers/peripheral/scb/cy_scb_spi.h **** * Function Name: Cy_SCB_SPI_ClearSlaveMasterStatus
1308:Generated_Source\PSoC6\pdl\drivers/peripheral/scb/cy_scb_spi.h **** ****************************************************************************//**
1309:Generated_Source\PSoC6\pdl\drivers/peripheral/scb/cy_scb_spi.h **** *
1310:Generated_Source\PSoC6\pdl\drivers/peripheral/scb/cy_scb_spi.h **** * Clears the selected statuses of either the slave or the master.
1311:Generated_Source\PSoC6\pdl\drivers/peripheral/scb/cy_scb_spi.h **** *
1312:Generated_Source\PSoC6\pdl\drivers/peripheral/scb/cy_scb_spi.h **** * \param base
1313:Generated_Source\PSoC6\pdl\drivers/peripheral/scb/cy_scb_spi.h **** * The pointer to the SPI SCB instance.
1314:Generated_Source\PSoC6\pdl\drivers/peripheral/scb/cy_scb_spi.h **** *
1315:Generated_Source\PSoC6\pdl\drivers/peripheral/scb/cy_scb_spi.h **** * \param clearMask
1316:Generated_Source\PSoC6\pdl\drivers/peripheral/scb/cy_scb_spi.h **** * The mask of which statuses to clear.
1317:Generated_Source\PSoC6\pdl\drivers/peripheral/scb/cy_scb_spi.h **** * See \ref group_scb_spi_macros_master_slave_status for the set of constants.
1318:Generated_Source\PSoC6\pdl\drivers/peripheral/scb/cy_scb_spi.h **** *
1319:Generated_Source\PSoC6\pdl\drivers/peripheral/scb/cy_scb_spi.h **** *******************************************************************************/
1320:Generated_Source\PSoC6\pdl\drivers/peripheral/scb/cy_scb_spi.h **** __STATIC_INLINE void Cy_SCB_SPI_ClearSlaveMasterStatus(CySCB_Type *base, uint32_t clearMask)
1321:Generated_Source\PSoC6\pdl\drivers/peripheral/scb/cy_scb_spi.h **** {
1322:Generated_Source\PSoC6\pdl\drivers/peripheral/scb/cy_scb_spi.h ****     if (_FLD2BOOL(SCB_SPI_CTRL_MASTER_MODE, SCB_SPI_CTRL(base)))
1323:Generated_Source\PSoC6\pdl\drivers/peripheral/scb/cy_scb_spi.h ****     {
1324:Generated_Source\PSoC6\pdl\drivers/peripheral/scb/cy_scb_spi.h ****         CY_ASSERT_L2(CY_SCB_IS_INTR_VALID(clearMask, CY_SCB_MASTER_INTR_SPI_DONE));
1325:Generated_Source\PSoC6\pdl\drivers/peripheral/scb/cy_scb_spi.h **** 
1326:Generated_Source\PSoC6\pdl\drivers/peripheral/scb/cy_scb_spi.h ****         Cy_SCB_ClearMasterInterrupt(base, clearMask);
1327:Generated_Source\PSoC6\pdl\drivers/peripheral/scb/cy_scb_spi.h ****     }
1328:Generated_Source\PSoC6\pdl\drivers/peripheral/scb/cy_scb_spi.h ****     else
1329:Generated_Source\PSoC6\pdl\drivers/peripheral/scb/cy_scb_spi.h ****     {
1330:Generated_Source\PSoC6\pdl\drivers/peripheral/scb/cy_scb_spi.h ****         CY_ASSERT_L2(CY_SCB_IS_INTR_VALID(clearMask, CY_SCB_SLAVE_INTR_SPI_BUS_ERROR));
1331:Generated_Source\PSoC6\pdl\drivers/peripheral/scb/cy_scb_spi.h **** 
1332:Generated_Source\PSoC6\pdl\drivers/peripheral/scb/cy_scb_spi.h ****         Cy_SCB_ClearSlaveInterrupt(base, clearMask);
1333:Generated_Source\PSoC6\pdl\drivers/peripheral/scb/cy_scb_spi.h ****     }
1334:Generated_Source\PSoC6\pdl\drivers/peripheral/scb/cy_scb_spi.h **** }
1335:Generated_Source\PSoC6\pdl\drivers/peripheral/scb/cy_scb_spi.h **** 
1336:Generated_Source\PSoC6\pdl\drivers/peripheral/scb/cy_scb_spi.h **** 
1337:Generated_Source\PSoC6\pdl\drivers/peripheral/scb/cy_scb_spi.h **** /*******************************************************************************
1338:Generated_Source\PSoC6\pdl\drivers/peripheral/scb/cy_scb_spi.h **** * Function Name: Cy_SCB_SPI_Read
1339:Generated_Source\PSoC6\pdl\drivers/peripheral/scb/cy_scb_spi.h **** ****************************************************************************//**
1340:Generated_Source\PSoC6\pdl\drivers/peripheral/scb/cy_scb_spi.h **** *
1341:Generated_Source\PSoC6\pdl\drivers/peripheral/scb/cy_scb_spi.h **** * Reads a single data element from the SPI RX FIFO.
1342:Generated_Source\PSoC6\pdl\drivers/peripheral/scb/cy_scb_spi.h **** * This function does not check whether the RX FIFO has data before reading it.
1343:Generated_Source\PSoC6\pdl\drivers/peripheral/scb/cy_scb_spi.h **** * If the RX FIFO is empty, the function returns \ref CY_SCB_SPI_RX_NO_DATA.
1344:Generated_Source\PSoC6\pdl\drivers/peripheral/scb/cy_scb_spi.h **** *
1345:Generated_Source\PSoC6\pdl\drivers/peripheral/scb/cy_scb_spi.h **** * \param base
1346:Generated_Source\PSoC6\pdl\drivers/peripheral/scb/cy_scb_spi.h **** * The pointer to the SPI SCB instance.
1347:Generated_Source\PSoC6\pdl\drivers/peripheral/scb/cy_scb_spi.h **** *
ARM GAS  C:\Users\Smaug\AppData\Local\Temp\ccJKcizn.s 			page 28


1348:Generated_Source\PSoC6\pdl\drivers/peripheral/scb/cy_scb_spi.h **** * \return
1349:Generated_Source\PSoC6\pdl\drivers/peripheral/scb/cy_scb_spi.h **** * Data from the RX FIFO.
1350:Generated_Source\PSoC6\pdl\drivers/peripheral/scb/cy_scb_spi.h **** * The data element size is defined by the configured RX data width.
1351:Generated_Source\PSoC6\pdl\drivers/peripheral/scb/cy_scb_spi.h **** *
1352:Generated_Source\PSoC6\pdl\drivers/peripheral/scb/cy_scb_spi.h **** * \note
1353:Generated_Source\PSoC6\pdl\drivers/peripheral/scb/cy_scb_spi.h **** * * This function only reads data available in the RX FIFO. It does not
1354:Generated_Source\PSoC6\pdl\drivers/peripheral/scb/cy_scb_spi.h **** *   initiate an SPI transfer.
1355:Generated_Source\PSoC6\pdl\drivers/peripheral/scb/cy_scb_spi.h **** * * When in the master mode, this function writes data into the TX FIFO and
1356:Generated_Source\PSoC6\pdl\drivers/peripheral/scb/cy_scb_spi.h **** *   waits until the transfer is completed before reading data from the RX FIFO.
1357:Generated_Source\PSoC6\pdl\drivers/peripheral/scb/cy_scb_spi.h **** *
1358:Generated_Source\PSoC6\pdl\drivers/peripheral/scb/cy_scb_spi.h **** *******************************************************************************/
1359:Generated_Source\PSoC6\pdl\drivers/peripheral/scb/cy_scb_spi.h **** __STATIC_INLINE uint32_t Cy_SCB_SPI_Read(CySCB_Type const *base)
1360:Generated_Source\PSoC6\pdl\drivers/peripheral/scb/cy_scb_spi.h **** {
1361:Generated_Source\PSoC6\pdl\drivers/peripheral/scb/cy_scb_spi.h ****     return Cy_SCB_ReadRxFifo(base);
1362:Generated_Source\PSoC6\pdl\drivers/peripheral/scb/cy_scb_spi.h **** }
1363:Generated_Source\PSoC6\pdl\drivers/peripheral/scb/cy_scb_spi.h **** 
1364:Generated_Source\PSoC6\pdl\drivers/peripheral/scb/cy_scb_spi.h **** 
1365:Generated_Source\PSoC6\pdl\drivers/peripheral/scb/cy_scb_spi.h **** /*******************************************************************************
1366:Generated_Source\PSoC6\pdl\drivers/peripheral/scb/cy_scb_spi.h **** * Function Name: Cy_SCB_SPI_ReadArray
1367:Generated_Source\PSoC6\pdl\drivers/peripheral/scb/cy_scb_spi.h **** ****************************************************************************//**
1368:Generated_Source\PSoC6\pdl\drivers/peripheral/scb/cy_scb_spi.h **** *
1369:Generated_Source\PSoC6\pdl\drivers/peripheral/scb/cy_scb_spi.h **** * Reads an array of data out of the SPI RX FIFO.
1370:Generated_Source\PSoC6\pdl\drivers/peripheral/scb/cy_scb_spi.h **** * This function does not block. It returns how many data elements were read
1371:Generated_Source\PSoC6\pdl\drivers/peripheral/scb/cy_scb_spi.h **** * from the RX FIFO.
1372:Generated_Source\PSoC6\pdl\drivers/peripheral/scb/cy_scb_spi.h **** *
1373:Generated_Source\PSoC6\pdl\drivers/peripheral/scb/cy_scb_spi.h **** * \param base
1374:Generated_Source\PSoC6\pdl\drivers/peripheral/scb/cy_scb_spi.h **** * The pointer to the SPI SCB instance.
1375:Generated_Source\PSoC6\pdl\drivers/peripheral/scb/cy_scb_spi.h **** *
1376:Generated_Source\PSoC6\pdl\drivers/peripheral/scb/cy_scb_spi.h **** * \param buffer
1377:Generated_Source\PSoC6\pdl\drivers/peripheral/scb/cy_scb_spi.h **** * The pointer to the location to place data read from the RX FIFO.
1378:Generated_Source\PSoC6\pdl\drivers/peripheral/scb/cy_scb_spi.h **** * The element size is defined by the data type, which depends on the configured
1379:Generated_Source\PSoC6\pdl\drivers/peripheral/scb/cy_scb_spi.h **** * RX data width.
1380:Generated_Source\PSoC6\pdl\drivers/peripheral/scb/cy_scb_spi.h **** *
1381:Generated_Source\PSoC6\pdl\drivers/peripheral/scb/cy_scb_spi.h **** * \param size
1382:Generated_Source\PSoC6\pdl\drivers/peripheral/scb/cy_scb_spi.h **** * The number of data elements to read from the RX FIFO.
1383:Generated_Source\PSoC6\pdl\drivers/peripheral/scb/cy_scb_spi.h **** *
1384:Generated_Source\PSoC6\pdl\drivers/peripheral/scb/cy_scb_spi.h **** * \return
1385:Generated_Source\PSoC6\pdl\drivers/peripheral/scb/cy_scb_spi.h **** * The number of data elements read from the RX FIFO.
1386:Generated_Source\PSoC6\pdl\drivers/peripheral/scb/cy_scb_spi.h **** *
1387:Generated_Source\PSoC6\pdl\drivers/peripheral/scb/cy_scb_spi.h **** * \note
1388:Generated_Source\PSoC6\pdl\drivers/peripheral/scb/cy_scb_spi.h **** * * This function only reads data available in the RX FIFO. It does not
1389:Generated_Source\PSoC6\pdl\drivers/peripheral/scb/cy_scb_spi.h **** *   initiate an SPI transfer.
1390:Generated_Source\PSoC6\pdl\drivers/peripheral/scb/cy_scb_spi.h **** * * When in the master mode, this function writes data into the TX FIFO and
1391:Generated_Source\PSoC6\pdl\drivers/peripheral/scb/cy_scb_spi.h **** *   waits until the transfer is completed before reading data from the RX FIFO.
1392:Generated_Source\PSoC6\pdl\drivers/peripheral/scb/cy_scb_spi.h **** *
1393:Generated_Source\PSoC6\pdl\drivers/peripheral/scb/cy_scb_spi.h **** *******************************************************************************/
1394:Generated_Source\PSoC6\pdl\drivers/peripheral/scb/cy_scb_spi.h **** __STATIC_INLINE uint32_t Cy_SCB_SPI_ReadArray(CySCB_Type const *base, void *buffer, uint32_t size)
1395:Generated_Source\PSoC6\pdl\drivers/peripheral/scb/cy_scb_spi.h **** {
1396:Generated_Source\PSoC6\pdl\drivers/peripheral/scb/cy_scb_spi.h ****     CY_ASSERT_L1(CY_SCB_IS_BUFFER_VALID(buffer, size));
1397:Generated_Source\PSoC6\pdl\drivers/peripheral/scb/cy_scb_spi.h **** 
1398:Generated_Source\PSoC6\pdl\drivers/peripheral/scb/cy_scb_spi.h ****     return Cy_SCB_ReadArray(base, buffer, size);
1399:Generated_Source\PSoC6\pdl\drivers/peripheral/scb/cy_scb_spi.h **** }
1400:Generated_Source\PSoC6\pdl\drivers/peripheral/scb/cy_scb_spi.h **** 
1401:Generated_Source\PSoC6\pdl\drivers/peripheral/scb/cy_scb_spi.h **** 
1402:Generated_Source\PSoC6\pdl\drivers/peripheral/scb/cy_scb_spi.h **** /*******************************************************************************
1403:Generated_Source\PSoC6\pdl\drivers/peripheral/scb/cy_scb_spi.h **** * Function Name: Cy_SCB_SPI_Write
1404:Generated_Source\PSoC6\pdl\drivers/peripheral/scb/cy_scb_spi.h **** ****************************************************************************//**
ARM GAS  C:\Users\Smaug\AppData\Local\Temp\ccJKcizn.s 			page 29


1405:Generated_Source\PSoC6\pdl\drivers/peripheral/scb/cy_scb_spi.h **** *
1406:Generated_Source\PSoC6\pdl\drivers/peripheral/scb/cy_scb_spi.h **** * Places a single data element in the SPI TX FIFO.
1407:Generated_Source\PSoC6\pdl\drivers/peripheral/scb/cy_scb_spi.h **** * This function does not block. It returns how many data elements were placed
1408:Generated_Source\PSoC6\pdl\drivers/peripheral/scb/cy_scb_spi.h **** * in the TX FIFO.
1409:Generated_Source\PSoC6\pdl\drivers/peripheral/scb/cy_scb_spi.h **** *
1410:Generated_Source\PSoC6\pdl\drivers/peripheral/scb/cy_scb_spi.h **** * \param base
1411:Generated_Source\PSoC6\pdl\drivers/peripheral/scb/cy_scb_spi.h **** * The pointer to the SPI SCB instance.
1412:Generated_Source\PSoC6\pdl\drivers/peripheral/scb/cy_scb_spi.h **** *
1413:Generated_Source\PSoC6\pdl\drivers/peripheral/scb/cy_scb_spi.h **** * \param data
1414:Generated_Source\PSoC6\pdl\drivers/peripheral/scb/cy_scb_spi.h **** * Data to put in the TX FIFO.
1415:Generated_Source\PSoC6\pdl\drivers/peripheral/scb/cy_scb_spi.h **** * The element size is defined by the data type, which depends on the configured
1416:Generated_Source\PSoC6\pdl\drivers/peripheral/scb/cy_scb_spi.h **** * TX data width.
1417:Generated_Source\PSoC6\pdl\drivers/peripheral/scb/cy_scb_spi.h **** *
1418:Generated_Source\PSoC6\pdl\drivers/peripheral/scb/cy_scb_spi.h **** * \return
1419:Generated_Source\PSoC6\pdl\drivers/peripheral/scb/cy_scb_spi.h **** * The number of data elements placed in the TX FIFO: 0 or 1.
1420:Generated_Source\PSoC6\pdl\drivers/peripheral/scb/cy_scb_spi.h **** *
1421:Generated_Source\PSoC6\pdl\drivers/peripheral/scb/cy_scb_spi.h **** * \note
1422:Generated_Source\PSoC6\pdl\drivers/peripheral/scb/cy_scb_spi.h **** * * When in the master mode, writing data into the TX FIFO starts an SPI
1423:Generated_Source\PSoC6\pdl\drivers/peripheral/scb/cy_scb_spi.h **** *   transfer.
1424:Generated_Source\PSoC6\pdl\drivers/peripheral/scb/cy_scb_spi.h **** * * When in the slave mode, writing data into the TX FIFO does not start
1425:Generated_Source\PSoC6\pdl\drivers/peripheral/scb/cy_scb_spi.h **** *   an SPI transfer. The data is loaded in the TX FIFO and will be sent
1426:Generated_Source\PSoC6\pdl\drivers/peripheral/scb/cy_scb_spi.h **** *   to the master on its request.
1427:Generated_Source\PSoC6\pdl\drivers/peripheral/scb/cy_scb_spi.h **** * * The SPI interface is full-duplex, therefore reads and writes occur
1428:Generated_Source\PSoC6\pdl\drivers/peripheral/scb/cy_scb_spi.h **** *   at the same time. Thus, for every data element transferred out of the
1429:Generated_Source\PSoC6\pdl\drivers/peripheral/scb/cy_scb_spi.h **** *   TX FIFO, one is transferred into the RX FIFO.
1430:Generated_Source\PSoC6\pdl\drivers/peripheral/scb/cy_scb_spi.h **** *
1431:Generated_Source\PSoC6\pdl\drivers/peripheral/scb/cy_scb_spi.h **** *******************************************************************************/
1432:Generated_Source\PSoC6\pdl\drivers/peripheral/scb/cy_scb_spi.h **** __STATIC_INLINE uint32_t Cy_SCB_SPI_Write(CySCB_Type *base, uint32_t data)
1433:Generated_Source\PSoC6\pdl\drivers/peripheral/scb/cy_scb_spi.h **** {
1434:Generated_Source\PSoC6\pdl\drivers/peripheral/scb/cy_scb_spi.h ****     return Cy_SCB_Write(base, data);
1435:Generated_Source\PSoC6\pdl\drivers/peripheral/scb/cy_scb_spi.h **** }
1436:Generated_Source\PSoC6\pdl\drivers/peripheral/scb/cy_scb_spi.h **** 
1437:Generated_Source\PSoC6\pdl\drivers/peripheral/scb/cy_scb_spi.h **** 
1438:Generated_Source\PSoC6\pdl\drivers/peripheral/scb/cy_scb_spi.h **** /*******************************************************************************
1439:Generated_Source\PSoC6\pdl\drivers/peripheral/scb/cy_scb_spi.h **** * Function Name: Cy_SCB_SPI_WriteArray
1440:Generated_Source\PSoC6\pdl\drivers/peripheral/scb/cy_scb_spi.h **** ****************************************************************************//**
1441:Generated_Source\PSoC6\pdl\drivers/peripheral/scb/cy_scb_spi.h **** *
1442:Generated_Source\PSoC6\pdl\drivers/peripheral/scb/cy_scb_spi.h **** * Places an array of data in the SPI TX FIFO. This function does not
1443:Generated_Source\PSoC6\pdl\drivers/peripheral/scb/cy_scb_spi.h **** * block. It returns how many data elements were placed in the TX FIFO.
1444:Generated_Source\PSoC6\pdl\drivers/peripheral/scb/cy_scb_spi.h **** *
1445:Generated_Source\PSoC6\pdl\drivers/peripheral/scb/cy_scb_spi.h **** * \param base
1446:Generated_Source\PSoC6\pdl\drivers/peripheral/scb/cy_scb_spi.h **** * The pointer to the SPI SCB instance.
1447:Generated_Source\PSoC6\pdl\drivers/peripheral/scb/cy_scb_spi.h **** *
1448:Generated_Source\PSoC6\pdl\drivers/peripheral/scb/cy_scb_spi.h **** * \param buffer
1449:Generated_Source\PSoC6\pdl\drivers/peripheral/scb/cy_scb_spi.h **** * The pointer to the data to place in the TX FIFO.
1450:Generated_Source\PSoC6\pdl\drivers/peripheral/scb/cy_scb_spi.h **** * The element size is defined by the data type, which depends on the configured
1451:Generated_Source\PSoC6\pdl\drivers/peripheral/scb/cy_scb_spi.h **** * TX data width.
1452:Generated_Source\PSoC6\pdl\drivers/peripheral/scb/cy_scb_spi.h **** *
1453:Generated_Source\PSoC6\pdl\drivers/peripheral/scb/cy_scb_spi.h **** * \param size
1454:Generated_Source\PSoC6\pdl\drivers/peripheral/scb/cy_scb_spi.h **** * The number of data elements to transmit.
1455:Generated_Source\PSoC6\pdl\drivers/peripheral/scb/cy_scb_spi.h **** *
1456:Generated_Source\PSoC6\pdl\drivers/peripheral/scb/cy_scb_spi.h **** * \return
1457:Generated_Source\PSoC6\pdl\drivers/peripheral/scb/cy_scb_spi.h **** * The number of data elements placed in the TX FIFO.
1458:Generated_Source\PSoC6\pdl\drivers/peripheral/scb/cy_scb_spi.h **** *
1459:Generated_Source\PSoC6\pdl\drivers/peripheral/scb/cy_scb_spi.h **** * \note
1460:Generated_Source\PSoC6\pdl\drivers/peripheral/scb/cy_scb_spi.h **** * * When in the master mode, writing data into the TX FIFO starts an SPI
1461:Generated_Source\PSoC6\pdl\drivers/peripheral/scb/cy_scb_spi.h **** *   transfer.
ARM GAS  C:\Users\Smaug\AppData\Local\Temp\ccJKcizn.s 			page 30


1462:Generated_Source\PSoC6\pdl\drivers/peripheral/scb/cy_scb_spi.h **** * * When in the slave mode, writing data into the TX FIFO does not start
1463:Generated_Source\PSoC6\pdl\drivers/peripheral/scb/cy_scb_spi.h **** *   an SPI transfer. The data is loaded in the TX FIFO and will be sent to
1464:Generated_Source\PSoC6\pdl\drivers/peripheral/scb/cy_scb_spi.h **** *   the master on its request.
1465:Generated_Source\PSoC6\pdl\drivers/peripheral/scb/cy_scb_spi.h **** * * The SPI interface is full-duplex, therefore reads and writes occur
1466:Generated_Source\PSoC6\pdl\drivers/peripheral/scb/cy_scb_spi.h **** *   at the same time. Thus, for every data element transferred out of the
1467:Generated_Source\PSoC6\pdl\drivers/peripheral/scb/cy_scb_spi.h **** *   TX FIFO, one is transferred into the RX FIFO.
1468:Generated_Source\PSoC6\pdl\drivers/peripheral/scb/cy_scb_spi.h **** *
1469:Generated_Source\PSoC6\pdl\drivers/peripheral/scb/cy_scb_spi.h **** *******************************************************************************/
1470:Generated_Source\PSoC6\pdl\drivers/peripheral/scb/cy_scb_spi.h **** __STATIC_INLINE uint32_t Cy_SCB_SPI_WriteArray(CySCB_Type *base, void *buffer, uint32_t size)
1471:Generated_Source\PSoC6\pdl\drivers/peripheral/scb/cy_scb_spi.h **** {
1472:Generated_Source\PSoC6\pdl\drivers/peripheral/scb/cy_scb_spi.h ****     CY_ASSERT_L1(CY_SCB_IS_BUFFER_VALID(buffer, size));
1473:Generated_Source\PSoC6\pdl\drivers/peripheral/scb/cy_scb_spi.h **** 
1474:Generated_Source\PSoC6\pdl\drivers/peripheral/scb/cy_scb_spi.h ****     return Cy_SCB_WriteArray(base, buffer, size);
1475:Generated_Source\PSoC6\pdl\drivers/peripheral/scb/cy_scb_spi.h **** }
1476:Generated_Source\PSoC6\pdl\drivers/peripheral/scb/cy_scb_spi.h **** 
1477:Generated_Source\PSoC6\pdl\drivers/peripheral/scb/cy_scb_spi.h **** 
1478:Generated_Source\PSoC6\pdl\drivers/peripheral/scb/cy_scb_spi.h **** /*******************************************************************************
1479:Generated_Source\PSoC6\pdl\drivers/peripheral/scb/cy_scb_spi.h **** * Function Name: Cy_SCB_SPI_WriteArrayBlocking
1480:Generated_Source\PSoC6\pdl\drivers/peripheral/scb/cy_scb_spi.h **** ****************************************************************************//**
1481:Generated_Source\PSoC6\pdl\drivers/peripheral/scb/cy_scb_spi.h **** *
1482:Generated_Source\PSoC6\pdl\drivers/peripheral/scb/cy_scb_spi.h **** * Places an array of data in the SPI TX FIFO. This function blocks
1483:Generated_Source\PSoC6\pdl\drivers/peripheral/scb/cy_scb_spi.h **** * until the number of data elements specified by size is placed in the SPI
1484:Generated_Source\PSoC6\pdl\drivers/peripheral/scb/cy_scb_spi.h **** * TX FIFO.
1485:Generated_Source\PSoC6\pdl\drivers/peripheral/scb/cy_scb_spi.h **** *
1486:Generated_Source\PSoC6\pdl\drivers/peripheral/scb/cy_scb_spi.h **** * \param base
1487:Generated_Source\PSoC6\pdl\drivers/peripheral/scb/cy_scb_spi.h **** * The pointer to the SPI SCB instance.
1488:Generated_Source\PSoC6\pdl\drivers/peripheral/scb/cy_scb_spi.h **** *
1489:Generated_Source\PSoC6\pdl\drivers/peripheral/scb/cy_scb_spi.h **** * \param buffer
1490:Generated_Source\PSoC6\pdl\drivers/peripheral/scb/cy_scb_spi.h **** * The pointer to data to place in the TX FIFO.
1491:Generated_Source\PSoC6\pdl\drivers/peripheral/scb/cy_scb_spi.h **** * The element size is defined by the data type, which depends on the configured
1492:Generated_Source\PSoC6\pdl\drivers/peripheral/scb/cy_scb_spi.h **** * TX data width.
1493:Generated_Source\PSoC6\pdl\drivers/peripheral/scb/cy_scb_spi.h **** *
1494:Generated_Source\PSoC6\pdl\drivers/peripheral/scb/cy_scb_spi.h **** * \param size
1495:Generated_Source\PSoC6\pdl\drivers/peripheral/scb/cy_scb_spi.h **** * The number of data elements to write into the TX FIFO.
1496:Generated_Source\PSoC6\pdl\drivers/peripheral/scb/cy_scb_spi.h **** *
1497:Generated_Source\PSoC6\pdl\drivers/peripheral/scb/cy_scb_spi.h **** * \note
1498:Generated_Source\PSoC6\pdl\drivers/peripheral/scb/cy_scb_spi.h **** * * When in the master mode, writing data into the TX FIFO starts an SPI
1499:Generated_Source\PSoC6\pdl\drivers/peripheral/scb/cy_scb_spi.h **** *   transfer.
1500:Generated_Source\PSoC6\pdl\drivers/peripheral/scb/cy_scb_spi.h **** * * When in the slave mode, writing data into the TX FIFO does not start
1501:Generated_Source\PSoC6\pdl\drivers/peripheral/scb/cy_scb_spi.h **** *   an SPI transfer. The data is loaded in the TX FIFO and will be sent to
1502:Generated_Source\PSoC6\pdl\drivers/peripheral/scb/cy_scb_spi.h **** *   the master on its request.
1503:Generated_Source\PSoC6\pdl\drivers/peripheral/scb/cy_scb_spi.h **** * * The SPI interface is full-duplex, therefore reads and writes occur
1504:Generated_Source\PSoC6\pdl\drivers/peripheral/scb/cy_scb_spi.h **** *   at the same time. Thus, for every data element transferred out of the
1505:Generated_Source\PSoC6\pdl\drivers/peripheral/scb/cy_scb_spi.h **** *   TX FIFO, one is transferred into the RX FIFO.
1506:Generated_Source\PSoC6\pdl\drivers/peripheral/scb/cy_scb_spi.h **** *
1507:Generated_Source\PSoC6\pdl\drivers/peripheral/scb/cy_scb_spi.h **** *******************************************************************************/
1508:Generated_Source\PSoC6\pdl\drivers/peripheral/scb/cy_scb_spi.h **** __STATIC_INLINE void Cy_SCB_SPI_WriteArrayBlocking(CySCB_Type *base, void *buffer, uint32_t size)
1509:Generated_Source\PSoC6\pdl\drivers/peripheral/scb/cy_scb_spi.h **** {
1510:Generated_Source\PSoC6\pdl\drivers/peripheral/scb/cy_scb_spi.h ****     CY_ASSERT_L1(CY_SCB_IS_BUFFER_VALID(buffer, size));
1511:Generated_Source\PSoC6\pdl\drivers/peripheral/scb/cy_scb_spi.h **** 
1512:Generated_Source\PSoC6\pdl\drivers/peripheral/scb/cy_scb_spi.h ****     Cy_SCB_WriteArrayBlocking(base, buffer, size);
 121              		.loc 2 1512 0
 122 0006 0122     		movs	r2, #1
 123 0008 0B49     		ldr	r1, .L11
 124              	.LVL14:
 125 000a 0C48     		ldr	r0, .L11+4
 126              	.LVL15:
ARM GAS  C:\Users\Smaug\AppData\Local\Temp\ccJKcizn.s 			page 31


 127 000c FFF7FEFF 		bl	Cy_SCB_WriteArrayBlocking
 128              	.LVL16:
 129              	.LBE17:
 130              	.LBE16:
 131              	.LBB18:
 132              	.LBB19:
1510:Generated_Source\PSoC6\pdl\drivers/peripheral/scb/cy_scb_spi.h **** 
 133              		.loc 2 1510 0
 134 0010 05B1     		cbz	r5, .L8
 135 0012 26B9     		cbnz	r6, .L9
 136              	.L8:
 137 0014 40F2E651 		movw	r1, #1510
 138 0018 0948     		ldr	r0, .L11+8
 139 001a FFF7FEFF 		bl	Cy_SysLib_AssertFailed
 140              	.LVL17:
 141              	.L9:
 142              		.loc 2 1512 0
 143 001e 074C     		ldr	r4, .L11+4
 144 0020 3246     		mov	r2, r6
 145 0022 2946     		mov	r1, r5
 146 0024 2046     		mov	r0, r4
 147 0026 FFF7FEFF 		bl	Cy_SCB_WriteArrayBlocking
 148              	.LVL18:
 149              	.LBE19:
 150              	.LBE18:
 151              	.LBB20:
 152              	.LBB21:
 153 002a 0122     		movs	r2, #1
 154 002c 0249     		ldr	r1, .L11
 155 002e 2046     		mov	r0, r4
 156 0030 FFF7FEFF 		bl	Cy_SCB_WriteArrayBlocking
 157              	.LVL19:
 158 0034 70BD     		pop	{r4, r5, r6, pc}
 159              	.LVL20:
 160              	.L12:
 161 0036 00BF     		.align	2
 162              	.L11:
 163 0038 00000000 		.word	.LANCHOR0
 164 003c 00006740 		.word	1080492032
 165 0040 00000000 		.word	.LC0
 166              	.LBE21:
 167              	.LBE20:
 168              		.cfi_endproc
 169              	.LFE756:
 170              		.size	Leds_SendData, .-Leds_SendData
 171              		.section	.text.Leds_Init,"ax",%progbits
 172              		.align	2
 173              		.global	Leds_Init
 174              		.thumb
 175              		.thumb_func
 176              		.type	Leds_Init, %function
 177              	Leds_Init:
 178              	.LFB755:
  25:ledctrl.c     ****     cy_en_scb_spi_status_t initStatus;
 179              		.loc 1 25 0
 180              		.cfi_startproc
 181              		@ args = 0, pretend = 0, frame = 0
ARM GAS  C:\Users\Smaug\AppData\Local\Temp\ccJKcizn.s 			page 32


 182              		@ frame_needed = 0, uses_anonymous_args = 0
 183 0000 08B5     		push	{r3, lr}
 184              		.cfi_def_cfa_offset 8
 185              		.cfi_offset 3, -8
 186              		.cfi_offset 14, -4
  29:ledctrl.c     ****     if(initStatus == CY_SCB_SPI_SUCCESS)
 187              		.loc 1 29 0
 188 0002 0022     		movs	r2, #0
 189 0004 0649     		ldr	r1, .L16
 190 0006 0748     		ldr	r0, .L16+4
 191 0008 FFF7FEFF 		bl	Cy_SCB_SPI_Init
 192              	.LVL21:
  30:ledctrl.c     ****     {
 193              		.loc 1 30 0
 194 000c 0246     		mov	r2, r0
 195 000e 20B9     		cbnz	r0, .L14
 196              	.LVL22:
 197              	.LBB22:
 198              	.LBB23:
 962:Generated_Source\PSoC6\pdl\drivers/peripheral/scb/cy_scb_spi.h **** }
 199              		.loc 2 962 0
 200 0010 0449     		ldr	r1, .L16+4
 201 0012 0B68     		ldr	r3, [r1]
 202 0014 43F00043 		orr	r3, r3, #-2147483648
 203 0018 0B60     		str	r3, [r1]
 204              	.LVL23:
 205              	.L14:
 206              	.LBE23:
 207              	.LBE22:
  37:ledctrl.c     **** 
 208              		.loc 1 37 0
 209 001a 1046     		mov	r0, r2
 210              	.LVL24:
 211 001c 08BD     		pop	{r3, pc}
 212              	.L17:
 213 001e 00BF     		.align	2
 214              	.L16:
 215 0020 00000000 		.word	SPI_LEDCTRL_config
 216 0024 00006740 		.word	1080492032
 217              		.cfi_endproc
 218              	.LFE755:
 219              		.size	Leds_Init, .-Leds_Init
 220              		.section	.text.Leds_PutPixel,"ax",%progbits
 221              		.align	2
 222              		.global	Leds_PutPixel
 223              		.thumb
 224              		.thumb_func
 225              		.type	Leds_PutPixel, %function
 226              	Leds_PutPixel:
 227              	.LFB758:
  69:ledctrl.c     **** 
  70:ledctrl.c     **** void Leds_PutPixel(uint8_t pix_no, uint8_t g, uint8_t r, uint8_t b)
  71:ledctrl.c     **** {    
 228              		.loc 1 71 0
 229              		.cfi_startproc
 230              		@ args = 0, pretend = 0, frame = 0
 231              		@ frame_needed = 0, uses_anonymous_args = 0
ARM GAS  C:\Users\Smaug\AppData\Local\Temp\ccJKcizn.s 			page 33


 232              	.LVL25:
  72:ledctrl.c     ****     if (pix_no < WS2812_LED_QTY)
 233              		.loc 1 72 0
 234 0000 0B28     		cmp	r0, #11
 235 0002 0ED8     		bhi	.L21
  71:ledctrl.c     ****     if (pix_no < WS2812_LED_QTY)
 236              		.loc 1 71 0
 237 0004 F8B5     		push	{r3, r4, r5, r6, r7, lr}
 238              		.cfi_def_cfa_offset 24
 239              		.cfi_offset 3, -24
 240              		.cfi_offset 4, -20
 241              		.cfi_offset 5, -16
 242              		.cfi_offset 6, -12
 243              		.cfi_offset 7, -8
 244              		.cfi_offset 14, -4
 245 0006 1F46     		mov	r7, r3
 246 0008 1646     		mov	r6, r2
 247 000a 0D46     		mov	r5, r1
  73:ledctrl.c     ****     {
  74:ledctrl.c     ****         Leds_ColorToRawBitstream(g, r, b, &Leds_rawColorBuffer[24 * pix_no]);
 248              		.loc 1 74 0
 249 000c 00EB4004 		add	r4, r0, r0, lsl #1
 250 0010 E300     		lsls	r3, r4, #3
 251              	.LVL26:
 252 0012 044A     		ldr	r2, .L22
 253              	.LVL27:
 254 0014 1344     		add	r3, r3, r2
 255 0016 3A46     		mov	r2, r7
 256 0018 3146     		mov	r1, r6
 257              	.LVL28:
 258 001a 2846     		mov	r0, r5
 259              	.LVL29:
 260 001c FFF7FEFF 		bl	Leds_ColorToRawBitstream
 261              	.LVL30:
 262 0020 F8BD     		pop	{r3, r4, r5, r6, r7, pc}
 263              	.LVL31:
 264              	.L21:
 265              		.cfi_def_cfa_offset 0
 266              		.cfi_restore 3
 267              		.cfi_restore 4
 268              		.cfi_restore 5
 269              		.cfi_restore 6
 270              		.cfi_restore 7
 271              		.cfi_restore 14
 272 0022 7047     		bx	lr
 273              	.L23:
 274              		.align	2
 275              	.L22:
 276 0024 04000000 		.word	.LANCHOR0+4
 277              		.cfi_endproc
 278              	.LFE758:
 279              		.size	Leds_PutPixel, .-Leds_PutPixel
 280              		.section	.text.Leds_FillSolidColor,"ax",%progbits
 281              		.align	2
 282              		.global	Leds_FillSolidColor
 283              		.thumb
 284              		.thumb_func
ARM GAS  C:\Users\Smaug\AppData\Local\Temp\ccJKcizn.s 			page 34


 285              		.type	Leds_FillSolidColor, %function
 286              	Leds_FillSolidColor:
 287              	.LFB759:
  75:ledctrl.c     ****     }
  76:ledctrl.c     **** }
  77:ledctrl.c     **** 
  78:ledctrl.c     **** void Leds_FillSolidColor(uint8_t g, uint8_t r, uint8_t b)
  79:ledctrl.c     **** {    
 288              		.loc 1 79 0
 289              		.cfi_startproc
 290              		@ args = 0, pretend = 0, frame = 0
 291              		@ frame_needed = 0, uses_anonymous_args = 0
 292              	.LVL32:
 293 0000 F8B5     		push	{r3, r4, r5, r6, r7, lr}
 294              		.cfi_def_cfa_offset 24
 295              		.cfi_offset 3, -24
 296              		.cfi_offset 4, -20
 297              		.cfi_offset 5, -16
 298              		.cfi_offset 6, -12
 299              		.cfi_offset 7, -8
 300              		.cfi_offset 14, -4
 301 0002 0746     		mov	r7, r0
 302 0004 0E46     		mov	r6, r1
 303 0006 1546     		mov	r5, r2
 304              	.LVL33:
 305              	.LBB24:
  80:ledctrl.c     ****     for (uint16_t i = 0; i < WS2812_LED_QTY; i++)
 306              		.loc 1 80 0
 307 0008 0024     		movs	r4, #0
 308 000a 0BE0     		b	.L25
 309              	.LVL34:
 310              	.L26:
  81:ledctrl.c     ****     {
  82:ledctrl.c     ****         Leds_ColorToRawBitstream(g, r, b, &Leds_rawColorBuffer[24 * i]);
 311              		.loc 1 82 0 discriminator 3
 312 000c 04EB4402 		add	r2, r4, r4, lsl #1
 313 0010 D300     		lsls	r3, r2, #3
 314 0012 064A     		ldr	r2, .L28
 315 0014 1344     		add	r3, r3, r2
 316 0016 2A46     		mov	r2, r5
 317 0018 3146     		mov	r1, r6
 318 001a 3846     		mov	r0, r7
 319 001c FFF7FEFF 		bl	Leds_ColorToRawBitstream
 320              	.LVL35:
  80:ledctrl.c     ****     for (uint16_t i = 0; i < WS2812_LED_QTY; i++)
 321              		.loc 1 80 0 discriminator 3
 322 0020 0134     		adds	r4, r4, #1
 323              	.LVL36:
 324 0022 A4B2     		uxth	r4, r4
 325              	.LVL37:
 326              	.L25:
  80:ledctrl.c     ****     for (uint16_t i = 0; i < WS2812_LED_QTY; i++)
 327              		.loc 1 80 0 is_stmt 0 discriminator 1
 328 0024 0B2C     		cmp	r4, #11
 329 0026 F1D9     		bls	.L26
 330              	.LBE24:
  83:ledctrl.c     ****     }
ARM GAS  C:\Users\Smaug\AppData\Local\Temp\ccJKcizn.s 			page 35


  84:ledctrl.c     **** }
 331              		.loc 1 84 0 is_stmt 1
 332 0028 F8BD     		pop	{r3, r4, r5, r6, r7, pc}
 333              	.LVL38:
 334              	.L29:
 335 002a 00BF     		.align	2
 336              	.L28:
 337 002c 04000000 		.word	.LANCHOR0+4
 338              		.cfi_endproc
 339              	.LFE759:
 340              		.size	Leds_FillSolidColor, .-Leds_FillSolidColor
 341              		.section	.text.Leds_Update,"ax",%progbits
 342              		.align	2
 343              		.global	Leds_Update
 344              		.thumb
 345              		.thumb_func
 346              		.type	Leds_Update, %function
 347              	Leds_Update:
 348              	.LFB760:
  85:ledctrl.c     **** 
  86:ledctrl.c     **** void Leds_Update(void)
  87:ledctrl.c     **** {
 349              		.loc 1 87 0
 350              		.cfi_startproc
 351              		@ args = 0, pretend = 0, frame = 0
 352              		@ frame_needed = 0, uses_anonymous_args = 0
 353 0000 08B5     		push	{r3, lr}
 354              		.cfi_def_cfa_offset 8
 355              		.cfi_offset 3, -8
 356              		.cfi_offset 14, -4
  88:ledctrl.c     ****     Leds_SendData(&Leds_rawColorBuffer[0], WS2812_BUFFER_SIZE);
 357              		.loc 1 88 0
 358 0002 4FF49071 		mov	r1, #288
 359 0006 0248     		ldr	r0, .L32
 360 0008 FFF7FEFF 		bl	Leds_SendData
 361              	.LVL39:
 362 000c 08BD     		pop	{r3, pc}
 363              	.L33:
 364 000e 00BF     		.align	2
 365              	.L32:
 366 0010 04000000 		.word	.LANCHOR0+4
 367              		.cfi_endproc
 368              	.LFE760:
 369              		.size	Leds_Update, .-Leds_Update
 370              		.global	Leds_rawColorBuffer
 371              		.comm	ledColorObj,3,4
 372              		.section	.rodata.str1.4,"aMS",%progbits,1
 373              		.align	2
 374              	.LC0:
 375 0000 47656E65 		.ascii	"Generated_Source\\PSoC6\\pdl\\drivers/peripheral/sc"
 375      72617465 
 375      645F536F 
 375      75726365 
 375      5C50536F 
 376 0030 622F6379 		.ascii	"b/cy_scb_spi.h\000"
 376      5F736362 
 376      5F737069 
ARM GAS  C:\Users\Smaug\AppData\Local\Temp\ccJKcizn.s 			page 36


 376      2E6800
 377              		.bss
 378              		.align	2
 379              		.set	.LANCHOR0,. + 0
 380              		.type	blankingFrame, %object
 381              		.size	blankingFrame, 1
 382              	blankingFrame:
 383 0000 00       		.space	1
 384 0001 000000   		.space	3
 385              		.type	Leds_rawColorBuffer, %object
 386              		.size	Leds_rawColorBuffer, 288
 387              	Leds_rawColorBuffer:
 388 0004 00000000 		.space	288
 388      00000000 
 388      00000000 
 388      00000000 
 388      00000000 
 389              		.text
 390              	.Letext0:
 391              		.file 3 "c:\\program files (x86)\\cypress\\psoc creator\\4.4\\psoc creator\\import\\gnu\\arm\\5.4.
 392              		.file 4 "c:\\program files (x86)\\cypress\\psoc creator\\4.4\\psoc creator\\import\\gnu\\arm\\5.4.
 393              		.file 5 "Generated_Source\\PSoC6\\pdl\\devices/psoc6/include/ip/cyip_scb.h"
 394              		.file 6 "Generated_Source\\PSoC6\\pdl\\devices/psoc6/include/psoc6_01_config.h"
 395              		.file 7 "Generated_Source\\PSoC6\\pdl\\drivers/peripheral/device/cy_device.h"
 396              		.file 8 "Generated_Source\\PSoC6\\pdl\\drivers/peripheral/syslib/cy_syslib.h"
 397              		.file 9 "Generated_Source\\PSoC6\\pdl\\drivers/peripheral/sar/cy_sar.h"
 398              		.file 10 "Generated_Source\\PSoC6\\pdl\\drivers/peripheral/scb/cy_scb_i2c.h"
 399              		.file 11 "Generated_Source\\PSoC6\\pdl\\drivers/peripheral/scb/cy_scb_uart.h"
 400              		.file 12 "Generated_Source\\PSoC6\\pdl\\drivers/peripheral/tcpwm/cy_tcpwm_counter.h"
 401              		.file 13 "Generated_Source\\PSoC6\\pdl\\drivers/peripheral/tcpwm/cy_tcpwm_pwm.h"
 402              		.file 14 "Generated_Source\\PSoC6/ADC.h"
 403              		.file 15 "ledctrl.h"
 404              		.file 16 "Generated_Source\\PSoC6\\pdl\\cmsis/include/core_cm4.h"
 405              		.file 17 "Generated_Source\\PSoC6/I2C_Main.h"
 406              		.file 18 "Generated_Source\\PSoC6/UART_Debug.h"
 407              		.file 19 "Generated_Source\\PSoC6/PWM_Trig.h"
 408              		.file 20 "Generated_Source\\PSoC6/Counter_Echo.h"
 409              		.file 21 "Generated_Source\\PSoC6/IR.h"
 410              		.file 22 "Generated_Source\\PSoC6/PWM_Buz.h"
 411              		.file 23 "Generated_Source\\PSoC6/SPI_LEDCTRL.h"
 412              		.file 24 "Generated_Source\\PSoC6\\pdl\\drivers/peripheral/scb/cy_scb_common.h"
 413              		.section	.debug_info,"",%progbits
 414              	.Ldebug_info0:
 415 0000 72170000 		.4byte	0x1772
 416 0004 0400     		.2byte	0x4
 417 0006 00000000 		.4byte	.Ldebug_abbrev0
 418 000a 04       		.byte	0x4
 419 000b 01       		.uleb128 0x1
 420 000c 93030000 		.4byte	.LASF366
 421 0010 0C       		.byte	0xc
 422 0011 33030000 		.4byte	.LASF367
 423 0015 8C0E0000 		.4byte	.LASF368
 424 0019 18000000 		.4byte	.Ldebug_ranges0+0x18
 425 001d 00000000 		.4byte	0
 426 0021 00000000 		.4byte	.Ldebug_line0
 427 0025 02       		.uleb128 0x2
 428 0026 02       		.byte	0x2
ARM GAS  C:\Users\Smaug\AppData\Local\Temp\ccJKcizn.s 			page 37


 429 0027 05       		.byte	0x5
 430 0028 C30C0000 		.4byte	.LASF0
 431 002c 02       		.uleb128 0x2
 432 002d 01       		.byte	0x1
 433 002e 06       		.byte	0x6
 434 002f E0130000 		.4byte	.LASF1
 435 0033 03       		.uleb128 0x3
 436 0034 79100000 		.4byte	.LASF3
 437 0038 03       		.byte	0x3
 438 0039 1D       		.byte	0x1d
 439 003a 3E000000 		.4byte	0x3e
 440 003e 02       		.uleb128 0x2
 441 003f 01       		.byte	0x1
 442 0040 08       		.byte	0x8
 443 0041 85120000 		.4byte	.LASF2
 444 0045 03       		.uleb128 0x3
 445 0046 130C0000 		.4byte	.LASF4
 446 004a 03       		.byte	0x3
 447 004b 29       		.byte	0x29
 448 004c 25000000 		.4byte	0x25
 449 0050 03       		.uleb128 0x3
 450 0051 1F090000 		.4byte	.LASF5
 451 0055 03       		.byte	0x3
 452 0056 2B       		.byte	0x2b
 453 0057 5B000000 		.4byte	0x5b
 454 005b 02       		.uleb128 0x2
 455 005c 02       		.byte	0x2
 456 005d 07       		.byte	0x7
 457 005e 800D0000 		.4byte	.LASF6
 458 0062 03       		.uleb128 0x3
 459 0063 E4010000 		.4byte	.LASF7
 460 0067 03       		.byte	0x3
 461 0068 3F       		.byte	0x3f
 462 0069 6D000000 		.4byte	0x6d
 463 006d 02       		.uleb128 0x2
 464 006e 04       		.byte	0x4
 465 006f 05       		.byte	0x5
 466 0070 880F0000 		.4byte	.LASF8
 467 0074 03       		.uleb128 0x3
 468 0075 A8120000 		.4byte	.LASF9
 469 0079 03       		.byte	0x3
 470 007a 41       		.byte	0x41
 471 007b 7F000000 		.4byte	0x7f
 472 007f 02       		.uleb128 0x2
 473 0080 04       		.byte	0x4
 474 0081 07       		.byte	0x7
 475 0082 97110000 		.4byte	.LASF10
 476 0086 02       		.uleb128 0x2
 477 0087 08       		.byte	0x8
 478 0088 05       		.byte	0x5
 479 0089 630B0000 		.4byte	.LASF11
 480 008d 02       		.uleb128 0x2
 481 008e 08       		.byte	0x8
 482 008f 07       		.byte	0x7
 483 0090 28060000 		.4byte	.LASF12
 484 0094 04       		.uleb128 0x4
 485 0095 04       		.byte	0x4
ARM GAS  C:\Users\Smaug\AppData\Local\Temp\ccJKcizn.s 			page 38


 486 0096 05       		.byte	0x5
 487 0097 696E7400 		.ascii	"int\000"
 488 009b 02       		.uleb128 0x2
 489 009c 04       		.byte	0x4
 490 009d 07       		.byte	0x7
 491 009e 2D010000 		.4byte	.LASF13
 492 00a2 03       		.uleb128 0x3
 493 00a3 B90A0000 		.4byte	.LASF14
 494 00a7 04       		.byte	0x4
 495 00a8 18       		.byte	0x18
 496 00a9 33000000 		.4byte	0x33
 497 00ad 03       		.uleb128 0x3
 498 00ae 01060000 		.4byte	.LASF15
 499 00b2 04       		.byte	0x4
 500 00b3 20       		.byte	0x20
 501 00b4 45000000 		.4byte	0x45
 502 00b8 03       		.uleb128 0x3
 503 00b9 A90D0000 		.4byte	.LASF16
 504 00bd 04       		.byte	0x4
 505 00be 24       		.byte	0x24
 506 00bf 50000000 		.4byte	0x50
 507 00c3 03       		.uleb128 0x3
 508 00c4 DC110000 		.4byte	.LASF17
 509 00c8 04       		.byte	0x4
 510 00c9 2C       		.byte	0x2c
 511 00ca 62000000 		.4byte	0x62
 512 00ce 03       		.uleb128 0x3
 513 00cf 2D050000 		.4byte	.LASF18
 514 00d3 04       		.byte	0x4
 515 00d4 30       		.byte	0x30
 516 00d5 74000000 		.4byte	0x74
 517 00d9 02       		.uleb128 0x2
 518 00da 04       		.byte	0x4
 519 00db 07       		.byte	0x7
 520 00dc B10E0000 		.4byte	.LASF19
 521 00e0 05       		.uleb128 0x5
 522 00e1 CE000000 		.4byte	0xce
 523 00e5 06       		.uleb128 0x6
 524 00e6 E0000000 		.4byte	0xe0
 525 00ea 07       		.uleb128 0x7
 526 00eb E5000000 		.4byte	0xe5
 527 00ef FA000000 		.4byte	0xfa
 528 00f3 08       		.uleb128 0x8
 529 00f4 D9000000 		.4byte	0xd9
 530 00f8 03       		.byte	0x3
 531 00f9 00       		.byte	0
 532 00fa 07       		.uleb128 0x7
 533 00fb E5000000 		.4byte	0xe5
 534 00ff 0A010000 		.4byte	0x10a
 535 0103 08       		.uleb128 0x8
 536 0104 D9000000 		.4byte	0xd9
 537 0108 05       		.byte	0x5
 538 0109 00       		.byte	0
 539 010a 07       		.uleb128 0x7
 540 010b E5000000 		.4byte	0xe5
 541 010f 1A010000 		.4byte	0x11a
 542 0113 08       		.uleb128 0x8
ARM GAS  C:\Users\Smaug\AppData\Local\Temp\ccJKcizn.s 			page 39


 543 0114 D9000000 		.4byte	0xd9
 544 0118 7F       		.byte	0x7f
 545 0119 00       		.byte	0
 546 011a 07       		.uleb128 0x7
 547 011b E5000000 		.4byte	0xe5
 548 011f 2A010000 		.4byte	0x12a
 549 0123 08       		.uleb128 0x8
 550 0124 D9000000 		.4byte	0xd9
 551 0128 0C       		.byte	0xc
 552 0129 00       		.byte	0
 553 012a 07       		.uleb128 0x7
 554 012b E5000000 		.4byte	0xe5
 555 012f 3A010000 		.4byte	0x13a
 556 0133 08       		.uleb128 0x8
 557 0134 D9000000 		.4byte	0xd9
 558 0138 1E       		.byte	0x1e
 559 0139 00       		.byte	0
 560 013a 07       		.uleb128 0x7
 561 013b E5000000 		.4byte	0xe5
 562 013f 4A010000 		.4byte	0x14a
 563 0143 08       		.uleb128 0x8
 564 0144 D9000000 		.4byte	0xd9
 565 0148 02       		.byte	0x2
 566 0149 00       		.byte	0
 567 014a 07       		.uleb128 0x7
 568 014b E5000000 		.4byte	0xe5
 569 014f 5A010000 		.4byte	0x15a
 570 0153 08       		.uleb128 0x8
 571 0154 D9000000 		.4byte	0xd9
 572 0158 0B       		.byte	0xb
 573 0159 00       		.byte	0
 574 015a 07       		.uleb128 0x7
 575 015b E5000000 		.4byte	0xe5
 576 015f 6A010000 		.4byte	0x16a
 577 0163 08       		.uleb128 0x8
 578 0164 D9000000 		.4byte	0xd9
 579 0168 0A       		.byte	0xa
 580 0169 00       		.byte	0
 581 016a 07       		.uleb128 0x7
 582 016b E5000000 		.4byte	0xe5
 583 016f 7A010000 		.4byte	0x17a
 584 0173 08       		.uleb128 0x8
 585 0174 D9000000 		.4byte	0xd9
 586 0178 2E       		.byte	0x2e
 587 0179 00       		.byte	0
 588 017a 07       		.uleb128 0x7
 589 017b E5000000 		.4byte	0xe5
 590 017f 8A010000 		.4byte	0x18a
 591 0183 08       		.uleb128 0x8
 592 0184 D9000000 		.4byte	0xd9
 593 0188 2D       		.byte	0x2d
 594 0189 00       		.byte	0
 595 018a 07       		.uleb128 0x7
 596 018b E0000000 		.4byte	0xe0
 597 018f 9B010000 		.4byte	0x19b
 598 0193 09       		.uleb128 0x9
 599 0194 D9000000 		.4byte	0xd9
ARM GAS  C:\Users\Smaug\AppData\Local\Temp\ccJKcizn.s 			page 40


 600 0198 FF01     		.2byte	0x1ff
 601 019a 00       		.byte	0
 602 019b 07       		.uleb128 0x7
 603 019c E5000000 		.4byte	0xe5
 604 01a0 AB010000 		.4byte	0x1ab
 605 01a4 08       		.uleb128 0x8
 606 01a5 D9000000 		.4byte	0xd9
 607 01a9 62       		.byte	0x62
 608 01aa 00       		.byte	0
 609 01ab 0A       		.uleb128 0xa
 610 01ac D00F     		.2byte	0xfd0
 611 01ae 05       		.byte	0x5
 612 01af 21       		.byte	0x21
 613 01b0 15050000 		.4byte	0x515
 614 01b4 0B       		.uleb128 0xb
 615 01b5 C1150000 		.4byte	.LASF20
 616 01b9 05       		.byte	0x5
 617 01ba 22       		.byte	0x22
 618 01bb E0000000 		.4byte	0xe0
 619 01bf 00       		.byte	0
 620 01c0 0B       		.uleb128 0xb
 621 01c1 DC140000 		.4byte	.LASF21
 622 01c5 05       		.byte	0x5
 623 01c6 23       		.byte	0x23
 624 01c7 E5000000 		.4byte	0xe5
 625 01cb 04       		.byte	0x4
 626 01cc 0B       		.uleb128 0xb
 627 01cd 48140000 		.4byte	.LASF22
 628 01d1 05       		.byte	0x5
 629 01d2 24       		.byte	0x24
 630 01d3 E0000000 		.4byte	0xe0
 631 01d7 08       		.byte	0x8
 632 01d8 0B       		.uleb128 0xb
 633 01d9 C0000000 		.4byte	.LASF23
 634 01dd 05       		.byte	0x5
 635 01de 25       		.byte	0x25
 636 01df E5000000 		.4byte	0xe5
 637 01e3 0C       		.byte	0xc
 638 01e4 0B       		.uleb128 0xb
 639 01e5 00000000 		.4byte	.LASF24
 640 01e9 05       		.byte	0x5
 641 01ea 26       		.byte	0x26
 642 01eb 1A050000 		.4byte	0x51a
 643 01ef 10       		.byte	0x10
 644 01f0 0B       		.uleb128 0xb
 645 01f1 E6100000 		.4byte	.LASF25
 646 01f5 05       		.byte	0x5
 647 01f6 27       		.byte	0x27
 648 01f7 E0000000 		.4byte	0xe0
 649 01fb 20       		.byte	0x20
 650 01fc 0B       		.uleb128 0xb
 651 01fd 37120000 		.4byte	.LASF26
 652 0201 05       		.byte	0x5
 653 0202 28       		.byte	0x28
 654 0203 E5000000 		.4byte	0xe5
 655 0207 24       		.byte	0x24
 656 0208 0B       		.uleb128 0xb
ARM GAS  C:\Users\Smaug\AppData\Local\Temp\ccJKcizn.s 			page 41


 657 0209 BD140000 		.4byte	.LASF27
 658 020d 05       		.byte	0x5
 659 020e 29       		.byte	0x29
 660 020f 24050000 		.4byte	0x524
 661 0213 28       		.byte	0x28
 662 0214 0B       		.uleb128 0xb
 663 0215 FE130000 		.4byte	.LASF28
 664 0219 05       		.byte	0x5
 665 021a 2A       		.byte	0x2a
 666 021b E0000000 		.4byte	0xe0
 667 021f 40       		.byte	0x40
 668 0220 0B       		.uleb128 0xb
 669 0221 4A070000 		.4byte	.LASF29
 670 0225 05       		.byte	0x5
 671 0226 2B       		.byte	0x2b
 672 0227 E0000000 		.4byte	0xe0
 673 022b 44       		.byte	0x44
 674 022c 0B       		.uleb128 0xb
 675 022d 69040000 		.4byte	.LASF30
 676 0231 05       		.byte	0x5
 677 0232 2C       		.byte	0x2c
 678 0233 E0000000 		.4byte	0xe0
 679 0237 48       		.byte	0x48
 680 0238 0B       		.uleb128 0xb
 681 0239 44100000 		.4byte	.LASF31
 682 023d 05       		.byte	0x5
 683 023e 2D       		.byte	0x2d
 684 023f E5000000 		.4byte	0xe5
 685 0243 4C       		.byte	0x4c
 686 0244 0B       		.uleb128 0xb
 687 0245 1D0C0000 		.4byte	.LASF32
 688 0249 05       		.byte	0x5
 689 024a 2E       		.byte	0x2e
 690 024b E0000000 		.4byte	0xe0
 691 024f 50       		.byte	0x50
 692 0250 0B       		.uleb128 0xb
 693 0251 FC0E0000 		.4byte	.LASF33
 694 0255 05       		.byte	0x5
 695 0256 2F       		.byte	0x2f
 696 0257 2E050000 		.4byte	0x52e
 697 025b 54       		.byte	0x54
 698 025c 0B       		.uleb128 0xb
 699 025d 81110000 		.4byte	.LASF34
 700 0261 05       		.byte	0x5
 701 0262 30       		.byte	0x30
 702 0263 E0000000 		.4byte	0xe0
 703 0267 60       		.byte	0x60
 704 0268 0B       		.uleb128 0xb
 705 0269 9E0F0000 		.4byte	.LASF35
 706 026d 05       		.byte	0x5
 707 026e 31       		.byte	0x31
 708 026f E5000000 		.4byte	0xe5
 709 0273 64       		.byte	0x64
 710 0274 0B       		.uleb128 0xb
 711 0275 B4100000 		.4byte	.LASF36
 712 0279 05       		.byte	0x5
 713 027a 32       		.byte	0x32
ARM GAS  C:\Users\Smaug\AppData\Local\Temp\ccJKcizn.s 			page 42


 714 027b E0000000 		.4byte	0xe0
 715 027f 68       		.byte	0x68
 716 0280 0B       		.uleb128 0xb
 717 0281 BA0E0000 		.4byte	.LASF37
 718 0285 05       		.byte	0x5
 719 0286 33       		.byte	0x33
 720 0287 E0000000 		.4byte	0xe0
 721 028b 6C       		.byte	0x6c
 722 028c 0B       		.uleb128 0xb
 723 028d E7040000 		.4byte	.LASF38
 724 0291 05       		.byte	0x5
 725 0292 34       		.byte	0x34
 726 0293 E0000000 		.4byte	0xe0
 727 0297 70       		.byte	0x70
 728 0298 0B       		.uleb128 0xb
 729 0299 060F0000 		.4byte	.LASF39
 730 029d 05       		.byte	0x5
 731 029e 35       		.byte	0x35
 732 029f 38050000 		.4byte	0x538
 733 02a3 74       		.byte	0x74
 734 02a4 0C       		.uleb128 0xc
 735 02a5 25070000 		.4byte	.LASF40
 736 02a9 05       		.byte	0x5
 737 02aa 36       		.byte	0x36
 738 02ab E0000000 		.4byte	0xe0
 739 02af 0002     		.2byte	0x200
 740 02b1 0C       		.uleb128 0xc
 741 02b2 8E100000 		.4byte	.LASF41
 742 02b6 05       		.byte	0x5
 743 02b7 37       		.byte	0x37
 744 02b8 E0000000 		.4byte	0xe0
 745 02bc 0402     		.2byte	0x204
 746 02be 0C       		.uleb128 0xc
 747 02bf 12010000 		.4byte	.LASF42
 748 02c3 05       		.byte	0x5
 749 02c4 38       		.byte	0x38
 750 02c5 E5000000 		.4byte	0xe5
 751 02c9 0802     		.2byte	0x208
 752 02cb 0C       		.uleb128 0xc
 753 02cc 100F0000 		.4byte	.LASF43
 754 02d0 05       		.byte	0x5
 755 02d1 39       		.byte	0x39
 756 02d2 42050000 		.4byte	0x542
 757 02d6 0C02     		.2byte	0x20c
 758 02d8 0C       		.uleb128 0xc
 759 02d9 4A130000 		.4byte	.LASF44
 760 02dd 05       		.byte	0x5
 761 02de 3A       		.byte	0x3a
 762 02df E0000000 		.4byte	0xe0
 763 02e3 4002     		.2byte	0x240
 764 02e5 0C       		.uleb128 0xc
 765 02e6 1A0F0000 		.4byte	.LASF45
 766 02ea 05       		.byte	0x5
 767 02eb 3B       		.byte	0x3b
 768 02ec 4C050000 		.4byte	0x54c
 769 02f0 4402     		.2byte	0x244
 770 02f2 0C       		.uleb128 0xc
ARM GAS  C:\Users\Smaug\AppData\Local\Temp\ccJKcizn.s 			page 43


 771 02f3 32110000 		.4byte	.LASF46
 772 02f7 05       		.byte	0x5
 773 02f8 3C       		.byte	0x3c
 774 02f9 E0000000 		.4byte	0xe0
 775 02fd 0003     		.2byte	0x300
 776 02ff 0C       		.uleb128 0xc
 777 0300 D7010000 		.4byte	.LASF47
 778 0304 05       		.byte	0x5
 779 0305 3D       		.byte	0x3d
 780 0306 E0000000 		.4byte	0xe0
 781 030a 0403     		.2byte	0x304
 782 030c 0C       		.uleb128 0xc
 783 030d 2A130000 		.4byte	.LASF48
 784 0311 05       		.byte	0x5
 785 0312 3E       		.byte	0x3e
 786 0313 E5000000 		.4byte	0xe5
 787 0317 0803     		.2byte	0x308
 788 0319 0C       		.uleb128 0xc
 789 031a 3F060000 		.4byte	.LASF49
 790 031e 05       		.byte	0x5
 791 031f 3F       		.byte	0x3f
 792 0320 E5000000 		.4byte	0xe5
 793 0324 0C03     		.2byte	0x30c
 794 0326 0C       		.uleb128 0xc
 795 0327 13080000 		.4byte	.LASF50
 796 032b 05       		.byte	0x5
 797 032c 40       		.byte	0x40
 798 032d E0000000 		.4byte	0xe0
 799 0331 1003     		.2byte	0x310
 800 0333 0C       		.uleb128 0xc
 801 0334 2F0F0000 		.4byte	.LASF51
 802 0338 05       		.byte	0x5
 803 0339 41       		.byte	0x41
 804 033a 56050000 		.4byte	0x556
 805 033e 1403     		.2byte	0x314
 806 0340 0C       		.uleb128 0xc
 807 0341 6C150000 		.4byte	.LASF52
 808 0345 05       		.byte	0x5
 809 0346 42       		.byte	0x42
 810 0347 E5000000 		.4byte	0xe5
 811 034b 4003     		.2byte	0x340
 812 034d 0C       		.uleb128 0xc
 813 034e 3A010000 		.4byte	.LASF53
 814 0352 05       		.byte	0x5
 815 0353 43       		.byte	0x43
 816 0354 E5000000 		.4byte	0xe5
 817 0358 4403     		.2byte	0x344
 818 035a 0C       		.uleb128 0xc
 819 035b 390F0000 		.4byte	.LASF54
 820 035f 05       		.byte	0x5
 821 0360 44       		.byte	0x44
 822 0361 60050000 		.4byte	0x560
 823 0365 4803     		.2byte	0x348
 824 0367 0C       		.uleb128 0xc
 825 0368 8B150000 		.4byte	.LASF55
 826 036c 05       		.byte	0x5
 827 036d 45       		.byte	0x45
ARM GAS  C:\Users\Smaug\AppData\Local\Temp\ccJKcizn.s 			page 44


 828 036e 65050000 		.4byte	0x565
 829 0372 0004     		.2byte	0x400
 830 0374 0C       		.uleb128 0xc
 831 0375 430F0000 		.4byte	.LASF56
 832 0379 05       		.byte	0x5
 833 037a 46       		.byte	0x46
 834 037b 6F050000 		.4byte	0x56f
 835 037f 000C     		.2byte	0xc00
 836 0381 0C       		.uleb128 0xc
 837 0382 7A010000 		.4byte	.LASF57
 838 0386 05       		.byte	0x5
 839 0387 47       		.byte	0x47
 840 0388 E5000000 		.4byte	0xe5
 841 038c 000E     		.2byte	0xe00
 842 038e 0C       		.uleb128 0xc
 843 038f D2120000 		.4byte	.LASF58
 844 0393 05       		.byte	0x5
 845 0394 48       		.byte	0x48
 846 0395 79050000 		.4byte	0x579
 847 0399 040E     		.2byte	0xe04
 848 039b 0C       		.uleb128 0xc
 849 039c A8080000 		.4byte	.LASF59
 850 03a0 05       		.byte	0x5
 851 03a1 49       		.byte	0x49
 852 03a2 E0000000 		.4byte	0xe0
 853 03a6 800E     		.2byte	0xe80
 854 03a8 0C       		.uleb128 0xc
 855 03a9 DD120000 		.4byte	.LASF60
 856 03ad 05       		.byte	0x5
 857 03ae 4A       		.byte	0x4a
 858 03af E5000000 		.4byte	0xe5
 859 03b3 840E     		.2byte	0xe84
 860 03b5 0C       		.uleb128 0xc
 861 03b6 B20D0000 		.4byte	.LASF61
 862 03ba 05       		.byte	0x5
 863 03bb 4B       		.byte	0x4b
 864 03bc E0000000 		.4byte	0xe0
 865 03c0 880E     		.2byte	0xe88
 866 03c2 0C       		.uleb128 0xc
 867 03c3 440A0000 		.4byte	.LASF62
 868 03c7 05       		.byte	0x5
 869 03c8 4C       		.byte	0x4c
 870 03c9 E5000000 		.4byte	0xe5
 871 03cd 8C0E     		.2byte	0xe8c
 872 03cf 0C       		.uleb128 0xc
 873 03d0 E8120000 		.4byte	.LASF63
 874 03d4 05       		.byte	0x5
 875 03d5 4D       		.byte	0x4d
 876 03d6 83050000 		.4byte	0x583
 877 03da 900E     		.2byte	0xe90
 878 03dc 0C       		.uleb128 0xc
 879 03dd CD070000 		.4byte	.LASF64
 880 03e1 05       		.byte	0x5
 881 03e2 4E       		.byte	0x4e
 882 03e3 E0000000 		.4byte	0xe0
 883 03e7 C00E     		.2byte	0xec0
 884 03e9 0C       		.uleb128 0xc
ARM GAS  C:\Users\Smaug\AppData\Local\Temp\ccJKcizn.s 			page 45


 885 03ea F3120000 		.4byte	.LASF65
 886 03ee 05       		.byte	0x5
 887 03ef 4F       		.byte	0x4f
 888 03f0 E5000000 		.4byte	0xe5
 889 03f4 C40E     		.2byte	0xec4
 890 03f6 0C       		.uleb128 0xc
 891 03f7 7B0E0000 		.4byte	.LASF66
 892 03fb 05       		.byte	0x5
 893 03fc 50       		.byte	0x50
 894 03fd E0000000 		.4byte	0xe0
 895 0401 C80E     		.2byte	0xec8
 896 0403 0C       		.uleb128 0xc
 897 0404 BE100000 		.4byte	.LASF67
 898 0408 05       		.byte	0x5
 899 0409 51       		.byte	0x51
 900 040a E5000000 		.4byte	0xe5
 901 040e CC0E     		.2byte	0xecc
 902 0410 0C       		.uleb128 0xc
 903 0411 FE120000 		.4byte	.LASF68
 904 0415 05       		.byte	0x5
 905 0416 52       		.byte	0x52
 906 0417 8D050000 		.4byte	0x58d
 907 041b D00E     		.2byte	0xed0
 908 041d 0C       		.uleb128 0xc
 909 041e C2110000 		.4byte	.LASF69
 910 0422 05       		.byte	0x5
 911 0423 53       		.byte	0x53
 912 0424 E0000000 		.4byte	0xe0
 913 0428 000F     		.2byte	0xf00
 914 042a 0C       		.uleb128 0xc
 915 042b 49050000 		.4byte	.LASF70
 916 042f 05       		.byte	0x5
 917 0430 54       		.byte	0x54
 918 0431 E0000000 		.4byte	0xe0
 919 0435 040F     		.2byte	0xf04
 920 0437 0C       		.uleb128 0xc
 921 0438 E4110000 		.4byte	.LASF71
 922 043c 05       		.byte	0x5
 923 043d 55       		.byte	0x55
 924 043e E0000000 		.4byte	0xe0
 925 0442 080F     		.2byte	0xf08
 926 0444 0C       		.uleb128 0xc
 927 0445 A5050000 		.4byte	.LASF72
 928 0449 05       		.byte	0x5
 929 044a 56       		.byte	0x56
 930 044b E5000000 		.4byte	0xe5
 931 044f 0C0F     		.2byte	0xf0c
 932 0451 0C       		.uleb128 0xc
 933 0452 09130000 		.4byte	.LASF73
 934 0456 05       		.byte	0x5
 935 0457 57       		.byte	0x57
 936 0458 97050000 		.4byte	0x597
 937 045c 100F     		.2byte	0xf10
 938 045e 0C       		.uleb128 0xc
 939 045f D5110000 		.4byte	.LASF74
 940 0463 05       		.byte	0x5
 941 0464 58       		.byte	0x58
ARM GAS  C:\Users\Smaug\AppData\Local\Temp\ccJKcizn.s 			page 46


 942 0465 E0000000 		.4byte	0xe0
 943 0469 400F     		.2byte	0xf40
 944 046b 0C       		.uleb128 0xc
 945 046c 4D020000 		.4byte	.LASF75
 946 0470 05       		.byte	0x5
 947 0471 59       		.byte	0x59
 948 0472 E0000000 		.4byte	0xe0
 949 0476 440F     		.2byte	0xf44
 950 0478 0C       		.uleb128 0xc
 951 0479 160A0000 		.4byte	.LASF76
 952 047d 05       		.byte	0x5
 953 047e 5A       		.byte	0x5a
 954 047f E0000000 		.4byte	0xe0
 955 0483 480F     		.2byte	0xf48
 956 0485 0C       		.uleb128 0xc
 957 0486 C1080000 		.4byte	.LASF77
 958 048a 05       		.byte	0x5
 959 048b 5B       		.byte	0x5b
 960 048c E5000000 		.4byte	0xe5
 961 0490 4C0F     		.2byte	0xf4c
 962 0492 0C       		.uleb128 0xc
 963 0493 14130000 		.4byte	.LASF78
 964 0497 05       		.byte	0x5
 965 0498 5C       		.byte	0x5c
 966 0499 A1050000 		.4byte	0x5a1
 967 049d 500F     		.2byte	0xf50
 968 049f 0C       		.uleb128 0xc
 969 04a0 3C100000 		.4byte	.LASF79
 970 04a4 05       		.byte	0x5
 971 04a5 5D       		.byte	0x5d
 972 04a6 E0000000 		.4byte	0xe0
 973 04aa 800F     		.2byte	0xf80
 974 04ac 0C       		.uleb128 0xc
 975 04ad 2D070000 		.4byte	.LASF80
 976 04b1 05       		.byte	0x5
 977 04b2 5E       		.byte	0x5e
 978 04b3 E0000000 		.4byte	0xe0
 979 04b7 840F     		.2byte	0xf84
 980 04b9 0C       		.uleb128 0xc
 981 04ba D0000000 		.4byte	.LASF81
 982 04be 05       		.byte	0x5
 983 04bf 5F       		.byte	0x5f
 984 04c0 E0000000 		.4byte	0xe0
 985 04c4 880F     		.2byte	0xf88
 986 04c6 0C       		.uleb128 0xc
 987 04c7 C40F0000 		.4byte	.LASF82
 988 04cb 05       		.byte	0x5
 989 04cc 60       		.byte	0x60
 990 04cd E5000000 		.4byte	0xe5
 991 04d1 8C0F     		.2byte	0xf8c
 992 04d3 0C       		.uleb128 0xc
 993 04d4 1F130000 		.4byte	.LASF83
 994 04d8 05       		.byte	0x5
 995 04d9 61       		.byte	0x61
 996 04da AB050000 		.4byte	0x5ab
 997 04de 900F     		.2byte	0xf90
 998 04e0 0C       		.uleb128 0xc
ARM GAS  C:\Users\Smaug\AppData\Local\Temp\ccJKcizn.s 			page 47


 999 04e1 080D0000 		.4byte	.LASF84
 1000 04e5 05       		.byte	0x5
 1001 04e6 62       		.byte	0x62
 1002 04e7 E0000000 		.4byte	0xe0
 1003 04eb C00F     		.2byte	0xfc0
 1004 04ed 0C       		.uleb128 0xc
 1005 04ee B1140000 		.4byte	.LASF85
 1006 04f2 05       		.byte	0x5
 1007 04f3 63       		.byte	0x63
 1008 04f4 E0000000 		.4byte	0xe0
 1009 04f8 C40F     		.2byte	0xfc4
 1010 04fa 0C       		.uleb128 0xc
 1011 04fb 16140000 		.4byte	.LASF86
 1012 04ff 05       		.byte	0x5
 1013 0500 64       		.byte	0x64
 1014 0501 E0000000 		.4byte	0xe0
 1015 0505 C80F     		.2byte	0xfc8
 1016 0507 0C       		.uleb128 0xc
 1017 0508 7E020000 		.4byte	.LASF87
 1018 050c 05       		.byte	0x5
 1019 050d 65       		.byte	0x65
 1020 050e E5000000 		.4byte	0xe5
 1021 0512 CC0F     		.2byte	0xfcc
 1022 0514 00       		.byte	0
 1023 0515 05       		.uleb128 0x5
 1024 0516 EA000000 		.4byte	0xea
 1025 051a 06       		.uleb128 0x6
 1026 051b 15050000 		.4byte	0x515
 1027 051f 05       		.uleb128 0x5
 1028 0520 FA000000 		.4byte	0xfa
 1029 0524 06       		.uleb128 0x6
 1030 0525 1F050000 		.4byte	0x51f
 1031 0529 05       		.uleb128 0x5
 1032 052a 3A010000 		.4byte	0x13a
 1033 052e 06       		.uleb128 0x6
 1034 052f 29050000 		.4byte	0x529
 1035 0533 05       		.uleb128 0x5
 1036 0534 9B010000 		.4byte	0x19b
 1037 0538 06       		.uleb128 0x6
 1038 0539 33050000 		.4byte	0x533
 1039 053d 05       		.uleb128 0x5
 1040 053e 1A010000 		.4byte	0x11a
 1041 0542 06       		.uleb128 0x6
 1042 0543 3D050000 		.4byte	0x53d
 1043 0547 05       		.uleb128 0x5
 1044 0548 6A010000 		.4byte	0x16a
 1045 054c 06       		.uleb128 0x6
 1046 054d 47050000 		.4byte	0x547
 1047 0551 05       		.uleb128 0x5
 1048 0552 5A010000 		.4byte	0x15a
 1049 0556 06       		.uleb128 0x6
 1050 0557 51050000 		.4byte	0x551
 1051 055b 05       		.uleb128 0x5
 1052 055c 7A010000 		.4byte	0x17a
 1053 0560 06       		.uleb128 0x6
 1054 0561 5B050000 		.4byte	0x55b
 1055 0565 05       		.uleb128 0x5
ARM GAS  C:\Users\Smaug\AppData\Local\Temp\ccJKcizn.s 			page 48


 1056 0566 8A010000 		.4byte	0x18a
 1057 056a 05       		.uleb128 0x5
 1058 056b 0A010000 		.4byte	0x10a
 1059 056f 06       		.uleb128 0x6
 1060 0570 6A050000 		.4byte	0x56a
 1061 0574 05       		.uleb128 0x5
 1062 0575 2A010000 		.4byte	0x12a
 1063 0579 06       		.uleb128 0x6
 1064 057a 74050000 		.4byte	0x574
 1065 057e 05       		.uleb128 0x5
 1066 057f 4A010000 		.4byte	0x14a
 1067 0583 06       		.uleb128 0x6
 1068 0584 7E050000 		.4byte	0x57e
 1069 0588 05       		.uleb128 0x5
 1070 0589 4A010000 		.4byte	0x14a
 1071 058d 06       		.uleb128 0x6
 1072 058e 88050000 		.4byte	0x588
 1073 0592 05       		.uleb128 0x5
 1074 0593 4A010000 		.4byte	0x14a
 1075 0597 06       		.uleb128 0x6
 1076 0598 92050000 		.4byte	0x592
 1077 059c 05       		.uleb128 0x5
 1078 059d 4A010000 		.4byte	0x14a
 1079 05a1 06       		.uleb128 0x6
 1080 05a2 9C050000 		.4byte	0x59c
 1081 05a6 05       		.uleb128 0x5
 1082 05a7 4A010000 		.4byte	0x14a
 1083 05ab 06       		.uleb128 0x6
 1084 05ac A6050000 		.4byte	0x5a6
 1085 05b0 03       		.uleb128 0x3
 1086 05b1 F3090000 		.4byte	.LASF88
 1087 05b5 05       		.byte	0x5
 1088 05b6 66       		.byte	0x66
 1089 05b7 AB010000 		.4byte	0x1ab
 1090 05bb 0D       		.uleb128 0xd
 1091 05bc CD040000 		.4byte	.LASF89
 1092 05c0 06       		.byte	0x6
 1093 05c1 4F06     		.2byte	0x64f
 1094 05c3 B0050000 		.4byte	0x5b0
 1095 05c7 02       		.uleb128 0x2
 1096 05c8 08       		.byte	0x8
 1097 05c9 04       		.byte	0x4
 1098 05ca 9D0D0000 		.4byte	.LASF90
 1099 05ce 0E       		.uleb128 0xe
 1100 05cf B8       		.byte	0xb8
 1101 05d0 07       		.byte	0x7
 1102 05d1 34       		.byte	0x34
 1103 05d2 DF090000 		.4byte	0x9df
 1104 05d6 0B       		.uleb128 0xb
 1105 05d7 08020000 		.4byte	.LASF91
 1106 05db 07       		.byte	0x7
 1107 05dc 37       		.byte	0x37
 1108 05dd CE000000 		.4byte	0xce
 1109 05e1 00       		.byte	0
 1110 05e2 0B       		.uleb128 0xb
 1111 05e3 E6000000 		.4byte	.LASF92
 1112 05e7 07       		.byte	0x7
ARM GAS  C:\Users\Smaug\AppData\Local\Temp\ccJKcizn.s 			page 49


 1113 05e8 38       		.byte	0x38
 1114 05e9 CE000000 		.4byte	0xce
 1115 05ed 04       		.byte	0x4
 1116 05ee 0B       		.uleb128 0xb
 1117 05ef DD000000 		.4byte	.LASF93
 1118 05f3 07       		.byte	0x7
 1119 05f4 39       		.byte	0x39
 1120 05f5 CE000000 		.4byte	0xce
 1121 05f9 08       		.byte	0x8
 1122 05fa 0B       		.uleb128 0xb
 1123 05fb 9A060000 		.4byte	.LASF94
 1124 05ff 07       		.byte	0x7
 1125 0600 3A       		.byte	0x3a
 1126 0601 CE000000 		.4byte	0xce
 1127 0605 0C       		.byte	0xc
 1128 0606 0B       		.uleb128 0xb
 1129 0607 F30F0000 		.4byte	.LASF95
 1130 060b 07       		.byte	0x7
 1131 060c 3B       		.byte	0x3b
 1132 060d CE000000 		.4byte	0xce
 1133 0611 10       		.byte	0x10
 1134 0612 0B       		.uleb128 0xb
 1135 0613 2C0C0000 		.4byte	.LASF96
 1136 0617 07       		.byte	0x7
 1137 0618 3C       		.byte	0x3c
 1138 0619 CE000000 		.4byte	0xce
 1139 061d 14       		.byte	0x14
 1140 061e 0B       		.uleb128 0xb
 1141 061f 9F080000 		.4byte	.LASF97
 1142 0623 07       		.byte	0x7
 1143 0624 3D       		.byte	0x3d
 1144 0625 CE000000 		.4byte	0xce
 1145 0629 18       		.byte	0x18
 1146 062a 0B       		.uleb128 0xb
 1147 062b 94140000 		.4byte	.LASF98
 1148 062f 07       		.byte	0x7
 1149 0630 3E       		.byte	0x3e
 1150 0631 CE000000 		.4byte	0xce
 1151 0635 1C       		.byte	0x1c
 1152 0636 0B       		.uleb128 0xb
 1153 0637 710B0000 		.4byte	.LASF99
 1154 063b 07       		.byte	0x7
 1155 063c 3F       		.byte	0x3f
 1156 063d CE000000 		.4byte	0xce
 1157 0641 20       		.byte	0x20
 1158 0642 0B       		.uleb128 0xb
 1159 0643 64090000 		.4byte	.LASF100
 1160 0647 07       		.byte	0x7
 1161 0648 40       		.byte	0x40
 1162 0649 CE000000 		.4byte	0xce
 1163 064d 24       		.byte	0x24
 1164 064e 0B       		.uleb128 0xb
 1165 064f 910F0000 		.4byte	.LASF101
 1166 0653 07       		.byte	0x7
 1167 0654 43       		.byte	0x43
 1168 0655 A2000000 		.4byte	0xa2
 1169 0659 28       		.byte	0x28
ARM GAS  C:\Users\Smaug\AppData\Local\Temp\ccJKcizn.s 			page 50


 1170 065a 0B       		.uleb128 0xb
 1171 065b 97050000 		.4byte	.LASF102
 1172 065f 07       		.byte	0x7
 1173 0660 44       		.byte	0x44
 1174 0661 A2000000 		.4byte	0xa2
 1175 0665 29       		.byte	0x29
 1176 0666 0B       		.uleb128 0xb
 1177 0667 CF080000 		.4byte	.LASF103
 1178 066b 07       		.byte	0x7
 1179 066c 45       		.byte	0x45
 1180 066d A2000000 		.4byte	0xa2
 1181 0671 2A       		.byte	0x2a
 1182 0672 0B       		.uleb128 0xb
 1183 0673 D30F0000 		.4byte	.LASF104
 1184 0677 07       		.byte	0x7
 1185 0678 46       		.byte	0x46
 1186 0679 A2000000 		.4byte	0xa2
 1187 067d 2B       		.byte	0x2b
 1188 067e 0B       		.uleb128 0xb
 1189 067f B80F0000 		.4byte	.LASF105
 1190 0683 07       		.byte	0x7
 1191 0684 47       		.byte	0x47
 1192 0685 A2000000 		.4byte	0xa2
 1193 0689 2C       		.byte	0x2c
 1194 068a 0B       		.uleb128 0xb
 1195 068b 8A110000 		.4byte	.LASF106
 1196 068f 07       		.byte	0x7
 1197 0690 48       		.byte	0x48
 1198 0691 A2000000 		.4byte	0xa2
 1199 0695 2D       		.byte	0x2d
 1200 0696 0B       		.uleb128 0xb
 1201 0697 93150000 		.4byte	.LASF107
 1202 069b 07       		.byte	0x7
 1203 069c 49       		.byte	0x49
 1204 069d A2000000 		.4byte	0xa2
 1205 06a1 2E       		.byte	0x2e
 1206 06a2 0B       		.uleb128 0xb
 1207 06a3 7A140000 		.4byte	.LASF108
 1208 06a7 07       		.byte	0x7
 1209 06a8 4A       		.byte	0x4a
 1210 06a9 A2000000 		.4byte	0xa2
 1211 06ad 2F       		.byte	0x2f
 1212 06ae 0B       		.uleb128 0xb
 1213 06af 46040000 		.4byte	.LASF109
 1214 06b3 07       		.byte	0x7
 1215 06b4 4B       		.byte	0x4b
 1216 06b5 A2000000 		.4byte	0xa2
 1217 06b9 30       		.byte	0x30
 1218 06ba 0B       		.uleb128 0xb
 1219 06bb B80C0000 		.4byte	.LASF110
 1220 06bf 07       		.byte	0x7
 1221 06c0 4E       		.byte	0x4e
 1222 06c1 A2000000 		.4byte	0xa2
 1223 06c5 31       		.byte	0x31
 1224 06c6 0B       		.uleb128 0xb
 1225 06c7 08140000 		.4byte	.LASF111
 1226 06cb 07       		.byte	0x7
ARM GAS  C:\Users\Smaug\AppData\Local\Temp\ccJKcizn.s 			page 51


 1227 06cc 4F       		.byte	0x4f
 1228 06cd A2000000 		.4byte	0xa2
 1229 06d1 32       		.byte	0x32
 1230 06d2 0B       		.uleb128 0xb
 1231 06d3 8D0C0000 		.4byte	.LASF112
 1232 06d7 07       		.byte	0x7
 1233 06d8 50       		.byte	0x50
 1234 06d9 A2000000 		.4byte	0xa2
 1235 06dd 33       		.byte	0x33
 1236 06de 0B       		.uleb128 0xb
 1237 06df 95090000 		.4byte	.LASF113
 1238 06e3 07       		.byte	0x7
 1239 06e4 51       		.byte	0x51
 1240 06e5 A2000000 		.4byte	0xa2
 1241 06e9 34       		.byte	0x34
 1242 06ea 0B       		.uleb128 0xb
 1243 06eb 6C060000 		.4byte	.LASF114
 1244 06ef 07       		.byte	0x7
 1245 06f0 52       		.byte	0x52
 1246 06f1 AD000000 		.4byte	0xad
 1247 06f5 36       		.byte	0x36
 1248 06f6 0B       		.uleb128 0xb
 1249 06f7 42020000 		.4byte	.LASF115
 1250 06fb 07       		.byte	0x7
 1251 06fc 53       		.byte	0x53
 1252 06fd AD000000 		.4byte	0xad
 1253 0701 38       		.byte	0x38
 1254 0702 0B       		.uleb128 0xb
 1255 0703 510C0000 		.4byte	.LASF116
 1256 0707 07       		.byte	0x7
 1257 0708 54       		.byte	0x54
 1258 0709 AD000000 		.4byte	0xad
 1259 070d 3A       		.byte	0x3a
 1260 070e 0B       		.uleb128 0xb
 1261 070f 5D060000 		.4byte	.LASF117
 1262 0713 07       		.byte	0x7
 1263 0714 55       		.byte	0x55
 1264 0715 A2000000 		.4byte	0xa2
 1265 0719 3C       		.byte	0x3c
 1266 071a 0B       		.uleb128 0xb
 1267 071b B6070000 		.4byte	.LASF118
 1268 071f 07       		.byte	0x7
 1269 0720 56       		.byte	0x56
 1270 0721 A2000000 		.4byte	0xa2
 1271 0725 3D       		.byte	0x3d
 1272 0726 0B       		.uleb128 0xb
 1273 0727 2F0E0000 		.4byte	.LASF119
 1274 072b 07       		.byte	0x7
 1275 072c 57       		.byte	0x57
 1276 072d A2000000 		.4byte	0xa2
 1277 0731 3E       		.byte	0x3e
 1278 0732 0B       		.uleb128 0xb
 1279 0733 75110000 		.4byte	.LASF120
 1280 0737 07       		.byte	0x7
 1281 0738 58       		.byte	0x58
 1282 0739 A2000000 		.4byte	0xa2
 1283 073d 3F       		.byte	0x3f
ARM GAS  C:\Users\Smaug\AppData\Local\Temp\ccJKcizn.s 			page 52


 1284 073e 0B       		.uleb128 0xb
 1285 073f 85010000 		.4byte	.LASF121
 1286 0743 07       		.byte	0x7
 1287 0744 59       		.byte	0x59
 1288 0745 A2000000 		.4byte	0xa2
 1289 0749 40       		.byte	0x40
 1290 074a 0B       		.uleb128 0xb
 1291 074b CD0C0000 		.4byte	.LASF122
 1292 074f 07       		.byte	0x7
 1293 0750 5A       		.byte	0x5a
 1294 0751 A2000000 		.4byte	0xa2
 1295 0755 41       		.byte	0x41
 1296 0756 0B       		.uleb128 0xb
 1297 0757 B3050000 		.4byte	.LASF123
 1298 075b 07       		.byte	0x7
 1299 075c 5B       		.byte	0x5b
 1300 075d A2000000 		.4byte	0xa2
 1301 0761 42       		.byte	0x42
 1302 0762 0B       		.uleb128 0xb
 1303 0763 EF080000 		.4byte	.LASF124
 1304 0767 07       		.byte	0x7
 1305 0768 5C       		.byte	0x5c
 1306 0769 A2000000 		.4byte	0xa2
 1307 076d 43       		.byte	0x43
 1308 076e 0B       		.uleb128 0xb
 1309 076f 220A0000 		.4byte	.LASF125
 1310 0773 07       		.byte	0x7
 1311 0774 5D       		.byte	0x5d
 1312 0775 A2000000 		.4byte	0xa2
 1313 0779 44       		.byte	0x44
 1314 077a 0B       		.uleb128 0xb
 1315 077b E10F0000 		.4byte	.LASF126
 1316 077f 07       		.byte	0x7
 1317 0780 5E       		.byte	0x5e
 1318 0781 CE000000 		.4byte	0xce
 1319 0785 48       		.byte	0x48
 1320 0786 0B       		.uleb128 0xb
 1321 0787 09030000 		.4byte	.LASF127
 1322 078b 07       		.byte	0x7
 1323 078c 5F       		.byte	0x5f
 1324 078d CE000000 		.4byte	0xce
 1325 0791 4C       		.byte	0x4c
 1326 0792 0B       		.uleb128 0xb
 1327 0793 A2130000 		.4byte	.LASF128
 1328 0797 07       		.byte	0x7
 1329 0798 60       		.byte	0x60
 1330 0799 A2000000 		.4byte	0xa2
 1331 079d 50       		.byte	0x50
 1332 079e 0B       		.uleb128 0xb
 1333 079f D9070000 		.4byte	.LASF129
 1334 07a3 07       		.byte	0x7
 1335 07a4 61       		.byte	0x61
 1336 07a5 A2000000 		.4byte	0xa2
 1337 07a9 51       		.byte	0x51
 1338 07aa 0B       		.uleb128 0xb
 1339 07ab D40B0000 		.4byte	.LASF130
 1340 07af 07       		.byte	0x7
ARM GAS  C:\Users\Smaug\AppData\Local\Temp\ccJKcizn.s 			page 53


 1341 07b0 62       		.byte	0x62
 1342 07b1 A2000000 		.4byte	0xa2
 1343 07b5 52       		.byte	0x52
 1344 07b6 0B       		.uleb128 0xb
 1345 07b7 2E0D0000 		.4byte	.LASF131
 1346 07bb 07       		.byte	0x7
 1347 07bc 63       		.byte	0x63
 1348 07bd A2000000 		.4byte	0xa2
 1349 07c1 53       		.byte	0x53
 1350 07c2 0B       		.uleb128 0xb
 1351 07c3 57070000 		.4byte	.LASF132
 1352 07c7 07       		.byte	0x7
 1353 07c8 64       		.byte	0x64
 1354 07c9 A2000000 		.4byte	0xa2
 1355 07cd 54       		.byte	0x54
 1356 07ce 0B       		.uleb128 0xb
 1357 07cf 6A080000 		.4byte	.LASF133
 1358 07d3 07       		.byte	0x7
 1359 07d4 65       		.byte	0x65
 1360 07d5 A2000000 		.4byte	0xa2
 1361 07d9 55       		.byte	0x55
 1362 07da 0B       		.uleb128 0xb
 1363 07db C4130000 		.4byte	.LASF134
 1364 07df 07       		.byte	0x7
 1365 07e0 66       		.byte	0x66
 1366 07e1 A2000000 		.4byte	0xa2
 1367 07e5 56       		.byte	0x56
 1368 07e6 0B       		.uleb128 0xb
 1369 07e7 9D140000 		.4byte	.LASF135
 1370 07eb 07       		.byte	0x7
 1371 07ec 67       		.byte	0x67
 1372 07ed A2000000 		.4byte	0xa2
 1373 07f1 57       		.byte	0x57
 1374 07f2 0B       		.uleb128 0xb
 1375 07f3 8A070000 		.4byte	.LASF136
 1376 07f7 07       		.byte	0x7
 1377 07f8 68       		.byte	0x68
 1378 07f9 A2000000 		.4byte	0xa2
 1379 07fd 58       		.byte	0x58
 1380 07fe 0B       		.uleb128 0xb
 1381 07ff FC140000 		.4byte	.LASF137
 1382 0803 07       		.byte	0x7
 1383 0804 69       		.byte	0x69
 1384 0805 A2000000 		.4byte	0xa2
 1385 0809 59       		.byte	0x59
 1386 080a 0B       		.uleb128 0xb
 1387 080b F3130000 		.4byte	.LASF138
 1388 080f 07       		.byte	0x7
 1389 0810 6E       		.byte	0x6e
 1390 0811 B8000000 		.4byte	0xb8
 1391 0815 5A       		.byte	0x5a
 1392 0816 0B       		.uleb128 0xb
 1393 0817 F8000000 		.4byte	.LASF139
 1394 081b 07       		.byte	0x7
 1395 081c 6F       		.byte	0x6f
 1396 081d B8000000 		.4byte	0xb8
 1397 0821 5C       		.byte	0x5c
ARM GAS  C:\Users\Smaug\AppData\Local\Temp\ccJKcizn.s 			page 54


 1398 0822 0B       		.uleb128 0xb
 1399 0823 790B0000 		.4byte	.LASF140
 1400 0827 07       		.byte	0x7
 1401 0828 70       		.byte	0x70
 1402 0829 A2000000 		.4byte	0xa2
 1403 082d 5E       		.byte	0x5e
 1404 082e 0B       		.uleb128 0xb
 1405 082f 5B0E0000 		.4byte	.LASF141
 1406 0833 07       		.byte	0x7
 1407 0834 71       		.byte	0x71
 1408 0835 A2000000 		.4byte	0xa2
 1409 0839 5F       		.byte	0x5f
 1410 083a 0B       		.uleb128 0xb
 1411 083b 0E090000 		.4byte	.LASF142
 1412 083f 07       		.byte	0x7
 1413 0840 72       		.byte	0x72
 1414 0841 A2000000 		.4byte	0xa2
 1415 0845 60       		.byte	0x60
 1416 0846 0B       		.uleb128 0xb
 1417 0847 950A0000 		.4byte	.LASF143
 1418 084b 07       		.byte	0x7
 1419 084c 73       		.byte	0x73
 1420 084d CE000000 		.4byte	0xce
 1421 0851 64       		.byte	0x64
 1422 0852 0B       		.uleb128 0xb
 1423 0853 A7150000 		.4byte	.LASF144
 1424 0857 07       		.byte	0x7
 1425 0858 76       		.byte	0x76
 1426 0859 B8000000 		.4byte	0xb8
 1427 085d 68       		.byte	0x68
 1428 085e 0B       		.uleb128 0xb
 1429 085f FA0D0000 		.4byte	.LASF145
 1430 0863 07       		.byte	0x7
 1431 0864 77       		.byte	0x77
 1432 0865 B8000000 		.4byte	0xb8
 1433 0869 6A       		.byte	0x6a
 1434 086a 0B       		.uleb128 0xb
 1435 086b 420C0000 		.4byte	.LASF146
 1436 086f 07       		.byte	0x7
 1437 0870 78       		.byte	0x78
 1438 0871 B8000000 		.4byte	0xb8
 1439 0875 6C       		.byte	0x6c
 1440 0876 0B       		.uleb128 0xb
 1441 0877 CE020000 		.4byte	.LASF147
 1442 087b 07       		.byte	0x7
 1443 087c 79       		.byte	0x79
 1444 087d B8000000 		.4byte	0xb8
 1445 0881 6E       		.byte	0x6e
 1446 0882 0B       		.uleb128 0xb
 1447 0883 E20A0000 		.4byte	.LASF148
 1448 0887 07       		.byte	0x7
 1449 0888 7B       		.byte	0x7b
 1450 0889 A2000000 		.4byte	0xa2
 1451 088d 70       		.byte	0x70
 1452 088e 0B       		.uleb128 0xb
 1453 088f A2040000 		.4byte	.LASF149
 1454 0893 07       		.byte	0x7
ARM GAS  C:\Users\Smaug\AppData\Local\Temp\ccJKcizn.s 			page 55


 1455 0894 7C       		.byte	0x7c
 1456 0895 A2000000 		.4byte	0xa2
 1457 0899 71       		.byte	0x71
 1458 089a 0B       		.uleb128 0xb
 1459 089b DB020000 		.4byte	.LASF150
 1460 089f 07       		.byte	0x7
 1461 08a0 7D       		.byte	0x7d
 1462 08a1 A2000000 		.4byte	0xa2
 1463 08a5 72       		.byte	0x72
 1464 08a6 0B       		.uleb128 0xb
 1465 08a7 AC010000 		.4byte	.LASF151
 1466 08ab 07       		.byte	0x7
 1467 08ac 7E       		.byte	0x7e
 1468 08ad A2000000 		.4byte	0xa2
 1469 08b1 73       		.byte	0x73
 1470 08b2 0B       		.uleb128 0xb
 1471 08b3 EA0E0000 		.4byte	.LASF152
 1472 08b7 07       		.byte	0x7
 1473 08b8 80       		.byte	0x80
 1474 08b9 B8000000 		.4byte	0xb8
 1475 08bd 74       		.byte	0x74
 1476 08be 0B       		.uleb128 0xb
 1477 08bf 400D0000 		.4byte	.LASF153
 1478 08c3 07       		.byte	0x7
 1479 08c4 81       		.byte	0x81
 1480 08c5 B8000000 		.4byte	0xb8
 1481 08c9 76       		.byte	0x76
 1482 08ca 0B       		.uleb128 0xb
 1483 08cb C7140000 		.4byte	.LASF154
 1484 08cf 07       		.byte	0x7
 1485 08d0 82       		.byte	0x82
 1486 08d1 B8000000 		.4byte	0xb8
 1487 08d5 78       		.byte	0x78
 1488 08d6 0B       		.uleb128 0xb
 1489 08d7 B10B0000 		.4byte	.LASF155
 1490 08db 07       		.byte	0x7
 1491 08dc 83       		.byte	0x83
 1492 08dd B8000000 		.4byte	0xb8
 1493 08e1 7A       		.byte	0x7a
 1494 08e2 0B       		.uleb128 0xb
 1495 08e3 D1100000 		.4byte	.LASF156
 1496 08e7 07       		.byte	0x7
 1497 08e8 86       		.byte	0x86
 1498 08e9 A2000000 		.4byte	0xa2
 1499 08ed 7C       		.byte	0x7c
 1500 08ee 0B       		.uleb128 0xb
 1501 08ef B3130000 		.4byte	.LASF157
 1502 08f3 07       		.byte	0x7
 1503 08f4 87       		.byte	0x87
 1504 08f5 A2000000 		.4byte	0xa2
 1505 08f9 7D       		.byte	0x7d
 1506 08fa 0B       		.uleb128 0xb
 1507 08fb 09060000 		.4byte	.LASF158
 1508 08ff 07       		.byte	0x7
 1509 0900 88       		.byte	0x88
 1510 0901 A2000000 		.4byte	0xa2
 1511 0905 7E       		.byte	0x7e
ARM GAS  C:\Users\Smaug\AppData\Local\Temp\ccJKcizn.s 			page 56


 1512 0906 0B       		.uleb128 0xb
 1513 0907 54050000 		.4byte	.LASF159
 1514 090b 07       		.byte	0x7
 1515 090c 89       		.byte	0x89
 1516 090d A2000000 		.4byte	0xa2
 1517 0911 7F       		.byte	0x7f
 1518 0912 0B       		.uleb128 0xb
 1519 0913 49060000 		.4byte	.LASF160
 1520 0917 07       		.byte	0x7
 1521 0918 8A       		.byte	0x8a
 1522 0919 A2000000 		.4byte	0xa2
 1523 091d 80       		.byte	0x80
 1524 091e 0B       		.uleb128 0xb
 1525 091f 68000000 		.4byte	.LASF161
 1526 0923 07       		.byte	0x7
 1527 0924 8D       		.byte	0x8d
 1528 0925 CE000000 		.4byte	0xce
 1529 0929 84       		.byte	0x84
 1530 092a 0B       		.uleb128 0xb
 1531 092b 04110000 		.4byte	.LASF162
 1532 092f 07       		.byte	0x7
 1533 0930 8E       		.byte	0x8e
 1534 0931 CE000000 		.4byte	0xce
 1535 0935 88       		.byte	0x88
 1536 0936 0B       		.uleb128 0xb
 1537 0937 DD0D0000 		.4byte	.LASF163
 1538 093b 07       		.byte	0x7
 1539 093c 8F       		.byte	0x8f
 1540 093d CE000000 		.4byte	0xce
 1541 0941 8C       		.byte	0x8c
 1542 0942 0B       		.uleb128 0xb
 1543 0943 17120000 		.4byte	.LASF164
 1544 0947 07       		.byte	0x7
 1545 0948 90       		.byte	0x90
 1546 0949 CE000000 		.4byte	0xce
 1547 094d 90       		.byte	0x90
 1548 094e 0B       		.uleb128 0xb
 1549 094f 64100000 		.4byte	.LASF165
 1550 0953 07       		.byte	0x7
 1551 0954 91       		.byte	0x91
 1552 0955 CE000000 		.4byte	0xce
 1553 0959 94       		.byte	0x94
 1554 095a 0B       		.uleb128 0xb
 1555 095b B7040000 		.4byte	.LASF166
 1556 095f 07       		.byte	0x7
 1557 0960 92       		.byte	0x92
 1558 0961 CE000000 		.4byte	0xce
 1559 0965 98       		.byte	0x98
 1560 0966 0B       		.uleb128 0xb
 1561 0967 44110000 		.4byte	.LASF167
 1562 096b 07       		.byte	0x7
 1563 096c 93       		.byte	0x93
 1564 096d CE000000 		.4byte	0xce
 1565 0971 9C       		.byte	0x9c
 1566 0972 0B       		.uleb128 0xb
 1567 0973 D9080000 		.4byte	.LASF168
 1568 0977 07       		.byte	0x7
ARM GAS  C:\Users\Smaug\AppData\Local\Temp\ccJKcizn.s 			page 57


 1569 0978 94       		.byte	0x94
 1570 0979 CE000000 		.4byte	0xce
 1571 097d A0       		.byte	0xa0
 1572 097e 0B       		.uleb128 0xb
 1573 097f EF100000 		.4byte	.LASF169
 1574 0983 07       		.byte	0x7
 1575 0984 95       		.byte	0x95
 1576 0985 B8000000 		.4byte	0xb8
 1577 0989 A4       		.byte	0xa4
 1578 098a 0B       		.uleb128 0xb
 1579 098b C40E0000 		.4byte	.LASF170
 1580 098f 07       		.byte	0x7
 1581 0990 96       		.byte	0x96
 1582 0991 B8000000 		.4byte	0xb8
 1583 0995 A6       		.byte	0xa6
 1584 0996 0B       		.uleb128 0xb
 1585 0997 C9110000 		.4byte	.LASF171
 1586 099b 07       		.byte	0x7
 1587 099c 97       		.byte	0x97
 1588 099d B8000000 		.4byte	0xb8
 1589 09a1 A8       		.byte	0xa8
 1590 09a2 0B       		.uleb128 0xb
 1591 09a3 410B0000 		.4byte	.LASF172
 1592 09a7 07       		.byte	0x7
 1593 09a8 98       		.byte	0x98
 1594 09a9 B8000000 		.4byte	0xb8
 1595 09ad AA       		.byte	0xaa
 1596 09ae 0B       		.uleb128 0xb
 1597 09af 25030000 		.4byte	.LASF173
 1598 09b3 07       		.byte	0x7
 1599 09b4 99       		.byte	0x99
 1600 09b5 B8000000 		.4byte	0xb8
 1601 09b9 AC       		.byte	0xac
 1602 09ba 0B       		.uleb128 0xb
 1603 09bb EE0C0000 		.4byte	.LASF174
 1604 09bf 07       		.byte	0x7
 1605 09c0 9A       		.byte	0x9a
 1606 09c1 B8000000 		.4byte	0xb8
 1607 09c5 AE       		.byte	0xae
 1608 09c6 0B       		.uleb128 0xb
 1609 09c7 3D030000 		.4byte	.LASF175
 1610 09cb 07       		.byte	0x7
 1611 09cc 9D       		.byte	0x9d
 1612 09cd B8000000 		.4byte	0xb8
 1613 09d1 B0       		.byte	0xb0
 1614 09d2 0B       		.uleb128 0xb
 1615 09d3 B3120000 		.4byte	.LASF176
 1616 09d7 07       		.byte	0x7
 1617 09d8 9E       		.byte	0x9e
 1618 09d9 CE000000 		.4byte	0xce
 1619 09dd B4       		.byte	0xb4
 1620 09de 00       		.byte	0
 1621 09df 03       		.uleb128 0x3
 1622 09e0 56140000 		.4byte	.LASF177
 1623 09e4 07       		.byte	0x7
 1624 09e5 9F       		.byte	0x9f
 1625 09e6 CE050000 		.4byte	0x5ce
ARM GAS  C:\Users\Smaug\AppData\Local\Temp\ccJKcizn.s 			page 58


 1626 09ea 0D       		.uleb128 0xd
 1627 09eb 0B100000 		.4byte	.LASF178
 1628 09ef 08       		.byte	0x8
 1629 09f0 F601     		.2byte	0x1f6
 1630 09f2 F6090000 		.4byte	0x9f6
 1631 09f6 02       		.uleb128 0x2
 1632 09f7 01       		.byte	0x1
 1633 09f8 08       		.byte	0x8
 1634 09f9 D7090000 		.4byte	.LASF179
 1635 09fd 02       		.uleb128 0x2
 1636 09fe 04       		.byte	0x4
 1637 09ff 04       		.byte	0x4
 1638 0a00 7C050000 		.4byte	.LASF180
 1639 0a04 02       		.uleb128 0x2
 1640 0a05 08       		.byte	0x8
 1641 0a06 04       		.byte	0x4
 1642 0a07 FA070000 		.4byte	.LASF181
 1643 0a0b 0F       		.uleb128 0xf
 1644 0a0c 04       		.byte	0x4
 1645 0a0d 02       		.uleb128 0x2
 1646 0a0e 01       		.byte	0x1
 1647 0a0f 02       		.byte	0x2
 1648 0a10 0D080000 		.4byte	.LASF182
 1649 0a14 10       		.uleb128 0x10
 1650 0a15 01       		.byte	0x1
 1651 0a16 3E000000 		.4byte	0x3e
 1652 0a1a 09       		.byte	0x9
 1653 0a1b 1304     		.2byte	0x413
 1654 0a1d 3A0A0000 		.4byte	0xa3a
 1655 0a21 11       		.uleb128 0x11
 1656 0a22 F1020000 		.4byte	.LASF183
 1657 0a26 00       		.byte	0
 1658 0a27 11       		.uleb128 0x11
 1659 0a28 B4060000 		.4byte	.LASF184
 1660 0a2c 01       		.byte	0x1
 1661 0a2d 11       		.uleb128 0x11
 1662 0a2e BF090000 		.4byte	.LASF185
 1663 0a32 02       		.byte	0x2
 1664 0a33 11       		.uleb128 0x11
 1665 0a34 92010000 		.4byte	.LASF186
 1666 0a38 03       		.byte	0x3
 1667 0a39 00       		.byte	0
 1668 0a3a 0D       		.uleb128 0xd
 1669 0a3b 49150000 		.4byte	.LASF187
 1670 0a3f 09       		.byte	0x9
 1671 0a40 1804     		.2byte	0x418
 1672 0a42 140A0000 		.4byte	0xa14
 1673 0a46 12       		.uleb128 0x12
 1674 0a47 78       		.byte	0x78
 1675 0a48 09       		.byte	0x9
 1676 0a49 0205     		.2byte	0x502
 1677 0a4b 130B0000 		.4byte	0xb13
 1678 0a4f 13       		.uleb128 0x13
 1679 0a50 11070000 		.4byte	.LASF188
 1680 0a54 09       		.byte	0x9
 1681 0a55 0405     		.2byte	0x504
 1682 0a57 CE000000 		.4byte	0xce
ARM GAS  C:\Users\Smaug\AppData\Local\Temp\ccJKcizn.s 			page 59


 1683 0a5b 00       		.byte	0
 1684 0a5c 13       		.uleb128 0x13
 1685 0a5d 2C120000 		.4byte	.LASF189
 1686 0a61 09       		.byte	0x9
 1687 0a62 0505     		.2byte	0x505
 1688 0a64 CE000000 		.4byte	0xce
 1689 0a68 04       		.byte	0x4
 1690 0a69 13       		.uleb128 0x13
 1691 0a6a 190E0000 		.4byte	.LASF190
 1692 0a6e 09       		.byte	0x9
 1693 0a6f 0605     		.2byte	0x506
 1694 0a71 CE000000 		.4byte	0xce
 1695 0a75 08       		.byte	0x8
 1696 0a76 13       		.uleb128 0x13
 1697 0a77 5A110000 		.4byte	.LASF191
 1698 0a7b 09       		.byte	0x9
 1699 0a7c 0705     		.2byte	0x507
 1700 0a7e CE000000 		.4byte	0xce
 1701 0a82 0C       		.byte	0xc
 1702 0a83 13       		.uleb128 0x13
 1703 0a84 8F060000 		.4byte	.LASF192
 1704 0a88 09       		.byte	0x9
 1705 0a89 0805     		.2byte	0x508
 1706 0a8b CE000000 		.4byte	0xce
 1707 0a8f 10       		.byte	0x10
 1708 0a90 13       		.uleb128 0x13
 1709 0a91 370B0000 		.4byte	.LASF193
 1710 0a95 09       		.byte	0x9
 1711 0a96 0905     		.2byte	0x509
 1712 0a98 3A0A0000 		.4byte	0xa3a
 1713 0a9c 14       		.byte	0x14
 1714 0a9d 13       		.uleb128 0x13
 1715 0a9e 010A0000 		.4byte	.LASF194
 1716 0aa2 09       		.byte	0x9
 1717 0aa3 0A05     		.2byte	0x50a
 1718 0aa5 CE000000 		.4byte	0xce
 1719 0aa9 18       		.byte	0x18
 1720 0aaa 13       		.uleb128 0x13
 1721 0aab 11050000 		.4byte	.LASF195
 1722 0aaf 09       		.byte	0x9
 1723 0ab0 0B05     		.2byte	0x50b
 1724 0ab2 130B0000 		.4byte	0xb13
 1725 0ab6 1C       		.byte	0x1c
 1726 0ab7 13       		.uleb128 0x13
 1727 0ab8 9E150000 		.4byte	.LASF196
 1728 0abc 09       		.byte	0x9
 1729 0abd 0C05     		.2byte	0x50c
 1730 0abf CE000000 		.4byte	0xce
 1731 0ac3 5C       		.byte	0x5c
 1732 0ac4 13       		.uleb128 0x13
 1733 0ac5 A6090000 		.4byte	.LASF197
 1734 0ac9 09       		.byte	0x9
 1735 0aca 0D05     		.2byte	0x50d
 1736 0acc CE000000 		.4byte	0xce
 1737 0ad0 60       		.byte	0x60
 1738 0ad1 13       		.uleb128 0x13
 1739 0ad2 17150000 		.4byte	.LASF198
ARM GAS  C:\Users\Smaug\AppData\Local\Temp\ccJKcizn.s 			page 60


 1740 0ad6 09       		.byte	0x9
 1741 0ad7 0E05     		.2byte	0x50e
 1742 0ad9 CE000000 		.4byte	0xce
 1743 0add 64       		.byte	0x64
 1744 0ade 13       		.uleb128 0x13
 1745 0adf 710E0000 		.4byte	.LASF199
 1746 0ae3 09       		.byte	0x9
 1747 0ae4 0F05     		.2byte	0x50f
 1748 0ae6 CE000000 		.4byte	0xce
 1749 0aea 68       		.byte	0x68
 1750 0aeb 13       		.uleb128 0x13
 1751 0aec 080B0000 		.4byte	.LASF200
 1752 0af0 09       		.byte	0x9
 1753 0af1 1005     		.2byte	0x510
 1754 0af3 CE000000 		.4byte	0xce
 1755 0af7 6C       		.byte	0x6c
 1756 0af8 13       		.uleb128 0x13
 1757 0af9 86140000 		.4byte	.LASF201
 1758 0afd 09       		.byte	0x9
 1759 0afe 1105     		.2byte	0x511
 1760 0b00 0D0A0000 		.4byte	0xa0d
 1761 0b04 70       		.byte	0x70
 1762 0b05 13       		.uleb128 0x13
 1763 0b06 58090000 		.4byte	.LASF202
 1764 0b0a 09       		.byte	0x9
 1765 0b0b 1205     		.2byte	0x512
 1766 0b0d CE000000 		.4byte	0xce
 1767 0b11 74       		.byte	0x74
 1768 0b12 00       		.byte	0
 1769 0b13 07       		.uleb128 0x7
 1770 0b14 CE000000 		.4byte	0xce
 1771 0b18 230B0000 		.4byte	0xb23
 1772 0b1c 08       		.uleb128 0x8
 1773 0b1d D9000000 		.4byte	0xd9
 1774 0b21 0F       		.byte	0xf
 1775 0b22 00       		.byte	0
 1776 0b23 0D       		.uleb128 0xd
 1777 0b24 EF060000 		.4byte	.LASF203
 1778 0b28 09       		.byte	0x9
 1779 0b29 1305     		.2byte	0x513
 1780 0b2b 460A0000 		.4byte	0xa46
 1781 0b2f 10       		.uleb128 0x10
 1782 0b30 01       		.byte	0x1
 1783 0b31 3E000000 		.4byte	0x3e
 1784 0b35 0A       		.byte	0xa
 1785 0b36 2402     		.2byte	0x224
 1786 0b38 490B0000 		.4byte	0xb49
 1787 0b3c 11       		.uleb128 0x11
 1788 0b3d 8D020000 		.4byte	.LASF204
 1789 0b41 00       		.byte	0
 1790 0b42 11       		.uleb128 0x11
 1791 0b43 4B030000 		.4byte	.LASF205
 1792 0b47 01       		.byte	0x1
 1793 0b48 00       		.byte	0
 1794 0b49 0D       		.uleb128 0xd
 1795 0b4a 9E070000 		.4byte	.LASF206
 1796 0b4e 0A       		.byte	0xa
ARM GAS  C:\Users\Smaug\AppData\Local\Temp\ccJKcizn.s 			page 61


 1797 0b4f 2702     		.2byte	0x227
 1798 0b51 2F0B0000 		.4byte	0xb2f
 1799 0b55 0D       		.uleb128 0xd
 1800 0b56 4C010000 		.4byte	.LASF207
 1801 0b5a 0A       		.byte	0xa
 1802 0b5b 3902     		.2byte	0x239
 1803 0b5d 610B0000 		.4byte	0xb61
 1804 0b61 14       		.uleb128 0x14
 1805 0b62 04       		.byte	0x4
 1806 0b63 670B0000 		.4byte	0xb67
 1807 0b67 15       		.uleb128 0x15
 1808 0b68 720B0000 		.4byte	0xb72
 1809 0b6c 16       		.uleb128 0x16
 1810 0b6d CE000000 		.4byte	0xce
 1811 0b71 00       		.byte	0
 1812 0b72 0D       		.uleb128 0xd
 1813 0b73 65030000 		.4byte	.LASF208
 1814 0b77 0A       		.byte	0xa
 1815 0b78 4402     		.2byte	0x244
 1816 0b7a 7E0B0000 		.4byte	0xb7e
 1817 0b7e 14       		.uleb128 0x14
 1818 0b7f 04       		.byte	0x4
 1819 0b80 840B0000 		.4byte	0xb84
 1820 0b84 17       		.uleb128 0x17
 1821 0b85 490B0000 		.4byte	0xb49
 1822 0b89 930B0000 		.4byte	0xb93
 1823 0b8d 16       		.uleb128 0x16
 1824 0b8e CE000000 		.4byte	0xce
 1825 0b92 00       		.byte	0
 1826 0b93 18       		.uleb128 0x18
 1827 0b94 52040000 		.4byte	.LASF249
 1828 0b98 4C       		.byte	0x4c
 1829 0b99 0A       		.byte	0xa
 1830 0b9a C302     		.2byte	0x2c3
 1831 0b9c B20C0000 		.4byte	0xcb2
 1832 0ba0 13       		.uleb128 0x13
 1833 0ba1 88080000 		.4byte	.LASF209
 1834 0ba5 0A       		.byte	0xa
 1835 0ba6 C602     		.2byte	0x2c6
 1836 0ba8 0D0A0000 		.4byte	0xa0d
 1837 0bac 00       		.byte	0
 1838 0bad 13       		.uleb128 0x13
 1839 0bae FF0B0000 		.4byte	.LASF210
 1840 0bb2 0A       		.byte	0xa
 1841 0bb3 C702     		.2byte	0x2c7
 1842 0bb5 0D0A0000 		.4byte	0xa0d
 1843 0bb9 01       		.byte	0x1
 1844 0bba 13       		.uleb128 0x13
 1845 0bbb 44130000 		.4byte	.LASF211
 1846 0bbf 0A       		.byte	0xa
 1847 0bc0 C902     		.2byte	0x2c9
 1848 0bc2 E0000000 		.4byte	0xe0
 1849 0bc6 04       		.byte	0x4
 1850 0bc7 13       		.uleb128 0x13
 1851 0bc8 8F000000 		.4byte	.LASF212
 1852 0bcc 0A       		.byte	0xa
 1853 0bcd CB02     		.2byte	0x2cb
ARM GAS  C:\Users\Smaug\AppData\Local\Temp\ccJKcizn.s 			page 62


 1854 0bcf E0000000 		.4byte	0xe0
 1855 0bd3 08       		.byte	0x8
 1856 0bd4 13       		.uleb128 0x13
 1857 0bd5 FC0C0000 		.4byte	.LASF213
 1858 0bd9 0A       		.byte	0xa
 1859 0bda CC02     		.2byte	0x2cc
 1860 0bdc 0D0A0000 		.4byte	0xa0d
 1861 0be0 0C       		.byte	0xc
 1862 0be1 13       		.uleb128 0x13
 1863 0be2 360C0000 		.4byte	.LASF214
 1864 0be6 0A       		.byte	0xa
 1865 0be7 CD02     		.2byte	0x2cd
 1866 0be9 0D0A0000 		.4byte	0xa0d
 1867 0bed 0D       		.byte	0xd
 1868 0bee 13       		.uleb128 0x13
 1869 0bef 0C0E0000 		.4byte	.LASF215
 1870 0bf3 0A       		.byte	0xa
 1871 0bf4 CF02     		.2byte	0x2cf
 1872 0bf6 B20C0000 		.4byte	0xcb2
 1873 0bfa 10       		.byte	0x10
 1874 0bfb 13       		.uleb128 0x13
 1875 0bfc 330A0000 		.4byte	.LASF216
 1876 0c00 0A       		.byte	0xa
 1877 0c01 D002     		.2byte	0x2d0
 1878 0c03 CE000000 		.4byte	0xce
 1879 0c07 14       		.byte	0x14
 1880 0c08 13       		.uleb128 0x13
 1881 0c09 6A010000 		.4byte	.LASF217
 1882 0c0d 0A       		.byte	0xa
 1883 0c0e D102     		.2byte	0x2d1
 1884 0c10 E0000000 		.4byte	0xe0
 1885 0c14 18       		.byte	0x18
 1886 0c15 13       		.uleb128 0x13
 1887 0c16 6F090000 		.4byte	.LASF218
 1888 0c1a 0A       		.byte	0xa
 1889 0c1b D202     		.2byte	0x2d2
 1890 0c1d E0000000 		.4byte	0xe0
 1891 0c21 1C       		.byte	0x1c
 1892 0c22 13       		.uleb128 0x13
 1893 0c23 21010000 		.4byte	.LASF219
 1894 0c27 0A       		.byte	0xa
 1895 0c28 D402     		.2byte	0x2d4
 1896 0c2a E0000000 		.4byte	0xe0
 1897 0c2e 20       		.byte	0x20
 1898 0c2f 13       		.uleb128 0x13
 1899 0c30 DF060000 		.4byte	.LASF220
 1900 0c34 0A       		.byte	0xa
 1901 0c35 D502     		.2byte	0x2d5
 1902 0c37 B80C0000 		.4byte	0xcb8
 1903 0c3b 24       		.byte	0x24
 1904 0c3c 13       		.uleb128 0x13
 1905 0c3d EF040000 		.4byte	.LASF221
 1906 0c41 0A       		.byte	0xa
 1907 0c42 D702     		.2byte	0x2d7
 1908 0c44 B20C0000 		.4byte	0xcb2
 1909 0c48 28       		.byte	0x28
 1910 0c49 13       		.uleb128 0x13
ARM GAS  C:\Users\Smaug\AppData\Local\Temp\ccJKcizn.s 			page 63


 1911 0c4a A2060000 		.4byte	.LASF222
 1912 0c4e 0A       		.byte	0xa
 1913 0c4f D802     		.2byte	0x2d8
 1914 0c51 CE000000 		.4byte	0xce
 1915 0c55 2C       		.byte	0x2c
 1916 0c56 13       		.uleb128 0x13
 1917 0c57 1C050000 		.4byte	.LASF223
 1918 0c5b 0A       		.byte	0xa
 1919 0c5c D902     		.2byte	0x2d9
 1920 0c5e E0000000 		.4byte	0xe0
 1921 0c62 30       		.byte	0x30
 1922 0c63 13       		.uleb128 0x13
 1923 0c64 D10A0000 		.4byte	.LASF224
 1924 0c68 0A       		.byte	0xa
 1925 0c69 DA02     		.2byte	0x2da
 1926 0c6b E0000000 		.4byte	0xe0
 1927 0c6f 34       		.byte	0x34
 1928 0c70 13       		.uleb128 0x13
 1929 0c71 1E020000 		.4byte	.LASF225
 1930 0c75 0A       		.byte	0xa
 1931 0c76 DC02     		.2byte	0x2dc
 1932 0c78 B20C0000 		.4byte	0xcb2
 1933 0c7c 38       		.byte	0x38
 1934 0c7d 13       		.uleb128 0x13
 1935 0c7e 6E0D0000 		.4byte	.LASF226
 1936 0c82 0A       		.byte	0xa
 1937 0c83 DD02     		.2byte	0x2dd
 1938 0c85 CE000000 		.4byte	0xce
 1939 0c89 3C       		.byte	0x3c
 1940 0c8a 13       		.uleb128 0x13
 1941 0c8b DD0C0000 		.4byte	.LASF227
 1942 0c8f 0A       		.byte	0xa
 1943 0c90 DE02     		.2byte	0x2de
 1944 0c92 E0000000 		.4byte	0xe0
 1945 0c96 40       		.byte	0x40
 1946 0c97 13       		.uleb128 0x13
 1947 0c98 F1070000 		.4byte	.LASF228
 1948 0c9c 0A       		.byte	0xa
 1949 0c9d E402     		.2byte	0x2e4
 1950 0c9f 550B0000 		.4byte	0xb55
 1951 0ca3 44       		.byte	0x44
 1952 0ca4 13       		.uleb128 0x13
 1953 0ca5 77020000 		.4byte	.LASF229
 1954 0ca9 0A       		.byte	0xa
 1955 0caa EB02     		.2byte	0x2eb
 1956 0cac 720B0000 		.4byte	0xb72
 1957 0cb0 48       		.byte	0x48
 1958 0cb1 00       		.byte	0
 1959 0cb2 14       		.uleb128 0x14
 1960 0cb3 04       		.byte	0x4
 1961 0cb4 A2000000 		.4byte	0xa2
 1962 0cb8 05       		.uleb128 0x5
 1963 0cb9 0D0A0000 		.4byte	0xa0d
 1964 0cbd 0D       		.uleb128 0xd
 1965 0cbe E3140000 		.4byte	.LASF230
 1966 0cc2 0A       		.byte	0xa
 1967 0cc3 EE02     		.2byte	0x2ee
ARM GAS  C:\Users\Smaug\AppData\Local\Temp\ccJKcizn.s 			page 64


 1968 0cc5 930B0000 		.4byte	0xb93
 1969 0cc9 10       		.uleb128 0x10
 1970 0cca 04       		.byte	0x4
 1971 0ccb 9B000000 		.4byte	0x9b
 1972 0ccf 02       		.byte	0x2
 1973 0cd0 9B01     		.2byte	0x19b
 1974 0cd2 EF0C0000 		.4byte	0xcef
 1975 0cd6 11       		.uleb128 0x11
 1976 0cd7 A60A0000 		.4byte	.LASF231
 1977 0cdb 00       		.byte	0
 1978 0cdc 19       		.uleb128 0x19
 1979 0cdd 93120000 		.4byte	.LASF232
 1980 0ce1 0140AA00 		.4byte	0xaa4001
 1981 0ce5 19       		.uleb128 0x19
 1982 0ce6 C4050000 		.4byte	.LASF233
 1983 0cea 0240AA00 		.4byte	0xaa4002
 1984 0cee 00       		.byte	0
 1985 0cef 0D       		.uleb128 0xd
 1986 0cf0 77130000 		.4byte	.LASF234
 1987 0cf4 02       		.byte	0x2
 1988 0cf5 A601     		.2byte	0x1a6
 1989 0cf7 C90C0000 		.4byte	0xcc9
 1990 0cfb 10       		.uleb128 0x10
 1991 0cfc 01       		.byte	0x1
 1992 0cfd 3E000000 		.4byte	0x3e
 1993 0d01 02       		.byte	0x2
 1994 0d02 AA01     		.2byte	0x1aa
 1995 0d04 150D0000 		.4byte	0xd15
 1996 0d08 11       		.uleb128 0x11
 1997 0d09 57000000 		.4byte	.LASF235
 1998 0d0d 00       		.byte	0
 1999 0d0e 11       		.uleb128 0x11
 2000 0d0f CD060000 		.4byte	.LASF236
 2001 0d13 01       		.byte	0x1
 2002 0d14 00       		.byte	0
 2003 0d15 0D       		.uleb128 0xd
 2004 0d16 70120000 		.4byte	.LASF237
 2005 0d1a 02       		.byte	0x2
 2006 0d1b AD01     		.2byte	0x1ad
 2007 0d1d FB0C0000 		.4byte	0xcfb
 2008 0d21 10       		.uleb128 0x10
 2009 0d22 01       		.byte	0x1
 2010 0d23 3E000000 		.4byte	0x3e
 2011 0d27 02       		.byte	0x2
 2012 0d28 B101     		.2byte	0x1b1
 2013 0d2a 470D0000 		.4byte	0xd47
 2014 0d2e 11       		.uleb128 0x11
 2015 0d2f 76040000 		.4byte	.LASF238
 2016 0d33 00       		.byte	0
 2017 0d34 11       		.uleb128 0x11
 2018 0d35 100D0000 		.4byte	.LASF239
 2019 0d39 01       		.byte	0x1
 2020 0d3a 11       		.uleb128 0x11
 2021 0d3b 8E130000 		.4byte	.LASF240
 2022 0d3f 02       		.byte	0x2
 2023 0d40 11       		.uleb128 0x11
 2024 0d41 7E090000 		.4byte	.LASF241
ARM GAS  C:\Users\Smaug\AppData\Local\Temp\ccJKcizn.s 			page 65


 2025 0d45 05       		.byte	0x5
 2026 0d46 00       		.byte	0
 2027 0d47 0D       		.uleb128 0xd
 2028 0d48 25150000 		.4byte	.LASF242
 2029 0d4c 02       		.byte	0x2
 2030 0d4d C601     		.2byte	0x1c6
 2031 0d4f 210D0000 		.4byte	0xd21
 2032 0d53 10       		.uleb128 0x10
 2033 0d54 01       		.byte	0x1
 2034 0d55 3E000000 		.4byte	0x3e
 2035 0d59 02       		.byte	0x2
 2036 0d5a CA01     		.2byte	0x1ca
 2037 0d5c 790D0000 		.4byte	0xd79
 2038 0d60 11       		.uleb128 0x11
 2039 0d61 42120000 		.4byte	.LASF243
 2040 0d65 00       		.byte	0
 2041 0d66 11       		.uleb128 0x11
 2042 0d67 59120000 		.4byte	.LASF244
 2043 0d6b 01       		.byte	0x1
 2044 0d6c 11       		.uleb128 0x11
 2045 0d6d 2A090000 		.4byte	.LASF245
 2046 0d71 02       		.byte	0x2
 2047 0d72 11       		.uleb128 0x11
 2048 0d73 41090000 		.4byte	.LASF246
 2049 0d77 03       		.byte	0x3
 2050 0d78 00       		.byte	0
 2051 0d79 0D       		.uleb128 0xd
 2052 0d7a 70070000 		.4byte	.LASF247
 2053 0d7e 02       		.byte	0x2
 2054 0d7f CF01     		.2byte	0x1cf
 2055 0d81 530D0000 		.4byte	0xd53
 2056 0d85 0D       		.uleb128 0xd
 2057 0d86 09000000 		.4byte	.LASF248
 2058 0d8a 02       		.byte	0x2
 2059 0d8b F201     		.2byte	0x1f2
 2060 0d8d 610B0000 		.4byte	0xb61
 2061 0d91 18       		.uleb128 0x18
 2062 0d92 2C020000 		.4byte	.LASF250
 2063 0d96 34       		.byte	0x34
 2064 0d97 02       		.byte	0x2
 2065 0d98 F601     		.2byte	0x1f6
 2066 0d9a 890E0000 		.4byte	0xe89
 2067 0d9e 13       		.uleb128 0x13
 2068 0d9f D8130000 		.4byte	.LASF251
 2069 0da3 02       		.byte	0x2
 2070 0da4 F901     		.2byte	0x1f9
 2071 0da6 150D0000 		.4byte	0xd15
 2072 0daa 00       		.byte	0
 2073 0dab 13       		.uleb128 0x13
 2074 0dac FA080000 		.4byte	.LASF252
 2075 0db0 02       		.byte	0x2
 2076 0db1 FC01     		.2byte	0x1fc
 2077 0db3 470D0000 		.4byte	0xd47
 2078 0db7 01       		.byte	0x1
 2079 0db8 13       		.uleb128 0x13
 2080 0db9 260E0000 		.4byte	.LASF253
 2081 0dbd 02       		.byte	0x2
ARM GAS  C:\Users\Smaug\AppData\Local\Temp\ccJKcizn.s 			page 66


 2082 0dbe 0202     		.2byte	0x202
 2083 0dc0 790D0000 		.4byte	0xd79
 2084 0dc4 02       		.byte	0x2
 2085 0dc5 13       		.uleb128 0x13
 2086 0dc6 3E150000 		.4byte	.LASF254
 2087 0dca 02       		.byte	0x2
 2088 0dcb 0C02     		.2byte	0x20c
 2089 0dcd CE000000 		.4byte	0xce
 2090 0dd1 04       		.byte	0x4
 2091 0dd2 13       		.uleb128 0x13
 2092 0dd3 01080000 		.4byte	.LASF255
 2093 0dd7 02       		.byte	0x2
 2094 0dd8 1202     		.2byte	0x212
 2095 0dda CE000000 		.4byte	0xce
 2096 0dde 08       		.byte	0x8
 2097 0ddf 13       		.uleb128 0x13
 2098 0de0 AB000000 		.4byte	.LASF256
 2099 0de4 02       		.byte	0x2
 2100 0de5 1802     		.2byte	0x218
 2101 0de7 CE000000 		.4byte	0xce
 2102 0deb 0C       		.byte	0xc
 2103 0dec 13       		.uleb128 0x13
 2104 0ded 9C000000 		.4byte	.LASF257
 2105 0df1 02       		.byte	0x2
 2106 0df2 1E02     		.2byte	0x21e
 2107 0df4 0D0A0000 		.4byte	0xa0d
 2108 0df8 10       		.byte	0x10
 2109 0df9 13       		.uleb128 0x13
 2110 0dfa 18100000 		.4byte	.LASF258
 2111 0dfe 02       		.byte	0x2
 2112 0dff 2402     		.2byte	0x224
 2113 0e01 0D0A0000 		.4byte	0xa0d
 2114 0e05 11       		.byte	0x11
 2115 0e06 13       		.uleb128 0x13
 2116 0e07 B4020000 		.4byte	.LASF259
 2117 0e0b 02       		.byte	0x2
 2118 0e0c 2A02     		.2byte	0x22a
 2119 0e0e 0D0A0000 		.4byte	0xa0d
 2120 0e12 12       		.byte	0x12
 2121 0e13 13       		.uleb128 0x13
 2122 0e14 82050000 		.4byte	.LASF260
 2123 0e18 02       		.byte	0x2
 2124 0e19 3002     		.2byte	0x230
 2125 0e1b 0D0A0000 		.4byte	0xa0d
 2126 0e1f 13       		.byte	0x13
 2127 0e20 13       		.uleb128 0x13
 2128 0e21 A9110000 		.4byte	.LASF261
 2129 0e25 02       		.byte	0x2
 2130 0e26 3702     		.2byte	0x237
 2131 0e28 0D0A0000 		.4byte	0xa0d
 2132 0e2c 14       		.byte	0x14
 2133 0e2d 13       		.uleb128 0x13
 2134 0e2e 5A030000 		.4byte	.LASF262
 2135 0e32 02       		.byte	0x2
 2136 0e33 3E02     		.2byte	0x23e
 2137 0e35 CE000000 		.4byte	0xce
 2138 0e39 18       		.byte	0x18
ARM GAS  C:\Users\Smaug\AppData\Local\Temp\ccJKcizn.s 			page 67


 2139 0e3a 13       		.uleb128 0x13
 2140 0e3b 68050000 		.4byte	.LASF263
 2141 0e3f 02       		.byte	0x2
 2142 0e40 4602     		.2byte	0x246
 2143 0e42 0D0A0000 		.4byte	0xa0d
 2144 0e46 1C       		.byte	0x1c
 2145 0e47 13       		.uleb128 0x13
 2146 0e48 36050000 		.4byte	.LASF264
 2147 0e4c 02       		.byte	0x2
 2148 0e4d 4E02     		.2byte	0x24e
 2149 0e4f CE000000 		.4byte	0xce
 2150 0e53 20       		.byte	0x20
 2151 0e54 13       		.uleb128 0x13
 2152 0e55 77150000 		.4byte	.LASF265
 2153 0e59 02       		.byte	0x2
 2154 0e5a 5402     		.2byte	0x254
 2155 0e5c CE000000 		.4byte	0xce
 2156 0e60 24       		.byte	0x24
 2157 0e61 13       		.uleb128 0x13
 2158 0e62 04120000 		.4byte	.LASF266
 2159 0e66 02       		.byte	0x2
 2160 0e67 5C02     		.2byte	0x25c
 2161 0e69 CE000000 		.4byte	0xce
 2162 0e6d 28       		.byte	0x28
 2163 0e6e 13       		.uleb128 0x13
 2164 0e6f 3A080000 		.4byte	.LASF267
 2165 0e73 02       		.byte	0x2
 2166 0e74 6202     		.2byte	0x262
 2167 0e76 CE000000 		.4byte	0xce
 2168 0e7a 2C       		.byte	0x2c
 2169 0e7b 13       		.uleb128 0x13
 2170 0e7c 9B100000 		.4byte	.LASF268
 2171 0e80 02       		.byte	0x2
 2172 0e81 6902     		.2byte	0x269
 2173 0e83 CE000000 		.4byte	0xce
 2174 0e87 30       		.byte	0x30
 2175 0e88 00       		.byte	0
 2176 0e89 0D       		.uleb128 0xd
 2177 0e8a 27000000 		.4byte	.LASF269
 2178 0e8e 02       		.byte	0x2
 2179 0e8f 6B02     		.2byte	0x26b
 2180 0e91 910D0000 		.4byte	0xd91
 2181 0e95 18       		.uleb128 0x18
 2182 0e96 1B110000 		.4byte	.LASF270
 2183 0e9a 24       		.byte	0x24
 2184 0e9b 02       		.byte	0x2
 2185 0e9c 7402     		.2byte	0x274
 2186 0e9e 180F0000 		.4byte	0xf18
 2187 0ea2 13       		.uleb128 0x13
 2188 0ea3 C10A0000 		.4byte	.LASF271
 2189 0ea7 02       		.byte	0x2
 2190 0ea8 7702     		.2byte	0x277
 2191 0eaa E0000000 		.4byte	0xe0
 2192 0eae 00       		.byte	0
 2193 0eaf 13       		.uleb128 0x13
 2194 0eb0 EB070000 		.4byte	.LASF272
 2195 0eb4 02       		.byte	0x2
ARM GAS  C:\Users\Smaug\AppData\Local\Temp\ccJKcizn.s 			page 68


 2196 0eb5 7902     		.2byte	0x279
 2197 0eb7 0B0A0000 		.4byte	0xa0b
 2198 0ebb 04       		.byte	0x4
 2199 0ebc 13       		.uleb128 0x13
 2200 0ebd B7150000 		.4byte	.LASF273
 2201 0ec1 02       		.byte	0x2
 2202 0ec2 7A02     		.2byte	0x27a
 2203 0ec4 CE000000 		.4byte	0xce
 2204 0ec8 08       		.byte	0x8
 2205 0ec9 13       		.uleb128 0x13
 2206 0eca 6B0A0000 		.4byte	.LASF274
 2207 0ece 02       		.byte	0x2
 2208 0ecf 7B02     		.2byte	0x27b
 2209 0ed1 E0000000 		.4byte	0xe0
 2210 0ed5 0C       		.byte	0xc
 2211 0ed6 13       		.uleb128 0x13
 2212 0ed7 280D0000 		.4byte	.LASF275
 2213 0edb 02       		.byte	0x2
 2214 0edc 7D02     		.2byte	0x27d
 2215 0ede 0B0A0000 		.4byte	0xa0b
 2216 0ee2 10       		.byte	0x10
 2217 0ee3 13       		.uleb128 0x13
 2218 0ee4 AE0C0000 		.4byte	.LASF276
 2219 0ee8 02       		.byte	0x2
 2220 0ee9 7E02     		.2byte	0x27e
 2221 0eeb CE000000 		.4byte	0xce
 2222 0eef 14       		.byte	0x14
 2223 0ef0 13       		.uleb128 0x13
 2224 0ef1 C3010000 		.4byte	.LASF277
 2225 0ef5 02       		.byte	0x2
 2226 0ef6 7F02     		.2byte	0x27f
 2227 0ef8 E0000000 		.4byte	0xe0
 2228 0efc 18       		.byte	0x18
 2229 0efd 13       		.uleb128 0x13
 2230 0efe F1070000 		.4byte	.LASF228
 2231 0f02 02       		.byte	0x2
 2232 0f03 8502     		.2byte	0x285
 2233 0f05 850D0000 		.4byte	0xd85
 2234 0f09 1C       		.byte	0x1c
 2235 0f0a 13       		.uleb128 0x13
 2236 0f0b 8D0A0000 		.4byte	.LASF278
 2237 0f0f 02       		.byte	0x2
 2238 0f10 8802     		.2byte	0x288
 2239 0f12 CE000000 		.4byte	0xce
 2240 0f16 20       		.byte	0x20
 2241 0f17 00       		.byte	0
 2242 0f18 0D       		.uleb128 0xd
 2243 0f19 660C0000 		.4byte	.LASF279
 2244 0f1d 02       		.byte	0x2
 2245 0f1e 8B02     		.2byte	0x28b
 2246 0f20 950E0000 		.4byte	0xe95
 2247 0f24 0D       		.uleb128 0xd
 2248 0f25 180B0000 		.4byte	.LASF280
 2249 0f29 0B       		.byte	0xb
 2250 0f2a D901     		.2byte	0x1d9
 2251 0f2c 610B0000 		.4byte	0xb61
 2252 0f30 18       		.uleb128 0x18
ARM GAS  C:\Users\Smaug\AppData\Local\Temp\ccJKcizn.s 			page 69


 2253 0f31 DD050000 		.4byte	.LASF281
 2254 0f35 38       		.byte	0x38
 2255 0f36 0B       		.byte	0xb
 2256 0f37 7502     		.2byte	0x275
 2257 0f39 F40F0000 		.4byte	0xff4
 2258 0f3d 13       		.uleb128 0x13
 2259 0f3e B7000000 		.4byte	.LASF282
 2260 0f42 0B       		.byte	0xb
 2261 0f43 7802     		.2byte	0x278
 2262 0f45 E0000000 		.4byte	0xe0
 2263 0f49 00       		.byte	0
 2264 0f4a 13       		.uleb128 0x13
 2265 0f4b 67070000 		.4byte	.LASF283
 2266 0f4f 0B       		.byte	0xb
 2267 0f50 7902     		.2byte	0x279
 2268 0f52 E0000000 		.4byte	0xe0
 2269 0f56 04       		.byte	0x4
 2270 0f57 13       		.uleb128 0x13
 2271 0f58 930D0000 		.4byte	.LASF284
 2272 0f5c 0B       		.byte	0xb
 2273 0f5d 7B02     		.2byte	0x27b
 2274 0f5f 0B0A0000 		.4byte	0xa0b
 2275 0f63 08       		.byte	0x8
 2276 0f64 13       		.uleb128 0x13
 2277 0f65 A6020000 		.4byte	.LASF285
 2278 0f69 0B       		.byte	0xb
 2279 0f6a 7C02     		.2byte	0x27c
 2280 0f6c CE000000 		.4byte	0xce
 2281 0f70 0C       		.byte	0xc
 2282 0f71 13       		.uleb128 0x13
 2283 0f72 7F0C0000 		.4byte	.LASF286
 2284 0f76 0B       		.byte	0xb
 2285 0f77 7D02     		.2byte	0x27d
 2286 0f79 E0000000 		.4byte	0xe0
 2287 0f7d 10       		.byte	0x10
 2288 0f7e 13       		.uleb128 0x13
 2289 0f7f 080A0000 		.4byte	.LASF287
 2290 0f83 0B       		.byte	0xb
 2291 0f84 7E02     		.2byte	0x27e
 2292 0f86 E0000000 		.4byte	0xe0
 2293 0f8a 14       		.byte	0x14
 2294 0f8b 13       		.uleb128 0x13
 2295 0f8c EB070000 		.4byte	.LASF272
 2296 0f90 0B       		.byte	0xb
 2297 0f91 8002     		.2byte	0x280
 2298 0f93 0B0A0000 		.4byte	0xa0b
 2299 0f97 18       		.byte	0x18
 2300 0f98 13       		.uleb128 0x13
 2301 0f99 B7150000 		.4byte	.LASF273
 2302 0f9d 0B       		.byte	0xb
 2303 0f9e 8102     		.2byte	0x281
 2304 0fa0 CE000000 		.4byte	0xce
 2305 0fa4 1C       		.byte	0x1c
 2306 0fa5 13       		.uleb128 0x13
 2307 0fa6 6B0A0000 		.4byte	.LASF274
 2308 0faa 0B       		.byte	0xb
 2309 0fab 8202     		.2byte	0x282
ARM GAS  C:\Users\Smaug\AppData\Local\Temp\ccJKcizn.s 			page 70


 2310 0fad E0000000 		.4byte	0xe0
 2311 0fb1 20       		.byte	0x20
 2312 0fb2 13       		.uleb128 0x13
 2313 0fb3 280D0000 		.4byte	.LASF275
 2314 0fb7 0B       		.byte	0xb
 2315 0fb8 8402     		.2byte	0x284
 2316 0fba 0B0A0000 		.4byte	0xa0b
 2317 0fbe 24       		.byte	0x24
 2318 0fbf 13       		.uleb128 0x13
 2319 0fc0 AE0C0000 		.4byte	.LASF276
 2320 0fc4 0B       		.byte	0xb
 2321 0fc5 8502     		.2byte	0x285
 2322 0fc7 CE000000 		.4byte	0xce
 2323 0fcb 28       		.byte	0x28
 2324 0fcc 13       		.uleb128 0x13
 2325 0fcd 53100000 		.4byte	.LASF288
 2326 0fd1 0B       		.byte	0xb
 2327 0fd2 8602     		.2byte	0x286
 2328 0fd4 E0000000 		.4byte	0xe0
 2329 0fd8 2C       		.byte	0x2c
 2330 0fd9 13       		.uleb128 0x13
 2331 0fda F1070000 		.4byte	.LASF228
 2332 0fde 0B       		.byte	0xb
 2333 0fdf 8B02     		.2byte	0x28b
 2334 0fe1 240F0000 		.4byte	0xf24
 2335 0fe5 30       		.byte	0x30
 2336 0fe6 13       		.uleb128 0x13
 2337 0fe7 8D0A0000 		.4byte	.LASF278
 2338 0feb 0B       		.byte	0xb
 2339 0fec 8E02     		.2byte	0x28e
 2340 0fee CE000000 		.4byte	0xce
 2341 0ff2 34       		.byte	0x34
 2342 0ff3 00       		.byte	0
 2343 0ff4 0D       		.uleb128 0xd
 2344 0ff5 EE010000 		.4byte	.LASF289
 2345 0ff9 0B       		.byte	0xb
 2346 0ffa 9102     		.2byte	0x291
 2347 0ffc 300F0000 		.4byte	0xf30
 2348 1000 1A       		.uleb128 0x1a
 2349 1001 4E080000 		.4byte	.LASF290
 2350 1005 4C       		.byte	0x4c
 2351 1006 0C       		.byte	0xc
 2352 1007 2F       		.byte	0x2f
 2353 1008 F1100000 		.4byte	0x10f1
 2354 100c 0B       		.uleb128 0xb
 2355 100d EC130000 		.4byte	.LASF291
 2356 1011 0C       		.byte	0xc
 2357 1012 31       		.byte	0x31
 2358 1013 CE000000 		.4byte	0xce
 2359 1017 00       		.byte	0
 2360 1018 0B       		.uleb128 0xb
 2361 1019 570A0000 		.4byte	.LASF292
 2362 101d 0C       		.byte	0xc
 2363 101e 33       		.byte	0x33
 2364 101f CE000000 		.4byte	0xce
 2365 1023 04       		.byte	0x4
 2366 1024 0B       		.uleb128 0xb
ARM GAS  C:\Users\Smaug\AppData\Local\Temp\ccJKcizn.s 			page 71


 2367 1025 F20D0000 		.4byte	.LASF293
 2368 1029 0C       		.byte	0xc
 2369 102a 34       		.byte	0x34
 2370 102b CE000000 		.4byte	0xce
 2371 102f 08       		.byte	0x8
 2372 1030 0B       		.uleb128 0xb
 2373 1031 FC0F0000 		.4byte	.LASF294
 2374 1035 0C       		.byte	0xc
 2375 1036 35       		.byte	0x35
 2376 1037 CE000000 		.4byte	0xce
 2377 103b 0C       		.byte	0xc
 2378 103c 0B       		.uleb128 0xb
 2379 103d D90E0000 		.4byte	.LASF295
 2380 1041 0C       		.byte	0xc
 2381 1042 37       		.byte	0x37
 2382 1043 CE000000 		.4byte	0xce
 2383 1047 10       		.byte	0x10
 2384 1048 0B       		.uleb128 0xb
 2385 1049 81030000 		.4byte	.LASF296
 2386 104d 0C       		.byte	0xc
 2387 104e 38       		.byte	0x38
 2388 104f CE000000 		.4byte	0xce
 2389 1053 14       		.byte	0x14
 2390 1054 0B       		.uleb128 0xb
 2391 1055 8A030000 		.4byte	.LASF297
 2392 1059 0C       		.byte	0xc
 2393 105a 39       		.byte	0x39
 2394 105b CE000000 		.4byte	0xce
 2395 105f 18       		.byte	0x18
 2396 1060 0B       		.uleb128 0xb
 2397 1061 760F0000 		.4byte	.LASF298
 2398 1065 0C       		.byte	0xc
 2399 1066 3A       		.byte	0x3a
 2400 1067 0D0A0000 		.4byte	0xa0d
 2401 106b 1C       		.byte	0x1c
 2402 106c 0B       		.uleb128 0xb
 2403 106d 650F0000 		.4byte	.LASF299
 2404 1071 0C       		.byte	0xc
 2405 1072 3C       		.byte	0x3c
 2406 1073 CE000000 		.4byte	0xce
 2407 1077 20       		.byte	0x20
 2408 1078 0B       		.uleb128 0xb
 2409 1079 39070000 		.4byte	.LASF300
 2410 107d 0C       		.byte	0xc
 2411 107e 3D       		.byte	0x3d
 2412 107f CE000000 		.4byte	0xce
 2413 1083 24       		.byte	0x24
 2414 1084 0B       		.uleb128 0xb
 2415 1085 B2090000 		.4byte	.LASF301
 2416 1089 0C       		.byte	0xc
 2417 108a 3F       		.byte	0x3f
 2418 108b CE000000 		.4byte	0xce
 2419 108f 28       		.byte	0x28
 2420 1090 0B       		.uleb128 0xb
 2421 1091 990C0000 		.4byte	.LASF302
 2422 1095 0C       		.byte	0xc
 2423 1096 40       		.byte	0x40
ARM GAS  C:\Users\Smaug\AppData\Local\Temp\ccJKcizn.s 			page 72


 2424 1097 CE000000 		.4byte	0xce
 2425 109b 2C       		.byte	0x2c
 2426 109c 0B       		.uleb128 0xb
 2427 109d F5050000 		.4byte	.LASF303
 2428 10a1 0C       		.byte	0xc
 2429 10a2 42       		.byte	0x42
 2430 10a3 CE000000 		.4byte	0xce
 2431 10a7 30       		.byte	0x30
 2432 10a8 0B       		.uleb128 0xb
 2433 10a9 16070000 		.4byte	.LASF304
 2434 10ad 0C       		.byte	0xc
 2435 10ae 43       		.byte	0x43
 2436 10af CE000000 		.4byte	0xce
 2437 10b3 34       		.byte	0x34
 2438 10b4 0B       		.uleb128 0xb
 2439 10b5 CC010000 		.4byte	.LASF305
 2440 10b9 0C       		.byte	0xc
 2441 10ba 45       		.byte	0x45
 2442 10bb CE000000 		.4byte	0xce
 2443 10bf 38       		.byte	0x38
 2444 10c0 0B       		.uleb128 0xb
 2445 10c1 3F000000 		.4byte	.LASF306
 2446 10c5 0C       		.byte	0xc
 2447 10c6 46       		.byte	0x46
 2448 10c7 CE000000 		.4byte	0xce
 2449 10cb 3C       		.byte	0x3c
 2450 10cc 0B       		.uleb128 0xb
 2451 10cd 9C020000 		.4byte	.LASF307
 2452 10d1 0C       		.byte	0xc
 2453 10d2 48       		.byte	0x48
 2454 10d3 CE000000 		.4byte	0xce
 2455 10d7 40       		.byte	0x40
 2456 10d8 0B       		.uleb128 0xb
 2457 10d9 A90F0000 		.4byte	.LASF308
 2458 10dd 0C       		.byte	0xc
 2459 10de 49       		.byte	0x49
 2460 10df CE000000 		.4byte	0xce
 2461 10e3 44       		.byte	0x44
 2462 10e4 0B       		.uleb128 0xb
 2463 10e5 C7120000 		.4byte	.LASF309
 2464 10e9 0C       		.byte	0xc
 2465 10ea 4B       		.byte	0x4b
 2466 10eb CE000000 		.4byte	0xce
 2467 10ef 48       		.byte	0x48
 2468 10f0 00       		.byte	0
 2469 10f1 03       		.uleb128 0x3
 2470 10f2 3D0E0000 		.4byte	.LASF310
 2471 10f6 0C       		.byte	0xc
 2472 10f7 4C       		.byte	0x4c
 2473 10f8 00100000 		.4byte	0x1000
 2474 10fc 1A       		.uleb128 0x1a
 2475 10fd 8A040000 		.4byte	.LASF311
 2476 1101 64       		.byte	0x64
 2477 1102 0D       		.byte	0xd
 2478 1103 2F       		.byte	0x2f
 2479 1104 35120000 		.4byte	0x1235
 2480 1108 0B       		.uleb128 0xb
ARM GAS  C:\Users\Smaug\AppData\Local\Temp\ccJKcizn.s 			page 73


 2481 1109 C6020000 		.4byte	.LASF312
 2482 110d 0D       		.byte	0xd
 2483 110e 31       		.byte	0x31
 2484 110f CE000000 		.4byte	0xce
 2485 1113 00       		.byte	0
 2486 1114 0B       		.uleb128 0xb
 2487 1115 570A0000 		.4byte	.LASF292
 2488 1119 0D       		.byte	0xd
 2489 111a 33       		.byte	0x33
 2490 111b CE000000 		.4byte	0xce
 2491 111f 04       		.byte	0x4
 2492 1120 0B       		.uleb128 0xb
 2493 1121 B4080000 		.4byte	.LASF313
 2494 1125 0D       		.byte	0xd
 2495 1126 34       		.byte	0x34
 2496 1127 CE000000 		.4byte	0xce
 2497 112b 08       		.byte	0x8
 2498 112c 0B       		.uleb128 0xb
 2499 112d A20B0000 		.4byte	.LASF314
 2500 1131 0D       		.byte	0xd
 2501 1132 35       		.byte	0x35
 2502 1133 CE000000 		.4byte	0xce
 2503 1137 0C       		.byte	0xc
 2504 1138 0B       		.uleb128 0xb
 2505 1139 F20D0000 		.4byte	.LASF293
 2506 113d 0D       		.byte	0xd
 2507 113e 36       		.byte	0x36
 2508 113f CE000000 		.4byte	0xce
 2509 1143 10       		.byte	0x10
 2510 1144 0B       		.uleb128 0xb
 2511 1145 F70B0000 		.4byte	.LASF315
 2512 1149 0D       		.byte	0xd
 2513 114a 37       		.byte	0x37
 2514 114b CE000000 		.4byte	0xce
 2515 114f 14       		.byte	0x14
 2516 1150 0B       		.uleb128 0xb
 2517 1151 87060000 		.4byte	.LASF316
 2518 1155 0D       		.byte	0xd
 2519 1156 38       		.byte	0x38
 2520 1157 CE000000 		.4byte	0xce
 2521 115b 18       		.byte	0x18
 2522 115c 0B       		.uleb128 0xb
 2523 115d 910B0000 		.4byte	.LASF317
 2524 1161 0D       		.byte	0xd
 2525 1162 39       		.byte	0x39
 2526 1163 0D0A0000 		.4byte	0xa0d
 2527 1167 1C       		.byte	0x1c
 2528 1168 0B       		.uleb128 0xb
 2529 1169 81030000 		.4byte	.LASF296
 2530 116d 0D       		.byte	0xd
 2531 116e 3A       		.byte	0x3a
 2532 116f CE000000 		.4byte	0xce
 2533 1173 20       		.byte	0x20
 2534 1174 0B       		.uleb128 0xb
 2535 1175 8A030000 		.4byte	.LASF297
 2536 1179 0D       		.byte	0xd
 2537 117a 3B       		.byte	0x3b
ARM GAS  C:\Users\Smaug\AppData\Local\Temp\ccJKcizn.s 			page 74


 2538 117b CE000000 		.4byte	0xce
 2539 117f 24       		.byte	0x24
 2540 1180 0B       		.uleb128 0xb
 2541 1181 760F0000 		.4byte	.LASF298
 2542 1185 0D       		.byte	0xd
 2543 1186 3C       		.byte	0x3c
 2544 1187 0D0A0000 		.4byte	0xa0d
 2545 118b 28       		.byte	0x28
 2546 118c 0B       		.uleb128 0xb
 2547 118d 650F0000 		.4byte	.LASF299
 2548 1191 0D       		.byte	0xd
 2549 1192 3E       		.byte	0x3e
 2550 1193 CE000000 		.4byte	0xce
 2551 1197 2C       		.byte	0x2c
 2552 1198 0B       		.uleb128 0xb
 2553 1199 610D0000 		.4byte	.LASF318
 2554 119d 0D       		.byte	0xd
 2555 119e 3F       		.byte	0x3f
 2556 119f CE000000 		.4byte	0xce
 2557 11a3 30       		.byte	0x30
 2558 11a4 0B       		.uleb128 0xb
 2559 11a5 03070000 		.4byte	.LASF319
 2560 11a9 0D       		.byte	0xd
 2561 11aa 40       		.byte	0x40
 2562 11ab CE000000 		.4byte	0xce
 2563 11af 34       		.byte	0x34
 2564 11b0 0B       		.uleb128 0xb
 2565 11b1 5C0F0000 		.4byte	.LASF320
 2566 11b5 0D       		.byte	0xd
 2567 11b6 41       		.byte	0x41
 2568 11b7 CE000000 		.4byte	0xce
 2569 11bb 38       		.byte	0x38
 2570 11bc 0B       		.uleb128 0xb
 2571 11bd C60B0000 		.4byte	.LASF321
 2572 11c1 0D       		.byte	0xd
 2573 11c2 42       		.byte	0x42
 2574 11c3 CE000000 		.4byte	0xce
 2575 11c7 3C       		.byte	0x3c
 2576 11c8 0B       		.uleb128 0xb
 2577 11c9 7E080000 		.4byte	.LASF322
 2578 11cd 0D       		.byte	0xd
 2579 11ce 44       		.byte	0x44
 2580 11cf CE000000 		.4byte	0xce
 2581 11d3 40       		.byte	0x40
 2582 11d4 0B       		.uleb128 0xb
 2583 11d5 990C0000 		.4byte	.LASF302
 2584 11d9 0D       		.byte	0xd
 2585 11da 45       		.byte	0x45
 2586 11db CE000000 		.4byte	0xce
 2587 11df 44       		.byte	0x44
 2588 11e0 0B       		.uleb128 0xb
 2589 11e1 F5050000 		.4byte	.LASF303
 2590 11e5 0D       		.byte	0xd
 2591 11e6 47       		.byte	0x47
 2592 11e7 CE000000 		.4byte	0xce
 2593 11eb 48       		.byte	0x48
 2594 11ec 0B       		.uleb128 0xb
ARM GAS  C:\Users\Smaug\AppData\Local\Temp\ccJKcizn.s 			page 75


 2595 11ed 16070000 		.4byte	.LASF304
 2596 11f1 0D       		.byte	0xd
 2597 11f2 48       		.byte	0x48
 2598 11f3 CE000000 		.4byte	0xce
 2599 11f7 4C       		.byte	0x4c
 2600 11f8 0B       		.uleb128 0xb
 2601 11f9 CC010000 		.4byte	.LASF305
 2602 11fd 0D       		.byte	0xd
 2603 11fe 4A       		.byte	0x4a
 2604 11ff CE000000 		.4byte	0xce
 2605 1203 50       		.byte	0x50
 2606 1204 0B       		.uleb128 0xb
 2607 1205 67110000 		.4byte	.LASF323
 2608 1209 0D       		.byte	0xd
 2609 120a 4B       		.byte	0x4b
 2610 120b CE000000 		.4byte	0xce
 2611 120f 54       		.byte	0x54
 2612 1210 0B       		.uleb128 0xb
 2613 1211 3A110000 		.4byte	.LASF324
 2614 1215 0D       		.byte	0xd
 2615 1216 4D       		.byte	0x4d
 2616 1217 CE000000 		.4byte	0xce
 2617 121b 58       		.byte	0x58
 2618 121c 0B       		.uleb128 0xb
 2619 121d A90F0000 		.4byte	.LASF308
 2620 1221 0D       		.byte	0xd
 2621 1222 4E       		.byte	0x4e
 2622 1223 CE000000 		.4byte	0xce
 2623 1227 5C       		.byte	0x5c
 2624 1228 0B       		.uleb128 0xb
 2625 1229 C7120000 		.4byte	.LASF309
 2626 122d 0D       		.byte	0xd
 2627 122e 50       		.byte	0x50
 2628 122f CE000000 		.4byte	0xce
 2629 1233 60       		.byte	0x60
 2630 1234 00       		.byte	0
 2631 1235 03       		.uleb128 0x3
 2632 1236 C30D0000 		.4byte	.LASF325
 2633 123a 0D       		.byte	0xd
 2634 123b 51       		.byte	0x51
 2635 123c FC100000 		.4byte	0x10fc
 2636 1240 0E       		.uleb128 0xe
 2637 1241 14       		.byte	0x14
 2638 1242 0E       		.byte	0xe
 2639 1243 3B       		.byte	0x3b
 2640 1244 85120000 		.4byte	0x1285
 2641 1248 0B       		.uleb128 0xb
 2642 1249 12020000 		.4byte	.LASF326
 2643 124d 0E       		.byte	0xe
 2644 124e 3D       		.byte	0x3d
 2645 124f CE000000 		.4byte	0xce
 2646 1253 00       		.byte	0
 2647 1254 0B       		.uleb128 0xb
 2648 1255 1C060000 		.4byte	.LASF327
 2649 1259 0E       		.byte	0xe
 2650 125a 3E       		.byte	0x3e
 2651 125b CE000000 		.4byte	0xce
ARM GAS  C:\Users\Smaug\AppData\Local\Temp\ccJKcizn.s 			page 76


 2652 125f 04       		.byte	0x4
 2653 1260 0B       		.uleb128 0xb
 2654 1261 6B020000 		.4byte	.LASF328
 2655 1265 0E       		.byte	0xe
 2656 1266 3F       		.byte	0x3f
 2657 1267 85120000 		.4byte	0x1285
 2658 126b 08       		.byte	0x8
 2659 126c 0B       		.uleb128 0xb
 2660 126d 83100000 		.4byte	.LASF329
 2661 1271 0E       		.byte	0xe
 2662 1272 40       		.byte	0x40
 2663 1273 CE000000 		.4byte	0xce
 2664 1277 0C       		.byte	0xc
 2665 1278 0B       		.uleb128 0xb
 2666 1279 39130000 		.4byte	.LASF330
 2667 127d 0E       		.byte	0xe
 2668 127e 45       		.byte	0x45
 2669 127f CE000000 		.4byte	0xce
 2670 1283 10       		.byte	0x10
 2671 1284 00       		.byte	0
 2672 1285 14       		.uleb128 0x14
 2673 1286 04       		.byte	0x4
 2674 1287 8B120000 		.4byte	0x128b
 2675 128b 06       		.uleb128 0x6
 2676 128c 230B0000 		.4byte	0xb23
 2677 1290 03       		.uleb128 0x3
 2678 1291 F60A0000 		.4byte	.LASF331
 2679 1295 0E       		.byte	0xe
 2680 1296 48       		.byte	0x48
 2681 1297 40120000 		.4byte	0x1240
 2682 129b 1A       		.uleb128 0x1a
 2683 129c C80A0000 		.4byte	.LASF332
 2684 12a0 03       		.byte	0x3
 2685 12a1 0F       		.byte	0xf
 2686 12a2 26       		.byte	0x26
 2687 12a3 C6120000 		.4byte	0x12c6
 2688 12a7 1B       		.uleb128 0x1b
 2689 12a8 6700     		.ascii	"g\000"
 2690 12aa 0F       		.byte	0xf
 2691 12ab 28       		.byte	0x28
 2692 12ac A2000000 		.4byte	0xa2
 2693 12b0 00       		.byte	0
 2694 12b1 1B       		.uleb128 0x1b
 2695 12b2 7200     		.ascii	"r\000"
 2696 12b4 0F       		.byte	0xf
 2697 12b5 29       		.byte	0x29
 2698 12b6 A2000000 		.4byte	0xa2
 2699 12ba 01       		.byte	0x1
 2700 12bb 1B       		.uleb128 0x1b
 2701 12bc 6200     		.ascii	"b\000"
 2702 12be 0F       		.byte	0xf
 2703 12bf 2A       		.byte	0x2a
 2704 12c0 A2000000 		.4byte	0xa2
 2705 12c4 02       		.byte	0x2
 2706 12c5 00       		.byte	0
 2707 12c6 1C       		.uleb128 0x1c
 2708 12c7 1C080000 		.4byte	.LASF336
ARM GAS  C:\Users\Smaug\AppData\Local\Temp\ccJKcizn.s 			page 77


 2709 12cb 02       		.byte	0x2
 2710 12cc E405     		.2byte	0x5e4
 2711 12ce 03       		.byte	0x3
 2712 12cf F8120000 		.4byte	0x12f8
 2713 12d3 1D       		.uleb128 0x1d
 2714 12d4 BF050000 		.4byte	.LASF333
 2715 12d8 02       		.byte	0x2
 2716 12d9 E405     		.2byte	0x5e4
 2717 12db F8120000 		.4byte	0x12f8
 2718 12df 1D       		.uleb128 0x1d
 2719 12e0 F1000000 		.4byte	.LASF334
 2720 12e4 02       		.byte	0x2
 2721 12e5 E405     		.2byte	0x5e4
 2722 12e7 0B0A0000 		.4byte	0xa0b
 2723 12eb 1D       		.uleb128 0x1d
 2724 12ec A90C0000 		.4byte	.LASF335
 2725 12f0 02       		.byte	0x2
 2726 12f1 E405     		.2byte	0x5e4
 2727 12f3 CE000000 		.4byte	0xce
 2728 12f7 00       		.byte	0
 2729 12f8 14       		.uleb128 0x14
 2730 12f9 04       		.byte	0x4
 2731 12fa BB050000 		.4byte	0x5bb
 2732 12fe 1C       		.uleb128 0x1c
 2733 12ff 2A100000 		.4byte	.LASF337
 2734 1303 02       		.byte	0x2
 2735 1304 C003     		.2byte	0x3c0
 2736 1306 03       		.byte	0x3
 2737 1307 18130000 		.4byte	0x1318
 2738 130b 1D       		.uleb128 0x1d
 2739 130c BF050000 		.4byte	.LASF333
 2740 1310 02       		.byte	0x2
 2741 1311 C003     		.2byte	0x3c0
 2742 1313 F8120000 		.4byte	0x12f8
 2743 1317 00       		.byte	0
 2744 1318 1E       		.uleb128 0x1e
 2745 1319 740A0000 		.4byte	.LASF340
 2746 131d 01       		.byte	0x1
 2747 131e 33       		.byte	0x33
 2748 131f 00000000 		.4byte	.LFB757
 2749 1323 38000000 		.4byte	.LFE757-.LFB757
 2750 1327 01       		.uleb128 0x1
 2751 1328 9C       		.byte	0x9c
 2752 1329 91130000 		.4byte	0x1391
 2753 132d 1F       		.uleb128 0x1f
 2754 132e 6700     		.ascii	"g\000"
 2755 1330 01       		.byte	0x1
 2756 1331 33       		.byte	0x33
 2757 1332 A2000000 		.4byte	0xa2
 2758 1336 00000000 		.4byte	.LLST0
 2759 133a 1F       		.uleb128 0x1f
 2760 133b 7200     		.ascii	"r\000"
 2761 133d 01       		.byte	0x1
 2762 133e 33       		.byte	0x33
 2763 133f A2000000 		.4byte	0xa2
 2764 1343 21000000 		.4byte	.LLST1
 2765 1347 1F       		.uleb128 0x1f
ARM GAS  C:\Users\Smaug\AppData\Local\Temp\ccJKcizn.s 			page 78


 2766 1348 6200     		.ascii	"b\000"
 2767 134a 01       		.byte	0x1
 2768 134b 33       		.byte	0x33
 2769 134c A2000000 		.4byte	0xa2
 2770 1350 42000000 		.4byte	.LLST2
 2771 1354 20       		.uleb128 0x20
 2772 1355 880B0000 		.4byte	.LASF338
 2773 1359 01       		.byte	0x1
 2774 135a 33       		.byte	0x33
 2775 135b B20C0000 		.4byte	0xcb2
 2776 135f 01       		.uleb128 0x1
 2777 1360 53       		.byte	0x53
 2778 1361 21       		.uleb128 0x21
 2779 1362 12100000 		.4byte	.LASF339
 2780 1366 01       		.byte	0x1
 2781 1367 35       		.byte	0x35
 2782 1368 CE000000 		.4byte	0xce
 2783 136c 01       		.uleb128 0x1
 2784 136d 52       		.byte	0x52
 2785 136e 22       		.uleb128 0x22
 2786 136f 69647800 		.ascii	"idx\000"
 2787 1373 01       		.byte	0x1
 2788 1374 36       		.byte	0x36
 2789 1375 B8000000 		.4byte	0xb8
 2790 1379 63000000 		.4byte	.LLST3
 2791 137d 23       		.uleb128 0x23
 2792 137e 00000000 		.4byte	.Ldebug_ranges0+0
 2793 1382 22       		.uleb128 0x22
 2794 1383 6900     		.ascii	"i\000"
 2795 1385 01       		.byte	0x1
 2796 1386 38       		.byte	0x38
 2797 1387 AD000000 		.4byte	0xad
 2798 138b AE000000 		.4byte	.LLST4
 2799 138f 00       		.byte	0
 2800 1390 00       		.byte	0
 2801 1391 1E       		.uleb128 0x1e
 2802 1392 79060000 		.4byte	.LASF341
 2803 1396 01       		.byte	0x1
 2804 1397 28       		.byte	0x28
 2805 1398 00000000 		.4byte	.LFB756
 2806 139c 44000000 		.4byte	.LFE756-.LFB756
 2807 13a0 01       		.uleb128 0x1
 2808 13a1 9C       		.byte	0x9c
 2809 13a2 C7140000 		.4byte	0x14c7
 2810 13a6 24       		.uleb128 0x24
 2811 13a7 660A0000 		.4byte	.LASF342
 2812 13ab 01       		.byte	0x1
 2813 13ac 28       		.byte	0x28
 2814 13ad 0B0A0000 		.4byte	0xa0b
 2815 13b1 D8000000 		.4byte	.LLST5
 2816 13b5 1F       		.uleb128 0x1f
 2817 13b6 6C656E00 		.ascii	"len\000"
 2818 13ba 01       		.byte	0x1
 2819 13bb 28       		.byte	0x28
 2820 13bc B8000000 		.4byte	0xb8
 2821 13c0 04010000 		.4byte	.LLST6
 2822 13c4 25       		.uleb128 0x25
ARM GAS  C:\Users\Smaug\AppData\Local\Temp\ccJKcizn.s 			page 79


 2823 13c5 C6120000 		.4byte	0x12c6
 2824 13c9 06000000 		.4byte	.LBB16
 2825 13cd 0A000000 		.4byte	.LBE16-.LBB16
 2826 13d1 01       		.byte	0x1
 2827 13d2 2B       		.byte	0x2b
 2828 13d3 14140000 		.4byte	0x1414
 2829 13d7 26       		.uleb128 0x26
 2830 13d8 EB120000 		.4byte	0x12eb
 2831 13dc 25010000 		.4byte	.LLST7
 2832 13e0 26       		.uleb128 0x26
 2833 13e1 DF120000 		.4byte	0x12df
 2834 13e5 39010000 		.4byte	.LLST8
 2835 13e9 26       		.uleb128 0x26
 2836 13ea D3120000 		.4byte	0x12d3
 2837 13ee 51010000 		.4byte	.LLST9
 2838 13f2 27       		.uleb128 0x27
 2839 13f3 10000000 		.4byte	.LVL16
 2840 13f7 52170000 		.4byte	0x1752
 2841 13fb 28       		.uleb128 0x28
 2842 13fc 01       		.uleb128 0x1
 2843 13fd 50       		.byte	0x50
 2844 13fe 05       		.uleb128 0x5
 2845 13ff 0C       		.byte	0xc
 2846 1400 00006740 		.4byte	0x40670000
 2847 1404 28       		.uleb128 0x28
 2848 1405 01       		.uleb128 0x1
 2849 1406 51       		.byte	0x51
 2850 1407 05       		.uleb128 0x5
 2851 1408 03       		.byte	0x3
 2852 1409 00000000 		.4byte	.LANCHOR0
 2853 140d 28       		.uleb128 0x28
 2854 140e 01       		.uleb128 0x1
 2855 140f 52       		.byte	0x52
 2856 1410 01       		.uleb128 0x1
 2857 1411 31       		.byte	0x31
 2858 1412 00       		.byte	0
 2859 1413 00       		.byte	0
 2860 1414 25       		.uleb128 0x25
 2861 1415 C6120000 		.4byte	0x12c6
 2862 1419 10000000 		.4byte	.LBB18
 2863 141d 1A000000 		.4byte	.LBE18-.LBB18
 2864 1421 01       		.byte	0x1
 2865 1422 2D       		.byte	0x2d
 2866 1423 7D140000 		.4byte	0x147d
 2867 1427 26       		.uleb128 0x26
 2868 1428 EB120000 		.4byte	0x12eb
 2869 142c 69010000 		.4byte	.LLST10
 2870 1430 26       		.uleb128 0x26
 2871 1431 DF120000 		.4byte	0x12df
 2872 1435 7C010000 		.4byte	.LLST11
 2873 1439 26       		.uleb128 0x26
 2874 143a D3120000 		.4byte	0x12d3
 2875 143e 8F010000 		.4byte	.LLST12
 2876 1442 29       		.uleb128 0x29
 2877 1443 1E000000 		.4byte	.LVL17
 2878 1447 5D170000 		.4byte	0x175d
 2879 144b 60140000 		.4byte	0x1460
ARM GAS  C:\Users\Smaug\AppData\Local\Temp\ccJKcizn.s 			page 80


 2880 144f 28       		.uleb128 0x28
 2881 1450 01       		.uleb128 0x1
 2882 1451 50       		.byte	0x50
 2883 1452 05       		.uleb128 0x5
 2884 1453 03       		.byte	0x3
 2885 1454 00000000 		.4byte	.LC0
 2886 1458 28       		.uleb128 0x28
 2887 1459 01       		.uleb128 0x1
 2888 145a 51       		.byte	0x51
 2889 145b 03       		.uleb128 0x3
 2890 145c 0A       		.byte	0xa
 2891 145d E605     		.2byte	0x5e6
 2892 145f 00       		.byte	0
 2893 1460 27       		.uleb128 0x27
 2894 1461 2A000000 		.4byte	.LVL18
 2895 1465 52170000 		.4byte	0x1752
 2896 1469 28       		.uleb128 0x28
 2897 146a 01       		.uleb128 0x1
 2898 146b 50       		.byte	0x50
 2899 146c 02       		.uleb128 0x2
 2900 146d 74       		.byte	0x74
 2901 146e 00       		.sleb128 0
 2902 146f 28       		.uleb128 0x28
 2903 1470 01       		.uleb128 0x1
 2904 1471 51       		.byte	0x51
 2905 1472 02       		.uleb128 0x2
 2906 1473 75       		.byte	0x75
 2907 1474 00       		.sleb128 0
 2908 1475 28       		.uleb128 0x28
 2909 1476 01       		.uleb128 0x1
 2910 1477 52       		.byte	0x52
 2911 1478 02       		.uleb128 0x2
 2912 1479 76       		.byte	0x76
 2913 147a 00       		.sleb128 0
 2914 147b 00       		.byte	0
 2915 147c 00       		.byte	0
 2916 147d 2A       		.uleb128 0x2a
 2917 147e C6120000 		.4byte	0x12c6
 2918 1482 2A000000 		.4byte	.LBB20
 2919 1486 1A000000 		.4byte	.LBE20-.LBB20
 2920 148a 01       		.byte	0x1
 2921 148b 2F       		.byte	0x2f
 2922 148c 26       		.uleb128 0x26
 2923 148d EB120000 		.4byte	0x12eb
 2924 1491 A7010000 		.4byte	.LLST13
 2925 1495 26       		.uleb128 0x26
 2926 1496 DF120000 		.4byte	0x12df
 2927 149a BB010000 		.4byte	.LLST14
 2928 149e 26       		.uleb128 0x26
 2929 149f D3120000 		.4byte	0x12d3
 2930 14a3 D3010000 		.4byte	.LLST15
 2931 14a7 27       		.uleb128 0x27
 2932 14a8 34000000 		.4byte	.LVL19
 2933 14ac 52170000 		.4byte	0x1752
 2934 14b0 28       		.uleb128 0x28
 2935 14b1 01       		.uleb128 0x1
 2936 14b2 50       		.byte	0x50
ARM GAS  C:\Users\Smaug\AppData\Local\Temp\ccJKcizn.s 			page 81


 2937 14b3 02       		.uleb128 0x2
 2938 14b4 74       		.byte	0x74
 2939 14b5 00       		.sleb128 0
 2940 14b6 28       		.uleb128 0x28
 2941 14b7 01       		.uleb128 0x1
 2942 14b8 51       		.byte	0x51
 2943 14b9 05       		.uleb128 0x5
 2944 14ba 03       		.byte	0x3
 2945 14bb 00000000 		.4byte	.LANCHOR0
 2946 14bf 28       		.uleb128 0x28
 2947 14c0 01       		.uleb128 0x1
 2948 14c1 52       		.byte	0x52
 2949 14c2 01       		.uleb128 0x1
 2950 14c3 31       		.byte	0x31
 2951 14c4 00       		.byte	0
 2952 14c5 00       		.byte	0
 2953 14c6 00       		.byte	0
 2954 14c7 2B       		.uleb128 0x2b
 2955 14c8 090C0000 		.4byte	.LASF369
 2956 14cc 01       		.byte	0x1
 2957 14cd 18       		.byte	0x18
 2958 14ce EF0C0000 		.4byte	0xcef
 2959 14d2 00000000 		.4byte	.LFB755
 2960 14d6 28000000 		.4byte	.LFE755-.LFB755
 2961 14da 01       		.uleb128 0x1
 2962 14db 9C       		.byte	0x9c
 2963 14dc 25150000 		.4byte	0x1525
 2964 14e0 2C       		.uleb128 0x2c
 2965 14e1 23140000 		.4byte	.LASF343
 2966 14e5 01       		.byte	0x1
 2967 14e6 1A       		.byte	0x1a
 2968 14e7 EF0C0000 		.4byte	0xcef
 2969 14eb EB010000 		.4byte	.LLST16
 2970 14ef 25       		.uleb128 0x25
 2971 14f0 FE120000 		.4byte	0x12fe
 2972 14f4 10000000 		.4byte	.LBB22
 2973 14f8 0A000000 		.4byte	.LBE22-.LBB22
 2974 14fc 01       		.byte	0x1
 2975 14fd 21       		.byte	0x21
 2976 14fe 0C150000 		.4byte	0x150c
 2977 1502 26       		.uleb128 0x26
 2978 1503 0B130000 		.4byte	0x130b
 2979 1507 09020000 		.4byte	.LLST17
 2980 150b 00       		.byte	0
 2981 150c 27       		.uleb128 0x27
 2982 150d 0C000000 		.4byte	.LVL21
 2983 1511 69170000 		.4byte	0x1769
 2984 1515 28       		.uleb128 0x28
 2985 1516 01       		.uleb128 0x1
 2986 1517 50       		.byte	0x50
 2987 1518 05       		.uleb128 0x5
 2988 1519 0C       		.byte	0xc
 2989 151a 00006740 		.4byte	0x40670000
 2990 151e 28       		.uleb128 0x28
 2991 151f 01       		.uleb128 0x1
 2992 1520 52       		.byte	0x52
 2993 1521 01       		.uleb128 0x1
ARM GAS  C:\Users\Smaug\AppData\Local\Temp\ccJKcizn.s 			page 82


 2994 1522 30       		.byte	0x30
 2995 1523 00       		.byte	0
 2996 1524 00       		.byte	0
 2997 1525 2D       		.uleb128 0x2d
 2998 1526 17030000 		.4byte	.LASF345
 2999 152a 01       		.byte	0x1
 3000 152b 46       		.byte	0x46
 3001 152c 00000000 		.4byte	.LFB758
 3002 1530 28000000 		.4byte	.LFE758-.LFB758
 3003 1534 01       		.uleb128 0x1
 3004 1535 9C       		.byte	0x9c
 3005 1536 9B150000 		.4byte	0x159b
 3006 153a 24       		.uleb128 0x24
 3007 153b 10150000 		.4byte	.LASF344
 3008 153f 01       		.byte	0x1
 3009 1540 46       		.byte	0x46
 3010 1541 A2000000 		.4byte	0xa2
 3011 1545 21020000 		.4byte	.LLST18
 3012 1549 1F       		.uleb128 0x1f
 3013 154a 6700     		.ascii	"g\000"
 3014 154c 01       		.byte	0x1
 3015 154d 46       		.byte	0x46
 3016 154e A2000000 		.4byte	0xa2
 3017 1552 4D020000 		.4byte	.LLST19
 3018 1556 1F       		.uleb128 0x1f
 3019 1557 7200     		.ascii	"r\000"
 3020 1559 01       		.byte	0x1
 3021 155a 46       		.byte	0x46
 3022 155b A2000000 		.4byte	0xa2
 3023 155f 79020000 		.4byte	.LLST20
 3024 1563 1F       		.uleb128 0x1f
 3025 1564 6200     		.ascii	"b\000"
 3026 1566 01       		.byte	0x1
 3027 1567 46       		.byte	0x46
 3028 1568 A2000000 		.4byte	0xa2
 3029 156c A5020000 		.4byte	.LLST21
 3030 1570 27       		.uleb128 0x27
 3031 1571 20000000 		.4byte	.LVL30
 3032 1575 18130000 		.4byte	0x1318
 3033 1579 28       		.uleb128 0x28
 3034 157a 01       		.uleb128 0x1
 3035 157b 50       		.byte	0x50
 3036 157c 02       		.uleb128 0x2
 3037 157d 75       		.byte	0x75
 3038 157e 00       		.sleb128 0
 3039 157f 28       		.uleb128 0x28
 3040 1580 01       		.uleb128 0x1
 3041 1581 51       		.byte	0x51
 3042 1582 02       		.uleb128 0x2
 3043 1583 76       		.byte	0x76
 3044 1584 00       		.sleb128 0
 3045 1585 28       		.uleb128 0x28
 3046 1586 01       		.uleb128 0x1
 3047 1587 52       		.byte	0x52
 3048 1588 02       		.uleb128 0x2
 3049 1589 77       		.byte	0x77
 3050 158a 00       		.sleb128 0
ARM GAS  C:\Users\Smaug\AppData\Local\Temp\ccJKcizn.s 			page 83


 3051 158b 28       		.uleb128 0x28
 3052 158c 01       		.uleb128 0x1
 3053 158d 53       		.byte	0x53
 3054 158e 0A       		.uleb128 0xa
 3055 158f 74       		.byte	0x74
 3056 1590 00       		.sleb128 0
 3057 1591 33       		.byte	0x33
 3058 1592 24       		.byte	0x24
 3059 1593 03       		.byte	0x3
 3060 1594 04000000 		.4byte	.LANCHOR0+4
 3061 1598 22       		.byte	0x22
 3062 1599 00       		.byte	0
 3063 159a 00       		.byte	0
 3064 159b 2D       		.uleb128 0x2d
 3065 159c F0110000 		.4byte	.LASF346
 3066 15a0 01       		.byte	0x1
 3067 15a1 4E       		.byte	0x4e
 3068 15a2 00000000 		.4byte	.LFB759
 3069 15a6 30000000 		.4byte	.LFE759-.LFB759
 3070 15aa 01       		.uleb128 0x1
 3071 15ab 9C       		.byte	0x9c
 3072 15ac 1E160000 		.4byte	0x161e
 3073 15b0 1F       		.uleb128 0x1f
 3074 15b1 6700     		.ascii	"g\000"
 3075 15b3 01       		.byte	0x1
 3076 15b4 4E       		.byte	0x4e
 3077 15b5 A2000000 		.4byte	0xa2
 3078 15b9 D1020000 		.4byte	.LLST22
 3079 15bd 1F       		.uleb128 0x1f
 3080 15be 7200     		.ascii	"r\000"
 3081 15c0 01       		.byte	0x1
 3082 15c1 4E       		.byte	0x4e
 3083 15c2 A2000000 		.4byte	0xa2
 3084 15c6 F2020000 		.4byte	.LLST23
 3085 15ca 1F       		.uleb128 0x1f
 3086 15cb 6200     		.ascii	"b\000"
 3087 15cd 01       		.byte	0x1
 3088 15ce 4E       		.byte	0x4e
 3089 15cf A2000000 		.4byte	0xa2
 3090 15d3 13030000 		.4byte	.LLST24
 3091 15d7 2E       		.uleb128 0x2e
 3092 15d8 08000000 		.4byte	.LBB24
 3093 15dc 20000000 		.4byte	.LBE24-.LBB24
 3094 15e0 22       		.uleb128 0x22
 3095 15e1 6900     		.ascii	"i\000"
 3096 15e3 01       		.byte	0x1
 3097 15e4 50       		.byte	0x50
 3098 15e5 B8000000 		.4byte	0xb8
 3099 15e9 34030000 		.4byte	.LLST25
 3100 15ed 27       		.uleb128 0x27
 3101 15ee 20000000 		.4byte	.LVL35
 3102 15f2 18130000 		.4byte	0x1318
 3103 15f6 28       		.uleb128 0x28
 3104 15f7 01       		.uleb128 0x1
 3105 15f8 50       		.byte	0x50
 3106 15f9 02       		.uleb128 0x2
 3107 15fa 77       		.byte	0x77
ARM GAS  C:\Users\Smaug\AppData\Local\Temp\ccJKcizn.s 			page 84


 3108 15fb 00       		.sleb128 0
 3109 15fc 28       		.uleb128 0x28
 3110 15fd 01       		.uleb128 0x1
 3111 15fe 51       		.byte	0x51
 3112 15ff 02       		.uleb128 0x2
 3113 1600 76       		.byte	0x76
 3114 1601 00       		.sleb128 0
 3115 1602 28       		.uleb128 0x28
 3116 1603 01       		.uleb128 0x1
 3117 1604 52       		.byte	0x52
 3118 1605 02       		.uleb128 0x2
 3119 1606 75       		.byte	0x75
 3120 1607 00       		.sleb128 0
 3121 1608 28       		.uleb128 0x28
 3122 1609 01       		.uleb128 0x1
 3123 160a 53       		.byte	0x53
 3124 160b 0F       		.uleb128 0xf
 3125 160c 74       		.byte	0x74
 3126 160d 00       		.sleb128 0
 3127 160e 31       		.byte	0x31
 3128 160f 24       		.byte	0x24
 3129 1610 74       		.byte	0x74
 3130 1611 00       		.sleb128 0
 3131 1612 22       		.byte	0x22
 3132 1613 33       		.byte	0x33
 3133 1614 24       		.byte	0x24
 3134 1615 03       		.byte	0x3
 3135 1616 04000000 		.4byte	.LANCHOR0+4
 3136 161a 22       		.byte	0x22
 3137 161b 00       		.byte	0
 3138 161c 00       		.byte	0
 3139 161d 00       		.byte	0
 3140 161e 2D       		.uleb128 0x2d
 3141 161f 02090000 		.4byte	.LASF347
 3142 1623 01       		.byte	0x1
 3143 1624 56       		.byte	0x56
 3144 1625 00000000 		.4byte	.LFB760
 3145 1629 14000000 		.4byte	.LFE760-.LFB760
 3146 162d 01       		.uleb128 0x1
 3147 162e 9C       		.byte	0x9c
 3148 162f 4E160000 		.4byte	0x164e
 3149 1633 27       		.uleb128 0x27
 3150 1634 0C000000 		.4byte	.LVL39
 3151 1638 91130000 		.4byte	0x1391
 3152 163c 28       		.uleb128 0x28
 3153 163d 01       		.uleb128 0x1
 3154 163e 50       		.byte	0x50
 3155 163f 05       		.uleb128 0x5
 3156 1640 03       		.byte	0x3
 3157 1641 04000000 		.4byte	.LANCHOR0+4
 3158 1645 28       		.uleb128 0x28
 3159 1646 01       		.uleb128 0x1
 3160 1647 51       		.byte	0x51
 3161 1648 03       		.uleb128 0x3
 3162 1649 0A       		.byte	0xa
 3163 164a 2001     		.2byte	0x120
 3164 164c 00       		.byte	0
ARM GAS  C:\Users\Smaug\AppData\Local\Temp\ccJKcizn.s 			page 85


 3165 164d 00       		.byte	0
 3166 164e 21       		.uleb128 0x21
 3167 164f 530D0000 		.4byte	.LASF348
 3168 1653 01       		.byte	0x1
 3169 1654 10       		.byte	0x10
 3170 1655 A2000000 		.4byte	0xa2
 3171 1659 05       		.uleb128 0x5
 3172 165a 03       		.byte	0x3
 3173 165b 00000000 		.4byte	blankingFrame
 3174 165f 2F       		.uleb128 0x2f
 3175 1660 92080000 		.4byte	.LASF349
 3176 1664 10       		.byte	0x10
 3177 1665 F907     		.2byte	0x7f9
 3178 1667 6B160000 		.4byte	0x166b
 3179 166b 05       		.uleb128 0x5
 3180 166c C3000000 		.4byte	0xc3
 3181 1670 30       		.uleb128 0x30
 3182 1671 4D000000 		.4byte	.LASF350
 3183 1675 07       		.byte	0x7
 3184 1676 A7       		.byte	0xa7
 3185 1677 7B160000 		.4byte	0x167b
 3186 167b 14       		.uleb128 0x14
 3187 167c 04       		.byte	0x4
 3188 167d 81160000 		.4byte	0x1681
 3189 1681 06       		.uleb128 0x6
 3190 1682 DF090000 		.4byte	0x9df
 3191 1686 2F       		.uleb128 0x2f
 3192 1687 55130000 		.4byte	.LASF351
 3193 168b 0E       		.byte	0xe
 3194 168c 6001     		.2byte	0x160
 3195 168e CE000000 		.4byte	0xce
 3196 1692 07       		.uleb128 0x7
 3197 1693 A2160000 		.4byte	0x16a2
 3198 1697 A2160000 		.4byte	0x16a2
 3199 169b 08       		.uleb128 0x8
 3200 169c D9000000 		.4byte	0xd9
 3201 16a0 00       		.byte	0
 3202 16a1 00       		.byte	0
 3203 16a2 06       		.uleb128 0x6
 3204 16a3 90120000 		.4byte	0x1290
 3205 16a7 2F       		.uleb128 0x2f
 3206 16a8 4D0F0000 		.4byte	.LASF352
 3207 16ac 0E       		.byte	0xe
 3208 16ad 6401     		.2byte	0x164
 3209 16af B3160000 		.4byte	0x16b3
 3210 16b3 06       		.uleb128 0x6
 3211 16b4 92160000 		.4byte	0x1692
 3212 16b8 30       		.uleb128 0x30
 3213 16b9 01010000 		.4byte	.LASF353
 3214 16bd 11       		.byte	0x11
 3215 16be 7F       		.byte	0x7f
 3216 16bf BD0C0000 		.4byte	0xcbd
 3217 16c3 30       		.uleb128 0x30
 3218 16c4 58020000 		.4byte	.LASF354
 3219 16c8 12       		.byte	0x12
 3220 16c9 87       		.byte	0x87
 3221 16ca F40F0000 		.4byte	0xff4
ARM GAS  C:\Users\Smaug\AppData\Local\Temp\ccJKcizn.s 			page 86


 3222 16ce 30       		.uleb128 0x30
 3223 16cf 7F000000 		.4byte	.LASF355
 3224 16d3 13       		.byte	0x13
 3225 16d4 1F       		.byte	0x1f
 3226 16d5 D9160000 		.4byte	0x16d9
 3227 16d9 06       		.uleb128 0x6
 3228 16da 35120000 		.4byte	0x1235
 3229 16de 30       		.uleb128 0x30
 3230 16df FD040000 		.4byte	.LASF356
 3231 16e3 14       		.byte	0x14
 3232 16e4 1F       		.byte	0x1f
 3233 16e5 E9160000 		.4byte	0x16e9
 3234 16e9 06       		.uleb128 0x6
 3235 16ea F1100000 		.4byte	0x10f1
 3236 16ee 30       		.uleb128 0x30
 3237 16ef 240F0000 		.4byte	.LASF357
 3238 16f3 15       		.byte	0x15
 3239 16f4 87       		.byte	0x87
 3240 16f5 F40F0000 		.4byte	0xff4
 3241 16f9 30       		.uleb128 0x30
 3242 16fa D8040000 		.4byte	.LASF358
 3243 16fe 16       		.byte	0x16
 3244 16ff 1F       		.byte	0x1f
 3245 1700 D9160000 		.4byte	0x16d9
 3246 1704 30       		.uleb128 0x30
 3247 1705 E40B0000 		.4byte	.LASF359
 3248 1709 17       		.byte	0x17
 3249 170a 5D       		.byte	0x5d
 3250 170b 0F170000 		.4byte	0x170f
 3251 170f 06       		.uleb128 0x6
 3252 1710 890E0000 		.4byte	0xe89
 3253 1714 30       		.uleb128 0x30
 3254 1715 66140000 		.4byte	.LASF360
 3255 1719 17       		.byte	0x17
 3256 171a 5E       		.byte	0x5e
 3257 171b 180F0000 		.4byte	0xf18
 3258 171f 31       		.uleb128 0x31
 3259 1720 C1070000 		.4byte	.LASF361
 3260 1724 0F       		.byte	0xf
 3261 1725 2B       		.byte	0x2b
 3262 1726 9B120000 		.4byte	0x129b
 3263 172a 05       		.uleb128 0x5
 3264 172b 03       		.byte	0x3
 3265 172c 00000000 		.4byte	ledColorObj
 3266 1730 07       		.uleb128 0x7
 3267 1731 A2000000 		.4byte	0xa2
 3268 1735 41170000 		.4byte	0x1741
 3269 1739 09       		.uleb128 0x9
 3270 173a D9000000 		.4byte	0xd9
 3271 173e 1F01     		.2byte	0x11f
 3272 1740 00       		.byte	0
 3273 1741 31       		.uleb128 0x31
 3274 1742 4F0B0000 		.4byte	.LASF362
 3275 1746 01       		.byte	0x1
 3276 1747 16       		.byte	0x16
 3277 1748 30170000 		.4byte	0x1730
 3278 174c 05       		.uleb128 0x5
ARM GAS  C:\Users\Smaug\AppData\Local\Temp\ccJKcizn.s 			page 87


 3279 174d 03       		.byte	0x3
 3280 174e 00000000 		.4byte	Leds_rawColorBuffer
 3281 1752 32       		.uleb128 0x32
 3282 1753 2E140000 		.4byte	.LASF363
 3283 1757 2E140000 		.4byte	.LASF363
 3284 175b 18       		.byte	0x18
 3285 175c EE       		.byte	0xee
 3286 175d 33       		.uleb128 0x33
 3287 175e DC090000 		.4byte	.LASF364
 3288 1762 DC090000 		.4byte	.LASF364
 3289 1766 08       		.byte	0x8
 3290 1767 9203     		.2byte	0x392
 3291 1769 33       		.uleb128 0x33
 3292 176a 67130000 		.4byte	.LASF365
 3293 176e 67130000 		.4byte	.LASF365
 3294 1772 02       		.byte	0x2
 3295 1773 9802     		.2byte	0x298
 3296 1775 00       		.byte	0
 3297              		.section	.debug_abbrev,"",%progbits
 3298              	.Ldebug_abbrev0:
 3299 0000 01       		.uleb128 0x1
 3300 0001 11       		.uleb128 0x11
 3301 0002 01       		.byte	0x1
 3302 0003 25       		.uleb128 0x25
 3303 0004 0E       		.uleb128 0xe
 3304 0005 13       		.uleb128 0x13
 3305 0006 0B       		.uleb128 0xb
 3306 0007 03       		.uleb128 0x3
 3307 0008 0E       		.uleb128 0xe
 3308 0009 1B       		.uleb128 0x1b
 3309 000a 0E       		.uleb128 0xe
 3310 000b 55       		.uleb128 0x55
 3311 000c 17       		.uleb128 0x17
 3312 000d 11       		.uleb128 0x11
 3313 000e 01       		.uleb128 0x1
 3314 000f 10       		.uleb128 0x10
 3315 0010 17       		.uleb128 0x17
 3316 0011 00       		.byte	0
 3317 0012 00       		.byte	0
 3318 0013 02       		.uleb128 0x2
 3319 0014 24       		.uleb128 0x24
 3320 0015 00       		.byte	0
 3321 0016 0B       		.uleb128 0xb
 3322 0017 0B       		.uleb128 0xb
 3323 0018 3E       		.uleb128 0x3e
 3324 0019 0B       		.uleb128 0xb
 3325 001a 03       		.uleb128 0x3
 3326 001b 0E       		.uleb128 0xe
 3327 001c 00       		.byte	0
 3328 001d 00       		.byte	0
 3329 001e 03       		.uleb128 0x3
 3330 001f 16       		.uleb128 0x16
 3331 0020 00       		.byte	0
 3332 0021 03       		.uleb128 0x3
 3333 0022 0E       		.uleb128 0xe
 3334 0023 3A       		.uleb128 0x3a
 3335 0024 0B       		.uleb128 0xb
ARM GAS  C:\Users\Smaug\AppData\Local\Temp\ccJKcizn.s 			page 88


 3336 0025 3B       		.uleb128 0x3b
 3337 0026 0B       		.uleb128 0xb
 3338 0027 49       		.uleb128 0x49
 3339 0028 13       		.uleb128 0x13
 3340 0029 00       		.byte	0
 3341 002a 00       		.byte	0
 3342 002b 04       		.uleb128 0x4
 3343 002c 24       		.uleb128 0x24
 3344 002d 00       		.byte	0
 3345 002e 0B       		.uleb128 0xb
 3346 002f 0B       		.uleb128 0xb
 3347 0030 3E       		.uleb128 0x3e
 3348 0031 0B       		.uleb128 0xb
 3349 0032 03       		.uleb128 0x3
 3350 0033 08       		.uleb128 0x8
 3351 0034 00       		.byte	0
 3352 0035 00       		.byte	0
 3353 0036 05       		.uleb128 0x5
 3354 0037 35       		.uleb128 0x35
 3355 0038 00       		.byte	0
 3356 0039 49       		.uleb128 0x49
 3357 003a 13       		.uleb128 0x13
 3358 003b 00       		.byte	0
 3359 003c 00       		.byte	0
 3360 003d 06       		.uleb128 0x6
 3361 003e 26       		.uleb128 0x26
 3362 003f 00       		.byte	0
 3363 0040 49       		.uleb128 0x49
 3364 0041 13       		.uleb128 0x13
 3365 0042 00       		.byte	0
 3366 0043 00       		.byte	0
 3367 0044 07       		.uleb128 0x7
 3368 0045 01       		.uleb128 0x1
 3369 0046 01       		.byte	0x1
 3370 0047 49       		.uleb128 0x49
 3371 0048 13       		.uleb128 0x13
 3372 0049 01       		.uleb128 0x1
 3373 004a 13       		.uleb128 0x13
 3374 004b 00       		.byte	0
 3375 004c 00       		.byte	0
 3376 004d 08       		.uleb128 0x8
 3377 004e 21       		.uleb128 0x21
 3378 004f 00       		.byte	0
 3379 0050 49       		.uleb128 0x49
 3380 0051 13       		.uleb128 0x13
 3381 0052 2F       		.uleb128 0x2f
 3382 0053 0B       		.uleb128 0xb
 3383 0054 00       		.byte	0
 3384 0055 00       		.byte	0
 3385 0056 09       		.uleb128 0x9
 3386 0057 21       		.uleb128 0x21
 3387 0058 00       		.byte	0
 3388 0059 49       		.uleb128 0x49
 3389 005a 13       		.uleb128 0x13
 3390 005b 2F       		.uleb128 0x2f
 3391 005c 05       		.uleb128 0x5
 3392 005d 00       		.byte	0
ARM GAS  C:\Users\Smaug\AppData\Local\Temp\ccJKcizn.s 			page 89


 3393 005e 00       		.byte	0
 3394 005f 0A       		.uleb128 0xa
 3395 0060 13       		.uleb128 0x13
 3396 0061 01       		.byte	0x1
 3397 0062 0B       		.uleb128 0xb
 3398 0063 05       		.uleb128 0x5
 3399 0064 3A       		.uleb128 0x3a
 3400 0065 0B       		.uleb128 0xb
 3401 0066 3B       		.uleb128 0x3b
 3402 0067 0B       		.uleb128 0xb
 3403 0068 01       		.uleb128 0x1
 3404 0069 13       		.uleb128 0x13
 3405 006a 00       		.byte	0
 3406 006b 00       		.byte	0
 3407 006c 0B       		.uleb128 0xb
 3408 006d 0D       		.uleb128 0xd
 3409 006e 00       		.byte	0
 3410 006f 03       		.uleb128 0x3
 3411 0070 0E       		.uleb128 0xe
 3412 0071 3A       		.uleb128 0x3a
 3413 0072 0B       		.uleb128 0xb
 3414 0073 3B       		.uleb128 0x3b
 3415 0074 0B       		.uleb128 0xb
 3416 0075 49       		.uleb128 0x49
 3417 0076 13       		.uleb128 0x13
 3418 0077 38       		.uleb128 0x38
 3419 0078 0B       		.uleb128 0xb
 3420 0079 00       		.byte	0
 3421 007a 00       		.byte	0
 3422 007b 0C       		.uleb128 0xc
 3423 007c 0D       		.uleb128 0xd
 3424 007d 00       		.byte	0
 3425 007e 03       		.uleb128 0x3
 3426 007f 0E       		.uleb128 0xe
 3427 0080 3A       		.uleb128 0x3a
 3428 0081 0B       		.uleb128 0xb
 3429 0082 3B       		.uleb128 0x3b
 3430 0083 0B       		.uleb128 0xb
 3431 0084 49       		.uleb128 0x49
 3432 0085 13       		.uleb128 0x13
 3433 0086 38       		.uleb128 0x38
 3434 0087 05       		.uleb128 0x5
 3435 0088 00       		.byte	0
 3436 0089 00       		.byte	0
 3437 008a 0D       		.uleb128 0xd
 3438 008b 16       		.uleb128 0x16
 3439 008c 00       		.byte	0
 3440 008d 03       		.uleb128 0x3
 3441 008e 0E       		.uleb128 0xe
 3442 008f 3A       		.uleb128 0x3a
 3443 0090 0B       		.uleb128 0xb
 3444 0091 3B       		.uleb128 0x3b
 3445 0092 05       		.uleb128 0x5
 3446 0093 49       		.uleb128 0x49
 3447 0094 13       		.uleb128 0x13
 3448 0095 00       		.byte	0
 3449 0096 00       		.byte	0
ARM GAS  C:\Users\Smaug\AppData\Local\Temp\ccJKcizn.s 			page 90


 3450 0097 0E       		.uleb128 0xe
 3451 0098 13       		.uleb128 0x13
 3452 0099 01       		.byte	0x1
 3453 009a 0B       		.uleb128 0xb
 3454 009b 0B       		.uleb128 0xb
 3455 009c 3A       		.uleb128 0x3a
 3456 009d 0B       		.uleb128 0xb
 3457 009e 3B       		.uleb128 0x3b
 3458 009f 0B       		.uleb128 0xb
 3459 00a0 01       		.uleb128 0x1
 3460 00a1 13       		.uleb128 0x13
 3461 00a2 00       		.byte	0
 3462 00a3 00       		.byte	0
 3463 00a4 0F       		.uleb128 0xf
 3464 00a5 0F       		.uleb128 0xf
 3465 00a6 00       		.byte	0
 3466 00a7 0B       		.uleb128 0xb
 3467 00a8 0B       		.uleb128 0xb
 3468 00a9 00       		.byte	0
 3469 00aa 00       		.byte	0
 3470 00ab 10       		.uleb128 0x10
 3471 00ac 04       		.uleb128 0x4
 3472 00ad 01       		.byte	0x1
 3473 00ae 0B       		.uleb128 0xb
 3474 00af 0B       		.uleb128 0xb
 3475 00b0 49       		.uleb128 0x49
 3476 00b1 13       		.uleb128 0x13
 3477 00b2 3A       		.uleb128 0x3a
 3478 00b3 0B       		.uleb128 0xb
 3479 00b4 3B       		.uleb128 0x3b
 3480 00b5 05       		.uleb128 0x5
 3481 00b6 01       		.uleb128 0x1
 3482 00b7 13       		.uleb128 0x13
 3483 00b8 00       		.byte	0
 3484 00b9 00       		.byte	0
 3485 00ba 11       		.uleb128 0x11
 3486 00bb 28       		.uleb128 0x28
 3487 00bc 00       		.byte	0
 3488 00bd 03       		.uleb128 0x3
 3489 00be 0E       		.uleb128 0xe
 3490 00bf 1C       		.uleb128 0x1c
 3491 00c0 0B       		.uleb128 0xb
 3492 00c1 00       		.byte	0
 3493 00c2 00       		.byte	0
 3494 00c3 12       		.uleb128 0x12
 3495 00c4 13       		.uleb128 0x13
 3496 00c5 01       		.byte	0x1
 3497 00c6 0B       		.uleb128 0xb
 3498 00c7 0B       		.uleb128 0xb
 3499 00c8 3A       		.uleb128 0x3a
 3500 00c9 0B       		.uleb128 0xb
 3501 00ca 3B       		.uleb128 0x3b
 3502 00cb 05       		.uleb128 0x5
 3503 00cc 01       		.uleb128 0x1
 3504 00cd 13       		.uleb128 0x13
 3505 00ce 00       		.byte	0
 3506 00cf 00       		.byte	0
ARM GAS  C:\Users\Smaug\AppData\Local\Temp\ccJKcizn.s 			page 91


 3507 00d0 13       		.uleb128 0x13
 3508 00d1 0D       		.uleb128 0xd
 3509 00d2 00       		.byte	0
 3510 00d3 03       		.uleb128 0x3
 3511 00d4 0E       		.uleb128 0xe
 3512 00d5 3A       		.uleb128 0x3a
 3513 00d6 0B       		.uleb128 0xb
 3514 00d7 3B       		.uleb128 0x3b
 3515 00d8 05       		.uleb128 0x5
 3516 00d9 49       		.uleb128 0x49
 3517 00da 13       		.uleb128 0x13
 3518 00db 38       		.uleb128 0x38
 3519 00dc 0B       		.uleb128 0xb
 3520 00dd 00       		.byte	0
 3521 00de 00       		.byte	0
 3522 00df 14       		.uleb128 0x14
 3523 00e0 0F       		.uleb128 0xf
 3524 00e1 00       		.byte	0
 3525 00e2 0B       		.uleb128 0xb
 3526 00e3 0B       		.uleb128 0xb
 3527 00e4 49       		.uleb128 0x49
 3528 00e5 13       		.uleb128 0x13
 3529 00e6 00       		.byte	0
 3530 00e7 00       		.byte	0
 3531 00e8 15       		.uleb128 0x15
 3532 00e9 15       		.uleb128 0x15
 3533 00ea 01       		.byte	0x1
 3534 00eb 27       		.uleb128 0x27
 3535 00ec 19       		.uleb128 0x19
 3536 00ed 01       		.uleb128 0x1
 3537 00ee 13       		.uleb128 0x13
 3538 00ef 00       		.byte	0
 3539 00f0 00       		.byte	0
 3540 00f1 16       		.uleb128 0x16
 3541 00f2 05       		.uleb128 0x5
 3542 00f3 00       		.byte	0
 3543 00f4 49       		.uleb128 0x49
 3544 00f5 13       		.uleb128 0x13
 3545 00f6 00       		.byte	0
 3546 00f7 00       		.byte	0
 3547 00f8 17       		.uleb128 0x17
 3548 00f9 15       		.uleb128 0x15
 3549 00fa 01       		.byte	0x1
 3550 00fb 27       		.uleb128 0x27
 3551 00fc 19       		.uleb128 0x19
 3552 00fd 49       		.uleb128 0x49
 3553 00fe 13       		.uleb128 0x13
 3554 00ff 01       		.uleb128 0x1
 3555 0100 13       		.uleb128 0x13
 3556 0101 00       		.byte	0
 3557 0102 00       		.byte	0
 3558 0103 18       		.uleb128 0x18
 3559 0104 13       		.uleb128 0x13
 3560 0105 01       		.byte	0x1
 3561 0106 03       		.uleb128 0x3
 3562 0107 0E       		.uleb128 0xe
 3563 0108 0B       		.uleb128 0xb
ARM GAS  C:\Users\Smaug\AppData\Local\Temp\ccJKcizn.s 			page 92


 3564 0109 0B       		.uleb128 0xb
 3565 010a 3A       		.uleb128 0x3a
 3566 010b 0B       		.uleb128 0xb
 3567 010c 3B       		.uleb128 0x3b
 3568 010d 05       		.uleb128 0x5
 3569 010e 01       		.uleb128 0x1
 3570 010f 13       		.uleb128 0x13
 3571 0110 00       		.byte	0
 3572 0111 00       		.byte	0
 3573 0112 19       		.uleb128 0x19
 3574 0113 28       		.uleb128 0x28
 3575 0114 00       		.byte	0
 3576 0115 03       		.uleb128 0x3
 3577 0116 0E       		.uleb128 0xe
 3578 0117 1C       		.uleb128 0x1c
 3579 0118 06       		.uleb128 0x6
 3580 0119 00       		.byte	0
 3581 011a 00       		.byte	0
 3582 011b 1A       		.uleb128 0x1a
 3583 011c 13       		.uleb128 0x13
 3584 011d 01       		.byte	0x1
 3585 011e 03       		.uleb128 0x3
 3586 011f 0E       		.uleb128 0xe
 3587 0120 0B       		.uleb128 0xb
 3588 0121 0B       		.uleb128 0xb
 3589 0122 3A       		.uleb128 0x3a
 3590 0123 0B       		.uleb128 0xb
 3591 0124 3B       		.uleb128 0x3b
 3592 0125 0B       		.uleb128 0xb
 3593 0126 01       		.uleb128 0x1
 3594 0127 13       		.uleb128 0x13
 3595 0128 00       		.byte	0
 3596 0129 00       		.byte	0
 3597 012a 1B       		.uleb128 0x1b
 3598 012b 0D       		.uleb128 0xd
 3599 012c 00       		.byte	0
 3600 012d 03       		.uleb128 0x3
 3601 012e 08       		.uleb128 0x8
 3602 012f 3A       		.uleb128 0x3a
 3603 0130 0B       		.uleb128 0xb
 3604 0131 3B       		.uleb128 0x3b
 3605 0132 0B       		.uleb128 0xb
 3606 0133 49       		.uleb128 0x49
 3607 0134 13       		.uleb128 0x13
 3608 0135 38       		.uleb128 0x38
 3609 0136 0B       		.uleb128 0xb
 3610 0137 00       		.byte	0
 3611 0138 00       		.byte	0
 3612 0139 1C       		.uleb128 0x1c
 3613 013a 2E       		.uleb128 0x2e
 3614 013b 01       		.byte	0x1
 3615 013c 03       		.uleb128 0x3
 3616 013d 0E       		.uleb128 0xe
 3617 013e 3A       		.uleb128 0x3a
 3618 013f 0B       		.uleb128 0xb
 3619 0140 3B       		.uleb128 0x3b
 3620 0141 05       		.uleb128 0x5
ARM GAS  C:\Users\Smaug\AppData\Local\Temp\ccJKcizn.s 			page 93


 3621 0142 27       		.uleb128 0x27
 3622 0143 19       		.uleb128 0x19
 3623 0144 20       		.uleb128 0x20
 3624 0145 0B       		.uleb128 0xb
 3625 0146 01       		.uleb128 0x1
 3626 0147 13       		.uleb128 0x13
 3627 0148 00       		.byte	0
 3628 0149 00       		.byte	0
 3629 014a 1D       		.uleb128 0x1d
 3630 014b 05       		.uleb128 0x5
 3631 014c 00       		.byte	0
 3632 014d 03       		.uleb128 0x3
 3633 014e 0E       		.uleb128 0xe
 3634 014f 3A       		.uleb128 0x3a
 3635 0150 0B       		.uleb128 0xb
 3636 0151 3B       		.uleb128 0x3b
 3637 0152 05       		.uleb128 0x5
 3638 0153 49       		.uleb128 0x49
 3639 0154 13       		.uleb128 0x13
 3640 0155 00       		.byte	0
 3641 0156 00       		.byte	0
 3642 0157 1E       		.uleb128 0x1e
 3643 0158 2E       		.uleb128 0x2e
 3644 0159 01       		.byte	0x1
 3645 015a 03       		.uleb128 0x3
 3646 015b 0E       		.uleb128 0xe
 3647 015c 3A       		.uleb128 0x3a
 3648 015d 0B       		.uleb128 0xb
 3649 015e 3B       		.uleb128 0x3b
 3650 015f 0B       		.uleb128 0xb
 3651 0160 27       		.uleb128 0x27
 3652 0161 19       		.uleb128 0x19
 3653 0162 11       		.uleb128 0x11
 3654 0163 01       		.uleb128 0x1
 3655 0164 12       		.uleb128 0x12
 3656 0165 06       		.uleb128 0x6
 3657 0166 40       		.uleb128 0x40
 3658 0167 18       		.uleb128 0x18
 3659 0168 9742     		.uleb128 0x2117
 3660 016a 19       		.uleb128 0x19
 3661 016b 01       		.uleb128 0x1
 3662 016c 13       		.uleb128 0x13
 3663 016d 00       		.byte	0
 3664 016e 00       		.byte	0
 3665 016f 1F       		.uleb128 0x1f
 3666 0170 05       		.uleb128 0x5
 3667 0171 00       		.byte	0
 3668 0172 03       		.uleb128 0x3
 3669 0173 08       		.uleb128 0x8
 3670 0174 3A       		.uleb128 0x3a
 3671 0175 0B       		.uleb128 0xb
 3672 0176 3B       		.uleb128 0x3b
 3673 0177 0B       		.uleb128 0xb
 3674 0178 49       		.uleb128 0x49
 3675 0179 13       		.uleb128 0x13
 3676 017a 02       		.uleb128 0x2
 3677 017b 17       		.uleb128 0x17
ARM GAS  C:\Users\Smaug\AppData\Local\Temp\ccJKcizn.s 			page 94


 3678 017c 00       		.byte	0
 3679 017d 00       		.byte	0
 3680 017e 20       		.uleb128 0x20
 3681 017f 05       		.uleb128 0x5
 3682 0180 00       		.byte	0
 3683 0181 03       		.uleb128 0x3
 3684 0182 0E       		.uleb128 0xe
 3685 0183 3A       		.uleb128 0x3a
 3686 0184 0B       		.uleb128 0xb
 3687 0185 3B       		.uleb128 0x3b
 3688 0186 0B       		.uleb128 0xb
 3689 0187 49       		.uleb128 0x49
 3690 0188 13       		.uleb128 0x13
 3691 0189 02       		.uleb128 0x2
 3692 018a 18       		.uleb128 0x18
 3693 018b 00       		.byte	0
 3694 018c 00       		.byte	0
 3695 018d 21       		.uleb128 0x21
 3696 018e 34       		.uleb128 0x34
 3697 018f 00       		.byte	0
 3698 0190 03       		.uleb128 0x3
 3699 0191 0E       		.uleb128 0xe
 3700 0192 3A       		.uleb128 0x3a
 3701 0193 0B       		.uleb128 0xb
 3702 0194 3B       		.uleb128 0x3b
 3703 0195 0B       		.uleb128 0xb
 3704 0196 49       		.uleb128 0x49
 3705 0197 13       		.uleb128 0x13
 3706 0198 02       		.uleb128 0x2
 3707 0199 18       		.uleb128 0x18
 3708 019a 00       		.byte	0
 3709 019b 00       		.byte	0
 3710 019c 22       		.uleb128 0x22
 3711 019d 34       		.uleb128 0x34
 3712 019e 00       		.byte	0
 3713 019f 03       		.uleb128 0x3
 3714 01a0 08       		.uleb128 0x8
 3715 01a1 3A       		.uleb128 0x3a
 3716 01a2 0B       		.uleb128 0xb
 3717 01a3 3B       		.uleb128 0x3b
 3718 01a4 0B       		.uleb128 0xb
 3719 01a5 49       		.uleb128 0x49
 3720 01a6 13       		.uleb128 0x13
 3721 01a7 02       		.uleb128 0x2
 3722 01a8 17       		.uleb128 0x17
 3723 01a9 00       		.byte	0
 3724 01aa 00       		.byte	0
 3725 01ab 23       		.uleb128 0x23
 3726 01ac 0B       		.uleb128 0xb
 3727 01ad 01       		.byte	0x1
 3728 01ae 55       		.uleb128 0x55
 3729 01af 17       		.uleb128 0x17
 3730 01b0 00       		.byte	0
 3731 01b1 00       		.byte	0
 3732 01b2 24       		.uleb128 0x24
 3733 01b3 05       		.uleb128 0x5
 3734 01b4 00       		.byte	0
ARM GAS  C:\Users\Smaug\AppData\Local\Temp\ccJKcizn.s 			page 95


 3735 01b5 03       		.uleb128 0x3
 3736 01b6 0E       		.uleb128 0xe
 3737 01b7 3A       		.uleb128 0x3a
 3738 01b8 0B       		.uleb128 0xb
 3739 01b9 3B       		.uleb128 0x3b
 3740 01ba 0B       		.uleb128 0xb
 3741 01bb 49       		.uleb128 0x49
 3742 01bc 13       		.uleb128 0x13
 3743 01bd 02       		.uleb128 0x2
 3744 01be 17       		.uleb128 0x17
 3745 01bf 00       		.byte	0
 3746 01c0 00       		.byte	0
 3747 01c1 25       		.uleb128 0x25
 3748 01c2 1D       		.uleb128 0x1d
 3749 01c3 01       		.byte	0x1
 3750 01c4 31       		.uleb128 0x31
 3751 01c5 13       		.uleb128 0x13
 3752 01c6 11       		.uleb128 0x11
 3753 01c7 01       		.uleb128 0x1
 3754 01c8 12       		.uleb128 0x12
 3755 01c9 06       		.uleb128 0x6
 3756 01ca 58       		.uleb128 0x58
 3757 01cb 0B       		.uleb128 0xb
 3758 01cc 59       		.uleb128 0x59
 3759 01cd 0B       		.uleb128 0xb
 3760 01ce 01       		.uleb128 0x1
 3761 01cf 13       		.uleb128 0x13
 3762 01d0 00       		.byte	0
 3763 01d1 00       		.byte	0
 3764 01d2 26       		.uleb128 0x26
 3765 01d3 05       		.uleb128 0x5
 3766 01d4 00       		.byte	0
 3767 01d5 31       		.uleb128 0x31
 3768 01d6 13       		.uleb128 0x13
 3769 01d7 02       		.uleb128 0x2
 3770 01d8 17       		.uleb128 0x17
 3771 01d9 00       		.byte	0
 3772 01da 00       		.byte	0
 3773 01db 27       		.uleb128 0x27
 3774 01dc 898201   		.uleb128 0x4109
 3775 01df 01       		.byte	0x1
 3776 01e0 11       		.uleb128 0x11
 3777 01e1 01       		.uleb128 0x1
 3778 01e2 31       		.uleb128 0x31
 3779 01e3 13       		.uleb128 0x13
 3780 01e4 00       		.byte	0
 3781 01e5 00       		.byte	0
 3782 01e6 28       		.uleb128 0x28
 3783 01e7 8A8201   		.uleb128 0x410a
 3784 01ea 00       		.byte	0
 3785 01eb 02       		.uleb128 0x2
 3786 01ec 18       		.uleb128 0x18
 3787 01ed 9142     		.uleb128 0x2111
 3788 01ef 18       		.uleb128 0x18
 3789 01f0 00       		.byte	0
 3790 01f1 00       		.byte	0
 3791 01f2 29       		.uleb128 0x29
ARM GAS  C:\Users\Smaug\AppData\Local\Temp\ccJKcizn.s 			page 96


 3792 01f3 898201   		.uleb128 0x4109
 3793 01f6 01       		.byte	0x1
 3794 01f7 11       		.uleb128 0x11
 3795 01f8 01       		.uleb128 0x1
 3796 01f9 31       		.uleb128 0x31
 3797 01fa 13       		.uleb128 0x13
 3798 01fb 01       		.uleb128 0x1
 3799 01fc 13       		.uleb128 0x13
 3800 01fd 00       		.byte	0
 3801 01fe 00       		.byte	0
 3802 01ff 2A       		.uleb128 0x2a
 3803 0200 1D       		.uleb128 0x1d
 3804 0201 01       		.byte	0x1
 3805 0202 31       		.uleb128 0x31
 3806 0203 13       		.uleb128 0x13
 3807 0204 11       		.uleb128 0x11
 3808 0205 01       		.uleb128 0x1
 3809 0206 12       		.uleb128 0x12
 3810 0207 06       		.uleb128 0x6
 3811 0208 58       		.uleb128 0x58
 3812 0209 0B       		.uleb128 0xb
 3813 020a 59       		.uleb128 0x59
 3814 020b 0B       		.uleb128 0xb
 3815 020c 00       		.byte	0
 3816 020d 00       		.byte	0
 3817 020e 2B       		.uleb128 0x2b
 3818 020f 2E       		.uleb128 0x2e
 3819 0210 01       		.byte	0x1
 3820 0211 3F       		.uleb128 0x3f
 3821 0212 19       		.uleb128 0x19
 3822 0213 03       		.uleb128 0x3
 3823 0214 0E       		.uleb128 0xe
 3824 0215 3A       		.uleb128 0x3a
 3825 0216 0B       		.uleb128 0xb
 3826 0217 3B       		.uleb128 0x3b
 3827 0218 0B       		.uleb128 0xb
 3828 0219 27       		.uleb128 0x27
 3829 021a 19       		.uleb128 0x19
 3830 021b 49       		.uleb128 0x49
 3831 021c 13       		.uleb128 0x13
 3832 021d 11       		.uleb128 0x11
 3833 021e 01       		.uleb128 0x1
 3834 021f 12       		.uleb128 0x12
 3835 0220 06       		.uleb128 0x6
 3836 0221 40       		.uleb128 0x40
 3837 0222 18       		.uleb128 0x18
 3838 0223 9742     		.uleb128 0x2117
 3839 0225 19       		.uleb128 0x19
 3840 0226 01       		.uleb128 0x1
 3841 0227 13       		.uleb128 0x13
 3842 0228 00       		.byte	0
 3843 0229 00       		.byte	0
 3844 022a 2C       		.uleb128 0x2c
 3845 022b 34       		.uleb128 0x34
 3846 022c 00       		.byte	0
 3847 022d 03       		.uleb128 0x3
 3848 022e 0E       		.uleb128 0xe
ARM GAS  C:\Users\Smaug\AppData\Local\Temp\ccJKcizn.s 			page 97


 3849 022f 3A       		.uleb128 0x3a
 3850 0230 0B       		.uleb128 0xb
 3851 0231 3B       		.uleb128 0x3b
 3852 0232 0B       		.uleb128 0xb
 3853 0233 49       		.uleb128 0x49
 3854 0234 13       		.uleb128 0x13
 3855 0235 02       		.uleb128 0x2
 3856 0236 17       		.uleb128 0x17
 3857 0237 00       		.byte	0
 3858 0238 00       		.byte	0
 3859 0239 2D       		.uleb128 0x2d
 3860 023a 2E       		.uleb128 0x2e
 3861 023b 01       		.byte	0x1
 3862 023c 3F       		.uleb128 0x3f
 3863 023d 19       		.uleb128 0x19
 3864 023e 03       		.uleb128 0x3
 3865 023f 0E       		.uleb128 0xe
 3866 0240 3A       		.uleb128 0x3a
 3867 0241 0B       		.uleb128 0xb
 3868 0242 3B       		.uleb128 0x3b
 3869 0243 0B       		.uleb128 0xb
 3870 0244 27       		.uleb128 0x27
 3871 0245 19       		.uleb128 0x19
 3872 0246 11       		.uleb128 0x11
 3873 0247 01       		.uleb128 0x1
 3874 0248 12       		.uleb128 0x12
 3875 0249 06       		.uleb128 0x6
 3876 024a 40       		.uleb128 0x40
 3877 024b 18       		.uleb128 0x18
 3878 024c 9742     		.uleb128 0x2117
 3879 024e 19       		.uleb128 0x19
 3880 024f 01       		.uleb128 0x1
 3881 0250 13       		.uleb128 0x13
 3882 0251 00       		.byte	0
 3883 0252 00       		.byte	0
 3884 0253 2E       		.uleb128 0x2e
 3885 0254 0B       		.uleb128 0xb
 3886 0255 01       		.byte	0x1
 3887 0256 11       		.uleb128 0x11
 3888 0257 01       		.uleb128 0x1
 3889 0258 12       		.uleb128 0x12
 3890 0259 06       		.uleb128 0x6
 3891 025a 00       		.byte	0
 3892 025b 00       		.byte	0
 3893 025c 2F       		.uleb128 0x2f
 3894 025d 34       		.uleb128 0x34
 3895 025e 00       		.byte	0
 3896 025f 03       		.uleb128 0x3
 3897 0260 0E       		.uleb128 0xe
 3898 0261 3A       		.uleb128 0x3a
 3899 0262 0B       		.uleb128 0xb
 3900 0263 3B       		.uleb128 0x3b
 3901 0264 05       		.uleb128 0x5
 3902 0265 49       		.uleb128 0x49
 3903 0266 13       		.uleb128 0x13
 3904 0267 3F       		.uleb128 0x3f
 3905 0268 19       		.uleb128 0x19
ARM GAS  C:\Users\Smaug\AppData\Local\Temp\ccJKcizn.s 			page 98


 3906 0269 3C       		.uleb128 0x3c
 3907 026a 19       		.uleb128 0x19
 3908 026b 00       		.byte	0
 3909 026c 00       		.byte	0
 3910 026d 30       		.uleb128 0x30
 3911 026e 34       		.uleb128 0x34
 3912 026f 00       		.byte	0
 3913 0270 03       		.uleb128 0x3
 3914 0271 0E       		.uleb128 0xe
 3915 0272 3A       		.uleb128 0x3a
 3916 0273 0B       		.uleb128 0xb
 3917 0274 3B       		.uleb128 0x3b
 3918 0275 0B       		.uleb128 0xb
 3919 0276 49       		.uleb128 0x49
 3920 0277 13       		.uleb128 0x13
 3921 0278 3F       		.uleb128 0x3f
 3922 0279 19       		.uleb128 0x19
 3923 027a 3C       		.uleb128 0x3c
 3924 027b 19       		.uleb128 0x19
 3925 027c 00       		.byte	0
 3926 027d 00       		.byte	0
 3927 027e 31       		.uleb128 0x31
 3928 027f 34       		.uleb128 0x34
 3929 0280 00       		.byte	0
 3930 0281 03       		.uleb128 0x3
 3931 0282 0E       		.uleb128 0xe
 3932 0283 3A       		.uleb128 0x3a
 3933 0284 0B       		.uleb128 0xb
 3934 0285 3B       		.uleb128 0x3b
 3935 0286 0B       		.uleb128 0xb
 3936 0287 49       		.uleb128 0x49
 3937 0288 13       		.uleb128 0x13
 3938 0289 3F       		.uleb128 0x3f
 3939 028a 19       		.uleb128 0x19
 3940 028b 02       		.uleb128 0x2
 3941 028c 18       		.uleb128 0x18
 3942 028d 00       		.byte	0
 3943 028e 00       		.byte	0
 3944 028f 32       		.uleb128 0x32
 3945 0290 2E       		.uleb128 0x2e
 3946 0291 00       		.byte	0
 3947 0292 3F       		.uleb128 0x3f
 3948 0293 19       		.uleb128 0x19
 3949 0294 3C       		.uleb128 0x3c
 3950 0295 19       		.uleb128 0x19
 3951 0296 6E       		.uleb128 0x6e
 3952 0297 0E       		.uleb128 0xe
 3953 0298 03       		.uleb128 0x3
 3954 0299 0E       		.uleb128 0xe
 3955 029a 3A       		.uleb128 0x3a
 3956 029b 0B       		.uleb128 0xb
 3957 029c 3B       		.uleb128 0x3b
 3958 029d 0B       		.uleb128 0xb
 3959 029e 00       		.byte	0
 3960 029f 00       		.byte	0
 3961 02a0 33       		.uleb128 0x33
 3962 02a1 2E       		.uleb128 0x2e
ARM GAS  C:\Users\Smaug\AppData\Local\Temp\ccJKcizn.s 			page 99


 3963 02a2 00       		.byte	0
 3964 02a3 3F       		.uleb128 0x3f
 3965 02a4 19       		.uleb128 0x19
 3966 02a5 3C       		.uleb128 0x3c
 3967 02a6 19       		.uleb128 0x19
 3968 02a7 6E       		.uleb128 0x6e
 3969 02a8 0E       		.uleb128 0xe
 3970 02a9 03       		.uleb128 0x3
 3971 02aa 0E       		.uleb128 0xe
 3972 02ab 3A       		.uleb128 0x3a
 3973 02ac 0B       		.uleb128 0xb
 3974 02ad 3B       		.uleb128 0x3b
 3975 02ae 05       		.uleb128 0x5
 3976 02af 00       		.byte	0
 3977 02b0 00       		.byte	0
 3978 02b1 00       		.byte	0
 3979              		.section	.debug_loc,"",%progbits
 3980              	.Ldebug_loc0:
 3981              	.LLST0:
 3982 0000 00000000 		.4byte	.LVL0
 3983 0004 08000000 		.4byte	.LVL2
 3984 0008 0100     		.2byte	0x1
 3985 000a 50       		.byte	0x50
 3986 000b 08000000 		.4byte	.LVL2
 3987 000f 38000000 		.4byte	.LFE757
 3988 0013 0400     		.2byte	0x4
 3989 0015 F3       		.byte	0xf3
 3990 0016 01       		.uleb128 0x1
 3991 0017 50       		.byte	0x50
 3992 0018 9F       		.byte	0x9f
 3993 0019 00000000 		.4byte	0
 3994 001d 00000000 		.4byte	0
 3995              	.LLST1:
 3996 0021 00000000 		.4byte	.LVL0
 3997 0025 04000000 		.4byte	.LVL1
 3998 0029 0100     		.2byte	0x1
 3999 002b 51       		.byte	0x51
 4000 002c 04000000 		.4byte	.LVL1
 4001 0030 38000000 		.4byte	.LFE757
 4002 0034 0400     		.2byte	0x4
 4003 0036 F3       		.byte	0xf3
 4004 0037 01       		.uleb128 0x1
 4005 0038 51       		.byte	0x51
 4006 0039 9F       		.byte	0x9f
 4007 003a 00000000 		.4byte	0
 4008 003e 00000000 		.4byte	0
 4009              	.LLST2:
 4010 0042 00000000 		.4byte	.LVL0
 4011 0046 0A000000 		.4byte	.LVL3
 4012 004a 0100     		.2byte	0x1
 4013 004c 52       		.byte	0x52
 4014 004d 0A000000 		.4byte	.LVL3
 4015 0051 38000000 		.4byte	.LFE757
 4016 0055 0400     		.2byte	0x4
 4017 0057 F3       		.byte	0xf3
 4018 0058 01       		.uleb128 0x1
 4019 0059 52       		.byte	0x52
ARM GAS  C:\Users\Smaug\AppData\Local\Temp\ccJKcizn.s 			page 100


 4020 005a 9F       		.byte	0x9f
 4021 005b 00000000 		.4byte	0
 4022 005f 00000000 		.4byte	0
 4023              	.LLST3:
 4024 0063 0A000000 		.4byte	.LVL3
 4025 0067 10000000 		.4byte	.LVL4
 4026 006b 0200     		.2byte	0x2
 4027 006d 30       		.byte	0x30
 4028 006e 9F       		.byte	0x9f
 4029 006f 10000000 		.4byte	.LVL4
 4030 0073 1C000000 		.4byte	.LVL5
 4031 0077 0100     		.2byte	0x1
 4032 0079 54       		.byte	0x54
 4033 007a 1C000000 		.4byte	.LVL5
 4034 007e 24000000 		.4byte	.LVL6
 4035 0082 0100     		.2byte	0x1
 4036 0084 50       		.byte	0x50
 4037 0085 24000000 		.4byte	.LVL6
 4038 0089 26000000 		.4byte	.LVL7
 4039 008d 0100     		.2byte	0x1
 4040 008f 54       		.byte	0x54
 4041 0090 26000000 		.4byte	.LVL7
 4042 0094 2C000000 		.4byte	.LVL8
 4043 0098 0100     		.2byte	0x1
 4044 009a 50       		.byte	0x50
 4045 009b 2C000000 		.4byte	.LVL8
 4046 009f 36000000 		.4byte	.LVL11
 4047 00a3 0100     		.2byte	0x1
 4048 00a5 54       		.byte	0x54
 4049 00a6 00000000 		.4byte	0
 4050 00aa 00000000 		.4byte	0
 4051              	.LLST4:
 4052 00ae 0A000000 		.4byte	.LVL3
 4053 00b2 10000000 		.4byte	.LVL4
 4054 00b6 0200     		.2byte	0x2
 4055 00b8 47       		.byte	0x47
 4056 00b9 9F       		.byte	0x9f
 4057 00ba 10000000 		.4byte	.LVL4
 4058 00be 2E000000 		.4byte	.LVL9
 4059 00c2 0100     		.2byte	0x1
 4060 00c4 51       		.byte	0x51
 4061 00c5 30000000 		.4byte	.LVL10
 4062 00c9 38000000 		.4byte	.LFE757
 4063 00cd 0100     		.2byte	0x1
 4064 00cf 51       		.byte	0x51
 4065 00d0 00000000 		.4byte	0
 4066 00d4 00000000 		.4byte	0
 4067              	.LLST5:
 4068 00d8 00000000 		.4byte	.LVL12
 4069 00dc 0C000000 		.4byte	.LVL15
 4070 00e0 0100     		.2byte	0x1
 4071 00e2 50       		.byte	0x50
 4072 00e3 0C000000 		.4byte	.LVL15
 4073 00e7 36000000 		.4byte	.LVL20
 4074 00eb 0100     		.2byte	0x1
 4075 00ed 55       		.byte	0x55
 4076 00ee 36000000 		.4byte	.LVL20
ARM GAS  C:\Users\Smaug\AppData\Local\Temp\ccJKcizn.s 			page 101


 4077 00f2 44000000 		.4byte	.LFE756
 4078 00f6 0400     		.2byte	0x4
 4079 00f8 F3       		.byte	0xf3
 4080 00f9 01       		.uleb128 0x1
 4081 00fa 50       		.byte	0x50
 4082 00fb 9F       		.byte	0x9f
 4083 00fc 00000000 		.4byte	0
 4084 0100 00000000 		.4byte	0
 4085              	.LLST6:
 4086 0104 00000000 		.4byte	.LVL12
 4087 0108 0A000000 		.4byte	.LVL14
 4088 010c 0100     		.2byte	0x1
 4089 010e 51       		.byte	0x51
 4090 010f 0A000000 		.4byte	.LVL14
 4091 0113 44000000 		.4byte	.LFE756
 4092 0117 0400     		.2byte	0x4
 4093 0119 F3       		.byte	0xf3
 4094 011a 01       		.uleb128 0x1
 4095 011b 51       		.byte	0x51
 4096 011c 9F       		.byte	0x9f
 4097 011d 00000000 		.4byte	0
 4098 0121 00000000 		.4byte	0
 4099              	.LLST7:
 4100 0125 06000000 		.4byte	.LVL13
 4101 0129 10000000 		.4byte	.LVL16
 4102 012d 0200     		.2byte	0x2
 4103 012f 31       		.byte	0x31
 4104 0130 9F       		.byte	0x9f
 4105 0131 00000000 		.4byte	0
 4106 0135 00000000 		.4byte	0
 4107              	.LLST8:
 4108 0139 06000000 		.4byte	.LVL13
 4109 013d 10000000 		.4byte	.LVL16
 4110 0141 0600     		.2byte	0x6
 4111 0143 03       		.byte	0x3
 4112 0144 00000000 		.4byte	blankingFrame
 4113 0148 9F       		.byte	0x9f
 4114 0149 00000000 		.4byte	0
 4115 014d 00000000 		.4byte	0
 4116              	.LLST9:
 4117 0151 06000000 		.4byte	.LVL13
 4118 0155 10000000 		.4byte	.LVL16
 4119 0159 0600     		.2byte	0x6
 4120 015b 0C       		.byte	0xc
 4121 015c 00006740 		.4byte	0x40670000
 4122 0160 9F       		.byte	0x9f
 4123 0161 00000000 		.4byte	0
 4124 0165 00000000 		.4byte	0
 4125              	.LLST10:
 4126 0169 10000000 		.4byte	.LVL16
 4127 016d 2A000000 		.4byte	.LVL18
 4128 0171 0100     		.2byte	0x1
 4129 0173 56       		.byte	0x56
 4130 0174 00000000 		.4byte	0
 4131 0178 00000000 		.4byte	0
 4132              	.LLST11:
 4133 017c 10000000 		.4byte	.LVL16
ARM GAS  C:\Users\Smaug\AppData\Local\Temp\ccJKcizn.s 			page 102


 4134 0180 2A000000 		.4byte	.LVL18
 4135 0184 0100     		.2byte	0x1
 4136 0186 55       		.byte	0x55
 4137 0187 00000000 		.4byte	0
 4138 018b 00000000 		.4byte	0
 4139              	.LLST12:
 4140 018f 10000000 		.4byte	.LVL16
 4141 0193 2A000000 		.4byte	.LVL18
 4142 0197 0600     		.2byte	0x6
 4143 0199 0C       		.byte	0xc
 4144 019a 00006740 		.4byte	0x40670000
 4145 019e 9F       		.byte	0x9f
 4146 019f 00000000 		.4byte	0
 4147 01a3 00000000 		.4byte	0
 4148              	.LLST13:
 4149 01a7 2A000000 		.4byte	.LVL18
 4150 01ab 34000000 		.4byte	.LVL19
 4151 01af 0200     		.2byte	0x2
 4152 01b1 31       		.byte	0x31
 4153 01b2 9F       		.byte	0x9f
 4154 01b3 00000000 		.4byte	0
 4155 01b7 00000000 		.4byte	0
 4156              	.LLST14:
 4157 01bb 2A000000 		.4byte	.LVL18
 4158 01bf 34000000 		.4byte	.LVL19
 4159 01c3 0600     		.2byte	0x6
 4160 01c5 03       		.byte	0x3
 4161 01c6 00000000 		.4byte	blankingFrame
 4162 01ca 9F       		.byte	0x9f
 4163 01cb 00000000 		.4byte	0
 4164 01cf 00000000 		.4byte	0
 4165              	.LLST15:
 4166 01d3 2A000000 		.4byte	.LVL18
 4167 01d7 34000000 		.4byte	.LVL19
 4168 01db 0600     		.2byte	0x6
 4169 01dd 0C       		.byte	0xc
 4170 01de 00006740 		.4byte	0x40670000
 4171 01e2 9F       		.byte	0x9f
 4172 01e3 00000000 		.4byte	0
 4173 01e7 00000000 		.4byte	0
 4174              	.LLST16:
 4175 01eb 0C000000 		.4byte	.LVL21
 4176 01ef 1C000000 		.4byte	.LVL24
 4177 01f3 0100     		.2byte	0x1
 4178 01f5 50       		.byte	0x50
 4179 01f6 1C000000 		.4byte	.LVL24
 4180 01fa 28000000 		.4byte	.LFE755
 4181 01fe 0100     		.2byte	0x1
 4182 0200 52       		.byte	0x52
 4183 0201 00000000 		.4byte	0
 4184 0205 00000000 		.4byte	0
 4185              	.LLST17:
 4186 0209 10000000 		.4byte	.LVL22
 4187 020d 1A000000 		.4byte	.LVL23
 4188 0211 0600     		.2byte	0x6
 4189 0213 0C       		.byte	0xc
 4190 0214 00006740 		.4byte	0x40670000
ARM GAS  C:\Users\Smaug\AppData\Local\Temp\ccJKcizn.s 			page 103


 4191 0218 9F       		.byte	0x9f
 4192 0219 00000000 		.4byte	0
 4193 021d 00000000 		.4byte	0
 4194              	.LLST18:
 4195 0221 00000000 		.4byte	.LVL25
 4196 0225 1C000000 		.4byte	.LVL29
 4197 0229 0100     		.2byte	0x1
 4198 022b 50       		.byte	0x50
 4199 022c 1C000000 		.4byte	.LVL29
 4200 0230 22000000 		.4byte	.LVL31
 4201 0234 0400     		.2byte	0x4
 4202 0236 F3       		.byte	0xf3
 4203 0237 01       		.uleb128 0x1
 4204 0238 50       		.byte	0x50
 4205 0239 9F       		.byte	0x9f
 4206 023a 22000000 		.4byte	.LVL31
 4207 023e 28000000 		.4byte	.LFE758
 4208 0242 0100     		.2byte	0x1
 4209 0244 50       		.byte	0x50
 4210 0245 00000000 		.4byte	0
 4211 0249 00000000 		.4byte	0
 4212              	.LLST19:
 4213 024d 00000000 		.4byte	.LVL25
 4214 0251 1A000000 		.4byte	.LVL28
 4215 0255 0100     		.2byte	0x1
 4216 0257 51       		.byte	0x51
 4217 0258 1A000000 		.4byte	.LVL28
 4218 025c 22000000 		.4byte	.LVL31
 4219 0260 0400     		.2byte	0x4
 4220 0262 F3       		.byte	0xf3
 4221 0263 01       		.uleb128 0x1
 4222 0264 51       		.byte	0x51
 4223 0265 9F       		.byte	0x9f
 4224 0266 22000000 		.4byte	.LVL31
 4225 026a 28000000 		.4byte	.LFE758
 4226 026e 0100     		.2byte	0x1
 4227 0270 51       		.byte	0x51
 4228 0271 00000000 		.4byte	0
 4229 0275 00000000 		.4byte	0
 4230              	.LLST20:
 4231 0279 00000000 		.4byte	.LVL25
 4232 027d 14000000 		.4byte	.LVL27
 4233 0281 0100     		.2byte	0x1
 4234 0283 52       		.byte	0x52
 4235 0284 14000000 		.4byte	.LVL27
 4236 0288 22000000 		.4byte	.LVL31
 4237 028c 0400     		.2byte	0x4
 4238 028e F3       		.byte	0xf3
 4239 028f 01       		.uleb128 0x1
 4240 0290 52       		.byte	0x52
 4241 0291 9F       		.byte	0x9f
 4242 0292 22000000 		.4byte	.LVL31
 4243 0296 28000000 		.4byte	.LFE758
 4244 029a 0100     		.2byte	0x1
 4245 029c 52       		.byte	0x52
 4246 029d 00000000 		.4byte	0
 4247 02a1 00000000 		.4byte	0
ARM GAS  C:\Users\Smaug\AppData\Local\Temp\ccJKcizn.s 			page 104


 4248              	.LLST21:
 4249 02a5 00000000 		.4byte	.LVL25
 4250 02a9 12000000 		.4byte	.LVL26
 4251 02ad 0100     		.2byte	0x1
 4252 02af 53       		.byte	0x53
 4253 02b0 12000000 		.4byte	.LVL26
 4254 02b4 22000000 		.4byte	.LVL31
 4255 02b8 0400     		.2byte	0x4
 4256 02ba F3       		.byte	0xf3
 4257 02bb 01       		.uleb128 0x1
 4258 02bc 53       		.byte	0x53
 4259 02bd 9F       		.byte	0x9f
 4260 02be 22000000 		.4byte	.LVL31
 4261 02c2 28000000 		.4byte	.LFE758
 4262 02c6 0100     		.2byte	0x1
 4263 02c8 53       		.byte	0x53
 4264 02c9 00000000 		.4byte	0
 4265 02cd 00000000 		.4byte	0
 4266              	.LLST22:
 4267 02d1 00000000 		.4byte	.LVL32
 4268 02d5 0C000000 		.4byte	.LVL34
 4269 02d9 0100     		.2byte	0x1
 4270 02db 50       		.byte	0x50
 4271 02dc 0C000000 		.4byte	.LVL34
 4272 02e0 30000000 		.4byte	.LFE759
 4273 02e4 0400     		.2byte	0x4
 4274 02e6 F3       		.byte	0xf3
 4275 02e7 01       		.uleb128 0x1
 4276 02e8 50       		.byte	0x50
 4277 02e9 9F       		.byte	0x9f
 4278 02ea 00000000 		.4byte	0
 4279 02ee 00000000 		.4byte	0
 4280              	.LLST23:
 4281 02f2 00000000 		.4byte	.LVL32
 4282 02f6 0C000000 		.4byte	.LVL34
 4283 02fa 0100     		.2byte	0x1
 4284 02fc 51       		.byte	0x51
 4285 02fd 0C000000 		.4byte	.LVL34
 4286 0301 30000000 		.4byte	.LFE759
 4287 0305 0400     		.2byte	0x4
 4288 0307 F3       		.byte	0xf3
 4289 0308 01       		.uleb128 0x1
 4290 0309 51       		.byte	0x51
 4291 030a 9F       		.byte	0x9f
 4292 030b 00000000 		.4byte	0
 4293 030f 00000000 		.4byte	0
 4294              	.LLST24:
 4295 0313 00000000 		.4byte	.LVL32
 4296 0317 0C000000 		.4byte	.LVL34
 4297 031b 0100     		.2byte	0x1
 4298 031d 52       		.byte	0x52
 4299 031e 0C000000 		.4byte	.LVL34
 4300 0322 30000000 		.4byte	.LFE759
 4301 0326 0400     		.2byte	0x4
 4302 0328 F3       		.byte	0xf3
 4303 0329 01       		.uleb128 0x1
 4304 032a 52       		.byte	0x52
ARM GAS  C:\Users\Smaug\AppData\Local\Temp\ccJKcizn.s 			page 105


 4305 032b 9F       		.byte	0x9f
 4306 032c 00000000 		.4byte	0
 4307 0330 00000000 		.4byte	0
 4308              	.LLST25:
 4309 0334 08000000 		.4byte	.LVL33
 4310 0338 0C000000 		.4byte	.LVL34
 4311 033c 0200     		.2byte	0x2
 4312 033e 30       		.byte	0x30
 4313 033f 9F       		.byte	0x9f
 4314 0340 0C000000 		.4byte	.LVL34
 4315 0344 22000000 		.4byte	.LVL36
 4316 0348 0100     		.2byte	0x1
 4317 034a 54       		.byte	0x54
 4318 034b 24000000 		.4byte	.LVL37
 4319 034f 2A000000 		.4byte	.LVL38
 4320 0353 0100     		.2byte	0x1
 4321 0355 54       		.byte	0x54
 4322 0356 00000000 		.4byte	0
 4323 035a 00000000 		.4byte	0
 4324              		.section	.debug_aranges,"",%progbits
 4325 0000 44000000 		.4byte	0x44
 4326 0004 0200     		.2byte	0x2
 4327 0006 00000000 		.4byte	.Ldebug_info0
 4328 000a 04       		.byte	0x4
 4329 000b 00       		.byte	0
 4330 000c 0000     		.2byte	0
 4331 000e 0000     		.2byte	0
 4332 0010 00000000 		.4byte	.LFB757
 4333 0014 38000000 		.4byte	.LFE757-.LFB757
 4334 0018 00000000 		.4byte	.LFB756
 4335 001c 44000000 		.4byte	.LFE756-.LFB756
 4336 0020 00000000 		.4byte	.LFB755
 4337 0024 28000000 		.4byte	.LFE755-.LFB755
 4338 0028 00000000 		.4byte	.LFB758
 4339 002c 28000000 		.4byte	.LFE758-.LFB758
 4340 0030 00000000 		.4byte	.LFB759
 4341 0034 30000000 		.4byte	.LFE759-.LFB759
 4342 0038 00000000 		.4byte	.LFB760
 4343 003c 14000000 		.4byte	.LFE760-.LFB760
 4344 0040 00000000 		.4byte	0
 4345 0044 00000000 		.4byte	0
 4346              		.section	.debug_ranges,"",%progbits
 4347              	.Ldebug_ranges0:
 4348 0000 0A000000 		.4byte	.LBB8
 4349 0004 0C000000 		.4byte	.LBE8
 4350 0008 0E000000 		.4byte	.LBB9
 4351 000c 34000000 		.4byte	.LBE9
 4352 0010 00000000 		.4byte	0
 4353 0014 00000000 		.4byte	0
 4354 0018 00000000 		.4byte	.LFB757
 4355 001c 38000000 		.4byte	.LFE757
 4356 0020 00000000 		.4byte	.LFB756
 4357 0024 44000000 		.4byte	.LFE756
 4358 0028 00000000 		.4byte	.LFB755
 4359 002c 28000000 		.4byte	.LFE755
 4360 0030 00000000 		.4byte	.LFB758
 4361 0034 28000000 		.4byte	.LFE758
ARM GAS  C:\Users\Smaug\AppData\Local\Temp\ccJKcizn.s 			page 106


 4362 0038 00000000 		.4byte	.LFB759
 4363 003c 30000000 		.4byte	.LFE759
 4364 0040 00000000 		.4byte	.LFB760
 4365 0044 14000000 		.4byte	.LFE760
 4366 0048 00000000 		.4byte	0
 4367 004c 00000000 		.4byte	0
 4368              		.section	.debug_line,"",%progbits
 4369              	.Ldebug_line0:
 4370 0000 AD040000 		.section	.debug_str,"MS",%progbits,1
 4370      02000504 
 4370      00000201 
 4370      FB0E0D00 
 4370      01010101 
 4371              	.LASF24:
 4372 0000 52455345 		.ascii	"RESERVED\000"
 4372      52564544 
 4372      00
 4373              	.LASF248:
 4374 0009 63795F63 		.ascii	"cy_cb_scb_spi_handle_events_t\000"
 4374      625F7363 
 4374      625F7370 
 4374      695F6861 
 4374      6E646C65 
 4375              	.LASF269:
 4376 0027 63795F73 		.ascii	"cy_stc_scb_spi_config_t\000"
 4376      74635F73 
 4376      63625F73 
 4376      70695F63 
 4376      6F6E6669 
 4377              	.LASF306:
 4378 003f 73746F70 		.ascii	"stopInputMode\000"
 4378      496E7075 
 4378      744D6F64 
 4378      6500
 4379              	.LASF350:
 4380 004d 63795F64 		.ascii	"cy_device\000"
 4380      65766963 
 4380      6500
 4381              	.LASF235:
 4382 0057 43595F53 		.ascii	"CY_SCB_SPI_SLAVE\000"
 4382      43425F53 
 4382      50495F53 
 4382      4C415645 
 4382      00
 4383              	.LASF161:
 4384 0068 63707573 		.ascii	"cpussCm0ClockCtlOffset\000"
 4384      73436D30 
 4384      436C6F63 
 4384      6B43746C 
 4384      4F666673 
 4385              	.LASF355:
 4386 007f 50574D5F 		.ascii	"PWM_Trig_config\000"
 4386      54726967 
 4386      5F636F6E 
 4386      66696700 
 4387              	.LASF212:
 4388 008f 6D617374 		.ascii	"masterStatus\000"
ARM GAS  C:\Users\Smaug\AppData\Local\Temp\ccJKcizn.s 			page 107


 4388      65725374 
 4388      61747573 
 4388      00
 4389              	.LASF257:
 4390 009c 656E6162 		.ascii	"enableMsbFirst\000"
 4390      6C654D73 
 4390      62466972 
 4390      737400
 4391              	.LASF256:
 4392 00ab 74784461 		.ascii	"txDataWidth\000"
 4392      74615769 
 4392      64746800 
 4393              	.LASF282:
 4394 00b7 74785374 		.ascii	"txStatus\000"
 4394      61747573 
 4394      00
 4395              	.LASF23:
 4396 00c0 434D445F 		.ascii	"CMD_RESP_STATUS\000"
 4396      52455350 
 4396      5F535441 
 4396      54555300 
 4397              	.LASF81:
 4398 00d0 494E5452 		.ascii	"INTR_TX_MASK\000"
 4398      5F54585F 
 4398      4D41534B 
 4398      00
 4399              	.LASF93:
 4400 00dd 70657269 		.ascii	"periBase\000"
 4400      42617365 
 4400      00
 4401              	.LASF92:
 4402 00e6 666C6173 		.ascii	"flashcBase\000"
 4402      68634261 
 4402      736500
 4403              	.LASF334:
 4404 00f1 62756666 		.ascii	"buffer\000"
 4404      657200
 4405              	.LASF139:
 4406 00f8 64774368 		.ascii	"dwChSize\000"
 4406      53697A65 
 4406      00
 4407              	.LASF353:
 4408 0101 4932435F 		.ascii	"I2C_Main_context\000"
 4408      4D61696E 
 4408      5F636F6E 
 4408      74657874 
 4408      00
 4409              	.LASF42:
 4410 0112 54585F46 		.ascii	"TX_FIFO_STATUS\000"
 4410      49464F5F 
 4410      53544154 
 4410      555300
 4411              	.LASF219:
 4412 0121 736C6176 		.ascii	"slaveStatus\000"
 4412      65537461 
 4412      74757300 
 4413              	.LASF13:
ARM GAS  C:\Users\Smaug\AppData\Local\Temp\ccJKcizn.s 			page 108


 4414 012d 756E7369 		.ascii	"unsigned int\000"
 4414      676E6564 
 4414      20696E74 
 4414      00
 4415              	.LASF53:
 4416 013a 52585F46 		.ascii	"RX_FIFO_RD_SILENT\000"
 4416      49464F5F 
 4416      52445F53 
 4416      494C454E 
 4416      5400
 4417              	.LASF207:
 4418 014c 63795F63 		.ascii	"cy_cb_scb_i2c_handle_events_t\000"
 4418      625F7363 
 4418      625F6932 
 4418      635F6861 
 4418      6E646C65 
 4419              	.LASF217:
 4420 016a 6D617374 		.ascii	"masterBufferIdx\000"
 4420      65724275 
 4420      66666572 
 4420      49647800 
 4421              	.LASF57:
 4422 017a 494E5452 		.ascii	"INTR_CAUSE\000"
 4422      5F434155 
 4422      534500
 4423              	.LASF121:
 4424 0185 736D6966 		.ascii	"smifDeviceNr\000"
 4424      44657669 
 4424      63654E72 
 4424      00
 4425              	.LASF186:
 4426 0192 43595F53 		.ascii	"CY_SAR_RANGE_COND_OUTSIDE\000"
 4426      41525F52 
 4426      414E4745 
 4426      5F434F4E 
 4426      445F4F55 
 4427              	.LASF151:
 4428 01ac 70657269 		.ascii	"periDivCmdPaTypeSelPos\000"
 4428      44697643 
 4428      6D645061 
 4428      54797065 
 4428      53656C50 
 4429              	.LASF277:
 4430 01c3 74784275 		.ascii	"txBufIdx\000"
 4430      66496478 
 4430      00
 4431              	.LASF305:
 4432 01cc 73746172 		.ascii	"startInput\000"
 4432      74496E70 
 4432      757400
 4433              	.LASF47:
 4434 01d7 52585F46 		.ascii	"RX_FIFO_CTRL\000"
 4434      49464F5F 
 4434      4354524C 
 4434      00
 4435              	.LASF7:
 4436 01e4 5F5F696E 		.ascii	"__int32_t\000"
ARM GAS  C:\Users\Smaug\AppData\Local\Temp\ccJKcizn.s 			page 109


 4436      7433325F 
 4436      7400
 4437              	.LASF289:
 4438 01ee 63795F73 		.ascii	"cy_stc_scb_uart_context_t\000"
 4438      74635F73 
 4438      63625F75 
 4438      6172745F 
 4438      636F6E74 
 4439              	.LASF91:
 4440 0208 63707573 		.ascii	"cpussBase\000"
 4440      73426173 
 4440      6500
 4441              	.LASF326:
 4442 0212 6368616E 		.ascii	"channelBase\000"
 4442      6E656C42 
 4442      61736500 
 4443              	.LASF225:
 4444 021e 736C6176 		.ascii	"slaveRxBuffer\000"
 4444      65527842 
 4444      75666665 
 4444      7200
 4445              	.LASF250:
 4446 022c 63795F73 		.ascii	"cy_stc_scb_spi_config\000"
 4446      74635F73 
 4446      63625F73 
 4446      70695F63 
 4446      6F6E6669 
 4447              	.LASF115:
 4448 0242 63707573 		.ascii	"cpussFmIrq\000"
 4448      73466D49 
 4448      727100
 4449              	.LASF75:
 4450 024d 494E5452 		.ascii	"INTR_S_SET\000"
 4450      5F535F53 
 4450      455400
 4451              	.LASF354:
 4452 0258 55415254 		.ascii	"UART_Debug_context\000"
 4452      5F446562 
 4452      75675F63 
 4452      6F6E7465 
 4452      787400
 4453              	.LASF328:
 4454 026b 6877436F 		.ascii	"hwConfigStc\000"
 4454      6E666967 
 4454      53746300 
 4455              	.LASF229:
 4456 0277 63624164 		.ascii	"cbAddr\000"
 4456      647200
 4457              	.LASF87:
 4458 027e 494E5452 		.ascii	"INTR_RX_MASKED\000"
 4458      5F52585F 
 4458      4D41534B 
 4458      454400
 4459              	.LASF204:
 4460 028d 43595F53 		.ascii	"CY_SCB_I2C_ACK\000"
 4460      43425F49 
 4460      32435F41 
ARM GAS  C:\Users\Smaug\AppData\Local\Temp\ccJKcizn.s 			page 110


 4460      434B00
 4461              	.LASF307:
 4462 029c 73746F70 		.ascii	"stopInput\000"
 4462      496E7075 
 4462      7400
 4463              	.LASF285:
 4464 02a6 72785269 		.ascii	"rxRingBufSize\000"
 4464      6E674275 
 4464      6653697A 
 4464      6500
 4465              	.LASF259:
 4466 02b4 656E6162 		.ascii	"enableInputFilter\000"
 4466      6C65496E 
 4466      70757446 
 4466      696C7465 
 4466      7200
 4467              	.LASF312:
 4468 02c6 70776D4D 		.ascii	"pwmMode\000"
 4468      6F646500 
 4469              	.LASF147:
 4470 02ce 70657269 		.ascii	"periTrGrSize\000"
 4470      54724772 
 4470      53697A65 
 4470      00
 4471              	.LASF150:
 4472 02db 70657269 		.ascii	"periDivCmdPaDivSelPos\000"
 4472      44697643 
 4472      6D645061 
 4472      44697653 
 4472      656C506F 
 4473              	.LASF183:
 4474 02f1 43595F53 		.ascii	"CY_SAR_RANGE_COND_BELOW\000"
 4474      41525F52 
 4474      414E4745 
 4474      5F434F4E 
 4474      445F4245 
 4475              	.LASF127:
 4476 0309 63727970 		.ascii	"cryptoMemSize\000"
 4476      746F4D65 
 4476      6D53697A 
 4476      6500
 4477              	.LASF345:
 4478 0317 4C656473 		.ascii	"Leds_PutPixel\000"
 4478      5F507574 
 4478      50697865 
 4478      6C00
 4479              	.LASF173:
 4480 0325 63707573 		.ascii	"cpussRam1Ctl0\000"
 4480      7352616D 
 4480      3143746C 
 4480      3000
 4481              	.LASF367:
 4482 0333 6C656463 		.ascii	"ledctrl.c\000"
 4482      74726C2E 
 4482      6300
 4483              	.LASF175:
 4484 033d 69706353 		.ascii	"ipcStructSize\000"
ARM GAS  C:\Users\Smaug\AppData\Local\Temp\ccJKcizn.s 			page 111


 4484      74727563 
 4484      7453697A 
 4484      6500
 4485              	.LASF205:
 4486 034b 43595F53 		.ascii	"CY_SCB_I2C_NAK\000"
 4486      43425F49 
 4486      32435F4E 
 4486      414B00
 4487              	.LASF262:
 4488 035a 7373506F 		.ascii	"ssPolarity\000"
 4488      6C617269 
 4488      747900
 4489              	.LASF208:
 4490 0365 63795F63 		.ascii	"cy_cb_scb_i2c_handle_addr_t\000"
 4490      625F7363 
 4490      625F6932 
 4490      635F6861 
 4490      6E646C65 
 4491              	.LASF296:
 4492 0381 636F6D70 		.ascii	"compare0\000"
 4492      61726530 
 4492      00
 4493              	.LASF297:
 4494 038a 636F6D70 		.ascii	"compare1\000"
 4494      61726531 
 4494      00
 4495              	.LASF366:
 4496 0393 474E5520 		.ascii	"GNU C11 5.4.1 20160609 (release) [ARM/embedded-5-br"
 4496      43313120 
 4496      352E342E 
 4496      31203230 
 4496      31363036 
 4497 03c6 616E6368 		.ascii	"anch revision 237715] -mcpu=cortex-m4 -mfloat-abi=s"
 4497      20726576 
 4497      6973696F 
 4497      6E203233 
 4497      37373135 
 4498 03f9 6F667466 		.ascii	"oftfp -mfpu=fpv4-sp-d16 -mthumb -g -Og -ffunction-s"
 4498      70202D6D 
 4498      6670753D 
 4498      66707634 
 4498      2D73702D 
 4499 042c 65637469 		.ascii	"ections -ffat-lto-objects\000"
 4499      6F6E7320 
 4499      2D666661 
 4499      742D6C74 
 4499      6F2D6F62 
 4500              	.LASF109:
 4501 0446 70726F74 		.ascii	"protVersion\000"
 4501      56657273 
 4501      696F6E00 
 4502              	.LASF249:
 4503 0452 63795F73 		.ascii	"cy_stc_scb_i2c_context\000"
 4503      74635F73 
 4503      63625F69 
 4503      32635F63 
 4503      6F6E7465 
ARM GAS  C:\Users\Smaug\AppData\Local\Temp\ccJKcizn.s 			page 112


 4504              	.LASF30:
 4505 0469 55415254 		.ascii	"UART_RX_CTRL\000"
 4505      5F52585F 
 4505      4354524C 
 4505      00
 4506              	.LASF238:
 4507 0476 43595F53 		.ascii	"CY_SCB_SPI_MOTOROLA\000"
 4507      43425F53 
 4507      50495F4D 
 4507      4F544F52 
 4507      4F4C4100 
 4508              	.LASF311:
 4509 048a 63795F73 		.ascii	"cy_stc_tcpwm_pwm_config\000"
 4509      74635F74 
 4509      6370776D 
 4509      5F70776D 
 4509      5F636F6E 
 4510              	.LASF149:
 4511 04a2 70657269 		.ascii	"periDivCmdTypeSelPos\000"
 4511      44697643 
 4511      6D645479 
 4511      70655365 
 4511      6C506F73 
 4512              	.LASF166:
 4513 04b7 63707573 		.ascii	"cpussTrimRamCtlOffset\000"
 4513      73547269 
 4513      6D52616D 
 4513      43746C4F 
 4513      66667365 
 4514              	.LASF89:
 4515 04cd 43795343 		.ascii	"CySCB_Type\000"
 4515      425F5479 
 4515      706500
 4516              	.LASF358:
 4517 04d8 50574D5F 		.ascii	"PWM_Buz_config\000"
 4517      42757A5F 
 4517      636F6E66 
 4517      696700
 4518              	.LASF38:
 4519 04e7 4932435F 		.ascii	"I2C_CFG\000"
 4519      43464700 
 4520              	.LASF221:
 4521 04ef 736C6176 		.ascii	"slaveTxBuffer\000"
 4521      65547842 
 4521      75666665 
 4521      7200
 4522              	.LASF356:
 4523 04fd 436F756E 		.ascii	"Counter_Echo_config\000"
 4523      7465725F 
 4523      4563686F 
 4523      5F636F6E 
 4523      66696700 
 4524              	.LASF195:
 4525 0511 6368616E 		.ascii	"chanConfig\000"
 4525      436F6E66 
 4525      696700
 4526              	.LASF223:
ARM GAS  C:\Users\Smaug\AppData\Local\Temp\ccJKcizn.s 			page 113


 4527 051c 736C6176 		.ascii	"slaveTxBufferIdx\000"
 4527      65547842 
 4527      75666665 
 4527      72496478 
 4527      00
 4528              	.LASF18:
 4529 052d 75696E74 		.ascii	"uint32_t\000"
 4529      33325F74 
 4529      00
 4530              	.LASF264:
 4531 0536 72784669 		.ascii	"rxFifoTriggerLevel\000"
 4531      666F5472 
 4531      69676765 
 4531      724C6576 
 4531      656C00
 4532              	.LASF70:
 4533 0549 494E5452 		.ascii	"INTR_M_SET\000"
 4533      5F4D5F53 
 4533      455400
 4534              	.LASF159:
 4535 0554 6770696F 		.ascii	"gpioPrtCfgOutOffset\000"
 4535      50727443 
 4535      66674F75 
 4535      744F6666 
 4535      73657400 
 4536              	.LASF263:
 4537 0568 656E6162 		.ascii	"enableWakeFromSleep\000"
 4537      6C655761 
 4537      6B654672 
 4537      6F6D536C 
 4537      65657000 
 4538              	.LASF180:
 4539 057c 666C6F61 		.ascii	"float\000"
 4539      7400
 4540              	.LASF260:
 4541 0582 656E6162 		.ascii	"enableMisoLateSample\000"
 4541      6C654D69 
 4541      736F4C61 
 4541      74655361 
 4541      6D706C65 
 4542              	.LASF102:
 4543 0597 63727970 		.ascii	"cryptoVersion\000"
 4543      746F5665 
 4543      7273696F 
 4543      6E00
 4544              	.LASF72:
 4545 05a5 494E5452 		.ascii	"INTR_M_MASKED\000"
 4545      5F4D5F4D 
 4545      41534B45 
 4545      4400
 4546              	.LASF123:
 4547 05b3 65704D6F 		.ascii	"epMonitorNr\000"
 4547      6E69746F 
 4547      724E7200 
 4548              	.LASF333:
 4549 05bf 62617365 		.ascii	"base\000"
 4549      00
ARM GAS  C:\Users\Smaug\AppData\Local\Temp\ccJKcizn.s 			page 114


 4550              	.LASF233:
 4551 05c4 43595F53 		.ascii	"CY_SCB_SPI_TRANSFER_BUSY\000"
 4551      43425F53 
 4551      50495F54 
 4551      52414E53 
 4551      4645525F 
 4552              	.LASF281:
 4553 05dd 63795F73 		.ascii	"cy_stc_scb_uart_context\000"
 4553      74635F73 
 4553      63625F75 
 4553      6172745F 
 4553      636F6E74 
 4554              	.LASF303:
 4555 05f5 72656C6F 		.ascii	"reloadInput\000"
 4555      6164496E 
 4555      70757400 
 4556              	.LASF15:
 4557 0601 696E7431 		.ascii	"int16_t\000"
 4557      365F7400 
 4558              	.LASF158:
 4559 0609 6770696F 		.ascii	"gpioPrtCfgInOffset\000"
 4559      50727443 
 4559      6667496E 
 4559      4F666673 
 4559      657400
 4560              	.LASF327:
 4561 061c 6E756D43 		.ascii	"numChannels\000"
 4561      68616E6E 
 4561      656C7300 
 4562              	.LASF12:
 4563 0628 6C6F6E67 		.ascii	"long long unsigned int\000"
 4563      206C6F6E 
 4563      6720756E 
 4563      7369676E 
 4563      65642069 
 4564              	.LASF49:
 4565 063f 52455345 		.ascii	"RESERVED6\000"
 4565      52564544 
 4565      3600
 4566              	.LASF160:
 4567 0649 6770696F 		.ascii	"gpioPrtCfgSioOffset\000"
 4567      50727443 
 4567      66675369 
 4567      6F4F6666 
 4567      73657400 
 4568              	.LASF117:
 4569 065d 73727373 		.ascii	"srssNumClkpath\000"
 4569      4E756D43 
 4569      6C6B7061 
 4569      746800
 4570              	.LASF114:
 4571 066c 63707573 		.ascii	"cpussIpc0Irq\000"
 4571      73497063 
 4571      30497271 
 4571      00
 4572              	.LASF341:
 4573 0679 4C656473 		.ascii	"Leds_SendData\000"
ARM GAS  C:\Users\Smaug\AppData\Local\Temp\ccJKcizn.s 			page 115


 4573      5F53656E 
 4573      64446174 
 4573      6100
 4574              	.LASF316:
 4575 0687 70657269 		.ascii	"period1\000"
 4575      6F643100 
 4576              	.LASF192:
 4577 068f 72616E67 		.ascii	"rangeThres\000"
 4577      65546872 
 4577      657300
 4578              	.LASF94:
 4579 069a 75646242 		.ascii	"udbBase\000"
 4579      61736500 
 4580              	.LASF222:
 4581 06a2 736C6176 		.ascii	"slaveTxBufferSize\000"
 4581      65547842 
 4581      75666665 
 4581      7253697A 
 4581      6500
 4582              	.LASF184:
 4583 06b4 43595F53 		.ascii	"CY_SAR_RANGE_COND_INSIDE\000"
 4583      41525F52 
 4583      414E4745 
 4583      5F434F4E 
 4583      445F494E 
 4584              	.LASF236:
 4585 06cd 43595F53 		.ascii	"CY_SCB_SPI_MASTER\000"
 4585      43425F53 
 4585      50495F4D 
 4585      41535445 
 4585      5200
 4586              	.LASF220:
 4587 06df 736C6176 		.ascii	"slaveRdBufEmpty\000"
 4587      65526442 
 4587      7566456D 
 4587      70747900 
 4588              	.LASF203:
 4589 06ef 63795F73 		.ascii	"cy_stc_sar_config_t\000"
 4589      74635F73 
 4589      61725F63 
 4589      6F6E6669 
 4589      675F7400 
 4590              	.LASF319:
 4591 0703 696E7665 		.ascii	"invertPWMOutN\000"
 4591      72745057 
 4591      4D4F7574 
 4591      4E00
 4592              	.LASF188:
 4593 0711 6374726C 		.ascii	"ctrl\000"
 4593      00
 4594              	.LASF304:
 4595 0716 73746172 		.ascii	"startInputMode\000"
 4595      74496E70 
 4595      75744D6F 
 4595      646500
 4596              	.LASF40:
 4597 0725 54585F43 		.ascii	"TX_CTRL\000"
ARM GAS  C:\Users\Smaug\AppData\Local\Temp\ccJKcizn.s 			page 116


 4597      54524C00 
 4598              	.LASF80:
 4599 072d 494E5452 		.ascii	"INTR_TX_SET\000"
 4599      5F54585F 
 4599      53455400 
 4600              	.LASF300:
 4601 0739 63617074 		.ascii	"captureInputMode\000"
 4601      75726549 
 4601      6E707574 
 4601      4D6F6465 
 4601      00
 4602              	.LASF29:
 4603 074a 55415254 		.ascii	"UART_TX_CTRL\000"
 4603      5F54585F 
 4603      4354524C 
 4603      00
 4604              	.LASF132:
 4605 0757 666C6173 		.ascii	"flashEraseDelay\000"
 4605      68457261 
 4605      73654465 
 4605      6C617900 
 4606              	.LASF283:
 4607 0767 72785374 		.ascii	"rxStatus\000"
 4607      61747573 
 4607      00
 4608              	.LASF247:
 4609 0770 63795F65 		.ascii	"cy_en_scb_spi_sclk_mode_t\000"
 4609      6E5F7363 
 4609      625F7370 
 4609      695F7363 
 4609      6C6B5F6D 
 4610              	.LASF136:
 4611 078a 666C6173 		.ascii	"flashCtlMainWs3Freq\000"
 4611      6843746C 
 4611      4D61696E 
 4611      57733346 
 4611      72657100 
 4612              	.LASF206:
 4613 079e 63795F65 		.ascii	"cy_en_scb_i2c_command_t\000"
 4613      6E5F7363 
 4613      625F6932 
 4613      635F636F 
 4613      6D6D616E 
 4614              	.LASF118:
 4615 07b6 73727373 		.ascii	"srssNumPll\000"
 4615      4E756D50 
 4615      6C6C00
 4616              	.LASF361:
 4617 07c1 6C656443 		.ascii	"ledColorObj\000"
 4617      6F6C6F72 
 4617      4F626A00 
 4618              	.LASF64:
 4619 07cd 494E5452 		.ascii	"INTR_SPI_EC\000"
 4619      5F535049 
 4619      5F454300 
 4620              	.LASF129:
 4621 07d9 666C6173 		.ascii	"flashPipeRequired\000"
ARM GAS  C:\Users\Smaug\AppData\Local\Temp\ccJKcizn.s 			page 117


 4621      68506970 
 4621      65526571 
 4621      75697265 
 4621      6400
 4622              	.LASF272:
 4623 07eb 72784275 		.ascii	"rxBuf\000"
 4623      6600
 4624              	.LASF228:
 4625 07f1 63624576 		.ascii	"cbEvents\000"
 4625      656E7473 
 4625      00
 4626              	.LASF181:
 4627 07fa 646F7562 		.ascii	"double\000"
 4627      6C6500
 4628              	.LASF255:
 4629 0801 72784461 		.ascii	"rxDataWidth\000"
 4629      74615769 
 4629      64746800 
 4630              	.LASF182:
 4631 080d 5F426F6F 		.ascii	"_Bool\000"
 4631      6C00
 4632              	.LASF50:
 4633 0813 52585F4D 		.ascii	"RX_MATCH\000"
 4633      41544348 
 4633      00
 4634              	.LASF336:
 4635 081c 43795F53 		.ascii	"Cy_SCB_SPI_WriteArrayBlocking\000"
 4635      43425F53 
 4635      50495F57 
 4635      72697465 
 4635      41727261 
 4636              	.LASF267:
 4637 083a 74784669 		.ascii	"txFifoIntEnableMask\000"
 4637      666F496E 
 4637      74456E61 
 4637      626C654D 
 4637      61736B00 
 4638              	.LASF290:
 4639 084e 63795F73 		.ascii	"cy_stc_tcpwm_counter_config\000"
 4639      74635F74 
 4639      6370776D 
 4639      5F636F75 
 4639      6E746572 
 4640              	.LASF133:
 4641 086a 666C6173 		.ascii	"flashCtlMainWs0Freq\000"
 4641      6843746C 
 4641      4D61696E 
 4641      57733046 
 4641      72657100 
 4642              	.LASF322:
 4643 087e 73776170 		.ascii	"swapInput\000"
 4643      496E7075 
 4643      7400
 4644              	.LASF209:
 4645 0888 75736552 		.ascii	"useRxFifo\000"
 4645      78466966 
 4645      6F00
ARM GAS  C:\Users\Smaug\AppData\Local\Temp\ccJKcizn.s 			page 118


 4646              	.LASF349:
 4647 0892 49544D5F 		.ascii	"ITM_RxBuffer\000"
 4647      52784275 
 4647      66666572 
 4647      00
 4648              	.LASF97:
 4649 089f 6770696F 		.ascii	"gpioBase\000"
 4649      42617365 
 4649      00
 4650              	.LASF59:
 4651 08a8 494E5452 		.ascii	"INTR_I2C_EC\000"
 4651      5F493243 
 4651      5F454300 
 4652              	.LASF313:
 4653 08b4 70776D41 		.ascii	"pwmAlignment\000"
 4653      6C69676E 
 4653      6D656E74 
 4653      00
 4654              	.LASF77:
 4655 08c1 494E5452 		.ascii	"INTR_S_MASKED\000"
 4655      5F535F4D 
 4655      41534B45 
 4655      4400
 4656              	.LASF103:
 4657 08cf 64775665 		.ascii	"dwVersion\000"
 4657      7273696F 
 4657      6E00
 4658              	.LASF168:
 4659 08d9 63707573 		.ascii	"cpussSysTickCtlOffset\000"
 4659      73537973 
 4659      5469636B 
 4659      43746C4F 
 4659      66667365 
 4660              	.LASF124:
 4661 08ef 75646250 		.ascii	"udbPresent\000"
 4661      72657365 
 4661      6E7400
 4662              	.LASF252:
 4663 08fa 7375624D 		.ascii	"subMode\000"
 4663      6F646500 
 4664              	.LASF347:
 4665 0902 4C656473 		.ascii	"Leds_Update\000"
 4665      5F557064 
 4665      61746500 
 4666              	.LASF142:
 4667 090e 64775374 		.ascii	"dwStatusChIdxPos\000"
 4667      61747573 
 4667      43684964 
 4667      78506F73 
 4667      00
 4668              	.LASF5:
 4669 091f 5F5F7569 		.ascii	"__uint16_t\000"
 4669      6E743136 
 4669      5F7400
 4670              	.LASF245:
 4671 092a 43595F53 		.ascii	"CY_SCB_SPI_CPHA1_CPOL0\000"
 4671      43425F53 
ARM GAS  C:\Users\Smaug\AppData\Local\Temp\ccJKcizn.s 			page 119


 4671      50495F43 
 4671      50484131 
 4671      5F43504F 
 4672              	.LASF246:
 4673 0941 43595F53 		.ascii	"CY_SCB_SPI_CPHA1_CPOL1\000"
 4673      43425F53 
 4673      50495F43 
 4673      50484131 
 4673      5F43504F 
 4674              	.LASF202:
 4675 0958 76726566 		.ascii	"vrefMvValue\000"
 4675      4D765661 
 4675      6C756500 
 4676              	.LASF100:
 4677 0964 63727970 		.ascii	"cryptoBase\000"
 4677      746F4261 
 4677      736500
 4678              	.LASF218:
 4679 096f 6D617374 		.ascii	"masterNumBytes\000"
 4679      65724E75 
 4679      6D427974 
 4679      657300
 4680              	.LASF241:
 4681 097e 43595F53 		.ascii	"CY_SCB_SPI_TI_PRECEDES\000"
 4681      43425F53 
 4681      50495F54 
 4681      495F5052 
 4681      45434544 
 4682              	.LASF113:
 4683 0995 63707573 		.ascii	"cpussFlashPaSize\000"
 4683      73466C61 
 4683      73685061 
 4683      53697A65 
 4683      00
 4684              	.LASF197:
 4685 09a6 73617449 		.ascii	"satIntrMask\000"
 4685      6E74724D 
 4685      61736B00 
 4686              	.LASF301:
 4687 09b2 63617074 		.ascii	"captureInput\000"
 4687      75726549 
 4687      6E707574 
 4687      00
 4688              	.LASF185:
 4689 09bf 43595F53 		.ascii	"CY_SAR_RANGE_COND_ABOVE\000"
 4689      41525F52 
 4689      414E4745 
 4689      5F434F4E 
 4689      445F4142 
 4690              	.LASF179:
 4691 09d7 63686172 		.ascii	"char\000"
 4691      00
 4692              	.LASF364:
 4693 09dc 43795F53 		.ascii	"Cy_SysLib_AssertFailed\000"
 4693      79734C69 
 4693      625F4173 
 4693      73657274 
ARM GAS  C:\Users\Smaug\AppData\Local\Temp\ccJKcizn.s 			page 120


 4693      4661696C 
 4694              	.LASF88:
 4695 09f3 43795343 		.ascii	"CySCB_V1_Type\000"
 4695      425F5631 
 4695      5F547970 
 4695      6500
 4696              	.LASF194:
 4697 0a01 6368616E 		.ascii	"chanEn\000"
 4697      456E00
 4698              	.LASF287:
 4699 0a08 72785269 		.ascii	"rxRingBufTail\000"
 4699      6E674275 
 4699      66546169 
 4699      6C00
 4700              	.LASF76:
 4701 0a16 494E5452 		.ascii	"INTR_S_MASK\000"
 4701      5F535F4D 
 4701      41534B00 
 4702              	.LASF125:
 4703 0a22 73797350 		.ascii	"sysPmSimoPresent\000"
 4703      6D53696D 
 4703      6F507265 
 4703      73656E74 
 4703      00
 4704              	.LASF216:
 4705 0a33 6D617374 		.ascii	"masterBufferSize\000"
 4705      65724275 
 4705      66666572 
 4705      53697A65 
 4705      00
 4706              	.LASF62:
 4707 0a44 494E5452 		.ascii	"INTR_I2C_EC_MASKED\000"
 4707      5F493243 
 4707      5F45435F 
 4707      4D41534B 
 4707      454400
 4708              	.LASF292:
 4709 0a57 636C6F63 		.ascii	"clockPrescaler\000"
 4709      6B507265 
 4709      7363616C 
 4709      657200
 4710              	.LASF342:
 4711 0a66 64617461 		.ascii	"data\000"
 4711      00
 4712              	.LASF274:
 4713 0a6b 72784275 		.ascii	"rxBufIdx\000"
 4713      66496478 
 4713      00
 4714              	.LASF340:
 4715 0a74 4C656473 		.ascii	"Leds_ColorToRawBitstream\000"
 4715      5F436F6C 
 4715      6F72546F 
 4715      52617742 
 4715      69747374 
 4716              	.LASF278:
 4717 0a8d 696E6974 		.ascii	"initKey\000"
 4717      4B657900 
ARM GAS  C:\Users\Smaug\AppData\Local\Temp\ccJKcizn.s 			page 121


 4718              	.LASF143:
 4719 0a95 64775374 		.ascii	"dwStatusChIdxMsk\000"
 4719      61747573 
 4719      43684964 
 4719      784D736B 
 4719      00
 4720              	.LASF231:
 4721 0aa6 43595F53 		.ascii	"CY_SCB_SPI_SUCCESS\000"
 4721      43425F53 
 4721      50495F53 
 4721      55434345 
 4721      535300
 4722              	.LASF14:
 4723 0ab9 75696E74 		.ascii	"uint8_t\000"
 4723      385F7400 
 4724              	.LASF271:
 4725 0ac1 73746174 		.ascii	"status\000"
 4725      757300
 4726              	.LASF332:
 4727 0ac8 6C656443 		.ascii	"ledColor\000"
 4727      6F6C6F72 
 4727      00
 4728              	.LASF224:
 4729 0ad1 736C6176 		.ascii	"slaveTxBufferCnt\000"
 4729      65547842 
 4729      75666665 
 4729      72436E74 
 4729      00
 4730              	.LASF148:
 4731 0ae2 70657269 		.ascii	"periDivCmdDivSelMsk\000"
 4731      44697643 
 4731      6D644469 
 4731      7653656C 
 4731      4D736B00 
 4732              	.LASF331:
 4733 0af6 4144435F 		.ascii	"ADC_CONFIG_STRUCT\000"
 4733      434F4E46 
 4733      49475F53 
 4733      54525543 
 4733      5400
 4734              	.LASF200:
 4735 0b08 6D757853 		.ascii	"muxSwitchSqCtrl\000"
 4735      77697463 
 4735      68537143 
 4735      74726C00 
 4736              	.LASF280:
 4737 0b18 63795F63 		.ascii	"cy_cb_scb_uart_handle_events_t\000"
 4737      625F7363 
 4737      625F7561 
 4737      72745F68 
 4737      616E646C 
 4738              	.LASF193:
 4739 0b37 72616E67 		.ascii	"rangeCond\000"
 4739      65436F6E 
 4739      6400
 4740              	.LASF172:
 4741 0b41 63707573 		.ascii	"cpussRam0Ctl0\000"
ARM GAS  C:\Users\Smaug\AppData\Local\Temp\ccJKcizn.s 			page 122


 4741      7352616D 
 4741      3043746C 
 4741      3000
 4742              	.LASF362:
 4743 0b4f 4C656473 		.ascii	"Leds_rawColorBuffer\000"
 4743      5F726177 
 4743      436F6C6F 
 4743      72427566 
 4743      66657200 
 4744              	.LASF11:
 4745 0b63 6C6F6E67 		.ascii	"long long int\000"
 4745      206C6F6E 
 4745      6720696E 
 4745      7400
 4746              	.LASF99:
 4747 0b71 69706342 		.ascii	"ipcBase\000"
 4747      61736500 
 4748              	.LASF140:
 4749 0b79 64774368 		.ascii	"dwChCtlPrioPos\000"
 4749      43746C50 
 4749      72696F50 
 4749      6F7300
 4750              	.LASF338:
 4751 0b88 6F75745F 		.ascii	"out_data\000"
 4751      64617461 
 4751      00
 4752              	.LASF317:
 4753 0b91 656E6162 		.ascii	"enablePeriodSwap\000"
 4753      6C655065 
 4753      72696F64 
 4753      53776170 
 4753      00
 4754              	.LASF314:
 4755 0ba2 64656164 		.ascii	"deadTimeClocks\000"
 4755      54696D65 
 4755      436C6F63 
 4755      6B7300
 4756              	.LASF155:
 4757 0bb1 70657269 		.ascii	"periDiv24_5CtlOffset\000"
 4757      44697632 
 4757      345F3543 
 4757      746C4F66 
 4757      66736574 
 4758              	.LASF321:
 4759 0bc6 73776170 		.ascii	"swapInputMode\000"
 4759      496E7075 
 4759      744D6F64 
 4759      6500
 4760              	.LASF130:
 4761 0bd4 666C6173 		.ascii	"flashWriteDelay\000"
 4761      68577269 
 4761      74654465 
 4761      6C617900 
 4762              	.LASF359:
 4763 0be4 5350495F 		.ascii	"SPI_LEDCTRL_config\000"
 4763      4C454443 
 4763      54524C5F 
ARM GAS  C:\Users\Smaug\AppData\Local\Temp\ccJKcizn.s 			page 123


 4763      636F6E66 
 4763      696700
 4764              	.LASF315:
 4765 0bf7 70657269 		.ascii	"period0\000"
 4765      6F643000 
 4766              	.LASF210:
 4767 0bff 75736554 		.ascii	"useTxFifo\000"
 4767      78466966 
 4767      6F00
 4768              	.LASF369:
 4769 0c09 4C656473 		.ascii	"Leds_Init\000"
 4769      5F496E69 
 4769      7400
 4770              	.LASF4:
 4771 0c13 5F5F696E 		.ascii	"__int16_t\000"
 4771      7431365F 
 4771      7400
 4772              	.LASF32:
 4773 0c1d 55415254 		.ascii	"UART_FLOW_CTRL\000"
 4773      5F464C4F 
 4773      575F4354 
 4773      524C00
 4774              	.LASF96:
 4775 0c2c 6873696F 		.ascii	"hsiomBase\000"
 4775      6D426173 
 4775      6500
 4776              	.LASF214:
 4777 0c36 6D617374 		.ascii	"masterRdDir\000"
 4777      65725264 
 4777      44697200 
 4778              	.LASF146:
 4779 0c42 70657269 		.ascii	"periTrGrOffset\000"
 4779      54724772 
 4779      4F666673 
 4779      657400
 4780              	.LASF116:
 4781 0c51 63707573 		.ascii	"cpussNotConnectedIrq\000"
 4781      734E6F74 
 4781      436F6E6E 
 4781      65637465 
 4781      64497271 
 4782              	.LASF279:
 4783 0c66 63795F73 		.ascii	"cy_stc_scb_spi_context_t\000"
 4783      74635F73 
 4783      63625F73 
 4783      70695F63 
 4783      6F6E7465 
 4784              	.LASF286:
 4785 0c7f 72785269 		.ascii	"rxRingBufHead\000"
 4785      6E674275 
 4785      66486561 
 4785      6400
 4786              	.LASF112:
 4787 0c8d 63707573 		.ascii	"cpussDwChNr\000"
 4787      73447743 
 4787      684E7200 
 4788              	.LASF302:
ARM GAS  C:\Users\Smaug\AppData\Local\Temp\ccJKcizn.s 			page 124


 4789 0c99 72656C6F 		.ascii	"reloadInputMode\000"
 4789      6164496E 
 4789      7075744D 
 4789      6F646500 
 4790              	.LASF335:
 4791 0ca9 73697A65 		.ascii	"size\000"
 4791      00
 4792              	.LASF276:
 4793 0cae 74784275 		.ascii	"txBufSize\000"
 4793      6653697A 
 4793      6500
 4794              	.LASF110:
 4795 0cb8 63707573 		.ascii	"cpussIpcNr\000"
 4795      73497063 
 4795      4E7200
 4796              	.LASF0:
 4797 0cc3 73686F72 		.ascii	"short int\000"
 4797      7420696E 
 4797      7400
 4798              	.LASF122:
 4799 0ccd 70617373 		.ascii	"passSarChannels\000"
 4799      53617243 
 4799      68616E6E 
 4799      656C7300 
 4800              	.LASF227:
 4801 0cdd 736C6176 		.ascii	"slaveRxBufferIdx\000"
 4801      65527842 
 4801      75666665 
 4801      72496478 
 4801      00
 4802              	.LASF174:
 4803 0cee 63707573 		.ascii	"cpussRam2Ctl0\000"
 4803      7352616D 
 4803      3243746C 
 4803      3000
 4804              	.LASF213:
 4805 0cfc 6D617374 		.ascii	"masterPause\000"
 4805      65725061 
 4805      75736500 
 4806              	.LASF84:
 4807 0d08 494E5452 		.ascii	"INTR_RX\000"
 4807      5F525800 
 4808              	.LASF239:
 4809 0d10 43595F53 		.ascii	"CY_SCB_SPI_TI_COINCIDES\000"
 4809      43425F53 
 4809      50495F54 
 4809      495F434F 
 4809      494E4349 
 4810              	.LASF275:
 4811 0d28 74784275 		.ascii	"txBuf\000"
 4811      6600
 4812              	.LASF131:
 4813 0d2e 666C6173 		.ascii	"flashProgramDelay\000"
 4813      6850726F 
 4813      6772616D 
 4813      44656C61 
 4813      7900
ARM GAS  C:\Users\Smaug\AppData\Local\Temp\ccJKcizn.s 			page 125


 4814              	.LASF153:
 4815 0d40 70657269 		.ascii	"periDiv16CtlOffset\000"
 4815      44697631 
 4815      3643746C 
 4815      4F666673 
 4815      657400
 4816              	.LASF348:
 4817 0d53 626C616E 		.ascii	"blankingFrame\000"
 4817      6B696E67 
 4817      4672616D 
 4817      6500
 4818              	.LASF318:
 4819 0d61 696E7665 		.ascii	"invertPWMOut\000"
 4819      72745057 
 4819      4D4F7574 
 4819      00
 4820              	.LASF226:
 4821 0d6e 736C6176 		.ascii	"slaveRxBufferSize\000"
 4821      65527842 
 4821      75666665 
 4821      7253697A 
 4821      6500
 4822              	.LASF6:
 4823 0d80 73686F72 		.ascii	"short unsigned int\000"
 4823      7420756E 
 4823      7369676E 
 4823      65642069 
 4823      6E7400
 4824              	.LASF284:
 4825 0d93 72785269 		.ascii	"rxRingBuf\000"
 4825      6E674275 
 4825      6600
 4826              	.LASF90:
 4827 0d9d 6C6F6E67 		.ascii	"long double\000"
 4827      20646F75 
 4827      626C6500 
 4828              	.LASF16:
 4829 0da9 75696E74 		.ascii	"uint16_t\000"
 4829      31365F74 
 4829      00
 4830              	.LASF61:
 4831 0db2 494E5452 		.ascii	"INTR_I2C_EC_MASK\000"
 4831      5F493243 
 4831      5F45435F 
 4831      4D41534B 
 4831      00
 4832              	.LASF325:
 4833 0dc3 63795F73 		.ascii	"cy_stc_tcpwm_pwm_config_t\000"
 4833      74635F74 
 4833      6370776D 
 4833      5F70776D 
 4833      5F636F6E 
 4834              	.LASF163:
 4835 0ddd 63707573 		.ascii	"cpussCm4StatusOffset\000"
 4835      73436D34 
 4835      53746174 
 4835      75734F66 
ARM GAS  C:\Users\Smaug\AppData\Local\Temp\ccJKcizn.s 			page 126


 4835      66736574 
 4836              	.LASF293:
 4837 0df2 72756E4D 		.ascii	"runMode\000"
 4837      6F646500 
 4838              	.LASF145:
 4839 0dfa 70657269 		.ascii	"periTrCmdGrSelMsk\000"
 4839      5472436D 
 4839      64477253 
 4839      656C4D73 
 4839      6B00
 4840              	.LASF215:
 4841 0e0c 6D617374 		.ascii	"masterBuffer\000"
 4841      65724275 
 4841      66666572 
 4841      00
 4842              	.LASF190:
 4843 0e19 73616D70 		.ascii	"sampleTime01\000"
 4843      6C655469 
 4843      6D653031 
 4843      00
 4844              	.LASF253:
 4845 0e26 73636C6B 		.ascii	"sclkMode\000"
 4845      4D6F6465 
 4845      00
 4846              	.LASF119:
 4847 0e2f 73727373 		.ascii	"srssNumHfroot\000"
 4847      4E756D48 
 4847      66726F6F 
 4847      7400
 4848              	.LASF310:
 4849 0e3d 63795F73 		.ascii	"cy_stc_tcpwm_counter_config_t\000"
 4849      74635F74 
 4849      6370776D 
 4849      5F636F75 
 4849      6E746572 
 4850              	.LASF141:
 4851 0e5b 64774368 		.ascii	"dwChCtlPreemptablePos\000"
 4851      43746C50 
 4851      7265656D 
 4851      70746162 
 4851      6C65506F 
 4852              	.LASF199:
 4853 0e71 6D757853 		.ascii	"muxSwitch\000"
 4853      77697463 
 4853      6800
 4854              	.LASF66:
 4855 0e7b 494E5452 		.ascii	"INTR_SPI_EC_MASK\000"
 4855      5F535049 
 4855      5F45435F 
 4855      4D41534B 
 4855      00
 4856              	.LASF368:
 4857 0e8c 443A5C48 		.ascii	"D:\\Hackathon-Infineon\\Hackaton.cydsn\000"
 4857      61636B61 
 4857      74686F6E 
 4857      2D496E66 
 4857      696E656F 
ARM GAS  C:\Users\Smaug\AppData\Local\Temp\ccJKcizn.s 			page 127


 4858              	.LASF19:
 4859 0eb1 73697A65 		.ascii	"sizetype\000"
 4859      74797065 
 4859      00
 4860              	.LASF37:
 4861 0eba 4932435F 		.ascii	"I2C_S_CMD\000"
 4861      535F434D 
 4861      4400
 4862              	.LASF170:
 4863 0ec4 63707573 		.ascii	"cpussCm4NmiCtlOffset\000"
 4863      73436D34 
 4863      4E6D6943 
 4863      746C4F66 
 4863      66736574 
 4864              	.LASF295:
 4865 0ed9 636F6D70 		.ascii	"compareOrCapture\000"
 4865      6172654F 
 4865      72436170 
 4865      74757265 
 4865      00
 4866              	.LASF152:
 4867 0eea 70657269 		.ascii	"periDiv8CtlOffset\000"
 4867      44697638 
 4867      43746C4F 
 4867      66667365 
 4867      7400
 4868              	.LASF33:
 4869 0efc 52455345 		.ascii	"RESERVED2\000"
 4869      52564544 
 4869      3200
 4870              	.LASF39:
 4871 0f06 52455345 		.ascii	"RESERVED3\000"
 4871      52564544 
 4871      3300
 4872              	.LASF43:
 4873 0f10 52455345 		.ascii	"RESERVED4\000"
 4873      52564544 
 4873      3400
 4874              	.LASF45:
 4875 0f1a 52455345 		.ascii	"RESERVED5\000"
 4875      52564544 
 4875      3500
 4876              	.LASF357:
 4877 0f24 49525F63 		.ascii	"IR_context\000"
 4877      6F6E7465 
 4877      787400
 4878              	.LASF51:
 4879 0f2f 52455345 		.ascii	"RESERVED7\000"
 4879      52564544 
 4879      3700
 4880              	.LASF54:
 4881 0f39 52455345 		.ascii	"RESERVED8\000"
 4881      52564544 
 4881      3800
 4882              	.LASF56:
 4883 0f43 52455345 		.ascii	"RESERVED9\000"
 4883      52564544 
ARM GAS  C:\Users\Smaug\AppData\Local\Temp\ccJKcizn.s 			page 128


 4883      3900
 4884              	.LASF352:
 4885 0f4d 4144435F 		.ascii	"ADC_allConfigs\000"
 4885      616C6C43 
 4885      6F6E6669 
 4885      677300
 4886              	.LASF320:
 4887 0f5c 6B696C6C 		.ascii	"killMode\000"
 4887      4D6F6465 
 4887      00
 4888              	.LASF299:
 4889 0f65 696E7465 		.ascii	"interruptSources\000"
 4889      72727570 
 4889      74536F75 
 4889      72636573 
 4889      00
 4890              	.LASF298:
 4891 0f76 656E6162 		.ascii	"enableCompareSwap\000"
 4891      6C65436F 
 4891      6D706172 
 4891      65537761 
 4891      7000
 4892              	.LASF8:
 4893 0f88 6C6F6E67 		.ascii	"long int\000"
 4893      20696E74 
 4893      00
 4894              	.LASF101:
 4895 0f91 63707573 		.ascii	"cpussVersion\000"
 4895      73566572 
 4895      73696F6E 
 4895      00
 4896              	.LASF35:
 4897 0f9e 4932435F 		.ascii	"I2C_STATUS\000"
 4897      53544154 
 4897      555300
 4898              	.LASF308:
 4899 0fa9 636F756E 		.ascii	"countInputMode\000"
 4899      74496E70 
 4899      75744D6F 
 4899      646500
 4900              	.LASF105:
 4901 0fb8 6770696F 		.ascii	"gpioVersion\000"
 4901      56657273 
 4901      696F6E00 
 4902              	.LASF82:
 4903 0fc4 494E5452 		.ascii	"INTR_TX_MASKED\000"
 4903      5F54585F 
 4903      4D41534B 
 4903      454400
 4904              	.LASF104:
 4905 0fd3 666C6173 		.ascii	"flashcVersion\000"
 4905      68635665 
 4905      7273696F 
 4905      6E00
 4906              	.LASF126:
 4907 0fe1 70726F74 		.ascii	"protBusMasterMask\000"
 4907      4275734D 
ARM GAS  C:\Users\Smaug\AppData\Local\Temp\ccJKcizn.s 			page 129


 4907      61737465 
 4907      724D6173 
 4907      6B00
 4908              	.LASF95:
 4909 0ff3 70726F74 		.ascii	"protBase\000"
 4909      42617365 
 4909      00
 4910              	.LASF294:
 4911 0ffc 636F756E 		.ascii	"countDirection\000"
 4911      74446972 
 4911      65637469 
 4911      6F6E00
 4912              	.LASF178:
 4913 100b 63686172 		.ascii	"char_t\000"
 4913      5F7400
 4914              	.LASF339:
 4915 1012 636F6C6F 		.ascii	"color\000"
 4915      7200
 4916              	.LASF258:
 4917 1018 656E6162 		.ascii	"enableFreeRunSclk\000"
 4917      6C654672 
 4917      65655275 
 4917      6E53636C 
 4917      6B00
 4918              	.LASF337:
 4919 102a 43795F53 		.ascii	"Cy_SCB_SPI_Enable\000"
 4919      43425F53 
 4919      50495F45 
 4919      6E61626C 
 4919      6500
 4920              	.LASF79:
 4921 103c 494E5452 		.ascii	"INTR_TX\000"
 4921      5F545800 
 4922              	.LASF31:
 4923 1044 55415254 		.ascii	"UART_RX_STATUS\000"
 4923      5F52585F 
 4923      53544154 
 4923      555300
 4924              	.LASF288:
 4925 1053 74784C65 		.ascii	"txLeftToTransmit\000"
 4925      6674546F 
 4925      5472616E 
 4925      736D6974 
 4925      00
 4926              	.LASF165:
 4927 1064 63707573 		.ascii	"cpussCm4PwrCtlOffset\000"
 4927      73436D34 
 4927      50777243 
 4927      746C4F66 
 4927      66736574 
 4928              	.LASF3:
 4929 1079 5F5F7569 		.ascii	"__uint8_t\000"
 4929      6E74385F 
 4929      7400
 4930              	.LASF329:
 4931 1083 6D697363 		.ascii	"miscConfig\000"
 4931      436F6E66 
ARM GAS  C:\Users\Smaug\AppData\Local\Temp\ccJKcizn.s 			page 130


 4931      696700
 4932              	.LASF41:
 4933 108e 54585F46 		.ascii	"TX_FIFO_CTRL\000"
 4933      49464F5F 
 4933      4354524C 
 4933      00
 4934              	.LASF268:
 4935 109b 6D617374 		.ascii	"masterSlaveIntEnableMask\000"
 4935      6572536C 
 4935      61766549 
 4935      6E74456E 
 4935      61626C65 
 4936              	.LASF36:
 4937 10b4 4932435F 		.ascii	"I2C_M_CMD\000"
 4937      4D5F434D 
 4937      4400
 4938              	.LASF67:
 4939 10be 494E5452 		.ascii	"INTR_SPI_EC_MASKED\000"
 4939      5F535049 
 4939      5F45435F 
 4939      4D41534B 
 4939      454400
 4940              	.LASF156:
 4941 10d1 6770696F 		.ascii	"gpioPrtIntrCfgOffset\000"
 4941      50727449 
 4941      6E747243 
 4941      66674F66 
 4941      66736574 
 4942              	.LASF25:
 4943 10e6 5350495F 		.ascii	"SPI_CTRL\000"
 4943      4354524C 
 4943      00
 4944              	.LASF169:
 4945 10ef 63707573 		.ascii	"cpussCm0NmiCtlOffset\000"
 4945      73436D30 
 4945      4E6D6943 
 4945      746C4F66 
 4945      66736574 
 4946              	.LASF162:
 4947 1104 63707573 		.ascii	"cpussCm4ClockCtlOffset\000"
 4947      73436D34 
 4947      436C6F63 
 4947      6B43746C 
 4947      4F666673 
 4948              	.LASF270:
 4949 111b 63795F73 		.ascii	"cy_stc_scb_spi_context\000"
 4949      74635F73 
 4949      63625F73 
 4949      70695F63 
 4949      6F6E7465 
 4950              	.LASF46:
 4951 1132 52585F43 		.ascii	"RX_CTRL\000"
 4951      54524C00 
 4952              	.LASF324:
 4953 113a 6B696C6C 		.ascii	"killInput\000"
 4953      496E7075 
 4953      7400
ARM GAS  C:\Users\Smaug\AppData\Local\Temp\ccJKcizn.s 			page 131


 4954              	.LASF167:
 4955 1144 63707573 		.ascii	"cpussTrimRomCtlOffset\000"
 4955      73547269 
 4955      6D526F6D 
 4955      43746C4F 
 4955      66667365 
 4956              	.LASF191:
 4957 115a 73616D70 		.ascii	"sampleTime23\000"
 4957      6C655469 
 4957      6D653233 
 4957      00
 4958              	.LASF323:
 4959 1167 6B696C6C 		.ascii	"killInputMode\000"
 4959      496E7075 
 4959      744D6F64 
 4959      6500
 4960              	.LASF120:
 4961 1175 70657269 		.ascii	"periClockNr\000"
 4961      436C6F63 
 4961      6B4E7200 
 4962              	.LASF34:
 4963 1181 4932435F 		.ascii	"I2C_CTRL\000"
 4963      4354524C 
 4963      00
 4964              	.LASF106:
 4965 118a 6873696F 		.ascii	"hsiomVersion\000"
 4965      6D566572 
 4965      73696F6E 
 4965      00
 4966              	.LASF10:
 4967 1197 6C6F6E67 		.ascii	"long unsigned int\000"
 4967      20756E73 
 4967      69676E65 
 4967      6420696E 
 4967      7400
 4968              	.LASF261:
 4969 11a9 656E6162 		.ascii	"enableTransferSeperation\000"
 4969      6C655472 
 4969      616E7366 
 4969      65725365 
 4969      70657261 
 4970              	.LASF69:
 4971 11c2 494E5452 		.ascii	"INTR_M\000"
 4971      5F4D00
 4972              	.LASF171:
 4973 11c9 63707573 		.ascii	"cpussRomCtl\000"
 4973      73526F6D 
 4973      43746C00 
 4974              	.LASF74:
 4975 11d5 494E5452 		.ascii	"INTR_S\000"
 4975      5F5300
 4976              	.LASF17:
 4977 11dc 696E7433 		.ascii	"int32_t\000"
 4977      325F7400 
 4978              	.LASF71:
 4979 11e4 494E5452 		.ascii	"INTR_M_MASK\000"
 4979      5F4D5F4D 
ARM GAS  C:\Users\Smaug\AppData\Local\Temp\ccJKcizn.s 			page 132


 4979      41534B00 
 4980              	.LASF346:
 4981 11f0 4C656473 		.ascii	"Leds_FillSolidColor\000"
 4981      5F46696C 
 4981      6C536F6C 
 4981      6964436F 
 4981      6C6F7200 
 4982              	.LASF266:
 4983 1204 74784669 		.ascii	"txFifoTriggerLevel\000"
 4983      666F5472 
 4983      69676765 
 4983      724C6576 
 4983      656C00
 4984              	.LASF164:
 4985 1217 63707573 		.ascii	"cpussCm0StatusOffset\000"
 4985      73436D30 
 4985      53746174 
 4985      75734F66 
 4985      66736574 
 4986              	.LASF189:
 4987 122c 73616D70 		.ascii	"sampleCtrl\000"
 4987      6C654374 
 4987      726C00
 4988              	.LASF26:
 4989 1237 5350495F 		.ascii	"SPI_STATUS\000"
 4989      53544154 
 4989      555300
 4990              	.LASF243:
 4991 1242 43595F53 		.ascii	"CY_SCB_SPI_CPHA0_CPOL0\000"
 4991      43425F53 
 4991      50495F43 
 4991      50484130 
 4991      5F43504F 
 4992              	.LASF244:
 4993 1259 43595F53 		.ascii	"CY_SCB_SPI_CPHA0_CPOL1\000"
 4993      43425F53 
 4993      50495F43 
 4993      50484130 
 4993      5F43504F 
 4994              	.LASF237:
 4995 1270 63795F65 		.ascii	"cy_en_scb_spi_mode_t\000"
 4995      6E5F7363 
 4995      625F7370 
 4995      695F6D6F 
 4995      64655F74 
 4996              	.LASF2:
 4997 1285 756E7369 		.ascii	"unsigned char\000"
 4997      676E6564 
 4997      20636861 
 4997      7200
 4998              	.LASF232:
 4999 1293 43595F53 		.ascii	"CY_SCB_SPI_BAD_PARAM\000"
 4999      43425F53 
 4999      50495F42 
 4999      41445F50 
 4999      4152414D 
 5000              	.LASF9:
ARM GAS  C:\Users\Smaug\AppData\Local\Temp\ccJKcizn.s 			page 133


 5001 12a8 5F5F7569 		.ascii	"__uint32_t\000"
 5001      6E743332 
 5001      5F7400
 5002              	.LASF176:
 5003 12b3 6970634C 		.ascii	"ipcLockStatusOffset\000"
 5003      6F636B53 
 5003      74617475 
 5003      734F6666 
 5003      73657400 
 5004              	.LASF309:
 5005 12c7 636F756E 		.ascii	"countInput\000"
 5005      74496E70 
 5005      757400
 5006              	.LASF58:
 5007 12d2 52455345 		.ascii	"RESERVED10\000"
 5007      52564544 
 5007      313000
 5008              	.LASF60:
 5009 12dd 52455345 		.ascii	"RESERVED11\000"
 5009      52564544 
 5009      313100
 5010              	.LASF63:
 5011 12e8 52455345 		.ascii	"RESERVED12\000"
 5011      52564544 
 5011      313200
 5012              	.LASF65:
 5013 12f3 52455345 		.ascii	"RESERVED13\000"
 5013      52564544 
 5013      313300
 5014              	.LASF68:
 5015 12fe 52455345 		.ascii	"RESERVED14\000"
 5015      52564544 
 5015      313400
 5016              	.LASF73:
 5017 1309 52455345 		.ascii	"RESERVED15\000"
 5017      52564544 
 5017      313500
 5018              	.LASF78:
 5019 1314 52455345 		.ascii	"RESERVED16\000"
 5019      52564544 
 5019      313600
 5020              	.LASF83:
 5021 131f 52455345 		.ascii	"RESERVED17\000"
 5021      52564544 
 5021      313700
 5022              	.LASF48:
 5023 132a 52585F46 		.ascii	"RX_FIFO_STATUS\000"
 5023      49464F5F 
 5023      53544154 
 5023      555300
 5024              	.LASF330:
 5025 1339 636C6B44 		.ascii	"clkDivider\000"
 5025      69766964 
 5025      657200
 5026              	.LASF211:
 5027 1344 73746174 		.ascii	"state\000"
 5027      6500
ARM GAS  C:\Users\Smaug\AppData\Local\Temp\ccJKcizn.s 			page 134


 5028              	.LASF44:
 5029 134a 54585F46 		.ascii	"TX_FIFO_WR\000"
 5029      49464F5F 
 5029      575200
 5030              	.LASF351:
 5031 1355 4144435F 		.ascii	"ADC_currentConfig\000"
 5031      63757272 
 5031      656E7443 
 5031      6F6E6669 
 5031      6700
 5032              	.LASF365:
 5033 1367 43795F53 		.ascii	"Cy_SCB_SPI_Init\000"
 5033      43425F53 
 5033      50495F49 
 5033      6E697400 
 5034              	.LASF234:
 5035 1377 63795F65 		.ascii	"cy_en_scb_spi_status_t\000"
 5035      6E5F7363 
 5035      625F7370 
 5035      695F7374 
 5035      61747573 
 5036              	.LASF240:
 5037 138e 43595F53 		.ascii	"CY_SCB_SPI_NATIONAL\000"
 5037      43425F53 
 5037      50495F4E 
 5037      4154494F 
 5037      4E414C00 
 5038              	.LASF128:
 5039 13a2 666C6173 		.ascii	"flashRwwRequired\000"
 5039      68527777 
 5039      52657175 
 5039      69726564 
 5039      00
 5040              	.LASF157:
 5041 13b3 6770696F 		.ascii	"gpioPrtCfgOffset\000"
 5041      50727443 
 5041      66674F66 
 5041      66736574 
 5041      00
 5042              	.LASF134:
 5043 13c4 666C6173 		.ascii	"flashCtlMainWs1Freq\000"
 5043      6843746C 
 5043      4D61696E 
 5043      57733146 
 5043      72657100 
 5044              	.LASF251:
 5045 13d8 7370694D 		.ascii	"spiMode\000"
 5045      6F646500 
 5046              	.LASF1:
 5047 13e0 7369676E 		.ascii	"signed char\000"
 5047      65642063 
 5047      68617200 
 5048              	.LASF291:
 5049 13ec 70657269 		.ascii	"period\000"
 5049      6F6400
 5050              	.LASF138:
 5051 13f3 64774368 		.ascii	"dwChOffset\000"
ARM GAS  C:\Users\Smaug\AppData\Local\Temp\ccJKcizn.s 			page 135


 5051      4F666673 
 5051      657400
 5052              	.LASF28:
 5053 13fe 55415254 		.ascii	"UART_CTRL\000"
 5053      5F435452 
 5053      4C00
 5054              	.LASF111:
 5055 1408 63707573 		.ascii	"cpussIpcIrqNr\000"
 5055      73497063 
 5055      4972714E 
 5055      7200
 5056              	.LASF86:
 5057 1416 494E5452 		.ascii	"INTR_RX_MASK\000"
 5057      5F52585F 
 5057      4D41534B 
 5057      00
 5058              	.LASF343:
 5059 1423 696E6974 		.ascii	"initStatus\000"
 5059      53746174 
 5059      757300
 5060              	.LASF363:
 5061 142e 43795F53 		.ascii	"Cy_SCB_WriteArrayBlocking\000"
 5061      43425F57 
 5061      72697465 
 5061      41727261 
 5061      79426C6F 
 5062              	.LASF22:
 5063 1448 434D445F 		.ascii	"CMD_RESP_CTRL\000"
 5063      52455350 
 5063      5F435452 
 5063      4C00
 5064              	.LASF177:
 5065 1456 63795F73 		.ascii	"cy_stc_device_t\000"
 5065      74635F64 
 5065      65766963 
 5065      655F7400 
 5066              	.LASF360:
 5067 1466 5350495F 		.ascii	"SPI_LEDCTRL_context\000"
 5067      4C454443 
 5067      54524C5F 
 5067      636F6E74 
 5067      65787400 
 5068              	.LASF108:
 5069 147a 70657269 		.ascii	"periVersion\000"
 5069      56657273 
 5069      696F6E00 
 5070              	.LASF201:
 5071 1486 636F6E66 		.ascii	"configRouting\000"
 5071      6967526F 
 5071      7574696E 
 5071      6700
 5072              	.LASF98:
 5073 1494 70617373 		.ascii	"passBase\000"
 5073      42617365 
 5073      00
 5074              	.LASF135:
 5075 149d 666C6173 		.ascii	"flashCtlMainWs2Freq\000"
ARM GAS  C:\Users\Smaug\AppData\Local\Temp\ccJKcizn.s 			page 136


 5075      6843746C 
 5075      4D61696E 
 5075      57733246 
 5075      72657100 
 5076              	.LASF85:
 5077 14b1 494E5452 		.ascii	"INTR_RX_SET\000"
 5077      5F52585F 
 5077      53455400 
 5078              	.LASF27:
 5079 14bd 52455345 		.ascii	"RESERVED1\000"
 5079      52564544 
 5079      3100
 5080              	.LASF154:
 5081 14c7 70657269 		.ascii	"periDiv16_5CtlOffset\000"
 5081      44697631 
 5081      365F3543 
 5081      746C4F66 
 5081      66736574 
 5082              	.LASF21:
 5083 14dc 53544154 		.ascii	"STATUS\000"
 5083      555300
 5084              	.LASF230:
 5085 14e3 63795F73 		.ascii	"cy_stc_scb_i2c_context_t\000"
 5085      74635F73 
 5085      63625F69 
 5085      32635F63 
 5085      6F6E7465 
 5086              	.LASF137:
 5087 14fc 666C6173 		.ascii	"flashCtlMainWs4Freq\000"
 5087      6843746C 
 5087      4D61696E 
 5087      57733446 
 5087      72657100 
 5088              	.LASF344:
 5089 1510 7069785F 		.ascii	"pix_no\000"
 5089      6E6F00
 5090              	.LASF198:
 5091 1517 72616E67 		.ascii	"rangeIntrMask\000"
 5091      65496E74 
 5091      724D6173 
 5091      6B00
 5092              	.LASF242:
 5093 1525 63795F65 		.ascii	"cy_en_scb_spi_sub_mode_t\000"
 5093      6E5F7363 
 5093      625F7370 
 5093      695F7375 
 5093      625F6D6F 
 5094              	.LASF254:
 5095 153e 6F766572 		.ascii	"oversample\000"
 5095      73616D70 
 5095      6C6500
 5096              	.LASF187:
 5097 1549 63795F65 		.ascii	"cy_en_sar_range_detect_condition_t\000"
 5097      6E5F7361 
 5097      725F7261 
 5097      6E67655F 
 5097      64657465 
ARM GAS  C:\Users\Smaug\AppData\Local\Temp\ccJKcizn.s 			page 137


 5098              	.LASF52:
 5099 156c 52585F46 		.ascii	"RX_FIFO_RD\000"
 5099      49464F5F 
 5099      524400
 5100              	.LASF265:
 5101 1577 72784669 		.ascii	"rxFifoIntEnableMask\000"
 5101      666F496E 
 5101      74456E61 
 5101      626C654D 
 5101      61736B00 
 5102              	.LASF55:
 5103 158b 455A5F44 		.ascii	"EZ_DATA\000"
 5103      41544100 
 5104              	.LASF107:
 5105 1593 69706356 		.ascii	"ipcVersion\000"
 5105      65727369 
 5105      6F6E00
 5106              	.LASF196:
 5107 159e 696E7472 		.ascii	"intrMask\000"
 5107      4D61736B 
 5107      00
 5108              	.LASF144:
 5109 15a7 70657269 		.ascii	"periTrCmdOffset\000"
 5109      5472436D 
 5109      644F6666 
 5109      73657400 
 5110              	.LASF273:
 5111 15b7 72784275 		.ascii	"rxBufSize\000"
 5111      6653697A 
 5111      6500
 5112              	.LASF20:
 5113 15c1 4354524C 		.ascii	"CTRL\000"
 5113      00
 5114              		.ident	"GCC: (GNU Tools for ARM Embedded Processors) 5.4.1 20160609 (release) [ARM/embedded-5-bran
