ARM GAS  C:\Users\Smaug\AppData\Local\Temp\ccJKcizn.s 			page 1


   1              		.syntax unified
   2              		.cpu cortex-m4
   3              		.eabi_attribute 27, 1
   4              		.fpu fpv4-sp-d16
   5              		.eabi_attribute 20, 1
   6              		.eabi_attribute 21, 1
   7              		.eabi_attribute 23, 3
   8              		.eabi_attribute 24, 1
   9              		.eabi_attribute 25, 1
  10              		.eabi_attribute 26, 1
  11              		.eabi_attribute 30, 1
  12              		.eabi_attribute 34, 1
  13              		.eabi_attribute 18, 4
  14              		.thumb
  15              		.syntax unified
  16              		.file	"ledctrl.c"
  17              		.text
  18              	.Ltext0:
  19              		.cfi_sections	.debug_frame
  20              		.section	.text.Leds_ColorToRawBitstream,"ax",%progbits
  21              		.align	2
  22              		.thumb
  23              		.thumb_func
  24              		.type	Leds_ColorToRawBitstream, %function
  25              	Leds_ColorToRawBitstream:
  26              	.LFB757:
  27              		.file 1 "ledctrl.c"
   1:ledctrl.c     **** /* ========================================
   2:ledctrl.c     ****  *
   3:ledctrl.c     ****  * Copyright YOUR COMPANY, THE YEAR
   4:ledctrl.c     ****  * All Rights Reserved
   5:ledctrl.c     ****  * UNPUBLISHED, LICENSED SOFTWARE.
   6:ledctrl.c     ****  *
   7:ledctrl.c     ****  * CONFIDENTIAL AND PROPRIETARY INFORMATION
   8:ledctrl.c     ****  * WHICH IS THE PROPERTY OF your company.
   9:ledctrl.c     ****  *
  10:ledctrl.c     ****  * ========================================
  11:ledctrl.c     **** */
  12:ledctrl.c     **** 
  13:ledctrl.c     **** #include "ledctrl.h"
  14:ledctrl.c     **** 
  15:ledctrl.c     **** // Blanking frame (all zeros) because of how SCB SPI works.
  16:ledctrl.c     **** static uint8_t blankingFrame = 0x00;
  17:ledctrl.c     **** 
  18:ledctrl.c     **** static void Leds_SendData(void* data, uint16_t len);
  19:ledctrl.c     **** 
  20:ledctrl.c     **** // This is a buffer with raw data prepared for SPI transmission to WS2812 LEDs
  21:ledctrl.c     **** // Not made static in case you want to control it manually (not recommended, but you can modify the
  22:ledctrl.c     **** uint8_t Leds_rawColorBuffer[WS2812_BUFFER_SIZE] = {0,};
  23:ledctrl.c     **** 
  24:ledctrl.c     **** cy_en_scb_spi_status_t Leds_Init(void)
  25:ledctrl.c     **** {
  26:ledctrl.c     ****     cy_en_scb_spi_status_t initStatus;
  27:ledctrl.c     ****     
  28:ledctrl.c     ****     /* Configure component */
  29:ledctrl.c     ****     initStatus = Cy_SCB_SPI_Init(SPI_LEDCTRL_HW, &SPI_LEDCTRL_config, NULL);
  30:ledctrl.c     ****     if(initStatus == CY_SCB_SPI_SUCCESS)
ARM GAS  C:\Users\Smaug\AppData\Local\Temp\ccJKcizn.s 			page 2


  31:ledctrl.c     ****     {
  32:ledctrl.c     ****         /* Enable SPI master hardware. */
  33:ledctrl.c     ****         Cy_SCB_SPI_Enable(SPI_LEDCTRL_HW);
  34:ledctrl.c     ****     }
  35:ledctrl.c     ****     
  36:ledctrl.c     ****     return initStatus;
  37:ledctrl.c     **** }
  38:ledctrl.c     **** 
  39:ledctrl.c     **** // Send data array to LED strip.
  40:ledctrl.c     **** static void Leds_SendData(void* data, uint16_t len)
  41:ledctrl.c     **** {
  42:ledctrl.c     ****     // Perform blanking so WS2812 would think that RESET state occured
  43:ledctrl.c     ****     Cy_SCB_SPI_WriteArrayBlocking(SPI_LEDCTRL_HW, &blankingFrame, 1);
  44:ledctrl.c     ****     // Send actual data
  45:ledctrl.c     ****     Cy_SCB_SPI_WriteArrayBlocking(SPI_LEDCTRL_HW, data, len);
  46:ledctrl.c     ****     // Perform blanking so WS2812 would think that RESET state occured (lock colors) 
  47:ledctrl.c     ****     Cy_SCB_SPI_WriteArrayBlocking(SPI_LEDCTRL_HW, &blankingFrame, 1);
  48:ledctrl.c     **** }
  49:ledctrl.c     **** 
  50:ledctrl.c     **** // Convert GRB 8 bit components to SPI-friendly data for transmission
  51:ledctrl.c     **** static void Leds_ColorToRawBitstream(uint8_t g, uint8_t r, uint8_t b, uint8_t* out_data)
  52:ledctrl.c     **** {
  28              		.loc 1 52 0
  29              		.cfi_startproc
  30              		@ args = 0, pretend = 0, frame = 0
  31              		@ frame_needed = 0, uses_anonymous_args = 0
  32              		@ link register save eliminated.
  33              	.LVL0:
  34 0000 30B4     		push	{r4, r5}
  35              		.cfi_def_cfa_offset 8
  36              		.cfi_offset 4, -8
  37              		.cfi_offset 5, -4
  53:ledctrl.c     **** 	uint32_t color = (g << 16) | (r << 8) | b;
  38              		.loc 1 53 0
  39 0002 0902     		lsls	r1, r1, #8
  40              	.LVL1:
  41 0004 41EA0040 		orr	r0, r1, r0, lsl #16
  42              	.LVL2:
  43 0008 0243     		orrs	r2, r2, r0
  44              	.LVL3:
  45              	.LBB8:
  54:ledctrl.c     **** 	uint16_t idx = 0;
  55:ledctrl.c     **** 
  56:ledctrl.c     **** 	for (int16_t i = 23; i >= 0; i--)
  46              		.loc 1 56 0
  47 000a 1721     		movs	r1, #23
  48              	.LBE8:
  54:ledctrl.c     **** 	uint16_t idx = 0;
  49              		.loc 1 54 0
  50 000c 0024     		movs	r4, #0
  51              	.LBB9:
  52              		.loc 1 56 0
  53 000e 0FE0     		b	.L2
  54              	.LVL4:
  55              	.L5:
  57:ledctrl.c     **** 	{
  58:ledctrl.c     ****         // If original color is 1...
ARM GAS  C:\Users\Smaug\AppData\Local\Temp\ccJKcizn.s 			page 3


  59:ledctrl.c     **** 		if (((color >> i) & 0x01) == 1)
  56              		.loc 1 59 0
  57 0010 22FA01F5 		lsr	r5, r2, r1
  58 0014 15F0010F 		tst	r5, #1
  59 0018 04D0     		beq	.L3
  60:ledctrl.c     ****         {
  61:ledctrl.c     ****             out_data[idx++] = 0b110;  // ...store 1
  60              		.loc 1 61 0
  61 001a 601C     		adds	r0, r4, #1
  62              	.LVL5:
  63 001c 0625     		movs	r5, #6
  64 001e 1D55     		strb	r5, [r3, r4]
  65 0020 84B2     		uxth	r4, r0
  66 0022 03E0     		b	.L4
  67              	.LVL6:
  68              	.L3:
  62:ledctrl.c     ****         }
  63:ledctrl.c     **** 		else
  64:ledctrl.c     ****         {
  65:ledctrl.c     ****             out_data[idx++] = 0b100;  // ...store 0
  69              		.loc 1 65 0
  70 0024 601C     		adds	r0, r4, #1
  71              	.LVL7:
  72 0026 0425     		movs	r5, #4
  73 0028 1D55     		strb	r5, [r3, r4]
  74 002a 84B2     		uxth	r4, r0
  75              	.L4:
  76              	.LVL8:
  56:ledctrl.c     **** 	{
  77              		.loc 1 56 0 discriminator 2
  78 002c 0139     		subs	r1, r1, #1
  79              	.LVL9:
  80 002e 09B2     		sxth	r1, r1
  81              	.LVL10:
  82              	.L2:
  56:ledctrl.c     **** 	{
  83              		.loc 1 56 0 is_stmt 0 discriminator 1
  84 0030 0029     		cmp	r1, #0
  85 0032 EDDA     		bge	.L5
  86              	.LBE9:
  66:ledctrl.c     ****         }
  67:ledctrl.c     **** 	}
  68:ledctrl.c     **** }
  87              		.loc 1 68 0 is_stmt 1
  88 0034 30BC     		pop	{r4, r5}
  89              		.cfi_restore 5
  90              		.cfi_restore 4
  91              		.cfi_def_cfa_offset 0
  92              	.LVL11:
  93 0036 7047     		bx	lr
  94              		.cfi_endproc
  95              	.LFE757:
  96              		.size	Leds_ColorToRawBitstream, .-Leds_ColorToRawBitstream
  97              		.section	.text.Leds_SendData,"ax",%progbits
  98              		.align	2
  99              		.thumb
 100              		.thumb_func
ARM GAS  C:\Users\Smaug\AppData\Local\Temp\ccJKcizn.s 			page 4


 101              		.type	Leds_SendData, %function
 102              	Leds_SendData:
 103              	.LFB756:
  41:ledctrl.c     ****     // Perform blanking so WS2812 would think that RESET state occured
 104              		.loc 1 41 0
 105              		.cfi_startproc
 106              		@ args = 0, pretend = 0, frame = 0
 107              		@ frame_needed = 0, uses_anonymous_args = 0
 108              	.LVL12:
 109 0000 70B5     		push	{r4, r5, r6, lr}
 110              		.cfi_def_cfa_offset 16
 111              		.cfi_offset 4, -16
 112              		.cfi_offset 5, -12
 113              		.cfi_offset 6, -8
 114              		.cfi_offset 14, -4
 115 0002 0546     		mov	r5, r0
 116 0004 0E46     		mov	r6, r1
 117              	.LVL13:
 118              	.LBB16:
 119              	.LBB17:
 120              		.file 2 "Generated_Source\\PSoC6\\pdl\\drivers/peripheral/scb/cy_scb_spi.h"
   1:Generated_Source\PSoC6\pdl\drivers/peripheral/scb/cy_scb_spi.h **** /***************************************************************************//**
   2:Generated_Source\PSoC6\pdl\drivers/peripheral/scb/cy_scb_spi.h **** * \file cy_scb_spi.h
   3:Generated_Source\PSoC6\pdl\drivers/peripheral/scb/cy_scb_spi.h **** * \version 2.30
   4:Generated_Source\PSoC6\pdl\drivers/peripheral/scb/cy_scb_spi.h **** *
   5:Generated_Source\PSoC6\pdl\drivers/peripheral/scb/cy_scb_spi.h **** * Provides SPI API declarations of the SCB driver.
   6:Generated_Source\PSoC6\pdl\drivers/peripheral/scb/cy_scb_spi.h **** *
   7:Generated_Source\PSoC6\pdl\drivers/peripheral/scb/cy_scb_spi.h **** ********************************************************************************
   8:Generated_Source\PSoC6\pdl\drivers/peripheral/scb/cy_scb_spi.h **** * \copyright
   9:Generated_Source\PSoC6\pdl\drivers/peripheral/scb/cy_scb_spi.h **** * Copyright 2016-2021, Cypress Semiconductor Corporation.  All rights reserved.
  10:Generated_Source\PSoC6\pdl\drivers/peripheral/scb/cy_scb_spi.h **** * You may use this file only in accordance with the license, terms, conditions,
  11:Generated_Source\PSoC6\pdl\drivers/peripheral/scb/cy_scb_spi.h **** * disclaimers, and limitations in the end user license agreement accompanying
  12:Generated_Source\PSoC6\pdl\drivers/peripheral/scb/cy_scb_spi.h **** * the software package with which this file was provided.
  13:Generated_Source\PSoC6\pdl\drivers/peripheral/scb/cy_scb_spi.h **** *******************************************************************************/
  14:Generated_Source\PSoC6\pdl\drivers/peripheral/scb/cy_scb_spi.h **** 
  15:Generated_Source\PSoC6\pdl\drivers/peripheral/scb/cy_scb_spi.h **** /**
  16:Generated_Source\PSoC6\pdl\drivers/peripheral/scb/cy_scb_spi.h **** * \addtogroup group_scb_spi
  17:Generated_Source\PSoC6\pdl\drivers/peripheral/scb/cy_scb_spi.h **** * \{
  18:Generated_Source\PSoC6\pdl\drivers/peripheral/scb/cy_scb_spi.h **** * Driver API for SPI Peripheral.
  19:Generated_Source\PSoC6\pdl\drivers/peripheral/scb/cy_scb_spi.h **** *
  20:Generated_Source\PSoC6\pdl\drivers/peripheral/scb/cy_scb_spi.h **** * The functions and other declarations used in this part of the driver are in
  21:Generated_Source\PSoC6\pdl\drivers/peripheral/scb/cy_scb_spi.h **** * cy_scb_spi.h. You can also include cy_pdl.h (ModusToolbox only) to get access
  22:Generated_Source\PSoC6\pdl\drivers/peripheral/scb/cy_scb_spi.h **** * to all functions and declarations in the PDL.
  23:Generated_Source\PSoC6\pdl\drivers/peripheral/scb/cy_scb_spi.h **** *
  24:Generated_Source\PSoC6\pdl\drivers/peripheral/scb/cy_scb_spi.h **** * The SPI protocol is a synchronous serial interface protocol. Devices operate
  25:Generated_Source\PSoC6\pdl\drivers/peripheral/scb/cy_scb_spi.h **** * in either master or slave mode. The master initiates the data transfer.
  26:Generated_Source\PSoC6\pdl\drivers/peripheral/scb/cy_scb_spi.h **** * The SCB supports single-master-multiple-slaves topology for SPI. Multiple
  27:Generated_Source\PSoC6\pdl\drivers/peripheral/scb/cy_scb_spi.h **** * slaves are supported with individual slave select lines.
  28:Generated_Source\PSoC6\pdl\drivers/peripheral/scb/cy_scb_spi.h **** *
  29:Generated_Source\PSoC6\pdl\drivers/peripheral/scb/cy_scb_spi.h **** * Features:
  30:Generated_Source\PSoC6\pdl\drivers/peripheral/scb/cy_scb_spi.h **** * * Supports master and slave functionalitySupports three types of SPI protocols:
  31:Generated_Source\PSoC6\pdl\drivers/peripheral/scb/cy_scb_spi.h **** *  * Motorola SPI - modes 0, 1, 2, and 3
  32:Generated_Source\PSoC6\pdl\drivers/peripheral/scb/cy_scb_spi.h **** *  * Texas Instruments SPI, with coinciding and preceding data frame indicator - mode 1 only
  33:Generated_Source\PSoC6\pdl\drivers/peripheral/scb/cy_scb_spi.h **** *  * National Semiconductor (MicroWire) SPI - mode 0 only
  34:Generated_Source\PSoC6\pdl\drivers/peripheral/scb/cy_scb_spi.h **** * * Master supports up to four slave select lines
  35:Generated_Source\PSoC6\pdl\drivers/peripheral/scb/cy_scb_spi.h **** *   * Each slave select has configurable active polarity (high or low)
  36:Generated_Source\PSoC6\pdl\drivers/peripheral/scb/cy_scb_spi.h **** *   * Slave select can be programmed to stay active for a whole transfer, or
ARM GAS  C:\Users\Smaug\AppData\Local\Temp\ccJKcizn.s 			page 5


  37:Generated_Source\PSoC6\pdl\drivers/peripheral/scb/cy_scb_spi.h **** *     just for each byte
  38:Generated_Source\PSoC6\pdl\drivers/peripheral/scb/cy_scb_spi.h **** * * Master supports late sampling for better timing margin
  39:Generated_Source\PSoC6\pdl\drivers/peripheral/scb/cy_scb_spi.h **** * * Master supports continuous SPI clock
  40:Generated_Source\PSoC6\pdl\drivers/peripheral/scb/cy_scb_spi.h **** * * Data frame size programmable from 4 bits to 16 bits
  41:Generated_Source\PSoC6\pdl\drivers/peripheral/scb/cy_scb_spi.h **** * * Programmable oversampling
  42:Generated_Source\PSoC6\pdl\drivers/peripheral/scb/cy_scb_spi.h **** * * MSb or LSb first
  43:Generated_Source\PSoC6\pdl\drivers/peripheral/scb/cy_scb_spi.h **** * * Median filter available for inputs
  44:Generated_Source\PSoC6\pdl\drivers/peripheral/scb/cy_scb_spi.h **** *
  45:Generated_Source\PSoC6\pdl\drivers/peripheral/scb/cy_scb_spi.h **** ********************************************************************************
  46:Generated_Source\PSoC6\pdl\drivers/peripheral/scb/cy_scb_spi.h **** * \section group_scb_spi_configuration Configuration Considerations
  47:Generated_Source\PSoC6\pdl\drivers/peripheral/scb/cy_scb_spi.h **** ********************************************************************************
  48:Generated_Source\PSoC6\pdl\drivers/peripheral/scb/cy_scb_spi.h **** * The SPI driver configuration can be divided to number of sequential
  49:Generated_Source\PSoC6\pdl\drivers/peripheral/scb/cy_scb_spi.h **** * steps listed below:
  50:Generated_Source\PSoC6\pdl\drivers/peripheral/scb/cy_scb_spi.h **** * * \ref group_scb_spi_config
  51:Generated_Source\PSoC6\pdl\drivers/peripheral/scb/cy_scb_spi.h **** * * \ref group_scb_spi_pins
  52:Generated_Source\PSoC6\pdl\drivers/peripheral/scb/cy_scb_spi.h **** * * \ref group_scb_spi_clock
  53:Generated_Source\PSoC6\pdl\drivers/peripheral/scb/cy_scb_spi.h **** * * \ref group_scb_spi_data_rate
  54:Generated_Source\PSoC6\pdl\drivers/peripheral/scb/cy_scb_spi.h **** * * \ref group_scb_spi_intr
  55:Generated_Source\PSoC6\pdl\drivers/peripheral/scb/cy_scb_spi.h **** * * \ref group_scb_spi_enable
  56:Generated_Source\PSoC6\pdl\drivers/peripheral/scb/cy_scb_spi.h **** *
  57:Generated_Source\PSoC6\pdl\drivers/peripheral/scb/cy_scb_spi.h **** * \note
  58:Generated_Source\PSoC6\pdl\drivers/peripheral/scb/cy_scb_spi.h **** * The SPI driver is built on top of the SCB hardware block. The SCB1 instance is
  59:Generated_Source\PSoC6\pdl\drivers/peripheral/scb/cy_scb_spi.h **** * used as an example for all code snippets. Modify the code to match your
  60:Generated_Source\PSoC6\pdl\drivers/peripheral/scb/cy_scb_spi.h **** * design.
  61:Generated_Source\PSoC6\pdl\drivers/peripheral/scb/cy_scb_spi.h **** *
  62:Generated_Source\PSoC6\pdl\drivers/peripheral/scb/cy_scb_spi.h **** ********************************************************************************
  63:Generated_Source\PSoC6\pdl\drivers/peripheral/scb/cy_scb_spi.h **** * \subsection group_scb_spi_config Configure SPI
  64:Generated_Source\PSoC6\pdl\drivers/peripheral/scb/cy_scb_spi.h **** ********************************************************************************
  65:Generated_Source\PSoC6\pdl\drivers/peripheral/scb/cy_scb_spi.h **** * To set up the SPI driver, provide the configuration parameters in the
  66:Generated_Source\PSoC6\pdl\drivers/peripheral/scb/cy_scb_spi.h **** * \ref cy_stc_scb_spi_config_t structure. For example: provide spiMode,
  67:Generated_Source\PSoC6\pdl\drivers/peripheral/scb/cy_scb_spi.h **** * subMode, sclkMode, oversample, rxDataWidth, and txDataWidth. The other
  68:Generated_Source\PSoC6\pdl\drivers/peripheral/scb/cy_scb_spi.h **** * parameters are optional for operation. To initialize the driver, call
  69:Generated_Source\PSoC6\pdl\drivers/peripheral/scb/cy_scb_spi.h **** * \ref Cy_SCB_SPI_Init function providing a pointer to the populated
  70:Generated_Source\PSoC6\pdl\drivers/peripheral/scb/cy_scb_spi.h **** * \ref cy_stc_scb_spi_config_t structure and the allocated
  71:Generated_Source\PSoC6\pdl\drivers/peripheral/scb/cy_scb_spi.h **** * \ref cy_stc_scb_spi_context_t structure.
  72:Generated_Source\PSoC6\pdl\drivers/peripheral/scb/cy_scb_spi.h **** *
  73:Generated_Source\PSoC6\pdl\drivers/peripheral/scb/cy_scb_spi.h **** * \snippet SCB_CompDatasheet_sut_01_revA.cydsn\spi_snippets.c SPI_CFG
  74:Generated_Source\PSoC6\pdl\drivers/peripheral/scb/cy_scb_spi.h **** *
  75:Generated_Source\PSoC6\pdl\drivers/peripheral/scb/cy_scb_spi.h **** ********************************************************************************
  76:Generated_Source\PSoC6\pdl\drivers/peripheral/scb/cy_scb_spi.h **** * \subsection group_scb_spi_pins Assign and Configure Pins
  77:Generated_Source\PSoC6\pdl\drivers/peripheral/scb/cy_scb_spi.h **** ********************************************************************************
  78:Generated_Source\PSoC6\pdl\drivers/peripheral/scb/cy_scb_spi.h **** * Only dedicated SCB pins can be used for SPI operation. The HSIOM
  79:Generated_Source\PSoC6\pdl\drivers/peripheral/scb/cy_scb_spi.h **** * register must be configured to connect dedicated SCB SPI pins to the
  80:Generated_Source\PSoC6\pdl\drivers/peripheral/scb/cy_scb_spi.h **** * SCB block. Also, the SPI output pins must be configured in Strong Drive Input
  81:Generated_Source\PSoC6\pdl\drivers/peripheral/scb/cy_scb_spi.h **** * Off mode and SPI input pins in Digital High-Z.
  82:Generated_Source\PSoC6\pdl\drivers/peripheral/scb/cy_scb_spi.h **** *
  83:Generated_Source\PSoC6\pdl\drivers/peripheral/scb/cy_scb_spi.h **** * \snippet SCB_CompDatasheet_sut_01_revA.cydsn\spi_snippets.c SPI_CFG_PINS
  84:Generated_Source\PSoC6\pdl\drivers/peripheral/scb/cy_scb_spi.h **** *
  85:Generated_Source\PSoC6\pdl\drivers/peripheral/scb/cy_scb_spi.h **** ********************************************************************************
  86:Generated_Source\PSoC6\pdl\drivers/peripheral/scb/cy_scb_spi.h **** * \subsection group_scb_spi_clock Assign Clock Divider
  87:Generated_Source\PSoC6\pdl\drivers/peripheral/scb/cy_scb_spi.h **** ********************************************************************************
  88:Generated_Source\PSoC6\pdl\drivers/peripheral/scb/cy_scb_spi.h **** * A clock source must be connected to the SCB block to oversample input and
  89:Generated_Source\PSoC6\pdl\drivers/peripheral/scb/cy_scb_spi.h **** * output signals, in this document this clock will be referred as clk_scb.
  90:Generated_Source\PSoC6\pdl\drivers/peripheral/scb/cy_scb_spi.h **** * You must use one of the 8-bit or 16-bit dividers. Use the \ref group_sysclk
  91:Generated_Source\PSoC6\pdl\drivers/peripheral/scb/cy_scb_spi.h **** * driver API to do this.
  92:Generated_Source\PSoC6\pdl\drivers/peripheral/scb/cy_scb_spi.h **** *
  93:Generated_Source\PSoC6\pdl\drivers/peripheral/scb/cy_scb_spi.h **** * \snippet SCB_CompDatasheet_sut_01_revA.cydsn\spi_snippets.c SPI_CFG_ASSIGN_CLOCK
ARM GAS  C:\Users\Smaug\AppData\Local\Temp\ccJKcizn.s 			page 6


  94:Generated_Source\PSoC6\pdl\drivers/peripheral/scb/cy_scb_spi.h **** *
  95:Generated_Source\PSoC6\pdl\drivers/peripheral/scb/cy_scb_spi.h **** ********************************************************************************
  96:Generated_Source\PSoC6\pdl\drivers/peripheral/scb/cy_scb_spi.h **** * \subsection group_scb_spi_data_rate Configure Data Rate
  97:Generated_Source\PSoC6\pdl\drivers/peripheral/scb/cy_scb_spi.h **** ********************************************************************************
  98:Generated_Source\PSoC6\pdl\drivers/peripheral/scb/cy_scb_spi.h **** * To get the SPI slave to operate with the desired data rate, the clk_scb must be
  99:Generated_Source\PSoC6\pdl\drivers/peripheral/scb/cy_scb_spi.h **** * fast enough to provide sufficient oversampling. Use the \ref group_sysclk driver
 100:Generated_Source\PSoC6\pdl\drivers/peripheral/scb/cy_scb_spi.h **** * API to do that.
 101:Generated_Source\PSoC6\pdl\drivers/peripheral/scb/cy_scb_spi.h **** *
 102:Generated_Source\PSoC6\pdl\drivers/peripheral/scb/cy_scb_spi.h **** * \snippet SCB_CompDatasheet_sut_01_revA.cydsn\spi_snippets.c SPI_CFG_DATA_RATE_SLAVE
 103:Generated_Source\PSoC6\pdl\drivers/peripheral/scb/cy_scb_spi.h **** *
 104:Generated_Source\PSoC6\pdl\drivers/peripheral/scb/cy_scb_spi.h **** * To get the SPI master to operate with the desired data rate, multiply the
 105:Generated_Source\PSoC6\pdl\drivers/peripheral/scb/cy_scb_spi.h **** * oversample factor by the desired data rate to determine the required
 106:Generated_Source\PSoC6\pdl\drivers/peripheral/scb/cy_scb_spi.h **** * frequency for clk_scb. Use the \ref group_sysclk driver API to configure
 107:Generated_Source\PSoC6\pdl\drivers/peripheral/scb/cy_scb_spi.h **** * clk_scb frequency. Set the <em><b>oversample parameter in configuration
 108:Generated_Source\PSoC6\pdl\drivers/peripheral/scb/cy_scb_spi.h **** * structure</b></em> to define number of SCB clocks in one SCLK period.
 109:Generated_Source\PSoC6\pdl\drivers/peripheral/scb/cy_scb_spi.h **** * When this value is even, the first and second phases of the SCLK period are
 110:Generated_Source\PSoC6\pdl\drivers/peripheral/scb/cy_scb_spi.h **** * the same. Otherwise, the first phase is one SCB clock cycle longer than the
 111:Generated_Source\PSoC6\pdl\drivers/peripheral/scb/cy_scb_spi.h **** * second phase. The level of the first phase of the clock period depends on CPOL
 112:Generated_Source\PSoC6\pdl\drivers/peripheral/scb/cy_scb_spi.h **** * settings: 0 - low level and 1 - high level.
 113:Generated_Source\PSoC6\pdl\drivers/peripheral/scb/cy_scb_spi.h **** *
 114:Generated_Source\PSoC6\pdl\drivers/peripheral/scb/cy_scb_spi.h **** * \snippet SCB_CompDatasheet_sut_01_revA.cydsn\spi_snippets.c SPI_CFG_DATA_RATE_MASTER
 115:Generated_Source\PSoC6\pdl\drivers/peripheral/scb/cy_scb_spi.h **** *
 116:Generated_Source\PSoC6\pdl\drivers/peripheral/scb/cy_scb_spi.h **** * <b>Refer to the technical reference manual (TRM) section SPI sub-section
 117:Generated_Source\PSoC6\pdl\drivers/peripheral/scb/cy_scb_spi.h **** * Oversampling and Bit Rate to get information about how to configure SPI to run
 118:Generated_Source\PSoC6\pdl\drivers/peripheral/scb/cy_scb_spi.h **** * with desired data rate</b>.
 119:Generated_Source\PSoC6\pdl\drivers/peripheral/scb/cy_scb_spi.h **** *
 120:Generated_Source\PSoC6\pdl\drivers/peripheral/scb/cy_scb_spi.h **** ********************************************************************************
 121:Generated_Source\PSoC6\pdl\drivers/peripheral/scb/cy_scb_spi.h **** * \subsection group_scb_spi_intr Configure Interrupt
 122:Generated_Source\PSoC6\pdl\drivers/peripheral/scb/cy_scb_spi.h **** ********************************************************************************
 123:Generated_Source\PSoC6\pdl\drivers/peripheral/scb/cy_scb_spi.h **** * The interrupt is optional for the SPI operation. To configure the interrupt,
 124:Generated_Source\PSoC6\pdl\drivers/peripheral/scb/cy_scb_spi.h **** * the \ref Cy_SCB_SPI_Interrupt function must be called in the interrupt
 125:Generated_Source\PSoC6\pdl\drivers/peripheral/scb/cy_scb_spi.h **** * handler for the selected SCB instance. Also, this interrupt must be enabled
 126:Generated_Source\PSoC6\pdl\drivers/peripheral/scb/cy_scb_spi.h **** * in the NVIC.
 127:Generated_Source\PSoC6\pdl\drivers/peripheral/scb/cy_scb_spi.h **** * The interrupt must be configured when \ref group_scb_spi_hl will be used.
 128:Generated_Source\PSoC6\pdl\drivers/peripheral/scb/cy_scb_spi.h **** *
 129:Generated_Source\PSoC6\pdl\drivers/peripheral/scb/cy_scb_spi.h **** * \snippet SCB_CompDatasheet_sut_01_revA.cydsn\spi_snippets.c SPI_INTR_A
 130:Generated_Source\PSoC6\pdl\drivers/peripheral/scb/cy_scb_spi.h **** * \snippet SCB_CompDatasheet_sut_01_revA.cydsn\spi_snippets.c SPI_INTR_B
 131:Generated_Source\PSoC6\pdl\drivers/peripheral/scb/cy_scb_spi.h **** *
 132:Generated_Source\PSoC6\pdl\drivers/peripheral/scb/cy_scb_spi.h **** ********************************************************************************
 133:Generated_Source\PSoC6\pdl\drivers/peripheral/scb/cy_scb_spi.h **** * \subsection group_scb_spi_enable Enable SPI
 134:Generated_Source\PSoC6\pdl\drivers/peripheral/scb/cy_scb_spi.h **** ********************************************************************************
 135:Generated_Source\PSoC6\pdl\drivers/peripheral/scb/cy_scb_spi.h **** * Finally, enable the SPI operation by calling \ref Cy_SCB_SPI_Enable.
 136:Generated_Source\PSoC6\pdl\drivers/peripheral/scb/cy_scb_spi.h **** * For the slave, this means that SPI device starts responding to the transfers.
 137:Generated_Source\PSoC6\pdl\drivers/peripheral/scb/cy_scb_spi.h **** * For the master, it is ready to execute transfers.
 138:Generated_Source\PSoC6\pdl\drivers/peripheral/scb/cy_scb_spi.h **** *
 139:Generated_Source\PSoC6\pdl\drivers/peripheral/scb/cy_scb_spi.h **** * \snippet SCB_CompDatasheet_sut_01_revA.cydsn\spi_snippets.c SPI_ENABLE
 140:Generated_Source\PSoC6\pdl\drivers/peripheral/scb/cy_scb_spi.h **** *
 141:Generated_Source\PSoC6\pdl\drivers/peripheral/scb/cy_scb_spi.h **** ********************************************************************************
 142:Generated_Source\PSoC6\pdl\drivers/peripheral/scb/cy_scb_spi.h **** * \section group_scb_spi_use_cases Common Use Cases
 143:Generated_Source\PSoC6\pdl\drivers/peripheral/scb/cy_scb_spi.h **** ********************************************************************************
 144:Generated_Source\PSoC6\pdl\drivers/peripheral/scb/cy_scb_spi.h **** * The SPI API is the same for the master and slave mode operation and
 145:Generated_Source\PSoC6\pdl\drivers/peripheral/scb/cy_scb_spi.h **** * is divided into two categories: \ref group_scb_spi_low_level_functions
 146:Generated_Source\PSoC6\pdl\drivers/peripheral/scb/cy_scb_spi.h **** * and \ref group_scb_spi_high_level_functions. \n
 147:Generated_Source\PSoC6\pdl\drivers/peripheral/scb/cy_scb_spi.h **** * <em>Do not mix <b>High-Level</b> and <b>Low-Level</b> API because a Low-Level
 148:Generated_Source\PSoC6\pdl\drivers/peripheral/scb/cy_scb_spi.h **** * API can adversely affect the operation of a High-Level API.</em>
 149:Generated_Source\PSoC6\pdl\drivers/peripheral/scb/cy_scb_spi.h **** *
 150:Generated_Source\PSoC6\pdl\drivers/peripheral/scb/cy_scb_spi.h **** ********************************************************************************
ARM GAS  C:\Users\Smaug\AppData\Local\Temp\ccJKcizn.s 			page 7


 151:Generated_Source\PSoC6\pdl\drivers/peripheral/scb/cy_scb_spi.h **** * \subsection group_scb_spi_ll Low-Level API
 152:Generated_Source\PSoC6\pdl\drivers/peripheral/scb/cy_scb_spi.h **** ********************************************************************************
 153:Generated_Source\PSoC6\pdl\drivers/peripheral/scb/cy_scb_spi.h **** * The \ref group_scb_spi_low_level_functions functions allow
 154:Generated_Source\PSoC6\pdl\drivers/peripheral/scb/cy_scb_spi.h **** * interacting directly with the hardware and do not use \ref Cy_SCB_SPI_Interrupt.
 155:Generated_Source\PSoC6\pdl\drivers/peripheral/scb/cy_scb_spi.h **** * These functions do not require context for operation. Thus, NULL can be
 156:Generated_Source\PSoC6\pdl\drivers/peripheral/scb/cy_scb_spi.h **** * passed for context parameter in \ref Cy_SCB_SPI_Init and \ref Cy_SCB_SPI_Disable
 157:Generated_Source\PSoC6\pdl\drivers/peripheral/scb/cy_scb_spi.h **** * instead of a pointer to the context structure.
 158:Generated_Source\PSoC6\pdl\drivers/peripheral/scb/cy_scb_spi.h **** *
 159:Generated_Source\PSoC6\pdl\drivers/peripheral/scb/cy_scb_spi.h **** * * To write data into the TX FIFO, use one of the provided functions:
 160:Generated_Source\PSoC6\pdl\drivers/peripheral/scb/cy_scb_spi.h **** *   \ref Cy_SCB_SPI_Write, \ref Cy_SCB_SPI_WriteArray or
 161:Generated_Source\PSoC6\pdl\drivers/peripheral/scb/cy_scb_spi.h **** *   \ref Cy_SCB_SPI_WriteArrayBlocking.
 162:Generated_Source\PSoC6\pdl\drivers/peripheral/scb/cy_scb_spi.h **** *   Note that in the master mode, putting data into the TX FIFO starts a
 163:Generated_Source\PSoC6\pdl\drivers/peripheral/scb/cy_scb_spi.h **** *   transfer. Due to the nature of SPI, the received data is put into the RX FIFO.
 164:Generated_Source\PSoC6\pdl\drivers/peripheral/scb/cy_scb_spi.h **** *
 165:Generated_Source\PSoC6\pdl\drivers/peripheral/scb/cy_scb_spi.h **** * * To read data from the RX FIFO, use one of the provided functions:
 166:Generated_Source\PSoC6\pdl\drivers/peripheral/scb/cy_scb_spi.h **** *   \ref Cy_SCB_SPI_Read or \ref Cy_SCB_SPI_ReadArray. Again due to the nature
 167:Generated_Source\PSoC6\pdl\drivers/peripheral/scb/cy_scb_spi.h **** *   of SPI these functions do not start a transfer on the bus, they only read
 168:Generated_Source\PSoC6\pdl\drivers/peripheral/scb/cy_scb_spi.h **** *   data out of the RX FIFO that has already been received.
 169:Generated_Source\PSoC6\pdl\drivers/peripheral/scb/cy_scb_spi.h **** *
 170:Generated_Source\PSoC6\pdl\drivers/peripheral/scb/cy_scb_spi.h **** * * The statuses can be polled using: \ref Cy_SCB_SPI_GetRxFifoStatus,
 171:Generated_Source\PSoC6\pdl\drivers/peripheral/scb/cy_scb_spi.h **** *   \ref Cy_SCB_SPI_GetTxFifoStatus and \ref Cy_SCB_SPI_GetSlaveMasterStatus.
 172:Generated_Source\PSoC6\pdl\drivers/peripheral/scb/cy_scb_spi.h **** *   <em>The statuses are <b>W1C (Write 1 to Clear)</b> and after a status
 173:Generated_Source\PSoC6\pdl\drivers/peripheral/scb/cy_scb_spi.h **** *   is set, it must be cleared.</em> Note that there are statuses evaluated as level.
 174:Generated_Source\PSoC6\pdl\drivers/peripheral/scb/cy_scb_spi.h **** *   These statuses remain set until an event is true. Therefore, after the clear
 175:Generated_Source\PSoC6\pdl\drivers/peripheral/scb/cy_scb_spi.h **** *   operation, the status is cleared but then it is restored (if the event is still
 176:Generated_Source\PSoC6\pdl\drivers/peripheral/scb/cy_scb_spi.h **** *   true).
 177:Generated_Source\PSoC6\pdl\drivers/peripheral/scb/cy_scb_spi.h **** *   Also, the following functions can be used for polling as well
 178:Generated_Source\PSoC6\pdl\drivers/peripheral/scb/cy_scb_spi.h **** *   \ref Cy_SCB_SPI_IsBusBusy, \ref Cy_SCB_SPI_IsTxComplete,
 179:Generated_Source\PSoC6\pdl\drivers/peripheral/scb/cy_scb_spi.h **** *   \ref Cy_SCB_SPI_GetNumInRxFifo and \ref Cy_SCB_SPI_GetNumInTxFifo.
 180:Generated_Source\PSoC6\pdl\drivers/peripheral/scb/cy_scb_spi.h **** *
 181:Generated_Source\PSoC6\pdl\drivers/peripheral/scb/cy_scb_spi.h **** * \snippet SCB_CompDatasheet_sut_01_revA.cydsn\spi_snippets.c SPI_TRANFER_DATA_LL
 182:Generated_Source\PSoC6\pdl\drivers/peripheral/scb/cy_scb_spi.h **** *
 183:Generated_Source\PSoC6\pdl\drivers/peripheral/scb/cy_scb_spi.h **** ********************************************************************************
 184:Generated_Source\PSoC6\pdl\drivers/peripheral/scb/cy_scb_spi.h **** * \subsection group_scb_spi_hl High-Level API
 185:Generated_Source\PSoC6\pdl\drivers/peripheral/scb/cy_scb_spi.h **** ********************************************************************************
 186:Generated_Source\PSoC6\pdl\drivers/peripheral/scb/cy_scb_spi.h **** * The \ref group_scb_spi_high_level_functions API use \ref Cy_SCB_SPI_Interrupt
 187:Generated_Source\PSoC6\pdl\drivers/peripheral/scb/cy_scb_spi.h **** * to execute the transfer. Call \ref Cy_SCB_SPI_Transfer to start communication: for master
 188:Generated_Source\PSoC6\pdl\drivers/peripheral/scb/cy_scb_spi.h **** * mode calling this function starts a transaction with the slave. For slave mode
 189:Generated_Source\PSoC6\pdl\drivers/peripheral/scb/cy_scb_spi.h **** * the read and write buffers are prepared for the communication with the master.
 190:Generated_Source\PSoC6\pdl\drivers/peripheral/scb/cy_scb_spi.h **** * After a transfer is started, the \ref Cy_SCB_SPI_Interrupt handles the
 191:Generated_Source\PSoC6\pdl\drivers/peripheral/scb/cy_scb_spi.h **** * transfer until its completion. Therefore, the \ref Cy_SCB_SPI_Interrupt function
 192:Generated_Source\PSoC6\pdl\drivers/peripheral/scb/cy_scb_spi.h **** * must be called inside the user interrupt handler to make the High-Level API work.
 193:Generated_Source\PSoC6\pdl\drivers/peripheral/scb/cy_scb_spi.h **** * To monitor the status of the transfer operation, use \ref Cy_SCB_SPI_GetTransferStatus.
 194:Generated_Source\PSoC6\pdl\drivers/peripheral/scb/cy_scb_spi.h **** * Alternatively, use \ref Cy_SCB_SPI_RegisterCallback to register a callback
 195:Generated_Source\PSoC6\pdl\drivers/peripheral/scb/cy_scb_spi.h **** * function to be notified about \ref group_scb_spi_macros_callback_events.
 196:Generated_Source\PSoC6\pdl\drivers/peripheral/scb/cy_scb_spi.h **** *
 197:Generated_Source\PSoC6\pdl\drivers/peripheral/scb/cy_scb_spi.h **** * \snippet SCB_CompDatasheet_sut_01_revA.cydsn\spi_snippets.c SPI_TRANFER_DATA
 198:Generated_Source\PSoC6\pdl\drivers/peripheral/scb/cy_scb_spi.h **** *
 199:Generated_Source\PSoC6\pdl\drivers/peripheral/scb/cy_scb_spi.h **** ********************************************************************************
 200:Generated_Source\PSoC6\pdl\drivers/peripheral/scb/cy_scb_spi.h **** * \section group_scb_spi_dma_trig DMA Trigger
 201:Generated_Source\PSoC6\pdl\drivers/peripheral/scb/cy_scb_spi.h **** ********************************************************************************
 202:Generated_Source\PSoC6\pdl\drivers/peripheral/scb/cy_scb_spi.h **** * The SCB provides TX and RX output trigger signals that can be routed to the
 203:Generated_Source\PSoC6\pdl\drivers/peripheral/scb/cy_scb_spi.h **** * DMA controller inputs. These signals are assigned based on the data availability
 204:Generated_Source\PSoC6\pdl\drivers/peripheral/scb/cy_scb_spi.h **** * in the TX and RX FIFOs appropriately.
 205:Generated_Source\PSoC6\pdl\drivers/peripheral/scb/cy_scb_spi.h **** *
 206:Generated_Source\PSoC6\pdl\drivers/peripheral/scb/cy_scb_spi.h **** * * The RX trigger signal is active while the number of data
 207:Generated_Source\PSoC6\pdl\drivers/peripheral/scb/cy_scb_spi.h **** *   elements in the RX FIFO is greater than the value of RX FIFO level. Use
ARM GAS  C:\Users\Smaug\AppData\Local\Temp\ccJKcizn.s 			page 8


 208:Generated_Source\PSoC6\pdl\drivers/peripheral/scb/cy_scb_spi.h **** *   function \ref Cy_SCB_SetRxFifoLevel or set configuration structure
 209:Generated_Source\PSoC6\pdl\drivers/peripheral/scb/cy_scb_spi.h **** *   rxFifoTriggerLevel parameter to configure RX FIFO level value. \n
 210:Generated_Source\PSoC6\pdl\drivers/peripheral/scb/cy_scb_spi.h **** *   <em>For example, the RX FIFO has 8 data elements and the RX FIFO level is 0.
 211:Generated_Source\PSoC6\pdl\drivers/peripheral/scb/cy_scb_spi.h **** *   The RX trigger signal is active until DMA reads all data from
 212:Generated_Source\PSoC6\pdl\drivers/peripheral/scb/cy_scb_spi.h **** *   the RX FIFO.</em>
 213:Generated_Source\PSoC6\pdl\drivers/peripheral/scb/cy_scb_spi.h **** *
 214:Generated_Source\PSoC6\pdl\drivers/peripheral/scb/cy_scb_spi.h **** * * The TX trigger signal is active while the number of data elements
 215:Generated_Source\PSoC6\pdl\drivers/peripheral/scb/cy_scb_spi.h **** *   in the TX FIFO is less than the value of TX FIFO level. Use function
 216:Generated_Source\PSoC6\pdl\drivers/peripheral/scb/cy_scb_spi.h **** *   \ref Cy_SCB_SetTxFifoLevel or set configuration structure txFifoTriggerLevel
 217:Generated_Source\PSoC6\pdl\drivers/peripheral/scb/cy_scb_spi.h **** *   parameter to configure TX FIFO level value. \n
 218:Generated_Source\PSoC6\pdl\drivers/peripheral/scb/cy_scb_spi.h **** *   <em>For example, the TX FIFO has 0 data elements (empty) and the TX FIFO level
 219:Generated_Source\PSoC6\pdl\drivers/peripheral/scb/cy_scb_spi.h **** *   is 7. The TX trigger signal is active until DMA loads TX FIFO
 220:Generated_Source\PSoC6\pdl\drivers/peripheral/scb/cy_scb_spi.h **** *   with 8 data elements (note that after the first TX load operation, the data
 221:Generated_Source\PSoC6\pdl\drivers/peripheral/scb/cy_scb_spi.h **** *   element goes to the shift register and TX FIFO is empty).</em>
 222:Generated_Source\PSoC6\pdl\drivers/peripheral/scb/cy_scb_spi.h **** *
 223:Generated_Source\PSoC6\pdl\drivers/peripheral/scb/cy_scb_spi.h **** * To route SCB TX or RX trigger signals to the DMA controller, use \ref group_trigmux
 224:Generated_Source\PSoC6\pdl\drivers/peripheral/scb/cy_scb_spi.h **** * driver API.
 225:Generated_Source\PSoC6\pdl\drivers/peripheral/scb/cy_scb_spi.h **** *
 226:Generated_Source\PSoC6\pdl\drivers/peripheral/scb/cy_scb_spi.h **** * \note
 227:Generated_Source\PSoC6\pdl\drivers/peripheral/scb/cy_scb_spi.h **** * To properly handle DMA level request signal activation and de-activation from the SCB
 228:Generated_Source\PSoC6\pdl\drivers/peripheral/scb/cy_scb_spi.h **** * peripheral block the DMA Descriptor typically must be configured to re-trigger
 229:Generated_Source\PSoC6\pdl\drivers/peripheral/scb/cy_scb_spi.h **** * after 16 Clk_Slow cycles.
 230:Generated_Source\PSoC6\pdl\drivers/peripheral/scb/cy_scb_spi.h **** *
 231:Generated_Source\PSoC6\pdl\drivers/peripheral/scb/cy_scb_spi.h **** ********************************************************************************
 232:Generated_Source\PSoC6\pdl\drivers/peripheral/scb/cy_scb_spi.h **** * \section group_scb_spi_lp Low Power Support
 233:Generated_Source\PSoC6\pdl\drivers/peripheral/scb/cy_scb_spi.h **** ********************************************************************************
 234:Generated_Source\PSoC6\pdl\drivers/peripheral/scb/cy_scb_spi.h **** * The SPI driver provides callback functions to handle power mode transitions.
 235:Generated_Source\PSoC6\pdl\drivers/peripheral/scb/cy_scb_spi.h **** * The callback \ref Cy_SCB_SPI_DeepSleepCallback must be called
 236:Generated_Source\PSoC6\pdl\drivers/peripheral/scb/cy_scb_spi.h **** * during execution of \ref Cy_SysPm_CpuEnterDeepSleep; \ref Cy_SCB_SPI_HibernateCallback
 237:Generated_Source\PSoC6\pdl\drivers/peripheral/scb/cy_scb_spi.h **** * must be called during execution of \ref Cy_SysPm_SystemEnterHibernate. To trigger the
 238:Generated_Source\PSoC6\pdl\drivers/peripheral/scb/cy_scb_spi.h **** * callback execution, the callback must be registered before calling the
 239:Generated_Source\PSoC6\pdl\drivers/peripheral/scb/cy_scb_spi.h **** * power mode transition function. Refer to \ref group_syspm driver for more
 240:Generated_Source\PSoC6\pdl\drivers/peripheral/scb/cy_scb_spi.h **** * information about power mode transitions and callback registration.
 241:Generated_Source\PSoC6\pdl\drivers/peripheral/scb/cy_scb_spi.h **** *
 242:Generated_Source\PSoC6\pdl\drivers/peripheral/scb/cy_scb_spi.h **** * The SPI master is disabled during Deep Sleep and Hibernate and stops driving
 243:Generated_Source\PSoC6\pdl\drivers/peripheral/scb/cy_scb_spi.h **** * the output pins. The state of the SPI master output pins SCLK, SS, and MOSI is
 244:Generated_Source\PSoC6\pdl\drivers/peripheral/scb/cy_scb_spi.h **** * High-Z, which can cause unexpected behavior of the SPI Slave due to possible
 245:Generated_Source\PSoC6\pdl\drivers/peripheral/scb/cy_scb_spi.h **** * glitches on these lines. These pins must keep the inactive level (the same state
 246:Generated_Source\PSoC6\pdl\drivers/peripheral/scb/cy_scb_spi.h **** * when SPI master is enabled and does not transfer data) before entering Deep
 247:Generated_Source\PSoC6\pdl\drivers/peripheral/scb/cy_scb_spi.h **** * Sleep or Hibernate mode. To do that, write the GPIO data register of each pin
 248:Generated_Source\PSoC6\pdl\drivers/peripheral/scb/cy_scb_spi.h **** * to the inactive level for each output pin. Then configure High-Speed Input
 249:Generated_Source\PSoC6\pdl\drivers/peripheral/scb/cy_scb_spi.h **** * Output Multiplexer (HSIOM) of each pin to be controlled by the GPIO (use
 250:Generated_Source\PSoC6\pdl\drivers/peripheral/scb/cy_scb_spi.h **** * \ref group_gpio driver API). After after exiting Deep Sleep mode the SPI
 251:Generated_Source\PSoC6\pdl\drivers/peripheral/scb/cy_scb_spi.h **** * master must be enabled and the pins configuration restored to return the
 252:Generated_Source\PSoC6\pdl\drivers/peripheral/scb/cy_scb_spi.h **** * SPI master control of the pins (after exiting Hibernate mode, the
 253:Generated_Source\PSoC6\pdl\drivers/peripheral/scb/cy_scb_spi.h **** * system initialization code does the same). Copy either or
 254:Generated_Source\PSoC6\pdl\drivers/peripheral/scb/cy_scb_spi.h **** * both \ref Cy_SCB_SPI_DeepSleepCallback and \ref Cy_SCB_SPI_HibernateCallback
 255:Generated_Source\PSoC6\pdl\drivers/peripheral/scb/cy_scb_spi.h **** * as appropriate, and make the changes described above inside the function.
 256:Generated_Source\PSoC6\pdl\drivers/peripheral/scb/cy_scb_spi.h **** * Alternately, external pull-up or pull-down resistors can be connected
 257:Generated_Source\PSoC6\pdl\drivers/peripheral/scb/cy_scb_spi.h **** * to the appropriate SPI lines to keep them inactive during Deep-Sleep or
 258:Generated_Source\PSoC6\pdl\drivers/peripheral/scb/cy_scb_spi.h **** * Hibernate.
 259:Generated_Source\PSoC6\pdl\drivers/peripheral/scb/cy_scb_spi.h **** *
 260:Generated_Source\PSoC6\pdl\drivers/peripheral/scb/cy_scb_spi.h **** * \note
 261:Generated_Source\PSoC6\pdl\drivers/peripheral/scb/cy_scb_spi.h **** * Only applicable for <b>rev-08 of the CY8CKIT-062-BLE</b>.
 262:Generated_Source\PSoC6\pdl\drivers/peripheral/scb/cy_scb_spi.h **** * For proper operation, when the SPI slave is configured to be a wakeup
 263:Generated_Source\PSoC6\pdl\drivers/peripheral/scb/cy_scb_spi.h **** * source from Deep Sleep mode, the \ref Cy_SCB_SPI_DeepSleepCallback must be
 264:Generated_Source\PSoC6\pdl\drivers/peripheral/scb/cy_scb_spi.h **** * copied and modified. Refer to the function description to get the details.
ARM GAS  C:\Users\Smaug\AppData\Local\Temp\ccJKcizn.s 			page 9


 265:Generated_Source\PSoC6\pdl\drivers/peripheral/scb/cy_scb_spi.h **** *
 266:Generated_Source\PSoC6\pdl\drivers/peripheral/scb/cy_scb_spi.h **** ********************************************************************************
 267:Generated_Source\PSoC6\pdl\drivers/peripheral/scb/cy_scb_spi.h **** * \section group_scb_spi_more_information More Information
 268:Generated_Source\PSoC6\pdl\drivers/peripheral/scb/cy_scb_spi.h **** ********************************************************************************
 269:Generated_Source\PSoC6\pdl\drivers/peripheral/scb/cy_scb_spi.h **** * For more information on the SCB peripheral, refer to the technical reference
 270:Generated_Source\PSoC6\pdl\drivers/peripheral/scb/cy_scb_spi.h **** * manual (TRM).
 271:Generated_Source\PSoC6\pdl\drivers/peripheral/scb/cy_scb_spi.h **** *
 272:Generated_Source\PSoC6\pdl\drivers/peripheral/scb/cy_scb_spi.h **** ********************************************************************************
 273:Generated_Source\PSoC6\pdl\drivers/peripheral/scb/cy_scb_spi.h **** * \section group_scb_spi_MISRA MISRA-C Compliance
 274:Generated_Source\PSoC6\pdl\drivers/peripheral/scb/cy_scb_spi.h **** ********************************************************************************
 275:Generated_Source\PSoC6\pdl\drivers/peripheral/scb/cy_scb_spi.h **** * <table class="doxtable">
 276:Generated_Source\PSoC6\pdl\drivers/peripheral/scb/cy_scb_spi.h **** *   <tr>
 277:Generated_Source\PSoC6\pdl\drivers/peripheral/scb/cy_scb_spi.h **** *     <th>MISRA Rule</th>
 278:Generated_Source\PSoC6\pdl\drivers/peripheral/scb/cy_scb_spi.h **** *     <th>Rule Class (Required/Advisory)</th>
 279:Generated_Source\PSoC6\pdl\drivers/peripheral/scb/cy_scb_spi.h **** *     <th>Rule Description</th>
 280:Generated_Source\PSoC6\pdl\drivers/peripheral/scb/cy_scb_spi.h **** *     <th>Description of Deviation(s)</th>
 281:Generated_Source\PSoC6\pdl\drivers/peripheral/scb/cy_scb_spi.h **** *   </tr>
 282:Generated_Source\PSoC6\pdl\drivers/peripheral/scb/cy_scb_spi.h **** *   <tr>
 283:Generated_Source\PSoC6\pdl\drivers/peripheral/scb/cy_scb_spi.h **** *     <td>11.4</td>
 284:Generated_Source\PSoC6\pdl\drivers/peripheral/scb/cy_scb_spi.h **** *     <td>A</td>
 285:Generated_Source\PSoC6\pdl\drivers/peripheral/scb/cy_scb_spi.h **** *     <td>A cast should not be performed between a pointer to object type and
 286:Generated_Source\PSoC6\pdl\drivers/peripheral/scb/cy_scb_spi.h **** *         a different pointer to object type.</td>
 287:Generated_Source\PSoC6\pdl\drivers/peripheral/scb/cy_scb_spi.h **** *     <td>
 288:Generated_Source\PSoC6\pdl\drivers/peripheral/scb/cy_scb_spi.h **** *         * The pointer to the buffer memory is void to allow handling
 289:Generated_Source\PSoC6\pdl\drivers/peripheral/scb/cy_scb_spi.h **** *         different data types: uint8_t (4-8 bits) or uint16_t (9-16 bits).
 290:Generated_Source\PSoC6\pdl\drivers/peripheral/scb/cy_scb_spi.h **** *         The cast operation is safe because the configuration is verified
 291:Generated_Source\PSoC6\pdl\drivers/peripheral/scb/cy_scb_spi.h **** *         before operation is performed.
 292:Generated_Source\PSoC6\pdl\drivers/peripheral/scb/cy_scb_spi.h **** *         * The functions \ref Cy_SCB_SPI_DeepSleepCallback and
 293:Generated_Source\PSoC6\pdl\drivers/peripheral/scb/cy_scb_spi.h **** *         \ref Cy_SCB_SPI_HibernateCallback are callback of
 294:Generated_Source\PSoC6\pdl\drivers/peripheral/scb/cy_scb_spi.h **** *         \ref cy_en_syspm_status_t type. The cast operation safety in these
 295:Generated_Source\PSoC6\pdl\drivers/peripheral/scb/cy_scb_spi.h **** *         functions becomes the user's responsibility because pointers are
 296:Generated_Source\PSoC6\pdl\drivers/peripheral/scb/cy_scb_spi.h **** *         initialized when callback is registered in SysPm driver.</td>
 297:Generated_Source\PSoC6\pdl\drivers/peripheral/scb/cy_scb_spi.h **** *   </tr>
 298:Generated_Source\PSoC6\pdl\drivers/peripheral/scb/cy_scb_spi.h **** *   <tr>
 299:Generated_Source\PSoC6\pdl\drivers/peripheral/scb/cy_scb_spi.h **** *     <td>13.7</td>
 300:Generated_Source\PSoC6\pdl\drivers/peripheral/scb/cy_scb_spi.h **** *     <td>R</td>
 301:Generated_Source\PSoC6\pdl\drivers/peripheral/scb/cy_scb_spi.h **** *     <td>Boolean operations whose results are invariant shall not be
 302:Generated_Source\PSoC6\pdl\drivers/peripheral/scb/cy_scb_spi.h **** *         permitted.</td>
 303:Generated_Source\PSoC6\pdl\drivers/peripheral/scb/cy_scb_spi.h **** *     <td>The SCB block parameters can be a constant false or true depends on
 304:Generated_Source\PSoC6\pdl\drivers/peripheral/scb/cy_scb_spi.h **** *         the selected device and cause this violation.</td>
 305:Generated_Source\PSoC6\pdl\drivers/peripheral/scb/cy_scb_spi.h **** *   </tr>
 306:Generated_Source\PSoC6\pdl\drivers/peripheral/scb/cy_scb_spi.h **** *   <tr>
 307:Generated_Source\PSoC6\pdl\drivers/peripheral/scb/cy_scb_spi.h **** *     <td>14.1</td>
 308:Generated_Source\PSoC6\pdl\drivers/peripheral/scb/cy_scb_spi.h **** *     <td>R</td>
 309:Generated_Source\PSoC6\pdl\drivers/peripheral/scb/cy_scb_spi.h **** *     <td>There shall be no unreachable code.</td>
 310:Generated_Source\PSoC6\pdl\drivers/peripheral/scb/cy_scb_spi.h **** *     <td>The SCB block parameters can be a constant false or true depends on
 311:Generated_Source\PSoC6\pdl\drivers/peripheral/scb/cy_scb_spi.h **** *         the selected device and cause code to be unreachable.</td>
 312:Generated_Source\PSoC6\pdl\drivers/peripheral/scb/cy_scb_spi.h **** *   </tr>
 313:Generated_Source\PSoC6\pdl\drivers/peripheral/scb/cy_scb_spi.h **** *   <tr>
 314:Generated_Source\PSoC6\pdl\drivers/peripheral/scb/cy_scb_spi.h **** *     <td>14.2</td>
 315:Generated_Source\PSoC6\pdl\drivers/peripheral/scb/cy_scb_spi.h **** *     <td>R</td>
 316:Generated_Source\PSoC6\pdl\drivers/peripheral/scb/cy_scb_spi.h **** *     <td>All non-null statements shall either: a) have at least one side-effect
 317:Generated_Source\PSoC6\pdl\drivers/peripheral/scb/cy_scb_spi.h **** *         however executed, or b) cause control flow to change.</td>
 318:Generated_Source\PSoC6\pdl\drivers/peripheral/scb/cy_scb_spi.h **** *     <td>The unused function parameters are cast to void. This statement
 319:Generated_Source\PSoC6\pdl\drivers/peripheral/scb/cy_scb_spi.h **** *         has no side-effect and is used to suppress a compiler warning.</td>
 320:Generated_Source\PSoC6\pdl\drivers/peripheral/scb/cy_scb_spi.h **** *   </tr>
 321:Generated_Source\PSoC6\pdl\drivers/peripheral/scb/cy_scb_spi.h **** *   <tr>
ARM GAS  C:\Users\Smaug\AppData\Local\Temp\ccJKcizn.s 			page 10


 322:Generated_Source\PSoC6\pdl\drivers/peripheral/scb/cy_scb_spi.h **** *     <td>14.7</td>
 323:Generated_Source\PSoC6\pdl\drivers/peripheral/scb/cy_scb_spi.h **** *     <td>R</td>
 324:Generated_Source\PSoC6\pdl\drivers/peripheral/scb/cy_scb_spi.h **** *     <td>A function shall have a single point of exit at the end of the
 325:Generated_Source\PSoC6\pdl\drivers/peripheral/scb/cy_scb_spi.h **** *         function.</td>
 326:Generated_Source\PSoC6\pdl\drivers/peripheral/scb/cy_scb_spi.h **** *     <td>The functions can return from several points. This is done to improve
 327:Generated_Source\PSoC6\pdl\drivers/peripheral/scb/cy_scb_spi.h **** *         code clarity when returning error status code if input parameters
 328:Generated_Source\PSoC6\pdl\drivers/peripheral/scb/cy_scb_spi.h **** *         validation is failed.</td>
 329:Generated_Source\PSoC6\pdl\drivers/peripheral/scb/cy_scb_spi.h **** *   </tr>
 330:Generated_Source\PSoC6\pdl\drivers/peripheral/scb/cy_scb_spi.h **** * </table>
 331:Generated_Source\PSoC6\pdl\drivers/peripheral/scb/cy_scb_spi.h **** *
 332:Generated_Source\PSoC6\pdl\drivers/peripheral/scb/cy_scb_spi.h **** * \section group_scb_spi_changelog Changelog
 333:Generated_Source\PSoC6\pdl\drivers/peripheral/scb/cy_scb_spi.h **** * <table class="doxtable">
 334:Generated_Source\PSoC6\pdl\drivers/peripheral/scb/cy_scb_spi.h **** *   <tr><th>Version</th><th>Changes</th><th>Reason for Change</th></tr>
 335:Generated_Source\PSoC6\pdl\drivers/peripheral/scb/cy_scb_spi.h **** *   <tr>
 336:Generated_Source\PSoC6\pdl\drivers/peripheral/scb/cy_scb_spi.h **** *     <td rowspan="2">2.20</td>
 337:Generated_Source\PSoC6\pdl\drivers/peripheral/scb/cy_scb_spi.h **** *     <td>Flattened the organization of the driver source code into the single
 338:Generated_Source\PSoC6\pdl\drivers/peripheral/scb/cy_scb_spi.h **** *         source directory and the single include directory.
 339:Generated_Source\PSoC6\pdl\drivers/peripheral/scb/cy_scb_spi.h **** *     </td>
 340:Generated_Source\PSoC6\pdl\drivers/peripheral/scb/cy_scb_spi.h **** *     <td>Driver library directory-structure simplification.</td>
 341:Generated_Source\PSoC6\pdl\drivers/peripheral/scb/cy_scb_spi.h **** *   </tr>
 342:Generated_Source\PSoC6\pdl\drivers/peripheral/scb/cy_scb_spi.h **** *   <tr>
 343:Generated_Source\PSoC6\pdl\drivers/peripheral/scb/cy_scb_spi.h **** *     <td>Added register access layer. Use register access macros instead
 344:Generated_Source\PSoC6\pdl\drivers/peripheral/scb/cy_scb_spi.h **** *         of direct register access using dereferenced pointers.</td>
 345:Generated_Source\PSoC6\pdl\drivers/peripheral/scb/cy_scb_spi.h **** *     <td>Makes register access device-independent, so that the PDL does
 346:Generated_Source\PSoC6\pdl\drivers/peripheral/scb/cy_scb_spi.h **** *         not need to be recompiled for each supported part number.</td>
 347:Generated_Source\PSoC6\pdl\drivers/peripheral/scb/cy_scb_spi.h **** *   </tr>
 348:Generated_Source\PSoC6\pdl\drivers/peripheral/scb/cy_scb_spi.h **** *   <tr>
 349:Generated_Source\PSoC6\pdl\drivers/peripheral/scb/cy_scb_spi.h **** *     <td>2.10</td>
 350:Generated_Source\PSoC6\pdl\drivers/peripheral/scb/cy_scb_spi.h **** *     <td>None.</td>
 351:Generated_Source\PSoC6\pdl\drivers/peripheral/scb/cy_scb_spi.h **** *     <td>SCB I2C driver updated.</td>
 352:Generated_Source\PSoC6\pdl\drivers/peripheral/scb/cy_scb_spi.h **** *   </tr>
 353:Generated_Source\PSoC6\pdl\drivers/peripheral/scb/cy_scb_spi.h **** *   <tr>
 354:Generated_Source\PSoC6\pdl\drivers/peripheral/scb/cy_scb_spi.h **** *     <td rowspan="4"> 2.0</td>
 355:Generated_Source\PSoC6\pdl\drivers/peripheral/scb/cy_scb_spi.h **** *     <td>Fixed SPI callback notification when error event occurred.</td>
 356:Generated_Source\PSoC6\pdl\drivers/peripheral/scb/cy_scb_spi.h **** *     <td>The SPI callback passed incorrect event value if error event occurred.</td>
 357:Generated_Source\PSoC6\pdl\drivers/peripheral/scb/cy_scb_spi.h **** *   </tr>
 358:Generated_Source\PSoC6\pdl\drivers/peripheral/scb/cy_scb_spi.h **** *   <tr>
 359:Generated_Source\PSoC6\pdl\drivers/peripheral/scb/cy_scb_spi.h **** *     <td>Added parameters validation for public API.</td>
 360:Generated_Source\PSoC6\pdl\drivers/peripheral/scb/cy_scb_spi.h **** *     <td></td>
 361:Generated_Source\PSoC6\pdl\drivers/peripheral/scb/cy_scb_spi.h **** *   </tr>
 362:Generated_Source\PSoC6\pdl\drivers/peripheral/scb/cy_scb_spi.h **** *   <tr>
 363:Generated_Source\PSoC6\pdl\drivers/peripheral/scb/cy_scb_spi.h **** *     <td>Replaced variables that have limited range of values with enumerated
 364:Generated_Source\PSoC6\pdl\drivers/peripheral/scb/cy_scb_spi.h **** *         types.</td>
 365:Generated_Source\PSoC6\pdl\drivers/peripheral/scb/cy_scb_spi.h **** *     <td></td>
 366:Generated_Source\PSoC6\pdl\drivers/peripheral/scb/cy_scb_spi.h **** *   </tr>
 367:Generated_Source\PSoC6\pdl\drivers/peripheral/scb/cy_scb_spi.h **** *   <tr>
 368:Generated_Source\PSoC6\pdl\drivers/peripheral/scb/cy_scb_spi.h **** *     <td>Added missing "cy_cb_" to the callback function type names.</td>
 369:Generated_Source\PSoC6\pdl\drivers/peripheral/scb/cy_scb_spi.h **** *     <td></td>
 370:Generated_Source\PSoC6\pdl\drivers/peripheral/scb/cy_scb_spi.h **** *   </tr>
 371:Generated_Source\PSoC6\pdl\drivers/peripheral/scb/cy_scb_spi.h **** *   <tr>
 372:Generated_Source\PSoC6\pdl\drivers/peripheral/scb/cy_scb_spi.h **** *     <td>1.0</td>
 373:Generated_Source\PSoC6\pdl\drivers/peripheral/scb/cy_scb_spi.h **** *     <td>Initial version.</td>
 374:Generated_Source\PSoC6\pdl\drivers/peripheral/scb/cy_scb_spi.h **** *     <td></td>
 375:Generated_Source\PSoC6\pdl\drivers/peripheral/scb/cy_scb_spi.h **** *   </tr>
 376:Generated_Source\PSoC6\pdl\drivers/peripheral/scb/cy_scb_spi.h **** * </table>
 377:Generated_Source\PSoC6\pdl\drivers/peripheral/scb/cy_scb_spi.h **** *
 378:Generated_Source\PSoC6\pdl\drivers/peripheral/scb/cy_scb_spi.h **** * \defgroup group_scb_spi_macros Macros
ARM GAS  C:\Users\Smaug\AppData\Local\Temp\ccJKcizn.s 			page 11


 379:Generated_Source\PSoC6\pdl\drivers/peripheral/scb/cy_scb_spi.h **** * \defgroup group_scb_spi_functions Functions
 380:Generated_Source\PSoC6\pdl\drivers/peripheral/scb/cy_scb_spi.h **** * \{
 381:Generated_Source\PSoC6\pdl\drivers/peripheral/scb/cy_scb_spi.h **** * \defgroup group_scb_spi_general_functions General
 382:Generated_Source\PSoC6\pdl\drivers/peripheral/scb/cy_scb_spi.h **** * \defgroup group_scb_spi_high_level_functions High-Level
 383:Generated_Source\PSoC6\pdl\drivers/peripheral/scb/cy_scb_spi.h **** * \defgroup group_scb_spi_low_level_functions Low-Level
 384:Generated_Source\PSoC6\pdl\drivers/peripheral/scb/cy_scb_spi.h **** * \defgroup group_scb_spi_interrupt_functions Interrupt
 385:Generated_Source\PSoC6\pdl\drivers/peripheral/scb/cy_scb_spi.h **** * \defgroup group_scb_spi_low_power_functions Low Power Callbacks
 386:Generated_Source\PSoC6\pdl\drivers/peripheral/scb/cy_scb_spi.h **** * \}
 387:Generated_Source\PSoC6\pdl\drivers/peripheral/scb/cy_scb_spi.h **** * \defgroup group_scb_spi_data_structures Data Structures
 388:Generated_Source\PSoC6\pdl\drivers/peripheral/scb/cy_scb_spi.h **** * \defgroup group_scb_spi_enums Enumerated Types
 389:Generated_Source\PSoC6\pdl\drivers/peripheral/scb/cy_scb_spi.h **** */
 390:Generated_Source\PSoC6\pdl\drivers/peripheral/scb/cy_scb_spi.h **** 
 391:Generated_Source\PSoC6\pdl\drivers/peripheral/scb/cy_scb_spi.h **** #if !defined(CY_SCB_SPI_H)
 392:Generated_Source\PSoC6\pdl\drivers/peripheral/scb/cy_scb_spi.h **** #define CY_SCB_SPI_H
 393:Generated_Source\PSoC6\pdl\drivers/peripheral/scb/cy_scb_spi.h **** 
 394:Generated_Source\PSoC6\pdl\drivers/peripheral/scb/cy_scb_spi.h **** #include "cy_scb_common.h"
 395:Generated_Source\PSoC6\pdl\drivers/peripheral/scb/cy_scb_spi.h **** 
 396:Generated_Source\PSoC6\pdl\drivers/peripheral/scb/cy_scb_spi.h **** #if defined(__cplusplus)
 397:Generated_Source\PSoC6\pdl\drivers/peripheral/scb/cy_scb_spi.h **** extern "C" {
 398:Generated_Source\PSoC6\pdl\drivers/peripheral/scb/cy_scb_spi.h **** #endif
 399:Generated_Source\PSoC6\pdl\drivers/peripheral/scb/cy_scb_spi.h **** 
 400:Generated_Source\PSoC6\pdl\drivers/peripheral/scb/cy_scb_spi.h **** /*******************************************************************************
 401:Generated_Source\PSoC6\pdl\drivers/peripheral/scb/cy_scb_spi.h **** *                               Enumerated Types
 402:Generated_Source\PSoC6\pdl\drivers/peripheral/scb/cy_scb_spi.h **** *******************************************************************************/
 403:Generated_Source\PSoC6\pdl\drivers/peripheral/scb/cy_scb_spi.h **** 
 404:Generated_Source\PSoC6\pdl\drivers/peripheral/scb/cy_scb_spi.h **** /**
 405:Generated_Source\PSoC6\pdl\drivers/peripheral/scb/cy_scb_spi.h **** * \addtogroup group_scb_spi_enums
 406:Generated_Source\PSoC6\pdl\drivers/peripheral/scb/cy_scb_spi.h **** * \{
 407:Generated_Source\PSoC6\pdl\drivers/peripheral/scb/cy_scb_spi.h **** */
 408:Generated_Source\PSoC6\pdl\drivers/peripheral/scb/cy_scb_spi.h **** 
 409:Generated_Source\PSoC6\pdl\drivers/peripheral/scb/cy_scb_spi.h **** /** SPI status codes */
 410:Generated_Source\PSoC6\pdl\drivers/peripheral/scb/cy_scb_spi.h **** typedef enum
 411:Generated_Source\PSoC6\pdl\drivers/peripheral/scb/cy_scb_spi.h **** {
 412:Generated_Source\PSoC6\pdl\drivers/peripheral/scb/cy_scb_spi.h ****     /** Operation completed successfully */
 413:Generated_Source\PSoC6\pdl\drivers/peripheral/scb/cy_scb_spi.h ****     CY_SCB_SPI_SUCCESS = 0U,
 414:Generated_Source\PSoC6\pdl\drivers/peripheral/scb/cy_scb_spi.h **** 
 415:Generated_Source\PSoC6\pdl\drivers/peripheral/scb/cy_scb_spi.h ****     /** One or more of input parameters are invalid */
 416:Generated_Source\PSoC6\pdl\drivers/peripheral/scb/cy_scb_spi.h ****     CY_SCB_SPI_BAD_PARAM = (CY_SCB_ID | CY_PDL_STATUS_ERROR | CY_SCB_SPI_ID | 1U),
 417:Generated_Source\PSoC6\pdl\drivers/peripheral/scb/cy_scb_spi.h **** 
 418:Generated_Source\PSoC6\pdl\drivers/peripheral/scb/cy_scb_spi.h ****     /**
 419:Generated_Source\PSoC6\pdl\drivers/peripheral/scb/cy_scb_spi.h ****     * SPI is busy processing a transfer.
 420:Generated_Source\PSoC6\pdl\drivers/peripheral/scb/cy_scb_spi.h ****     */
 421:Generated_Source\PSoC6\pdl\drivers/peripheral/scb/cy_scb_spi.h ****     CY_SCB_SPI_TRANSFER_BUSY = (CY_SCB_ID | CY_PDL_STATUS_ERROR | CY_SCB_SPI_ID | 2U)
 422:Generated_Source\PSoC6\pdl\drivers/peripheral/scb/cy_scb_spi.h **** } cy_en_scb_spi_status_t;
 423:Generated_Source\PSoC6\pdl\drivers/peripheral/scb/cy_scb_spi.h **** 
 424:Generated_Source\PSoC6\pdl\drivers/peripheral/scb/cy_scb_spi.h **** /** SPI Modes */
 425:Generated_Source\PSoC6\pdl\drivers/peripheral/scb/cy_scb_spi.h **** typedef enum
 426:Generated_Source\PSoC6\pdl\drivers/peripheral/scb/cy_scb_spi.h **** {
 427:Generated_Source\PSoC6\pdl\drivers/peripheral/scb/cy_scb_spi.h ****     CY_SCB_SPI_SLAVE,   /**< Configures SCB for SPI Slave operation  */
 428:Generated_Source\PSoC6\pdl\drivers/peripheral/scb/cy_scb_spi.h ****     CY_SCB_SPI_MASTER,  /**< Configures SCB for SPI Master operation */
 429:Generated_Source\PSoC6\pdl\drivers/peripheral/scb/cy_scb_spi.h **** } cy_en_scb_spi_mode_t;
 430:Generated_Source\PSoC6\pdl\drivers/peripheral/scb/cy_scb_spi.h **** 
 431:Generated_Source\PSoC6\pdl\drivers/peripheral/scb/cy_scb_spi.h **** /** SPI Submodes */
 432:Generated_Source\PSoC6\pdl\drivers/peripheral/scb/cy_scb_spi.h **** typedef enum
 433:Generated_Source\PSoC6\pdl\drivers/peripheral/scb/cy_scb_spi.h **** {
 434:Generated_Source\PSoC6\pdl\drivers/peripheral/scb/cy_scb_spi.h ****     /** Configures an SPI for a standard Motorola SPI operation */
 435:Generated_Source\PSoC6\pdl\drivers/peripheral/scb/cy_scb_spi.h ****     CY_SCB_SPI_MOTOROLA     = 0x0U,
ARM GAS  C:\Users\Smaug\AppData\Local\Temp\ccJKcizn.s 			page 12


 436:Generated_Source\PSoC6\pdl\drivers/peripheral/scb/cy_scb_spi.h **** 
 437:Generated_Source\PSoC6\pdl\drivers/peripheral/scb/cy_scb_spi.h ****     /**
 438:Generated_Source\PSoC6\pdl\drivers/peripheral/scb/cy_scb_spi.h ****     * Configures the SPI for the TI SPI operation. In the TI mode, the slave
 439:Generated_Source\PSoC6\pdl\drivers/peripheral/scb/cy_scb_spi.h ****     * select is a pulse. In this case, the pulse coincides with the first bit.
 440:Generated_Source\PSoC6\pdl\drivers/peripheral/scb/cy_scb_spi.h ****     */
 441:Generated_Source\PSoC6\pdl\drivers/peripheral/scb/cy_scb_spi.h ****     CY_SCB_SPI_TI_COINCIDES = 0x01U,
 442:Generated_Source\PSoC6\pdl\drivers/peripheral/scb/cy_scb_spi.h **** 
 443:Generated_Source\PSoC6\pdl\drivers/peripheral/scb/cy_scb_spi.h ****     /**
 444:Generated_Source\PSoC6\pdl\drivers/peripheral/scb/cy_scb_spi.h ****     * Configures an SPI for the National SPI operation. This is a half-duplex
 445:Generated_Source\PSoC6\pdl\drivers/peripheral/scb/cy_scb_spi.h ****     * mode of operation.
 446:Generated_Source\PSoC6\pdl\drivers/peripheral/scb/cy_scb_spi.h ****     */
 447:Generated_Source\PSoC6\pdl\drivers/peripheral/scb/cy_scb_spi.h ****     CY_SCB_SPI_NATIONAL     = 0x02U,
 448:Generated_Source\PSoC6\pdl\drivers/peripheral/scb/cy_scb_spi.h **** 
 449:Generated_Source\PSoC6\pdl\drivers/peripheral/scb/cy_scb_spi.h ****     /**
 450:Generated_Source\PSoC6\pdl\drivers/peripheral/scb/cy_scb_spi.h ****     * Configures an SPI for the TI SPI operation, in the TI mode. The slave
 451:Generated_Source\PSoC6\pdl\drivers/peripheral/scb/cy_scb_spi.h ****     * select is a pulse. In this case the pulse precedes the first bit.
 452:Generated_Source\PSoC6\pdl\drivers/peripheral/scb/cy_scb_spi.h ****     */
 453:Generated_Source\PSoC6\pdl\drivers/peripheral/scb/cy_scb_spi.h ****     CY_SCB_SPI_TI_PRECEDES  = 0x05U,
 454:Generated_Source\PSoC6\pdl\drivers/peripheral/scb/cy_scb_spi.h **** } cy_en_scb_spi_sub_mode_t;
 455:Generated_Source\PSoC6\pdl\drivers/peripheral/scb/cy_scb_spi.h **** 
 456:Generated_Source\PSoC6\pdl\drivers/peripheral/scb/cy_scb_spi.h **** /** SPI SCLK Modes */
 457:Generated_Source\PSoC6\pdl\drivers/peripheral/scb/cy_scb_spi.h **** typedef enum
 458:Generated_Source\PSoC6\pdl\drivers/peripheral/scb/cy_scb_spi.h **** {
 459:Generated_Source\PSoC6\pdl\drivers/peripheral/scb/cy_scb_spi.h ****     CY_SCB_SPI_CPHA0_CPOL0 = 0U,   /**< Clock is active low, data is changed on first edge   */
 460:Generated_Source\PSoC6\pdl\drivers/peripheral/scb/cy_scb_spi.h ****     CY_SCB_SPI_CPHA0_CPOL1 = 1U,   /**< Clock is active high, data is changed on first edge  */
 461:Generated_Source\PSoC6\pdl\drivers/peripheral/scb/cy_scb_spi.h ****     CY_SCB_SPI_CPHA1_CPOL0 = 2U,   /**< Clock is active low, data is changed on second edge  */
 462:Generated_Source\PSoC6\pdl\drivers/peripheral/scb/cy_scb_spi.h ****     CY_SCB_SPI_CPHA1_CPOL1 = 3U,   /**< Clock is active high, data is changed on second edge */
 463:Generated_Source\PSoC6\pdl\drivers/peripheral/scb/cy_scb_spi.h **** } cy_en_scb_spi_sclk_mode_t;
 464:Generated_Source\PSoC6\pdl\drivers/peripheral/scb/cy_scb_spi.h **** 
 465:Generated_Source\PSoC6\pdl\drivers/peripheral/scb/cy_scb_spi.h **** /** SPI Slave Selects */
 466:Generated_Source\PSoC6\pdl\drivers/peripheral/scb/cy_scb_spi.h **** typedef enum
 467:Generated_Source\PSoC6\pdl\drivers/peripheral/scb/cy_scb_spi.h **** {
 468:Generated_Source\PSoC6\pdl\drivers/peripheral/scb/cy_scb_spi.h ****     CY_SCB_SPI_SLAVE_SELECT0 = 0U,   /**< Master will use Slave Select 0 */
 469:Generated_Source\PSoC6\pdl\drivers/peripheral/scb/cy_scb_spi.h ****     CY_SCB_SPI_SLAVE_SELECT1 = 1U,   /**< Master will use Slave Select 1 */
 470:Generated_Source\PSoC6\pdl\drivers/peripheral/scb/cy_scb_spi.h ****     CY_SCB_SPI_SLAVE_SELECT2 = 2U,   /**< Master will use Slave Select 2 */
 471:Generated_Source\PSoC6\pdl\drivers/peripheral/scb/cy_scb_spi.h ****     CY_SCB_SPI_SLAVE_SELECT3 = 3U,   /**< Master will use Slave Select 3 */
 472:Generated_Source\PSoC6\pdl\drivers/peripheral/scb/cy_scb_spi.h **** } cy_en_scb_spi_slave_select_t;
 473:Generated_Source\PSoC6\pdl\drivers/peripheral/scb/cy_scb_spi.h **** 
 474:Generated_Source\PSoC6\pdl\drivers/peripheral/scb/cy_scb_spi.h **** /** SPI Polarity */
 475:Generated_Source\PSoC6\pdl\drivers/peripheral/scb/cy_scb_spi.h **** typedef enum
 476:Generated_Source\PSoC6\pdl\drivers/peripheral/scb/cy_scb_spi.h **** {
 477:Generated_Source\PSoC6\pdl\drivers/peripheral/scb/cy_scb_spi.h ****     CY_SCB_SPI_ACTIVE_LOW  = 0U,    /**< Signal in question is active low */
 478:Generated_Source\PSoC6\pdl\drivers/peripheral/scb/cy_scb_spi.h ****     CY_SCB_SPI_ACTIVE_HIGH = 1U,    /**< Signal in question is active high */
 479:Generated_Source\PSoC6\pdl\drivers/peripheral/scb/cy_scb_spi.h **** } cy_en_scb_spi_polarity_t;
 480:Generated_Source\PSoC6\pdl\drivers/peripheral/scb/cy_scb_spi.h **** 
 481:Generated_Source\PSoC6\pdl\drivers/peripheral/scb/cy_scb_spi.h **** /** \} group_scb_spi_enums */
 482:Generated_Source\PSoC6\pdl\drivers/peripheral/scb/cy_scb_spi.h **** 
 483:Generated_Source\PSoC6\pdl\drivers/peripheral/scb/cy_scb_spi.h **** 
 484:Generated_Source\PSoC6\pdl\drivers/peripheral/scb/cy_scb_spi.h **** /*******************************************************************************
 485:Generated_Source\PSoC6\pdl\drivers/peripheral/scb/cy_scb_spi.h **** *                            Type Definitions
 486:Generated_Source\PSoC6\pdl\drivers/peripheral/scb/cy_scb_spi.h **** *******************************************************************************/
 487:Generated_Source\PSoC6\pdl\drivers/peripheral/scb/cy_scb_spi.h **** 
 488:Generated_Source\PSoC6\pdl\drivers/peripheral/scb/cy_scb_spi.h **** /**
 489:Generated_Source\PSoC6\pdl\drivers/peripheral/scb/cy_scb_spi.h **** * \addtogroup group_scb_spi_data_structures
 490:Generated_Source\PSoC6\pdl\drivers/peripheral/scb/cy_scb_spi.h **** * \{
 491:Generated_Source\PSoC6\pdl\drivers/peripheral/scb/cy_scb_spi.h **** */
 492:Generated_Source\PSoC6\pdl\drivers/peripheral/scb/cy_scb_spi.h **** 
ARM GAS  C:\Users\Smaug\AppData\Local\Temp\ccJKcizn.s 			page 13


 493:Generated_Source\PSoC6\pdl\drivers/peripheral/scb/cy_scb_spi.h **** /**
 494:Generated_Source\PSoC6\pdl\drivers/peripheral/scb/cy_scb_spi.h **** * Provides the typedef for the callback function called in the
 495:Generated_Source\PSoC6\pdl\drivers/peripheral/scb/cy_scb_spi.h **** * \ref Cy_SCB_SPI_Interrupt to notify the user about occurrences of
 496:Generated_Source\PSoC6\pdl\drivers/peripheral/scb/cy_scb_spi.h **** * \ref group_scb_spi_macros_callback_events.
 497:Generated_Source\PSoC6\pdl\drivers/peripheral/scb/cy_scb_spi.h **** */
 498:Generated_Source\PSoC6\pdl\drivers/peripheral/scb/cy_scb_spi.h **** typedef void (* cy_cb_scb_spi_handle_events_t)(uint32_t event);
 499:Generated_Source\PSoC6\pdl\drivers/peripheral/scb/cy_scb_spi.h **** 
 500:Generated_Source\PSoC6\pdl\drivers/peripheral/scb/cy_scb_spi.h **** 
 501:Generated_Source\PSoC6\pdl\drivers/peripheral/scb/cy_scb_spi.h **** /** SPI configuration structure */
 502:Generated_Source\PSoC6\pdl\drivers/peripheral/scb/cy_scb_spi.h **** typedef struct cy_stc_scb_spi_config
 503:Generated_Source\PSoC6\pdl\drivers/peripheral/scb/cy_scb_spi.h **** {
 504:Generated_Source\PSoC6\pdl\drivers/peripheral/scb/cy_scb_spi.h ****     /** Specifies the mode of operation */
 505:Generated_Source\PSoC6\pdl\drivers/peripheral/scb/cy_scb_spi.h ****     cy_en_scb_spi_mode_t    spiMode;
 506:Generated_Source\PSoC6\pdl\drivers/peripheral/scb/cy_scb_spi.h **** 
 507:Generated_Source\PSoC6\pdl\drivers/peripheral/scb/cy_scb_spi.h ****     /** Specifies the submode of SPI operation */
 508:Generated_Source\PSoC6\pdl\drivers/peripheral/scb/cy_scb_spi.h ****     cy_en_scb_spi_sub_mode_t    subMode;
 509:Generated_Source\PSoC6\pdl\drivers/peripheral/scb/cy_scb_spi.h **** 
 510:Generated_Source\PSoC6\pdl\drivers/peripheral/scb/cy_scb_spi.h ****     /**
 511:Generated_Source\PSoC6\pdl\drivers/peripheral/scb/cy_scb_spi.h ****     * Configures the SCLK operation for Motorola sub-mode, ignored for all
 512:Generated_Source\PSoC6\pdl\drivers/peripheral/scb/cy_scb_spi.h ****     * other submodes
 513:Generated_Source\PSoC6\pdl\drivers/peripheral/scb/cy_scb_spi.h ****     */
 514:Generated_Source\PSoC6\pdl\drivers/peripheral/scb/cy_scb_spi.h ****     cy_en_scb_spi_sclk_mode_t    sclkMode;
 515:Generated_Source\PSoC6\pdl\drivers/peripheral/scb/cy_scb_spi.h **** 
 516:Generated_Source\PSoC6\pdl\drivers/peripheral/scb/cy_scb_spi.h ****     /**
 517:Generated_Source\PSoC6\pdl\drivers/peripheral/scb/cy_scb_spi.h ****     * Oversample factor for SPI.
 518:Generated_Source\PSoC6\pdl\drivers/peripheral/scb/cy_scb_spi.h ****     * * For the master mode, the data rate is the SCB clock / oversample
 519:Generated_Source\PSoC6\pdl\drivers/peripheral/scb/cy_scb_spi.h ****     *   (the valid range is 4 to 16, when MISO is used; if MISO is not used
 520:Generated_Source\PSoC6\pdl\drivers/peripheral/scb/cy_scb_spi.h ****     *   then the valid range is 2 to 16).
 521:Generated_Source\PSoC6\pdl\drivers/peripheral/scb/cy_scb_spi.h ****     * * For the slave mode, the oversample value is ignored. The data rate is
 522:Generated_Source\PSoC6\pdl\drivers/peripheral/scb/cy_scb_spi.h ****     *   determined by the SCB clock frequency.
 523:Generated_Source\PSoC6\pdl\drivers/peripheral/scb/cy_scb_spi.h ****     */
 524:Generated_Source\PSoC6\pdl\drivers/peripheral/scb/cy_scb_spi.h ****     uint32_t    oversample;
 525:Generated_Source\PSoC6\pdl\drivers/peripheral/scb/cy_scb_spi.h **** 
 526:Generated_Source\PSoC6\pdl\drivers/peripheral/scb/cy_scb_spi.h ****     /**
 527:Generated_Source\PSoC6\pdl\drivers/peripheral/scb/cy_scb_spi.h ****     * The width of RX data (valid range 4-16). It must be the same as
 528:Generated_Source\PSoC6\pdl\drivers/peripheral/scb/cy_scb_spi.h ****     * \ref txDataWidth except in National sub-mode.
 529:Generated_Source\PSoC6\pdl\drivers/peripheral/scb/cy_scb_spi.h ****     */
 530:Generated_Source\PSoC6\pdl\drivers/peripheral/scb/cy_scb_spi.h ****     uint32_t    rxDataWidth;
 531:Generated_Source\PSoC6\pdl\drivers/peripheral/scb/cy_scb_spi.h **** 
 532:Generated_Source\PSoC6\pdl\drivers/peripheral/scb/cy_scb_spi.h ****     /**
 533:Generated_Source\PSoC6\pdl\drivers/peripheral/scb/cy_scb_spi.h ****     * The width of TX data (valid range 4-16). It must be the same as
 534:Generated_Source\PSoC6\pdl\drivers/peripheral/scb/cy_scb_spi.h ****     * \ref rxDataWidth except in National sub-mode.
 535:Generated_Source\PSoC6\pdl\drivers/peripheral/scb/cy_scb_spi.h ****     */
 536:Generated_Source\PSoC6\pdl\drivers/peripheral/scb/cy_scb_spi.h ****     uint32_t    txDataWidth;
 537:Generated_Source\PSoC6\pdl\drivers/peripheral/scb/cy_scb_spi.h **** 
 538:Generated_Source\PSoC6\pdl\drivers/peripheral/scb/cy_scb_spi.h ****     /**
 539:Generated_Source\PSoC6\pdl\drivers/peripheral/scb/cy_scb_spi.h ****     * Enables the hardware to shift out the data element MSB first, otherwise,
 540:Generated_Source\PSoC6\pdl\drivers/peripheral/scb/cy_scb_spi.h ****     * LSB first
 541:Generated_Source\PSoC6\pdl\drivers/peripheral/scb/cy_scb_spi.h ****     */
 542:Generated_Source\PSoC6\pdl\drivers/peripheral/scb/cy_scb_spi.h ****     bool        enableMsbFirst;
 543:Generated_Source\PSoC6\pdl\drivers/peripheral/scb/cy_scb_spi.h **** 
 544:Generated_Source\PSoC6\pdl\drivers/peripheral/scb/cy_scb_spi.h ****     /**
 545:Generated_Source\PSoC6\pdl\drivers/peripheral/scb/cy_scb_spi.h ****     * Enables the master to generate a continuous SCLK regardless of whether
 546:Generated_Source\PSoC6\pdl\drivers/peripheral/scb/cy_scb_spi.h ****     * there is data to send
 547:Generated_Source\PSoC6\pdl\drivers/peripheral/scb/cy_scb_spi.h ****     */
 548:Generated_Source\PSoC6\pdl\drivers/peripheral/scb/cy_scb_spi.h ****     bool        enableFreeRunSclk;
 549:Generated_Source\PSoC6\pdl\drivers/peripheral/scb/cy_scb_spi.h **** 
ARM GAS  C:\Users\Smaug\AppData\Local\Temp\ccJKcizn.s 			page 14


 550:Generated_Source\PSoC6\pdl\drivers/peripheral/scb/cy_scb_spi.h ****     /**
 551:Generated_Source\PSoC6\pdl\drivers/peripheral/scb/cy_scb_spi.h ****     * Enables a digital 3-tap median filter to be applied to the input
 552:Generated_Source\PSoC6\pdl\drivers/peripheral/scb/cy_scb_spi.h ****     * of the RX FIFO to filter glitches on the line.
 553:Generated_Source\PSoC6\pdl\drivers/peripheral/scb/cy_scb_spi.h ****     */
 554:Generated_Source\PSoC6\pdl\drivers/peripheral/scb/cy_scb_spi.h ****     bool        enableInputFilter;
 555:Generated_Source\PSoC6\pdl\drivers/peripheral/scb/cy_scb_spi.h **** 
 556:Generated_Source\PSoC6\pdl\drivers/peripheral/scb/cy_scb_spi.h ****     /**
 557:Generated_Source\PSoC6\pdl\drivers/peripheral/scb/cy_scb_spi.h ****     * Enables the master to sample MISO line one half clock later to allow
 558:Generated_Source\PSoC6\pdl\drivers/peripheral/scb/cy_scb_spi.h ****     * better timings.
 559:Generated_Source\PSoC6\pdl\drivers/peripheral/scb/cy_scb_spi.h ****     */
 560:Generated_Source\PSoC6\pdl\drivers/peripheral/scb/cy_scb_spi.h ****     bool        enableMisoLateSample;
 561:Generated_Source\PSoC6\pdl\drivers/peripheral/scb/cy_scb_spi.h **** 
 562:Generated_Source\PSoC6\pdl\drivers/peripheral/scb/cy_scb_spi.h ****     /**
 563:Generated_Source\PSoC6\pdl\drivers/peripheral/scb/cy_scb_spi.h ****     * Enables the master to transmit each data element separated by a
 564:Generated_Source\PSoC6\pdl\drivers/peripheral/scb/cy_scb_spi.h ****     * de-assertion of the slave select line (only applicable for the master
 565:Generated_Source\PSoC6\pdl\drivers/peripheral/scb/cy_scb_spi.h ****     * mode)
 566:Generated_Source\PSoC6\pdl\drivers/peripheral/scb/cy_scb_spi.h ****     */
 567:Generated_Source\PSoC6\pdl\drivers/peripheral/scb/cy_scb_spi.h ****     bool        enableTransferSeperation;
 568:Generated_Source\PSoC6\pdl\drivers/peripheral/scb/cy_scb_spi.h **** 
 569:Generated_Source\PSoC6\pdl\drivers/peripheral/scb/cy_scb_spi.h ****     /**
 570:Generated_Source\PSoC6\pdl\drivers/peripheral/scb/cy_scb_spi.h ****     * Sets active polarity of each SS line.
 571:Generated_Source\PSoC6\pdl\drivers/peripheral/scb/cy_scb_spi.h ****     * This is a bit mask: bit 0 corresponds to SS0 and so on to SS3.
 572:Generated_Source\PSoC6\pdl\drivers/peripheral/scb/cy_scb_spi.h ****     * 1 means active high, a 0 means active low.
 573:Generated_Source\PSoC6\pdl\drivers/peripheral/scb/cy_scb_spi.h ****     */
 574:Generated_Source\PSoC6\pdl\drivers/peripheral/scb/cy_scb_spi.h ****     uint32_t    ssPolarity;
 575:Generated_Source\PSoC6\pdl\drivers/peripheral/scb/cy_scb_spi.h **** 
 576:Generated_Source\PSoC6\pdl\drivers/peripheral/scb/cy_scb_spi.h ****     /**
 577:Generated_Source\PSoC6\pdl\drivers/peripheral/scb/cy_scb_spi.h ****     * When set, the slave will wake the device when the slave select line
 578:Generated_Source\PSoC6\pdl\drivers/peripheral/scb/cy_scb_spi.h ****     * becomes active.
 579:Generated_Source\PSoC6\pdl\drivers/peripheral/scb/cy_scb_spi.h ****     * Note that not all SCBs support this mode. Consult the device
 580:Generated_Source\PSoC6\pdl\drivers/peripheral/scb/cy_scb_spi.h ****     * datasheet to determine which SCBs support wake from Deep Sleep.
 581:Generated_Source\PSoC6\pdl\drivers/peripheral/scb/cy_scb_spi.h ****     */
 582:Generated_Source\PSoC6\pdl\drivers/peripheral/scb/cy_scb_spi.h ****     bool        enableWakeFromSleep;
 583:Generated_Source\PSoC6\pdl\drivers/peripheral/scb/cy_scb_spi.h **** 
 584:Generated_Source\PSoC6\pdl\drivers/peripheral/scb/cy_scb_spi.h ****     /**
 585:Generated_Source\PSoC6\pdl\drivers/peripheral/scb/cy_scb_spi.h ****     * When there are more entries in the RX FIFO then this level
 586:Generated_Source\PSoC6\pdl\drivers/peripheral/scb/cy_scb_spi.h ****     * the RX trigger output goes high. This output can be connected
 587:Generated_Source\PSoC6\pdl\drivers/peripheral/scb/cy_scb_spi.h ****     * to a DMA channel through a trigger mux.
 588:Generated_Source\PSoC6\pdl\drivers/peripheral/scb/cy_scb_spi.h ****     * Also, it controls the \ref CY_SCB_SPI_RX_TRIGGER interrupt source.
 589:Generated_Source\PSoC6\pdl\drivers/peripheral/scb/cy_scb_spi.h ****     */
 590:Generated_Source\PSoC6\pdl\drivers/peripheral/scb/cy_scb_spi.h ****     uint32_t    rxFifoTriggerLevel;
 591:Generated_Source\PSoC6\pdl\drivers/peripheral/scb/cy_scb_spi.h **** 
 592:Generated_Source\PSoC6\pdl\drivers/peripheral/scb/cy_scb_spi.h ****     /**
 593:Generated_Source\PSoC6\pdl\drivers/peripheral/scb/cy_scb_spi.h ****     * Bits set in this mask will allow events to cause an interrupt
 594:Generated_Source\PSoC6\pdl\drivers/peripheral/scb/cy_scb_spi.h ****     * (See \ref group_scb_spi_macros_rx_fifo_status for the set of constant)
 595:Generated_Source\PSoC6\pdl\drivers/peripheral/scb/cy_scb_spi.h ****     */
 596:Generated_Source\PSoC6\pdl\drivers/peripheral/scb/cy_scb_spi.h ****     uint32_t    rxFifoIntEnableMask;
 597:Generated_Source\PSoC6\pdl\drivers/peripheral/scb/cy_scb_spi.h **** 
 598:Generated_Source\PSoC6\pdl\drivers/peripheral/scb/cy_scb_spi.h ****     /**
 599:Generated_Source\PSoC6\pdl\drivers/peripheral/scb/cy_scb_spi.h ****     * When there are fewer entries in the TX FIFO then this level
 600:Generated_Source\PSoC6\pdl\drivers/peripheral/scb/cy_scb_spi.h ****     * the TX trigger output goes high. This output can be connected
 601:Generated_Source\PSoC6\pdl\drivers/peripheral/scb/cy_scb_spi.h ****     * to a DMA channel through a trigger mux.
 602:Generated_Source\PSoC6\pdl\drivers/peripheral/scb/cy_scb_spi.h ****     * Also, it controls the \ref CY_SCB_SPI_TX_TRIGGER interrupt source.
 603:Generated_Source\PSoC6\pdl\drivers/peripheral/scb/cy_scb_spi.h ****     */
 604:Generated_Source\PSoC6\pdl\drivers/peripheral/scb/cy_scb_spi.h ****     uint32_t    txFifoTriggerLevel;
 605:Generated_Source\PSoC6\pdl\drivers/peripheral/scb/cy_scb_spi.h **** 
 606:Generated_Source\PSoC6\pdl\drivers/peripheral/scb/cy_scb_spi.h ****     /**
ARM GAS  C:\Users\Smaug\AppData\Local\Temp\ccJKcizn.s 			page 15


 607:Generated_Source\PSoC6\pdl\drivers/peripheral/scb/cy_scb_spi.h ****     * Bits set in this mask allow events to cause an interrupt
 608:Generated_Source\PSoC6\pdl\drivers/peripheral/scb/cy_scb_spi.h ****     * (See \ref group_scb_spi_macros_tx_fifo_status for the set of constants)
 609:Generated_Source\PSoC6\pdl\drivers/peripheral/scb/cy_scb_spi.h ****     */
 610:Generated_Source\PSoC6\pdl\drivers/peripheral/scb/cy_scb_spi.h ****     uint32_t    txFifoIntEnableMask;
 611:Generated_Source\PSoC6\pdl\drivers/peripheral/scb/cy_scb_spi.h **** 
 612:Generated_Source\PSoC6\pdl\drivers/peripheral/scb/cy_scb_spi.h ****     /**
 613:Generated_Source\PSoC6\pdl\drivers/peripheral/scb/cy_scb_spi.h ****     * Bits set in this mask allow events to cause an interrupt
 614:Generated_Source\PSoC6\pdl\drivers/peripheral/scb/cy_scb_spi.h ****     * (See \ref group_scb_spi_macros_master_slave_status for the set of
 615:Generated_Source\PSoC6\pdl\drivers/peripheral/scb/cy_scb_spi.h ****     * constants)
 616:Generated_Source\PSoC6\pdl\drivers/peripheral/scb/cy_scb_spi.h ****     */
 617:Generated_Source\PSoC6\pdl\drivers/peripheral/scb/cy_scb_spi.h ****     uint32_t    masterSlaveIntEnableMask;
 618:Generated_Source\PSoC6\pdl\drivers/peripheral/scb/cy_scb_spi.h **** 
 619:Generated_Source\PSoC6\pdl\drivers/peripheral/scb/cy_scb_spi.h **** }cy_stc_scb_spi_config_t;
 620:Generated_Source\PSoC6\pdl\drivers/peripheral/scb/cy_scb_spi.h **** 
 621:Generated_Source\PSoC6\pdl\drivers/peripheral/scb/cy_scb_spi.h **** /** SPI context structure.
 622:Generated_Source\PSoC6\pdl\drivers/peripheral/scb/cy_scb_spi.h **** * All fields for the context structure are internal. Firmware never reads or
 623:Generated_Source\PSoC6\pdl\drivers/peripheral/scb/cy_scb_spi.h **** * writes these values. Firmware allocates the structure and provides the
 624:Generated_Source\PSoC6\pdl\drivers/peripheral/scb/cy_scb_spi.h **** * address of the structure to the driver in function calls. Firmware must
 625:Generated_Source\PSoC6\pdl\drivers/peripheral/scb/cy_scb_spi.h **** * ensure that the defined instance of this structure remains in scope
 626:Generated_Source\PSoC6\pdl\drivers/peripheral/scb/cy_scb_spi.h **** * while the drive is in use.
 627:Generated_Source\PSoC6\pdl\drivers/peripheral/scb/cy_scb_spi.h **** */
 628:Generated_Source\PSoC6\pdl\drivers/peripheral/scb/cy_scb_spi.h **** typedef struct cy_stc_scb_spi_context
 629:Generated_Source\PSoC6\pdl\drivers/peripheral/scb/cy_scb_spi.h **** {
 630:Generated_Source\PSoC6\pdl\drivers/peripheral/scb/cy_scb_spi.h ****     /** \cond INTERNAL */
 631:Generated_Source\PSoC6\pdl\drivers/peripheral/scb/cy_scb_spi.h ****     uint32_t volatile status;       /**< The receive status */
 632:Generated_Source\PSoC6\pdl\drivers/peripheral/scb/cy_scb_spi.h **** 
 633:Generated_Source\PSoC6\pdl\drivers/peripheral/scb/cy_scb_spi.h ****     void    *rxBuf;                 /**< The pointer to the receive buffer */
 634:Generated_Source\PSoC6\pdl\drivers/peripheral/scb/cy_scb_spi.h ****     uint32_t rxBufSize;             /**< The receive buffer size */
 635:Generated_Source\PSoC6\pdl\drivers/peripheral/scb/cy_scb_spi.h ****     uint32_t volatile rxBufIdx;     /**< The current location in the receive buffer */
 636:Generated_Source\PSoC6\pdl\drivers/peripheral/scb/cy_scb_spi.h **** 
 637:Generated_Source\PSoC6\pdl\drivers/peripheral/scb/cy_scb_spi.h ****     void    *txBuf;                 /**< The pointer to the transmit buffer */
 638:Generated_Source\PSoC6\pdl\drivers/peripheral/scb/cy_scb_spi.h ****     uint32_t txBufSize;             /**< The transmit buffer size */
 639:Generated_Source\PSoC6\pdl\drivers/peripheral/scb/cy_scb_spi.h ****     uint32_t volatile txBufIdx;     /**< The current location in the transmit buffer */
 640:Generated_Source\PSoC6\pdl\drivers/peripheral/scb/cy_scb_spi.h **** 
 641:Generated_Source\PSoC6\pdl\drivers/peripheral/scb/cy_scb_spi.h ****     /**
 642:Generated_Source\PSoC6\pdl\drivers/peripheral/scb/cy_scb_spi.h ****     * The pointer to an event callback that is called when any of
 643:Generated_Source\PSoC6\pdl\drivers/peripheral/scb/cy_scb_spi.h ****     * \ref group_scb_spi_macros_callback_events occurs
 644:Generated_Source\PSoC6\pdl\drivers/peripheral/scb/cy_scb_spi.h ****     */
 645:Generated_Source\PSoC6\pdl\drivers/peripheral/scb/cy_scb_spi.h ****     cy_cb_scb_spi_handle_events_t cbEvents;
 646:Generated_Source\PSoC6\pdl\drivers/peripheral/scb/cy_scb_spi.h **** 
 647:Generated_Source\PSoC6\pdl\drivers/peripheral/scb/cy_scb_spi.h **** #if !defined(NDEBUG)
 648:Generated_Source\PSoC6\pdl\drivers/peripheral/scb/cy_scb_spi.h ****     uint32_t initKey;               /**< Tracks the context initialization */
 649:Generated_Source\PSoC6\pdl\drivers/peripheral/scb/cy_scb_spi.h **** #endif /* !(NDEBUG) */
 650:Generated_Source\PSoC6\pdl\drivers/peripheral/scb/cy_scb_spi.h ****     /** \endcond */
 651:Generated_Source\PSoC6\pdl\drivers/peripheral/scb/cy_scb_spi.h **** } cy_stc_scb_spi_context_t;
 652:Generated_Source\PSoC6\pdl\drivers/peripheral/scb/cy_scb_spi.h **** 
 653:Generated_Source\PSoC6\pdl\drivers/peripheral/scb/cy_scb_spi.h **** /** \} group_scb_spi_data_structures */
 654:Generated_Source\PSoC6\pdl\drivers/peripheral/scb/cy_scb_spi.h **** 
 655:Generated_Source\PSoC6\pdl\drivers/peripheral/scb/cy_scb_spi.h **** 
 656:Generated_Source\PSoC6\pdl\drivers/peripheral/scb/cy_scb_spi.h **** /*******************************************************************************
 657:Generated_Source\PSoC6\pdl\drivers/peripheral/scb/cy_scb_spi.h **** *                          Function Prototypes
 658:Generated_Source\PSoC6\pdl\drivers/peripheral/scb/cy_scb_spi.h **** *******************************************************************************/
 659:Generated_Source\PSoC6\pdl\drivers/peripheral/scb/cy_scb_spi.h **** 
 660:Generated_Source\PSoC6\pdl\drivers/peripheral/scb/cy_scb_spi.h **** /**
 661:Generated_Source\PSoC6\pdl\drivers/peripheral/scb/cy_scb_spi.h **** * \addtogroup group_scb_spi_general_functions
 662:Generated_Source\PSoC6\pdl\drivers/peripheral/scb/cy_scb_spi.h **** * \{
 663:Generated_Source\PSoC6\pdl\drivers/peripheral/scb/cy_scb_spi.h **** */
ARM GAS  C:\Users\Smaug\AppData\Local\Temp\ccJKcizn.s 			page 16


 664:Generated_Source\PSoC6\pdl\drivers/peripheral/scb/cy_scb_spi.h **** cy_en_scb_spi_status_t Cy_SCB_SPI_Init(CySCB_Type *base, cy_stc_scb_spi_config_t const *config,
 665:Generated_Source\PSoC6\pdl\drivers/peripheral/scb/cy_scb_spi.h ****                                        cy_stc_scb_spi_context_t *context);
 666:Generated_Source\PSoC6\pdl\drivers/peripheral/scb/cy_scb_spi.h **** void Cy_SCB_SPI_DeInit (CySCB_Type *base);
 667:Generated_Source\PSoC6\pdl\drivers/peripheral/scb/cy_scb_spi.h **** __STATIC_INLINE void Cy_SCB_SPI_Enable(CySCB_Type *base);
 668:Generated_Source\PSoC6\pdl\drivers/peripheral/scb/cy_scb_spi.h **** void Cy_SCB_SPI_Disable(CySCB_Type *base, cy_stc_scb_spi_context_t *context);
 669:Generated_Source\PSoC6\pdl\drivers/peripheral/scb/cy_scb_spi.h **** 
 670:Generated_Source\PSoC6\pdl\drivers/peripheral/scb/cy_scb_spi.h **** __STATIC_INLINE void Cy_SCB_SPI_SetActiveSlaveSelect(CySCB_Type *base,
 671:Generated_Source\PSoC6\pdl\drivers/peripheral/scb/cy_scb_spi.h ****                                     cy_en_scb_spi_slave_select_t slaveSelect);
 672:Generated_Source\PSoC6\pdl\drivers/peripheral/scb/cy_scb_spi.h **** __STATIC_INLINE void Cy_SCB_SPI_SetActiveSlaveSelectPolarity(CySCB_Type *base,
 673:Generated_Source\PSoC6\pdl\drivers/peripheral/scb/cy_scb_spi.h ****                                     cy_en_scb_spi_slave_select_t slaveSelect,
 674:Generated_Source\PSoC6\pdl\drivers/peripheral/scb/cy_scb_spi.h ****                                     cy_en_scb_spi_polarity_t polarity);
 675:Generated_Source\PSoC6\pdl\drivers/peripheral/scb/cy_scb_spi.h **** 
 676:Generated_Source\PSoC6\pdl\drivers/peripheral/scb/cy_scb_spi.h **** __STATIC_INLINE bool Cy_SCB_SPI_IsBusBusy(CySCB_Type const *base);
 677:Generated_Source\PSoC6\pdl\drivers/peripheral/scb/cy_scb_spi.h **** /** \} group_scb_spi_general_functions */
 678:Generated_Source\PSoC6\pdl\drivers/peripheral/scb/cy_scb_spi.h **** 
 679:Generated_Source\PSoC6\pdl\drivers/peripheral/scb/cy_scb_spi.h **** /**
 680:Generated_Source\PSoC6\pdl\drivers/peripheral/scb/cy_scb_spi.h **** * \addtogroup group_scb_spi_high_level_functions
 681:Generated_Source\PSoC6\pdl\drivers/peripheral/scb/cy_scb_spi.h **** * \{
 682:Generated_Source\PSoC6\pdl\drivers/peripheral/scb/cy_scb_spi.h **** */
 683:Generated_Source\PSoC6\pdl\drivers/peripheral/scb/cy_scb_spi.h **** cy_en_scb_spi_status_t Cy_SCB_SPI_Transfer(CySCB_Type *base, void *txBuffer, void *rxBuffer, uint32
 684:Generated_Source\PSoC6\pdl\drivers/peripheral/scb/cy_scb_spi.h ****                                            cy_stc_scb_spi_context_t *context);
 685:Generated_Source\PSoC6\pdl\drivers/peripheral/scb/cy_scb_spi.h **** void     Cy_SCB_SPI_AbortTransfer    (CySCB_Type *base, cy_stc_scb_spi_context_t *context);
 686:Generated_Source\PSoC6\pdl\drivers/peripheral/scb/cy_scb_spi.h **** uint32_t Cy_SCB_SPI_GetTransferStatus(CySCB_Type const *base, cy_stc_scb_spi_context_t const *conte
 687:Generated_Source\PSoC6\pdl\drivers/peripheral/scb/cy_scb_spi.h **** uint32_t Cy_SCB_SPI_GetNumTransfered (CySCB_Type const *base, cy_stc_scb_spi_context_t const *conte
 688:Generated_Source\PSoC6\pdl\drivers/peripheral/scb/cy_scb_spi.h **** /** \} group_scb_spi_high_level_functions */
 689:Generated_Source\PSoC6\pdl\drivers/peripheral/scb/cy_scb_spi.h **** 
 690:Generated_Source\PSoC6\pdl\drivers/peripheral/scb/cy_scb_spi.h **** /**
 691:Generated_Source\PSoC6\pdl\drivers/peripheral/scb/cy_scb_spi.h **** * \addtogroup group_scb_spi_low_level_functions
 692:Generated_Source\PSoC6\pdl\drivers/peripheral/scb/cy_scb_spi.h **** * \{
 693:Generated_Source\PSoC6\pdl\drivers/peripheral/scb/cy_scb_spi.h **** */
 694:Generated_Source\PSoC6\pdl\drivers/peripheral/scb/cy_scb_spi.h **** __STATIC_INLINE uint32_t Cy_SCB_SPI_Read     (CySCB_Type const *base);
 695:Generated_Source\PSoC6\pdl\drivers/peripheral/scb/cy_scb_spi.h **** __STATIC_INLINE uint32_t Cy_SCB_SPI_ReadArray(CySCB_Type const *base, void *buffer, uint32_t size);
 696:Generated_Source\PSoC6\pdl\drivers/peripheral/scb/cy_scb_spi.h **** 
 697:Generated_Source\PSoC6\pdl\drivers/peripheral/scb/cy_scb_spi.h **** __STATIC_INLINE uint32_t Cy_SCB_SPI_Write     (CySCB_Type *base, uint32_t data);
 698:Generated_Source\PSoC6\pdl\drivers/peripheral/scb/cy_scb_spi.h **** __STATIC_INLINE uint32_t Cy_SCB_SPI_WriteArray(CySCB_Type *base, void *buffer, uint32_t size);
 699:Generated_Source\PSoC6\pdl\drivers/peripheral/scb/cy_scb_spi.h **** __STATIC_INLINE void     Cy_SCB_SPI_WriteArrayBlocking(CySCB_Type *base, void *buffer, uint32_t siz
 700:Generated_Source\PSoC6\pdl\drivers/peripheral/scb/cy_scb_spi.h **** 
 701:Generated_Source\PSoC6\pdl\drivers/peripheral/scb/cy_scb_spi.h **** __STATIC_INLINE uint32_t Cy_SCB_SPI_GetTxFifoStatus  (CySCB_Type const *base);
 702:Generated_Source\PSoC6\pdl\drivers/peripheral/scb/cy_scb_spi.h **** __STATIC_INLINE void     Cy_SCB_SPI_ClearTxFifoStatus(CySCB_Type *base, uint32_t clearMask);
 703:Generated_Source\PSoC6\pdl\drivers/peripheral/scb/cy_scb_spi.h **** 
 704:Generated_Source\PSoC6\pdl\drivers/peripheral/scb/cy_scb_spi.h **** __STATIC_INLINE uint32_t Cy_SCB_SPI_GetRxFifoStatus  (CySCB_Type const *base);
 705:Generated_Source\PSoC6\pdl\drivers/peripheral/scb/cy_scb_spi.h **** __STATIC_INLINE void     Cy_SCB_SPI_ClearRxFifoStatus(CySCB_Type *base, uint32_t clearMask);
 706:Generated_Source\PSoC6\pdl\drivers/peripheral/scb/cy_scb_spi.h **** 
 707:Generated_Source\PSoC6\pdl\drivers/peripheral/scb/cy_scb_spi.h **** __STATIC_INLINE uint32_t Cy_SCB_SPI_GetSlaveMasterStatus  (CySCB_Type const *base);
 708:Generated_Source\PSoC6\pdl\drivers/peripheral/scb/cy_scb_spi.h **** __STATIC_INLINE void     Cy_SCB_SPI_ClearSlaveMasterStatus(CySCB_Type *base, uint32_t clearMask);
 709:Generated_Source\PSoC6\pdl\drivers/peripheral/scb/cy_scb_spi.h **** 
 710:Generated_Source\PSoC6\pdl\drivers/peripheral/scb/cy_scb_spi.h **** __STATIC_INLINE uint32_t Cy_SCB_SPI_GetNumInTxFifo(CySCB_Type const *base);
 711:Generated_Source\PSoC6\pdl\drivers/peripheral/scb/cy_scb_spi.h **** __STATIC_INLINE bool     Cy_SCB_SPI_IsTxComplete  (CySCB_Type const *base);
 712:Generated_Source\PSoC6\pdl\drivers/peripheral/scb/cy_scb_spi.h **** 
 713:Generated_Source\PSoC6\pdl\drivers/peripheral/scb/cy_scb_spi.h **** __STATIC_INLINE uint32_t Cy_SCB_SPI_GetNumInRxFifo(CySCB_Type const *base);
 714:Generated_Source\PSoC6\pdl\drivers/peripheral/scb/cy_scb_spi.h **** 
 715:Generated_Source\PSoC6\pdl\drivers/peripheral/scb/cy_scb_spi.h **** __STATIC_INLINE void Cy_SCB_SPI_ClearRxFifo(CySCB_Type *base);
 716:Generated_Source\PSoC6\pdl\drivers/peripheral/scb/cy_scb_spi.h **** __STATIC_INLINE void Cy_SCB_SPI_ClearTxFifo(CySCB_Type *base);
 717:Generated_Source\PSoC6\pdl\drivers/peripheral/scb/cy_scb_spi.h **** /** \} group_scb_spi_low_level_functions */
 718:Generated_Source\PSoC6\pdl\drivers/peripheral/scb/cy_scb_spi.h **** 
 719:Generated_Source\PSoC6\pdl\drivers/peripheral/scb/cy_scb_spi.h **** /**
 720:Generated_Source\PSoC6\pdl\drivers/peripheral/scb/cy_scb_spi.h **** * \addtogroup group_scb_spi_interrupt_functions
ARM GAS  C:\Users\Smaug\AppData\Local\Temp\ccJKcizn.s 			page 17


 721:Generated_Source\PSoC6\pdl\drivers/peripheral/scb/cy_scb_spi.h **** * \{
 722:Generated_Source\PSoC6\pdl\drivers/peripheral/scb/cy_scb_spi.h **** */
 723:Generated_Source\PSoC6\pdl\drivers/peripheral/scb/cy_scb_spi.h **** void Cy_SCB_SPI_Interrupt(CySCB_Type *base, cy_stc_scb_spi_context_t *context);
 724:Generated_Source\PSoC6\pdl\drivers/peripheral/scb/cy_scb_spi.h **** 
 725:Generated_Source\PSoC6\pdl\drivers/peripheral/scb/cy_scb_spi.h **** __STATIC_INLINE void Cy_SCB_SPI_RegisterCallback(CySCB_Type const *base, cy_cb_scb_spi_handle_event
 726:Generated_Source\PSoC6\pdl\drivers/peripheral/scb/cy_scb_spi.h ****                                                  cy_stc_scb_spi_context_t *context);
 727:Generated_Source\PSoC6\pdl\drivers/peripheral/scb/cy_scb_spi.h **** /** \} group_scb_spi_interrupt_functions */
 728:Generated_Source\PSoC6\pdl\drivers/peripheral/scb/cy_scb_spi.h **** 
 729:Generated_Source\PSoC6\pdl\drivers/peripheral/scb/cy_scb_spi.h **** /**
 730:Generated_Source\PSoC6\pdl\drivers/peripheral/scb/cy_scb_spi.h **** * \addtogroup group_scb_spi_low_power_functions
 731:Generated_Source\PSoC6\pdl\drivers/peripheral/scb/cy_scb_spi.h **** * \{
 732:Generated_Source\PSoC6\pdl\drivers/peripheral/scb/cy_scb_spi.h **** */
 733:Generated_Source\PSoC6\pdl\drivers/peripheral/scb/cy_scb_spi.h **** cy_en_syspm_status_t Cy_SCB_SPI_DeepSleepCallback(cy_stc_syspm_callback_params_t *callbackParams, c
 734:Generated_Source\PSoC6\pdl\drivers/peripheral/scb/cy_scb_spi.h **** cy_en_syspm_status_t Cy_SCB_SPI_HibernateCallback(cy_stc_syspm_callback_params_t *callbackParams, c
 735:Generated_Source\PSoC6\pdl\drivers/peripheral/scb/cy_scb_spi.h **** /** \} group_scb_spi_low_power_functions */
 736:Generated_Source\PSoC6\pdl\drivers/peripheral/scb/cy_scb_spi.h **** 
 737:Generated_Source\PSoC6\pdl\drivers/peripheral/scb/cy_scb_spi.h **** 
 738:Generated_Source\PSoC6\pdl\drivers/peripheral/scb/cy_scb_spi.h **** /*******************************************************************************
 739:Generated_Source\PSoC6\pdl\drivers/peripheral/scb/cy_scb_spi.h **** *                               API Constants
 740:Generated_Source\PSoC6\pdl\drivers/peripheral/scb/cy_scb_spi.h **** *******************************************************************************/
 741:Generated_Source\PSoC6\pdl\drivers/peripheral/scb/cy_scb_spi.h **** 
 742:Generated_Source\PSoC6\pdl\drivers/peripheral/scb/cy_scb_spi.h **** /**
 743:Generated_Source\PSoC6\pdl\drivers/peripheral/scb/cy_scb_spi.h **** * \addtogroup group_scb_spi_macros
 744:Generated_Source\PSoC6\pdl\drivers/peripheral/scb/cy_scb_spi.h **** * \{
 745:Generated_Source\PSoC6\pdl\drivers/peripheral/scb/cy_scb_spi.h **** */
 746:Generated_Source\PSoC6\pdl\drivers/peripheral/scb/cy_scb_spi.h **** 
 747:Generated_Source\PSoC6\pdl\drivers/peripheral/scb/cy_scb_spi.h **** /**
 748:Generated_Source\PSoC6\pdl\drivers/peripheral/scb/cy_scb_spi.h **** * \defgroup group_scb_spi_macros_tx_fifo_status SPI TX FIFO Statuses
 749:Generated_Source\PSoC6\pdl\drivers/peripheral/scb/cy_scb_spi.h **** * Macros to check SPI TX FIFO status returned by \ref Cy_SCB_SPI_GetTxFifoStatus
 750:Generated_Source\PSoC6\pdl\drivers/peripheral/scb/cy_scb_spi.h **** * function or assign mask for \ref Cy_SCB_SPI_ClearTxFifoStatus function.
 751:Generated_Source\PSoC6\pdl\drivers/peripheral/scb/cy_scb_spi.h **** * Each SPI TX FIFO status is encoded in a separate bit, therefore multiple bits
 752:Generated_Source\PSoC6\pdl\drivers/peripheral/scb/cy_scb_spi.h **** * may be set to indicate the current status.
 753:Generated_Source\PSoC6\pdl\drivers/peripheral/scb/cy_scb_spi.h **** * \{
 754:Generated_Source\PSoC6\pdl\drivers/peripheral/scb/cy_scb_spi.h **** */
 755:Generated_Source\PSoC6\pdl\drivers/peripheral/scb/cy_scb_spi.h **** /** The number of entries in the TX FIFO is less than the TX FIFO trigger level
 756:Generated_Source\PSoC6\pdl\drivers/peripheral/scb/cy_scb_spi.h **** * value
 757:Generated_Source\PSoC6\pdl\drivers/peripheral/scb/cy_scb_spi.h **** */
 758:Generated_Source\PSoC6\pdl\drivers/peripheral/scb/cy_scb_spi.h **** #define CY_SCB_SPI_TX_TRIGGER       (SCB_INTR_TX_TRIGGER_Msk)
 759:Generated_Source\PSoC6\pdl\drivers/peripheral/scb/cy_scb_spi.h **** 
 760:Generated_Source\PSoC6\pdl\drivers/peripheral/scb/cy_scb_spi.h **** /** The TX FIFO is not full, there is a space for more data */
 761:Generated_Source\PSoC6\pdl\drivers/peripheral/scb/cy_scb_spi.h **** #define CY_SCB_SPI_TX_NOT_FULL      (SCB_INTR_TX_NOT_FULL_Msk)
 762:Generated_Source\PSoC6\pdl\drivers/peripheral/scb/cy_scb_spi.h **** 
 763:Generated_Source\PSoC6\pdl\drivers/peripheral/scb/cy_scb_spi.h **** /**
 764:Generated_Source\PSoC6\pdl\drivers/peripheral/scb/cy_scb_spi.h **** * The TX FIFO is empty, note that there may still be data in the shift register.
 765:Generated_Source\PSoC6\pdl\drivers/peripheral/scb/cy_scb_spi.h **** */
 766:Generated_Source\PSoC6\pdl\drivers/peripheral/scb/cy_scb_spi.h **** #define CY_SCB_SPI_TX_EMPTY         (SCB_INTR_TX_EMPTY_Msk)
 767:Generated_Source\PSoC6\pdl\drivers/peripheral/scb/cy_scb_spi.h **** 
 768:Generated_Source\PSoC6\pdl\drivers/peripheral/scb/cy_scb_spi.h **** /** An attempt to write to the full TX FIFO */
 769:Generated_Source\PSoC6\pdl\drivers/peripheral/scb/cy_scb_spi.h **** #define CY_SCB_SPI_TX_OVERFLOW      (SCB_INTR_TX_OVERFLOW_Msk)
 770:Generated_Source\PSoC6\pdl\drivers/peripheral/scb/cy_scb_spi.h **** 
 771:Generated_Source\PSoC6\pdl\drivers/peripheral/scb/cy_scb_spi.h **** /**
 772:Generated_Source\PSoC6\pdl\drivers/peripheral/scb/cy_scb_spi.h **** * Applicable only for the slave mode. The master tried to read more
 773:Generated_Source\PSoC6\pdl\drivers/peripheral/scb/cy_scb_spi.h **** * data elements than available.
 774:Generated_Source\PSoC6\pdl\drivers/peripheral/scb/cy_scb_spi.h **** */
 775:Generated_Source\PSoC6\pdl\drivers/peripheral/scb/cy_scb_spi.h **** #define CY_SCB_SPI_TX_UNDERFLOW     (SCB_INTR_TX_UNDERFLOW_Msk)
 776:Generated_Source\PSoC6\pdl\drivers/peripheral/scb/cy_scb_spi.h **** /** \} group_scb_spi_macros_tx_fifo_status */
 777:Generated_Source\PSoC6\pdl\drivers/peripheral/scb/cy_scb_spi.h **** 
ARM GAS  C:\Users\Smaug\AppData\Local\Temp\ccJKcizn.s 			page 18


 778:Generated_Source\PSoC6\pdl\drivers/peripheral/scb/cy_scb_spi.h **** /**
 779:Generated_Source\PSoC6\pdl\drivers/peripheral/scb/cy_scb_spi.h **** * \defgroup group_scb_spi_macros_rx_fifo_status SPI RX FIFO Statuses
 780:Generated_Source\PSoC6\pdl\drivers/peripheral/scb/cy_scb_spi.h **** * \{
 781:Generated_Source\PSoC6\pdl\drivers/peripheral/scb/cy_scb_spi.h **** * Macros to check SPI RX FIFO status returned by \ref Cy_SCB_SPI_GetRxFifoStatus
 782:Generated_Source\PSoC6\pdl\drivers/peripheral/scb/cy_scb_spi.h **** * function or assign mask for \ref Cy_SCB_SPI_ClearRxFifoStatus function.
 783:Generated_Source\PSoC6\pdl\drivers/peripheral/scb/cy_scb_spi.h **** * Each SPI RX FIFO status is encoded in a separate bit, therefore multiple
 784:Generated_Source\PSoC6\pdl\drivers/peripheral/scb/cy_scb_spi.h **** * bits may be set to indicate the current status.
 785:Generated_Source\PSoC6\pdl\drivers/peripheral/scb/cy_scb_spi.h **** */
 786:Generated_Source\PSoC6\pdl\drivers/peripheral/scb/cy_scb_spi.h **** /** The number of entries in the RX FIFO is more than the RX FIFO trigger
 787:Generated_Source\PSoC6\pdl\drivers/peripheral/scb/cy_scb_spi.h **** * level value.
 788:Generated_Source\PSoC6\pdl\drivers/peripheral/scb/cy_scb_spi.h **** */
 789:Generated_Source\PSoC6\pdl\drivers/peripheral/scb/cy_scb_spi.h **** #define CY_SCB_SPI_RX_TRIGGER       (SCB_INTR_RX_TRIGGER_Msk)
 790:Generated_Source\PSoC6\pdl\drivers/peripheral/scb/cy_scb_spi.h **** 
 791:Generated_Source\PSoC6\pdl\drivers/peripheral/scb/cy_scb_spi.h **** /** The RX FIFO is not empty, there is data to read */
 792:Generated_Source\PSoC6\pdl\drivers/peripheral/scb/cy_scb_spi.h **** #define CY_SCB_SPI_RX_NOT_EMPTY     (SCB_INTR_RX_NOT_EMPTY_Msk)
 793:Generated_Source\PSoC6\pdl\drivers/peripheral/scb/cy_scb_spi.h **** 
 794:Generated_Source\PSoC6\pdl\drivers/peripheral/scb/cy_scb_spi.h **** /**
 795:Generated_Source\PSoC6\pdl\drivers/peripheral/scb/cy_scb_spi.h **** * The RX FIFO is full. There is no more space for additional data.
 796:Generated_Source\PSoC6\pdl\drivers/peripheral/scb/cy_scb_spi.h **** * Any additional data will be dropped.
 797:Generated_Source\PSoC6\pdl\drivers/peripheral/scb/cy_scb_spi.h **** */
 798:Generated_Source\PSoC6\pdl\drivers/peripheral/scb/cy_scb_spi.h **** #define CY_SCB_SPI_RX_FULL          (SCB_INTR_RX_FULL_Msk)
 799:Generated_Source\PSoC6\pdl\drivers/peripheral/scb/cy_scb_spi.h **** 
 800:Generated_Source\PSoC6\pdl\drivers/peripheral/scb/cy_scb_spi.h **** /**
 801:Generated_Source\PSoC6\pdl\drivers/peripheral/scb/cy_scb_spi.h **** * The RX FIFO was full and there was an attempt to write to it.
 802:Generated_Source\PSoC6\pdl\drivers/peripheral/scb/cy_scb_spi.h **** * This additional data was dropped.
 803:Generated_Source\PSoC6\pdl\drivers/peripheral/scb/cy_scb_spi.h **** */
 804:Generated_Source\PSoC6\pdl\drivers/peripheral/scb/cy_scb_spi.h **** #define CY_SCB_SPI_RX_OVERFLOW      (SCB_INTR_RX_OVERFLOW_Msk)
 805:Generated_Source\PSoC6\pdl\drivers/peripheral/scb/cy_scb_spi.h **** 
 806:Generated_Source\PSoC6\pdl\drivers/peripheral/scb/cy_scb_spi.h **** /** An attempt to read from an empty RX FIFO */
 807:Generated_Source\PSoC6\pdl\drivers/peripheral/scb/cy_scb_spi.h **** #define CY_SCB_SPI_RX_UNDERFLOW     (SCB_INTR_RX_UNDERFLOW_Msk)
 808:Generated_Source\PSoC6\pdl\drivers/peripheral/scb/cy_scb_spi.h **** /** \} group_scb_spi_macros_rx_fifo_status */
 809:Generated_Source\PSoC6\pdl\drivers/peripheral/scb/cy_scb_spi.h **** 
 810:Generated_Source\PSoC6\pdl\drivers/peripheral/scb/cy_scb_spi.h **** /**
 811:Generated_Source\PSoC6\pdl\drivers/peripheral/scb/cy_scb_spi.h **** * \defgroup group_scb_spi_macros_master_slave_status SPI Master and Slave Statuses
 812:Generated_Source\PSoC6\pdl\drivers/peripheral/scb/cy_scb_spi.h **** * \{
 813:Generated_Source\PSoC6\pdl\drivers/peripheral/scb/cy_scb_spi.h **** * Macros to check SPI Mater and Slave status returned by \ref Cy_SCB_SPI_GetSlaveMasterStatus
 814:Generated_Source\PSoC6\pdl\drivers/peripheral/scb/cy_scb_spi.h **** * function or assign mask for \ref Cy_SCB_SPI_ClearSlaveMasterStatus function.
 815:Generated_Source\PSoC6\pdl\drivers/peripheral/scb/cy_scb_spi.h **** */
 816:Generated_Source\PSoC6\pdl\drivers/peripheral/scb/cy_scb_spi.h **** /** The slave was deselected at the wrong time */
 817:Generated_Source\PSoC6\pdl\drivers/peripheral/scb/cy_scb_spi.h **** #define CY_SCB_SPI_SLAVE_ERR       (SCB_INTR_S_SPI_BUS_ERROR_Msk)
 818:Generated_Source\PSoC6\pdl\drivers/peripheral/scb/cy_scb_spi.h **** 
 819:Generated_Source\PSoC6\pdl\drivers/peripheral/scb/cy_scb_spi.h **** /** The master has transmitted all data elements from FIFO and shifter */
 820:Generated_Source\PSoC6\pdl\drivers/peripheral/scb/cy_scb_spi.h **** #define CY_SCB_SPI_MASTER_DONE     (SCB_INTR_M_SPI_DONE_Msk)
 821:Generated_Source\PSoC6\pdl\drivers/peripheral/scb/cy_scb_spi.h **** /** \} group_scb_spi_macros_master_slave_status */
 822:Generated_Source\PSoC6\pdl\drivers/peripheral/scb/cy_scb_spi.h **** 
 823:Generated_Source\PSoC6\pdl\drivers/peripheral/scb/cy_scb_spi.h **** /**
 824:Generated_Source\PSoC6\pdl\drivers/peripheral/scb/cy_scb_spi.h **** * \defgroup group_scb_spi_macros_xfer_status SPI Transfer Status
 825:Generated_Source\PSoC6\pdl\drivers/peripheral/scb/cy_scb_spi.h **** * \{
 826:Generated_Source\PSoC6\pdl\drivers/peripheral/scb/cy_scb_spi.h **** * Macros to check current SPI transfer status returned by
 827:Generated_Source\PSoC6\pdl\drivers/peripheral/scb/cy_scb_spi.h **** * \ref Cy_SCB_SPI_GetTransferStatus function.
 828:Generated_Source\PSoC6\pdl\drivers/peripheral/scb/cy_scb_spi.h **** * Each SPI transfer status is encoded in a separate bit, therefore multiple bits
 829:Generated_Source\PSoC6\pdl\drivers/peripheral/scb/cy_scb_spi.h **** * may be set to indicate the current status.
 830:Generated_Source\PSoC6\pdl\drivers/peripheral/scb/cy_scb_spi.h **** */
 831:Generated_Source\PSoC6\pdl\drivers/peripheral/scb/cy_scb_spi.h **** /**
 832:Generated_Source\PSoC6\pdl\drivers/peripheral/scb/cy_scb_spi.h **** * Transfer operation started by \ref Cy_SCB_SPI_Transfer is in progress
 833:Generated_Source\PSoC6\pdl\drivers/peripheral/scb/cy_scb_spi.h **** */
 834:Generated_Source\PSoC6\pdl\drivers/peripheral/scb/cy_scb_spi.h **** #define CY_SCB_SPI_TRANSFER_ACTIVE     (0x01UL)
ARM GAS  C:\Users\Smaug\AppData\Local\Temp\ccJKcizn.s 			page 19


 835:Generated_Source\PSoC6\pdl\drivers/peripheral/scb/cy_scb_spi.h **** 
 836:Generated_Source\PSoC6\pdl\drivers/peripheral/scb/cy_scb_spi.h **** /**
 837:Generated_Source\PSoC6\pdl\drivers/peripheral/scb/cy_scb_spi.h **** * All data elements specified by \ref Cy_SCB_SPI_Transfer for transmission
 838:Generated_Source\PSoC6\pdl\drivers/peripheral/scb/cy_scb_spi.h **** * have been loaded into the TX FIFO
 839:Generated_Source\PSoC6\pdl\drivers/peripheral/scb/cy_scb_spi.h **** */
 840:Generated_Source\PSoC6\pdl\drivers/peripheral/scb/cy_scb_spi.h **** #define CY_SCB_SPI_TRANSFER_IN_FIFO    (0x02UL)
 841:Generated_Source\PSoC6\pdl\drivers/peripheral/scb/cy_scb_spi.h **** 
 842:Generated_Source\PSoC6\pdl\drivers/peripheral/scb/cy_scb_spi.h **** /** The slave was deselected at the wrong time. */
 843:Generated_Source\PSoC6\pdl\drivers/peripheral/scb/cy_scb_spi.h **** #define CY_SCB_SPI_SLAVE_TRANSFER_ERR  (SCB_INTR_S_SPI_BUS_ERROR_Msk)
 844:Generated_Source\PSoC6\pdl\drivers/peripheral/scb/cy_scb_spi.h **** 
 845:Generated_Source\PSoC6\pdl\drivers/peripheral/scb/cy_scb_spi.h **** /**
 846:Generated_Source\PSoC6\pdl\drivers/peripheral/scb/cy_scb_spi.h **** * RX FIFO was full and there was an attempt to write to it.
 847:Generated_Source\PSoC6\pdl\drivers/peripheral/scb/cy_scb_spi.h **** * This additional data was dropped.
 848:Generated_Source\PSoC6\pdl\drivers/peripheral/scb/cy_scb_spi.h **** */
 849:Generated_Source\PSoC6\pdl\drivers/peripheral/scb/cy_scb_spi.h **** #define CY_SCB_SPI_TRANSFER_OVERFLOW   (SCB_INTR_RX_OVERFLOW_Msk)
 850:Generated_Source\PSoC6\pdl\drivers/peripheral/scb/cy_scb_spi.h **** 
 851:Generated_Source\PSoC6\pdl\drivers/peripheral/scb/cy_scb_spi.h **** /**
 852:Generated_Source\PSoC6\pdl\drivers/peripheral/scb/cy_scb_spi.h **** * Applicable only for the slave mode. The master tried to read more
 853:Generated_Source\PSoC6\pdl\drivers/peripheral/scb/cy_scb_spi.h **** * data elements than available in the TX FIFO.
 854:Generated_Source\PSoC6\pdl\drivers/peripheral/scb/cy_scb_spi.h **** */
 855:Generated_Source\PSoC6\pdl\drivers/peripheral/scb/cy_scb_spi.h **** #define CY_SCB_SPI_TRANSFER_UNDERFLOW  (SCB_INTR_TX_UNDERFLOW_Msk)
 856:Generated_Source\PSoC6\pdl\drivers/peripheral/scb/cy_scb_spi.h **** /** \} group_scb_spi_macros_xfer_status */
 857:Generated_Source\PSoC6\pdl\drivers/peripheral/scb/cy_scb_spi.h **** 
 858:Generated_Source\PSoC6\pdl\drivers/peripheral/scb/cy_scb_spi.h **** /**
 859:Generated_Source\PSoC6\pdl\drivers/peripheral/scb/cy_scb_spi.h **** * \defgroup group_scb_spi_macros_callback_events SPI Callback Events
 860:Generated_Source\PSoC6\pdl\drivers/peripheral/scb/cy_scb_spi.h **** * \{
 861:Generated_Source\PSoC6\pdl\drivers/peripheral/scb/cy_scb_spi.h **** * Macros to check SPI events passed by \ref cy_cb_scb_spi_handle_events_t callback.
 862:Generated_Source\PSoC6\pdl\drivers/peripheral/scb/cy_scb_spi.h **** * Note that only single event is notified by the callback when it is called.
 863:Generated_Source\PSoC6\pdl\drivers/peripheral/scb/cy_scb_spi.h **** */
 864:Generated_Source\PSoC6\pdl\drivers/peripheral/scb/cy_scb_spi.h **** /**
 865:Generated_Source\PSoC6\pdl\drivers/peripheral/scb/cy_scb_spi.h **** * All data elements specified by \ref Cy_SCB_SPI_Transfer for transmission
 866:Generated_Source\PSoC6\pdl\drivers/peripheral/scb/cy_scb_spi.h **** * have been loaded into the TX FIFO
 867:Generated_Source\PSoC6\pdl\drivers/peripheral/scb/cy_scb_spi.h **** */
 868:Generated_Source\PSoC6\pdl\drivers/peripheral/scb/cy_scb_spi.h **** #define CY_SCB_SPI_TRANSFER_IN_FIFO_EVENT  (0x01U)
 869:Generated_Source\PSoC6\pdl\drivers/peripheral/scb/cy_scb_spi.h **** 
 870:Generated_Source\PSoC6\pdl\drivers/peripheral/scb/cy_scb_spi.h **** /** The transfer operation started by \ref Cy_SCB_SPI_Transfer is complete */
 871:Generated_Source\PSoC6\pdl\drivers/peripheral/scb/cy_scb_spi.h **** #define CY_SCB_SPI_TRANSFER_CMPLT_EVENT    (0x02U)
 872:Generated_Source\PSoC6\pdl\drivers/peripheral/scb/cy_scb_spi.h **** 
 873:Generated_Source\PSoC6\pdl\drivers/peripheral/scb/cy_scb_spi.h **** /**
 874:Generated_Source\PSoC6\pdl\drivers/peripheral/scb/cy_scb_spi.h **** * An error occurred during the transfer. This includes overflow, underflow
 875:Generated_Source\PSoC6\pdl\drivers/peripheral/scb/cy_scb_spi.h **** * and a transfer error. Check \ref Cy_SCB_SPI_GetTransferStatus.
 876:Generated_Source\PSoC6\pdl\drivers/peripheral/scb/cy_scb_spi.h **** */
 877:Generated_Source\PSoC6\pdl\drivers/peripheral/scb/cy_scb_spi.h **** #define CY_SCB_SPI_TRANSFER_ERR_EVENT      (0x04U)
 878:Generated_Source\PSoC6\pdl\drivers/peripheral/scb/cy_scb_spi.h **** /** \} group_scb_spi_macros_callback_events */
 879:Generated_Source\PSoC6\pdl\drivers/peripheral/scb/cy_scb_spi.h **** 
 880:Generated_Source\PSoC6\pdl\drivers/peripheral/scb/cy_scb_spi.h **** 
 881:Generated_Source\PSoC6\pdl\drivers/peripheral/scb/cy_scb_spi.h **** /** Default TX value when no TX buffer is defined */
 882:Generated_Source\PSoC6\pdl\drivers/peripheral/scb/cy_scb_spi.h **** #define CY_SCB_SPI_DEFAULT_TX  (0x0000FFFFUL)
 883:Generated_Source\PSoC6\pdl\drivers/peripheral/scb/cy_scb_spi.h **** 
 884:Generated_Source\PSoC6\pdl\drivers/peripheral/scb/cy_scb_spi.h **** /** Data returned by the hardware when an empty RX FIFO is read */
 885:Generated_Source\PSoC6\pdl\drivers/peripheral/scb/cy_scb_spi.h **** #define CY_SCB_SPI_RX_NO_DATA  (0xFFFFFFFFUL)
 886:Generated_Source\PSoC6\pdl\drivers/peripheral/scb/cy_scb_spi.h **** 
 887:Generated_Source\PSoC6\pdl\drivers/peripheral/scb/cy_scb_spi.h **** 
 888:Generated_Source\PSoC6\pdl\drivers/peripheral/scb/cy_scb_spi.h **** /*******************************************************************************
 889:Generated_Source\PSoC6\pdl\drivers/peripheral/scb/cy_scb_spi.h **** *                          Internal Constants
 890:Generated_Source\PSoC6\pdl\drivers/peripheral/scb/cy_scb_spi.h **** *******************************************************************************/
 891:Generated_Source\PSoC6\pdl\drivers/peripheral/scb/cy_scb_spi.h **** 
ARM GAS  C:\Users\Smaug\AppData\Local\Temp\ccJKcizn.s 			page 20


 892:Generated_Source\PSoC6\pdl\drivers/peripheral/scb/cy_scb_spi.h **** /** \cond INTERNAL */
 893:Generated_Source\PSoC6\pdl\drivers/peripheral/scb/cy_scb_spi.h **** #define CY_SCB_SPI_RX_INTR_MASK  (CY_SCB_SPI_RX_TRIGGER  | CY_SCB_SPI_RX_NOT_EMPTY | CY_SCB_SPI_RX_
 894:Generated_Source\PSoC6\pdl\drivers/peripheral/scb/cy_scb_spi.h ****                                   CY_SCB_SPI_RX_OVERFLOW | CY_SCB_SPI_RX_UNDERFLOW)
 895:Generated_Source\PSoC6\pdl\drivers/peripheral/scb/cy_scb_spi.h **** 
 896:Generated_Source\PSoC6\pdl\drivers/peripheral/scb/cy_scb_spi.h **** #define CY_SCB_SPI_TX_INTR_MASK  (CY_SCB_SPI_TX_TRIGGER  | CY_SCB_SPI_TX_NOT_FULL | CY_SCB_SPI_TX_E
 897:Generated_Source\PSoC6\pdl\drivers/peripheral/scb/cy_scb_spi.h ****                                   CY_SCB_SPI_TX_OVERFLOW | CY_SCB_SPI_TX_UNDERFLOW)
 898:Generated_Source\PSoC6\pdl\drivers/peripheral/scb/cy_scb_spi.h **** 
 899:Generated_Source\PSoC6\pdl\drivers/peripheral/scb/cy_scb_spi.h **** #define CY_SCB_SPI_MASTER_SLAVE_INTR_MASK (CY_SCB_SPI_MASTER_DONE | CY_SCB_SPI_SLAVE_ERR)
 900:Generated_Source\PSoC6\pdl\drivers/peripheral/scb/cy_scb_spi.h **** 
 901:Generated_Source\PSoC6\pdl\drivers/peripheral/scb/cy_scb_spi.h **** #define CY_SCB_SPI_TRANSFER_ERR    (CY_SCB_SPI_SLAVE_TRANSFER_ERR | CY_SCB_SPI_TRANSFER_OVERFLOW | 
 902:Generated_Source\PSoC6\pdl\drivers/peripheral/scb/cy_scb_spi.h ****                                     CY_SCB_SPI_TRANSFER_UNDERFLOW)
 903:Generated_Source\PSoC6\pdl\drivers/peripheral/scb/cy_scb_spi.h **** 
 904:Generated_Source\PSoC6\pdl\drivers/peripheral/scb/cy_scb_spi.h **** #define CY_SCB_SPI_INIT_KEY        (0x00ABCDEFUL)
 905:Generated_Source\PSoC6\pdl\drivers/peripheral/scb/cy_scb_spi.h **** 
 906:Generated_Source\PSoC6\pdl\drivers/peripheral/scb/cy_scb_spi.h **** #define CY_SCB_SPI_IS_MODE_VALID(mode)          ( (CY_SCB_SPI_SLAVE  == (mode)) || \
 907:Generated_Source\PSoC6\pdl\drivers/peripheral/scb/cy_scb_spi.h ****                                                   (CY_SCB_SPI_MASTER == (mode)) )
 908:Generated_Source\PSoC6\pdl\drivers/peripheral/scb/cy_scb_spi.h **** 
 909:Generated_Source\PSoC6\pdl\drivers/peripheral/scb/cy_scb_spi.h **** #define CY_SCB_SPI_IS_SUB_MODE_VALID(subMode)   ( (CY_SCB_SPI_MOTOROLA     == (subMode)) || \
 910:Generated_Source\PSoC6\pdl\drivers/peripheral/scb/cy_scb_spi.h ****                                                   (CY_SCB_SPI_TI_COINCIDES == (subMode)) || \
 911:Generated_Source\PSoC6\pdl\drivers/peripheral/scb/cy_scb_spi.h ****                                                   (CY_SCB_SPI_TI_PRECEDES  == (subMode)) || \
 912:Generated_Source\PSoC6\pdl\drivers/peripheral/scb/cy_scb_spi.h ****                                                   (CY_SCB_SPI_NATIONAL     == (subMode)) )
 913:Generated_Source\PSoC6\pdl\drivers/peripheral/scb/cy_scb_spi.h **** 
 914:Generated_Source\PSoC6\pdl\drivers/peripheral/scb/cy_scb_spi.h **** #define CY_SCB_SPI_IS_SCLK_MODE_VALID(clkMode)  ( (CY_SCB_SPI_CPHA0_CPOL0 == (clkMode)) || \
 915:Generated_Source\PSoC6\pdl\drivers/peripheral/scb/cy_scb_spi.h ****                                                   (CY_SCB_SPI_CPHA0_CPOL1 == (clkMode)) || \
 916:Generated_Source\PSoC6\pdl\drivers/peripheral/scb/cy_scb_spi.h ****                                                   (CY_SCB_SPI_CPHA1_CPOL0 == (clkMode)) || \
 917:Generated_Source\PSoC6\pdl\drivers/peripheral/scb/cy_scb_spi.h ****                                                   (CY_SCB_SPI_CPHA1_CPOL1 == (clkMode)) )
 918:Generated_Source\PSoC6\pdl\drivers/peripheral/scb/cy_scb_spi.h **** 
 919:Generated_Source\PSoC6\pdl\drivers/peripheral/scb/cy_scb_spi.h **** #define CY_SCB_SPI_IS_POLARITY_VALID(polarity)  ( (CY_SCB_SPI_ACTIVE_LOW  == (polarity)) || \
 920:Generated_Source\PSoC6\pdl\drivers/peripheral/scb/cy_scb_spi.h ****                                                   (CY_SCB_SPI_ACTIVE_HIGH == (polarity)) )
 921:Generated_Source\PSoC6\pdl\drivers/peripheral/scb/cy_scb_spi.h **** 
 922:Generated_Source\PSoC6\pdl\drivers/peripheral/scb/cy_scb_spi.h **** #define CY_SCB_SPI_IS_SLAVE_SEL_VALID(ss)       ( (CY_SCB_SPI_SLAVE_SELECT0 == (ss)) || \
 923:Generated_Source\PSoC6\pdl\drivers/peripheral/scb/cy_scb_spi.h ****                                                   (CY_SCB_SPI_SLAVE_SELECT1 == (ss)) || \
 924:Generated_Source\PSoC6\pdl\drivers/peripheral/scb/cy_scb_spi.h ****                                                   (CY_SCB_SPI_SLAVE_SELECT2 == (ss)) || \
 925:Generated_Source\PSoC6\pdl\drivers/peripheral/scb/cy_scb_spi.h ****                                                   (CY_SCB_SPI_SLAVE_SELECT3 == (ss)) )
 926:Generated_Source\PSoC6\pdl\drivers/peripheral/scb/cy_scb_spi.h **** 
 927:Generated_Source\PSoC6\pdl\drivers/peripheral/scb/cy_scb_spi.h **** #define CY_SCB_SPI_IS_OVERSAMPLE_VALID(ovs, mode)   ( (CY_SCB_SPI_MASTER == (mode)) ? (((ovs) >= 2U
 928:Generated_Source\PSoC6\pdl\drivers/peripheral/scb/cy_scb_spi.h **** #define CY_SCB_SPI_IS_DATA_WIDTH_VALID(width)       ( ((width) >= 4UL) && ((width) <= 16UL) )
 929:Generated_Source\PSoC6\pdl\drivers/peripheral/scb/cy_scb_spi.h **** #define CY_SCB_SPI_IS_SS_POLARITY_VALID(polarity)   ( (0UL == ((polarity) & (~0x0FUL))) )
 930:Generated_Source\PSoC6\pdl\drivers/peripheral/scb/cy_scb_spi.h **** #define CY_SCB_SPI_IS_BUFFER_VALID(txBuffer, rxBuffer, size)  ( ((size) > 0UL)  && \
 931:Generated_Source\PSoC6\pdl\drivers/peripheral/scb/cy_scb_spi.h ****                                                                  (false == ((NULL == (txBuffer)) &&
 932:Generated_Source\PSoC6\pdl\drivers/peripheral/scb/cy_scb_spi.h **** 
 933:Generated_Source\PSoC6\pdl\drivers/peripheral/scb/cy_scb_spi.h **** #define CY_SCB_SPI_IS_BOTH_DATA_WIDTH_VALID(subMode, rxWidth, txWidth)  ( (CY_SCB_SPI_NATIONAL != (
 934:Generated_Source\PSoC6\pdl\drivers/peripheral/scb/cy_scb_spi.h ****                                                                                     ((rxWidth) == (
 935:Generated_Source\PSoC6\pdl\drivers/peripheral/scb/cy_scb_spi.h **** 
 936:Generated_Source\PSoC6\pdl\drivers/peripheral/scb/cy_scb_spi.h **** /** \endcond */
 937:Generated_Source\PSoC6\pdl\drivers/peripheral/scb/cy_scb_spi.h **** 
 938:Generated_Source\PSoC6\pdl\drivers/peripheral/scb/cy_scb_spi.h **** /** \} group_scb_spi_macros */
 939:Generated_Source\PSoC6\pdl\drivers/peripheral/scb/cy_scb_spi.h **** 
 940:Generated_Source\PSoC6\pdl\drivers/peripheral/scb/cy_scb_spi.h **** 
 941:Generated_Source\PSoC6\pdl\drivers/peripheral/scb/cy_scb_spi.h **** /*******************************************************************************
 942:Generated_Source\PSoC6\pdl\drivers/peripheral/scb/cy_scb_spi.h **** *                     In-line Function Implementation
 943:Generated_Source\PSoC6\pdl\drivers/peripheral/scb/cy_scb_spi.h **** *******************************************************************************/
 944:Generated_Source\PSoC6\pdl\drivers/peripheral/scb/cy_scb_spi.h **** 
 945:Generated_Source\PSoC6\pdl\drivers/peripheral/scb/cy_scb_spi.h **** /**
 946:Generated_Source\PSoC6\pdl\drivers/peripheral/scb/cy_scb_spi.h **** * \addtogroup group_scb_spi_general_functions
 947:Generated_Source\PSoC6\pdl\drivers/peripheral/scb/cy_scb_spi.h **** * \{
 948:Generated_Source\PSoC6\pdl\drivers/peripheral/scb/cy_scb_spi.h **** */
ARM GAS  C:\Users\Smaug\AppData\Local\Temp\ccJKcizn.s 			page 21


 949:Generated_Source\PSoC6\pdl\drivers/peripheral/scb/cy_scb_spi.h **** 
 950:Generated_Source\PSoC6\pdl\drivers/peripheral/scb/cy_scb_spi.h **** /*******************************************************************************
 951:Generated_Source\PSoC6\pdl\drivers/peripheral/scb/cy_scb_spi.h **** * Function Name: Cy_SCB_SPI_Enable
 952:Generated_Source\PSoC6\pdl\drivers/peripheral/scb/cy_scb_spi.h **** ****************************************************************************//**
 953:Generated_Source\PSoC6\pdl\drivers/peripheral/scb/cy_scb_spi.h **** *
 954:Generated_Source\PSoC6\pdl\drivers/peripheral/scb/cy_scb_spi.h **** * Enables the SCB block for the SPI operation.
 955:Generated_Source\PSoC6\pdl\drivers/peripheral/scb/cy_scb_spi.h **** *
 956:Generated_Source\PSoC6\pdl\drivers/peripheral/scb/cy_scb_spi.h **** * \param base
 957:Generated_Source\PSoC6\pdl\drivers/peripheral/scb/cy_scb_spi.h **** * The pointer to the SPI SCB instance.
 958:Generated_Source\PSoC6\pdl\drivers/peripheral/scb/cy_scb_spi.h **** *
 959:Generated_Source\PSoC6\pdl\drivers/peripheral/scb/cy_scb_spi.h **** *******************************************************************************/
 960:Generated_Source\PSoC6\pdl\drivers/peripheral/scb/cy_scb_spi.h **** __STATIC_INLINE void Cy_SCB_SPI_Enable(CySCB_Type *base)
 961:Generated_Source\PSoC6\pdl\drivers/peripheral/scb/cy_scb_spi.h **** {
 962:Generated_Source\PSoC6\pdl\drivers/peripheral/scb/cy_scb_spi.h ****     SCB_CTRL(base) |= SCB_CTRL_ENABLED_Msk;
 963:Generated_Source\PSoC6\pdl\drivers/peripheral/scb/cy_scb_spi.h **** }
 964:Generated_Source\PSoC6\pdl\drivers/peripheral/scb/cy_scb_spi.h **** 
 965:Generated_Source\PSoC6\pdl\drivers/peripheral/scb/cy_scb_spi.h **** 
 966:Generated_Source\PSoC6\pdl\drivers/peripheral/scb/cy_scb_spi.h **** /*******************************************************************************
 967:Generated_Source\PSoC6\pdl\drivers/peripheral/scb/cy_scb_spi.h **** * Function Name: Cy_SCB_SPI_IsBusBusy
 968:Generated_Source\PSoC6\pdl\drivers/peripheral/scb/cy_scb_spi.h **** ****************************************************************************//**
 969:Generated_Source\PSoC6\pdl\drivers/peripheral/scb/cy_scb_spi.h **** *
 970:Generated_Source\PSoC6\pdl\drivers/peripheral/scb/cy_scb_spi.h **** * Returns whether the SPI bus is busy or not. The bus busy is determined using
 971:Generated_Source\PSoC6\pdl\drivers/peripheral/scb/cy_scb_spi.h **** * the slave select signal.
 972:Generated_Source\PSoC6\pdl\drivers/peripheral/scb/cy_scb_spi.h **** * * Motorola and National Semiconductor sub-modes: the bus is busy after the
 973:Generated_Source\PSoC6\pdl\drivers/peripheral/scb/cy_scb_spi.h **** *   slave select line is activated and lasts until the slave select line is
 974:Generated_Source\PSoC6\pdl\drivers/peripheral/scb/cy_scb_spi.h **** *   deactivated.
 975:Generated_Source\PSoC6\pdl\drivers/peripheral/scb/cy_scb_spi.h **** * * Texas Instrument sub-modes: The bus is busy the moment of the initial
 976:Generated_Source\PSoC6\pdl\drivers/peripheral/scb/cy_scb_spi.h **** *   pulse on the slave select line and lasts until the transfer is complete
 977:Generated_Source\PSoC6\pdl\drivers/peripheral/scb/cy_scb_spi.h **** *   (all bytes from the TX FIFO area shifted-out on the bus).
 978:Generated_Source\PSoC6\pdl\drivers/peripheral/scb/cy_scb_spi.h **** *
 979:Generated_Source\PSoC6\pdl\drivers/peripheral/scb/cy_scb_spi.h **** * \param base
 980:Generated_Source\PSoC6\pdl\drivers/peripheral/scb/cy_scb_spi.h **** * The pointer to the SPI SCB instance.
 981:Generated_Source\PSoC6\pdl\drivers/peripheral/scb/cy_scb_spi.h **** *
 982:Generated_Source\PSoC6\pdl\drivers/peripheral/scb/cy_scb_spi.h **** * \return
 983:Generated_Source\PSoC6\pdl\drivers/peripheral/scb/cy_scb_spi.h **** * True - the bus is busy; false - the bus is idle.
 984:Generated_Source\PSoC6\pdl\drivers/peripheral/scb/cy_scb_spi.h **** *
 985:Generated_Source\PSoC6\pdl\drivers/peripheral/scb/cy_scb_spi.h **** * \note
 986:Generated_Source\PSoC6\pdl\drivers/peripheral/scb/cy_scb_spi.h **** * * The SPI master does not assign the slave select line immediately after
 987:Generated_Source\PSoC6\pdl\drivers/peripheral/scb/cy_scb_spi.h **** *   the first data element is written into the TX FIFO. It takes up to two SCLK
 988:Generated_Source\PSoC6\pdl\drivers/peripheral/scb/cy_scb_spi.h **** *   clocks to assign the slave select line. Before this happens, the bus
 989:Generated_Source\PSoC6\pdl\drivers/peripheral/scb/cy_scb_spi.h **** *   is considered idle.
 990:Generated_Source\PSoC6\pdl\drivers/peripheral/scb/cy_scb_spi.h **** * * If the SPI master is configured to transmit each data element separated by
 991:Generated_Source\PSoC6\pdl\drivers/peripheral/scb/cy_scb_spi.h **** *   a de-assertion of the slave select line, the bus is busy during each element
 992:Generated_Source\PSoC6\pdl\drivers/peripheral/scb/cy_scb_spi.h **** *   transfer and is free between them.
 993:Generated_Source\PSoC6\pdl\drivers/peripheral/scb/cy_scb_spi.h **** *
 994:Generated_Source\PSoC6\pdl\drivers/peripheral/scb/cy_scb_spi.h **** *******************************************************************************/
 995:Generated_Source\PSoC6\pdl\drivers/peripheral/scb/cy_scb_spi.h **** __STATIC_INLINE bool Cy_SCB_SPI_IsBusBusy(CySCB_Type const *base)
 996:Generated_Source\PSoC6\pdl\drivers/peripheral/scb/cy_scb_spi.h **** {
 997:Generated_Source\PSoC6\pdl\drivers/peripheral/scb/cy_scb_spi.h ****     return _FLD2BOOL(SCB_SPI_STATUS_BUS_BUSY, SCB_SPI_STATUS(base));
 998:Generated_Source\PSoC6\pdl\drivers/peripheral/scb/cy_scb_spi.h **** }
 999:Generated_Source\PSoC6\pdl\drivers/peripheral/scb/cy_scb_spi.h **** 
1000:Generated_Source\PSoC6\pdl\drivers/peripheral/scb/cy_scb_spi.h **** 
1001:Generated_Source\PSoC6\pdl\drivers/peripheral/scb/cy_scb_spi.h **** /*******************************************************************************
1002:Generated_Source\PSoC6\pdl\drivers/peripheral/scb/cy_scb_spi.h **** * Function Name: Cy_SCB_SPI_SetActiveSlaveSelect
1003:Generated_Source\PSoC6\pdl\drivers/peripheral/scb/cy_scb_spi.h **** ****************************************************************************//**
1004:Generated_Source\PSoC6\pdl\drivers/peripheral/scb/cy_scb_spi.h **** *
1005:Generated_Source\PSoC6\pdl\drivers/peripheral/scb/cy_scb_spi.h **** * Selects an active slave select line from one of four available.
ARM GAS  C:\Users\Smaug\AppData\Local\Temp\ccJKcizn.s 			page 22


1006:Generated_Source\PSoC6\pdl\drivers/peripheral/scb/cy_scb_spi.h **** * This function is applicable for the master and slave.
1007:Generated_Source\PSoC6\pdl\drivers/peripheral/scb/cy_scb_spi.h **** *
1008:Generated_Source\PSoC6\pdl\drivers/peripheral/scb/cy_scb_spi.h **** * \param base
1009:Generated_Source\PSoC6\pdl\drivers/peripheral/scb/cy_scb_spi.h **** * The pointer to the SPI SCB instance.
1010:Generated_Source\PSoC6\pdl\drivers/peripheral/scb/cy_scb_spi.h **** *
1011:Generated_Source\PSoC6\pdl\drivers/peripheral/scb/cy_scb_spi.h **** * \param slaveSelect
1012:Generated_Source\PSoC6\pdl\drivers/peripheral/scb/cy_scb_spi.h **** * The slave select line number.
1013:Generated_Source\PSoC6\pdl\drivers/peripheral/scb/cy_scb_spi.h **** * See \ref cy_en_scb_spi_slave_select_t for the set of constants.
1014:Generated_Source\PSoC6\pdl\drivers/peripheral/scb/cy_scb_spi.h **** *
1015:Generated_Source\PSoC6\pdl\drivers/peripheral/scb/cy_scb_spi.h **** * \note
1016:Generated_Source\PSoC6\pdl\drivers/peripheral/scb/cy_scb_spi.h **** * The SCB must be idle or disabled before calling this function.
1017:Generated_Source\PSoC6\pdl\drivers/peripheral/scb/cy_scb_spi.h **** *
1018:Generated_Source\PSoC6\pdl\drivers/peripheral/scb/cy_scb_spi.h **** *******************************************************************************/
1019:Generated_Source\PSoC6\pdl\drivers/peripheral/scb/cy_scb_spi.h **** __STATIC_INLINE void Cy_SCB_SPI_SetActiveSlaveSelect(CySCB_Type *base, cy_en_scb_spi_slave_select_t
1020:Generated_Source\PSoC6\pdl\drivers/peripheral/scb/cy_scb_spi.h **** {
1021:Generated_Source\PSoC6\pdl\drivers/peripheral/scb/cy_scb_spi.h ****     CY_ASSERT_L3(CY_SCB_SPI_IS_SLAVE_SEL_VALID(slaveSelect));
1022:Generated_Source\PSoC6\pdl\drivers/peripheral/scb/cy_scb_spi.h **** 
1023:Generated_Source\PSoC6\pdl\drivers/peripheral/scb/cy_scb_spi.h ****     CY_REG32_CLR_SET(SCB_SPI_CTRL(base), SCB_SPI_CTRL_SSEL, (uint32_t) slaveSelect);
1024:Generated_Source\PSoC6\pdl\drivers/peripheral/scb/cy_scb_spi.h **** }
1025:Generated_Source\PSoC6\pdl\drivers/peripheral/scb/cy_scb_spi.h **** 
1026:Generated_Source\PSoC6\pdl\drivers/peripheral/scb/cy_scb_spi.h **** 
1027:Generated_Source\PSoC6\pdl\drivers/peripheral/scb/cy_scb_spi.h **** /*******************************************************************************
1028:Generated_Source\PSoC6\pdl\drivers/peripheral/scb/cy_scb_spi.h **** * Function Name: Cy_SCB_SPI_SetActiveSlaveSelectPolarity
1029:Generated_Source\PSoC6\pdl\drivers/peripheral/scb/cy_scb_spi.h **** ****************************************************************************//**
1030:Generated_Source\PSoC6\pdl\drivers/peripheral/scb/cy_scb_spi.h **** *
1031:Generated_Source\PSoC6\pdl\drivers/peripheral/scb/cy_scb_spi.h **** * Sets the active polarity for the slave select line.
1032:Generated_Source\PSoC6\pdl\drivers/peripheral/scb/cy_scb_spi.h **** *
1033:Generated_Source\PSoC6\pdl\drivers/peripheral/scb/cy_scb_spi.h **** * \param base
1034:Generated_Source\PSoC6\pdl\drivers/peripheral/scb/cy_scb_spi.h **** * The pointer to the SPI SCB instance.
1035:Generated_Source\PSoC6\pdl\drivers/peripheral/scb/cy_scb_spi.h **** *
1036:Generated_Source\PSoC6\pdl\drivers/peripheral/scb/cy_scb_spi.h **** * \param slaveSelect
1037:Generated_Source\PSoC6\pdl\drivers/peripheral/scb/cy_scb_spi.h **** * The slave select line number.
1038:Generated_Source\PSoC6\pdl\drivers/peripheral/scb/cy_scb_spi.h **** * See \ref cy_en_scb_spi_slave_select_t for the set of constants.
1039:Generated_Source\PSoC6\pdl\drivers/peripheral/scb/cy_scb_spi.h **** *
1040:Generated_Source\PSoC6\pdl\drivers/peripheral/scb/cy_scb_spi.h **** * \param polarity
1041:Generated_Source\PSoC6\pdl\drivers/peripheral/scb/cy_scb_spi.h **** * The polarity of the slave select line.
1042:Generated_Source\PSoC6\pdl\drivers/peripheral/scb/cy_scb_spi.h **** * See \ref cy_en_scb_spi_polarity_t for the set of constants.
1043:Generated_Source\PSoC6\pdl\drivers/peripheral/scb/cy_scb_spi.h **** *
1044:Generated_Source\PSoC6\pdl\drivers/peripheral/scb/cy_scb_spi.h **** * \note
1045:Generated_Source\PSoC6\pdl\drivers/peripheral/scb/cy_scb_spi.h **** * The SCB must be idle or disabled before calling this function.
1046:Generated_Source\PSoC6\pdl\drivers/peripheral/scb/cy_scb_spi.h **** *
1047:Generated_Source\PSoC6\pdl\drivers/peripheral/scb/cy_scb_spi.h **** *******************************************************************************/
1048:Generated_Source\PSoC6\pdl\drivers/peripheral/scb/cy_scb_spi.h **** __STATIC_INLINE void Cy_SCB_SPI_SetActiveSlaveSelectPolarity(CySCB_Type *base,
1049:Generated_Source\PSoC6\pdl\drivers/peripheral/scb/cy_scb_spi.h ****                                 cy_en_scb_spi_slave_select_t slaveSelect,
1050:Generated_Source\PSoC6\pdl\drivers/peripheral/scb/cy_scb_spi.h ****                                 cy_en_scb_spi_polarity_t polarity)
1051:Generated_Source\PSoC6\pdl\drivers/peripheral/scb/cy_scb_spi.h **** {
1052:Generated_Source\PSoC6\pdl\drivers/peripheral/scb/cy_scb_spi.h ****     uint32_t mask = _VAL2FLD(CY_SCB_SPI_CTRL_SSEL_POLARITY, (0x01UL << slaveSelect));
1053:Generated_Source\PSoC6\pdl\drivers/peripheral/scb/cy_scb_spi.h **** 
1054:Generated_Source\PSoC6\pdl\drivers/peripheral/scb/cy_scb_spi.h ****     CY_ASSERT_L3(CY_SCB_SPI_IS_SLAVE_SEL_VALID(slaveSelect));
1055:Generated_Source\PSoC6\pdl\drivers/peripheral/scb/cy_scb_spi.h ****     CY_ASSERT_L3(CY_SCB_SPI_IS_POLARITY_VALID (polarity));
1056:Generated_Source\PSoC6\pdl\drivers/peripheral/scb/cy_scb_spi.h **** 
1057:Generated_Source\PSoC6\pdl\drivers/peripheral/scb/cy_scb_spi.h ****     if (CY_SCB_SPI_ACTIVE_HIGH != polarity)
1058:Generated_Source\PSoC6\pdl\drivers/peripheral/scb/cy_scb_spi.h ****     {
1059:Generated_Source\PSoC6\pdl\drivers/peripheral/scb/cy_scb_spi.h ****         SCB_SPI_CTRL(base) |= (uint32_t)  mask;
1060:Generated_Source\PSoC6\pdl\drivers/peripheral/scb/cy_scb_spi.h ****     }
1061:Generated_Source\PSoC6\pdl\drivers/peripheral/scb/cy_scb_spi.h ****     else
1062:Generated_Source\PSoC6\pdl\drivers/peripheral/scb/cy_scb_spi.h ****     {
ARM GAS  C:\Users\Smaug\AppData\Local\Temp\ccJKcizn.s 			page 23


1063:Generated_Source\PSoC6\pdl\drivers/peripheral/scb/cy_scb_spi.h ****         SCB_SPI_CTRL(base) &= (uint32_t) ~mask;
1064:Generated_Source\PSoC6\pdl\drivers/peripheral/scb/cy_scb_spi.h ****     }
1065:Generated_Source\PSoC6\pdl\drivers/peripheral/scb/cy_scb_spi.h **** }
1066:Generated_Source\PSoC6\pdl\drivers/peripheral/scb/cy_scb_spi.h **** /** \} group_scb_spi_general_functions */
1067:Generated_Source\PSoC6\pdl\drivers/peripheral/scb/cy_scb_spi.h **** 
1068:Generated_Source\PSoC6\pdl\drivers/peripheral/scb/cy_scb_spi.h **** 
1069:Generated_Source\PSoC6\pdl\drivers/peripheral/scb/cy_scb_spi.h **** /**
1070:Generated_Source\PSoC6\pdl\drivers/peripheral/scb/cy_scb_spi.h **** * \addtogroup group_scb_spi_low_level_functions
1071:Generated_Source\PSoC6\pdl\drivers/peripheral/scb/cy_scb_spi.h **** * \{
1072:Generated_Source\PSoC6\pdl\drivers/peripheral/scb/cy_scb_spi.h **** */
1073:Generated_Source\PSoC6\pdl\drivers/peripheral/scb/cy_scb_spi.h **** /*******************************************************************************
1074:Generated_Source\PSoC6\pdl\drivers/peripheral/scb/cy_scb_spi.h **** * Function Name: Cy_SCB_SPI_GetRxFifoStatus
1075:Generated_Source\PSoC6\pdl\drivers/peripheral/scb/cy_scb_spi.h **** ****************************************************************************//**
1076:Generated_Source\PSoC6\pdl\drivers/peripheral/scb/cy_scb_spi.h **** *
1077:Generated_Source\PSoC6\pdl\drivers/peripheral/scb/cy_scb_spi.h **** * Returns the current status of the RX FIFO.
1078:Generated_Source\PSoC6\pdl\drivers/peripheral/scb/cy_scb_spi.h **** *
1079:Generated_Source\PSoC6\pdl\drivers/peripheral/scb/cy_scb_spi.h **** * \param base
1080:Generated_Source\PSoC6\pdl\drivers/peripheral/scb/cy_scb_spi.h **** * The pointer to the SPI SCB instance.
1081:Generated_Source\PSoC6\pdl\drivers/peripheral/scb/cy_scb_spi.h **** *
1082:Generated_Source\PSoC6\pdl\drivers/peripheral/scb/cy_scb_spi.h **** * \return
1083:Generated_Source\PSoC6\pdl\drivers/peripheral/scb/cy_scb_spi.h **** * \ref group_scb_spi_macros_rx_fifo_status
1084:Generated_Source\PSoC6\pdl\drivers/peripheral/scb/cy_scb_spi.h **** *
1085:Generated_Source\PSoC6\pdl\drivers/peripheral/scb/cy_scb_spi.h **** *******************************************************************************/
1086:Generated_Source\PSoC6\pdl\drivers/peripheral/scb/cy_scb_spi.h **** __STATIC_INLINE uint32_t Cy_SCB_SPI_GetRxFifoStatus(CySCB_Type const *base)
1087:Generated_Source\PSoC6\pdl\drivers/peripheral/scb/cy_scb_spi.h **** {
1088:Generated_Source\PSoC6\pdl\drivers/peripheral/scb/cy_scb_spi.h ****     return (Cy_SCB_GetRxInterruptStatus(base) & CY_SCB_SPI_RX_INTR_MASK);
1089:Generated_Source\PSoC6\pdl\drivers/peripheral/scb/cy_scb_spi.h **** }
1090:Generated_Source\PSoC6\pdl\drivers/peripheral/scb/cy_scb_spi.h **** 
1091:Generated_Source\PSoC6\pdl\drivers/peripheral/scb/cy_scb_spi.h **** 
1092:Generated_Source\PSoC6\pdl\drivers/peripheral/scb/cy_scb_spi.h **** /*******************************************************************************
1093:Generated_Source\PSoC6\pdl\drivers/peripheral/scb/cy_scb_spi.h **** * Function Name: Cy_SCB_SPI_ClearRxFifoStatus
1094:Generated_Source\PSoC6\pdl\drivers/peripheral/scb/cy_scb_spi.h **** ****************************************************************************//**
1095:Generated_Source\PSoC6\pdl\drivers/peripheral/scb/cy_scb_spi.h **** *
1096:Generated_Source\PSoC6\pdl\drivers/peripheral/scb/cy_scb_spi.h **** * Clears the selected statuses of the RX FIFO.
1097:Generated_Source\PSoC6\pdl\drivers/peripheral/scb/cy_scb_spi.h **** *
1098:Generated_Source\PSoC6\pdl\drivers/peripheral/scb/cy_scb_spi.h **** * \param base
1099:Generated_Source\PSoC6\pdl\drivers/peripheral/scb/cy_scb_spi.h **** * The pointer to the SPI SCB instance.
1100:Generated_Source\PSoC6\pdl\drivers/peripheral/scb/cy_scb_spi.h **** *
1101:Generated_Source\PSoC6\pdl\drivers/peripheral/scb/cy_scb_spi.h **** * \param clearMask
1102:Generated_Source\PSoC6\pdl\drivers/peripheral/scb/cy_scb_spi.h **** * The mask of which statuses to clear.
1103:Generated_Source\PSoC6\pdl\drivers/peripheral/scb/cy_scb_spi.h **** * See \ref group_scb_spi_macros_rx_fifo_status for the set of constants.
1104:Generated_Source\PSoC6\pdl\drivers/peripheral/scb/cy_scb_spi.h **** *
1105:Generated_Source\PSoC6\pdl\drivers/peripheral/scb/cy_scb_spi.h **** * \note
1106:Generated_Source\PSoC6\pdl\drivers/peripheral/scb/cy_scb_spi.h **** * * This status is also used for interrupt generation, so clearing it also
1107:Generated_Source\PSoC6\pdl\drivers/peripheral/scb/cy_scb_spi.h **** *   clears the interrupt sources.
1108:Generated_Source\PSoC6\pdl\drivers/peripheral/scb/cy_scb_spi.h **** * * Level sensitive statuses such as \ref CY_SCB_SPI_RX_TRIGGER,
1109:Generated_Source\PSoC6\pdl\drivers/peripheral/scb/cy_scb_spi.h **** *   \ref CY_SCB_SPI_RX_NOT_EMPTY and \ref CY_SCB_SPI_RX_FULL set high again after
1110:Generated_Source\PSoC6\pdl\drivers/peripheral/scb/cy_scb_spi.h **** *   being cleared if the condition remains true.
1111:Generated_Source\PSoC6\pdl\drivers/peripheral/scb/cy_scb_spi.h **** *
1112:Generated_Source\PSoC6\pdl\drivers/peripheral/scb/cy_scb_spi.h **** *******************************************************************************/
1113:Generated_Source\PSoC6\pdl\drivers/peripheral/scb/cy_scb_spi.h **** __STATIC_INLINE void Cy_SCB_SPI_ClearRxFifoStatus(CySCB_Type *base, uint32_t clearMask)
1114:Generated_Source\PSoC6\pdl\drivers/peripheral/scb/cy_scb_spi.h **** {
1115:Generated_Source\PSoC6\pdl\drivers/peripheral/scb/cy_scb_spi.h ****     CY_ASSERT_L2(CY_SCB_IS_INTR_VALID(clearMask, CY_SCB_SPI_RX_INTR_MASK));
1116:Generated_Source\PSoC6\pdl\drivers/peripheral/scb/cy_scb_spi.h **** 
1117:Generated_Source\PSoC6\pdl\drivers/peripheral/scb/cy_scb_spi.h ****     Cy_SCB_ClearRxInterrupt(base, clearMask);
1118:Generated_Source\PSoC6\pdl\drivers/peripheral/scb/cy_scb_spi.h **** }
1119:Generated_Source\PSoC6\pdl\drivers/peripheral/scb/cy_scb_spi.h **** 
ARM GAS  C:\Users\Smaug\AppData\Local\Temp\ccJKcizn.s 			page 24


1120:Generated_Source\PSoC6\pdl\drivers/peripheral/scb/cy_scb_spi.h **** 
1121:Generated_Source\PSoC6\pdl\drivers/peripheral/scb/cy_scb_spi.h **** /*******************************************************************************
1122:Generated_Source\PSoC6\pdl\drivers/peripheral/scb/cy_scb_spi.h **** * Function Name: Cy_SCB_SPI_GetNumInRxFifo
1123:Generated_Source\PSoC6\pdl\drivers/peripheral/scb/cy_scb_spi.h **** ****************************************************************************//**
1124:Generated_Source\PSoC6\pdl\drivers/peripheral/scb/cy_scb_spi.h **** *
1125:Generated_Source\PSoC6\pdl\drivers/peripheral/scb/cy_scb_spi.h **** * Returns the number of data elements in the SPI RX FIFO.
1126:Generated_Source\PSoC6\pdl\drivers/peripheral/scb/cy_scb_spi.h **** *
1127:Generated_Source\PSoC6\pdl\drivers/peripheral/scb/cy_scb_spi.h **** * \param base
1128:Generated_Source\PSoC6\pdl\drivers/peripheral/scb/cy_scb_spi.h **** * The pointer to the SPI SCB instance.
1129:Generated_Source\PSoC6\pdl\drivers/peripheral/scb/cy_scb_spi.h **** *
1130:Generated_Source\PSoC6\pdl\drivers/peripheral/scb/cy_scb_spi.h **** * \return
1131:Generated_Source\PSoC6\pdl\drivers/peripheral/scb/cy_scb_spi.h **** * The number of data elements in the RX FIFO.
1132:Generated_Source\PSoC6\pdl\drivers/peripheral/scb/cy_scb_spi.h **** * The size of a data element defined by the configured RX data width.
1133:Generated_Source\PSoC6\pdl\drivers/peripheral/scb/cy_scb_spi.h **** *
1134:Generated_Source\PSoC6\pdl\drivers/peripheral/scb/cy_scb_spi.h **** * \note
1135:Generated_Source\PSoC6\pdl\drivers/peripheral/scb/cy_scb_spi.h **** * This number does not include any data currently in the RX shifter.
1136:Generated_Source\PSoC6\pdl\drivers/peripheral/scb/cy_scb_spi.h **** *
1137:Generated_Source\PSoC6\pdl\drivers/peripheral/scb/cy_scb_spi.h **** *******************************************************************************/
1138:Generated_Source\PSoC6\pdl\drivers/peripheral/scb/cy_scb_spi.h **** __STATIC_INLINE uint32_t Cy_SCB_SPI_GetNumInRxFifo(CySCB_Type const *base)
1139:Generated_Source\PSoC6\pdl\drivers/peripheral/scb/cy_scb_spi.h **** {
1140:Generated_Source\PSoC6\pdl\drivers/peripheral/scb/cy_scb_spi.h ****     return Cy_SCB_GetNumInRxFifo(base);
1141:Generated_Source\PSoC6\pdl\drivers/peripheral/scb/cy_scb_spi.h **** }
1142:Generated_Source\PSoC6\pdl\drivers/peripheral/scb/cy_scb_spi.h **** 
1143:Generated_Source\PSoC6\pdl\drivers/peripheral/scb/cy_scb_spi.h **** 
1144:Generated_Source\PSoC6\pdl\drivers/peripheral/scb/cy_scb_spi.h **** /*******************************************************************************
1145:Generated_Source\PSoC6\pdl\drivers/peripheral/scb/cy_scb_spi.h **** * Function Name: Cy_SCB_SPI_ClearRxFifo
1146:Generated_Source\PSoC6\pdl\drivers/peripheral/scb/cy_scb_spi.h **** ****************************************************************************//**
1147:Generated_Source\PSoC6\pdl\drivers/peripheral/scb/cy_scb_spi.h **** *
1148:Generated_Source\PSoC6\pdl\drivers/peripheral/scb/cy_scb_spi.h **** * Clears all data out of the SPI RX FIFO.
1149:Generated_Source\PSoC6\pdl\drivers/peripheral/scb/cy_scb_spi.h **** *
1150:Generated_Source\PSoC6\pdl\drivers/peripheral/scb/cy_scb_spi.h **** * \param base
1151:Generated_Source\PSoC6\pdl\drivers/peripheral/scb/cy_scb_spi.h **** * The pointer to the SPI SCB instance.
1152:Generated_Source\PSoC6\pdl\drivers/peripheral/scb/cy_scb_spi.h **** *
1153:Generated_Source\PSoC6\pdl\drivers/peripheral/scb/cy_scb_spi.h **** * \sideeffect
1154:Generated_Source\PSoC6\pdl\drivers/peripheral/scb/cy_scb_spi.h **** * Any data currently in the shifter is cleared and lost.
1155:Generated_Source\PSoC6\pdl\drivers/peripheral/scb/cy_scb_spi.h **** *
1156:Generated_Source\PSoC6\pdl\drivers/peripheral/scb/cy_scb_spi.h **** *******************************************************************************/
1157:Generated_Source\PSoC6\pdl\drivers/peripheral/scb/cy_scb_spi.h **** __STATIC_INLINE void Cy_SCB_SPI_ClearRxFifo(CySCB_Type *base)
1158:Generated_Source\PSoC6\pdl\drivers/peripheral/scb/cy_scb_spi.h **** {
1159:Generated_Source\PSoC6\pdl\drivers/peripheral/scb/cy_scb_spi.h ****     Cy_SCB_ClearRxFifo(base);
1160:Generated_Source\PSoC6\pdl\drivers/peripheral/scb/cy_scb_spi.h **** }
1161:Generated_Source\PSoC6\pdl\drivers/peripheral/scb/cy_scb_spi.h **** 
1162:Generated_Source\PSoC6\pdl\drivers/peripheral/scb/cy_scb_spi.h **** 
1163:Generated_Source\PSoC6\pdl\drivers/peripheral/scb/cy_scb_spi.h **** /*******************************************************************************
1164:Generated_Source\PSoC6\pdl\drivers/peripheral/scb/cy_scb_spi.h **** * Function Name: Cy_SCB_SPI_GetTxFifoStatus
1165:Generated_Source\PSoC6\pdl\drivers/peripheral/scb/cy_scb_spi.h **** ****************************************************************************//**
1166:Generated_Source\PSoC6\pdl\drivers/peripheral/scb/cy_scb_spi.h **** *
1167:Generated_Source\PSoC6\pdl\drivers/peripheral/scb/cy_scb_spi.h **** * Returns the current status of the TX FIFO.
1168:Generated_Source\PSoC6\pdl\drivers/peripheral/scb/cy_scb_spi.h **** *
1169:Generated_Source\PSoC6\pdl\drivers/peripheral/scb/cy_scb_spi.h **** * \param base
1170:Generated_Source\PSoC6\pdl\drivers/peripheral/scb/cy_scb_spi.h **** * The pointer to the SPI SCB instance.
1171:Generated_Source\PSoC6\pdl\drivers/peripheral/scb/cy_scb_spi.h **** *
1172:Generated_Source\PSoC6\pdl\drivers/peripheral/scb/cy_scb_spi.h **** * \return
1173:Generated_Source\PSoC6\pdl\drivers/peripheral/scb/cy_scb_spi.h **** * \ref group_scb_spi_macros_tx_fifo_status
1174:Generated_Source\PSoC6\pdl\drivers/peripheral/scb/cy_scb_spi.h **** *
1175:Generated_Source\PSoC6\pdl\drivers/peripheral/scb/cy_scb_spi.h **** *******************************************************************************/
1176:Generated_Source\PSoC6\pdl\drivers/peripheral/scb/cy_scb_spi.h **** __STATIC_INLINE uint32_t Cy_SCB_SPI_GetTxFifoStatus(CySCB_Type const *base)
ARM GAS  C:\Users\Smaug\AppData\Local\Temp\ccJKcizn.s 			page 25


1177:Generated_Source\PSoC6\pdl\drivers/peripheral/scb/cy_scb_spi.h **** {
1178:Generated_Source\PSoC6\pdl\drivers/peripheral/scb/cy_scb_spi.h ****     return (Cy_SCB_GetTxInterruptStatus(base) & CY_SCB_SPI_TX_INTR_MASK);
1179:Generated_Source\PSoC6\pdl\drivers/peripheral/scb/cy_scb_spi.h **** }
1180:Generated_Source\PSoC6\pdl\drivers/peripheral/scb/cy_scb_spi.h **** 
1181:Generated_Source\PSoC6\pdl\drivers/peripheral/scb/cy_scb_spi.h **** 
1182:Generated_Source\PSoC6\pdl\drivers/peripheral/scb/cy_scb_spi.h **** /*******************************************************************************
1183:Generated_Source\PSoC6\pdl\drivers/peripheral/scb/cy_scb_spi.h **** * Function Name: Cy_SCB_SPI_ClearTxFifoStatus
1184:Generated_Source\PSoC6\pdl\drivers/peripheral/scb/cy_scb_spi.h **** ****************************************************************************//**
1185:Generated_Source\PSoC6\pdl\drivers/peripheral/scb/cy_scb_spi.h **** *
1186:Generated_Source\PSoC6\pdl\drivers/peripheral/scb/cy_scb_spi.h **** * Clears the selected statuses of the TX FIFO.
1187:Generated_Source\PSoC6\pdl\drivers/peripheral/scb/cy_scb_spi.h **** *
1188:Generated_Source\PSoC6\pdl\drivers/peripheral/scb/cy_scb_spi.h **** * \param base
1189:Generated_Source\PSoC6\pdl\drivers/peripheral/scb/cy_scb_spi.h **** * The pointer to the SPI SCB instance.
1190:Generated_Source\PSoC6\pdl\drivers/peripheral/scb/cy_scb_spi.h **** *
1191:Generated_Source\PSoC6\pdl\drivers/peripheral/scb/cy_scb_spi.h **** * \param clearMask
1192:Generated_Source\PSoC6\pdl\drivers/peripheral/scb/cy_scb_spi.h **** * The mask of which statuses to clear.
1193:Generated_Source\PSoC6\pdl\drivers/peripheral/scb/cy_scb_spi.h **** * See \ref group_scb_spi_macros_tx_fifo_status for the set of constants.
1194:Generated_Source\PSoC6\pdl\drivers/peripheral/scb/cy_scb_spi.h **** *
1195:Generated_Source\PSoC6\pdl\drivers/peripheral/scb/cy_scb_spi.h **** * \note
1196:Generated_Source\PSoC6\pdl\drivers/peripheral/scb/cy_scb_spi.h **** * * The status is also used for interrupt generation, so clearing it also
1197:Generated_Source\PSoC6\pdl\drivers/peripheral/scb/cy_scb_spi.h **** *   clears the interrupt sources.
1198:Generated_Source\PSoC6\pdl\drivers/peripheral/scb/cy_scb_spi.h **** * * Level sensitive statuses such as \ref CY_SCB_SPI_TX_TRIGGER,
1199:Generated_Source\PSoC6\pdl\drivers/peripheral/scb/cy_scb_spi.h **** *   \ref CY_SCB_SPI_TX_EMPTY and \ref CY_SCB_SPI_TX_NOT_FULL set high again after
1200:Generated_Source\PSoC6\pdl\drivers/peripheral/scb/cy_scb_spi.h **** *   being cleared if the condition remains true.
1201:Generated_Source\PSoC6\pdl\drivers/peripheral/scb/cy_scb_spi.h **** *
1202:Generated_Source\PSoC6\pdl\drivers/peripheral/scb/cy_scb_spi.h **** *******************************************************************************/
1203:Generated_Source\PSoC6\pdl\drivers/peripheral/scb/cy_scb_spi.h **** __STATIC_INLINE void Cy_SCB_SPI_ClearTxFifoStatus(CySCB_Type *base, uint32_t clearMask)
1204:Generated_Source\PSoC6\pdl\drivers/peripheral/scb/cy_scb_spi.h **** {
1205:Generated_Source\PSoC6\pdl\drivers/peripheral/scb/cy_scb_spi.h ****     CY_ASSERT_L2(CY_SCB_IS_INTR_VALID(clearMask, CY_SCB_SPI_TX_INTR_MASK));
1206:Generated_Source\PSoC6\pdl\drivers/peripheral/scb/cy_scb_spi.h **** 
1207:Generated_Source\PSoC6\pdl\drivers/peripheral/scb/cy_scb_spi.h ****     Cy_SCB_ClearTxInterrupt(base, clearMask);
1208:Generated_Source\PSoC6\pdl\drivers/peripheral/scb/cy_scb_spi.h **** }
1209:Generated_Source\PSoC6\pdl\drivers/peripheral/scb/cy_scb_spi.h **** 
1210:Generated_Source\PSoC6\pdl\drivers/peripheral/scb/cy_scb_spi.h **** 
1211:Generated_Source\PSoC6\pdl\drivers/peripheral/scb/cy_scb_spi.h **** /*******************************************************************************
1212:Generated_Source\PSoC6\pdl\drivers/peripheral/scb/cy_scb_spi.h **** * Function Name: Cy_SCB_SPI_GetNumInTxFifo
1213:Generated_Source\PSoC6\pdl\drivers/peripheral/scb/cy_scb_spi.h **** ****************************************************************************//**
1214:Generated_Source\PSoC6\pdl\drivers/peripheral/scb/cy_scb_spi.h **** *
1215:Generated_Source\PSoC6\pdl\drivers/peripheral/scb/cy_scb_spi.h **** * Returns the number of data elements in the SPI TX FIFO.
1216:Generated_Source\PSoC6\pdl\drivers/peripheral/scb/cy_scb_spi.h **** *
1217:Generated_Source\PSoC6\pdl\drivers/peripheral/scb/cy_scb_spi.h **** * \param base
1218:Generated_Source\PSoC6\pdl\drivers/peripheral/scb/cy_scb_spi.h **** * The pointer to the SPI SCB instance.
1219:Generated_Source\PSoC6\pdl\drivers/peripheral/scb/cy_scb_spi.h **** *
1220:Generated_Source\PSoC6\pdl\drivers/peripheral/scb/cy_scb_spi.h **** * \return
1221:Generated_Source\PSoC6\pdl\drivers/peripheral/scb/cy_scb_spi.h **** * The number of data elements in the TX FIFO.
1222:Generated_Source\PSoC6\pdl\drivers/peripheral/scb/cy_scb_spi.h **** * The size of a data element defined by the configured TX data width.
1223:Generated_Source\PSoC6\pdl\drivers/peripheral/scb/cy_scb_spi.h **** *
1224:Generated_Source\PSoC6\pdl\drivers/peripheral/scb/cy_scb_spi.h **** * \note
1225:Generated_Source\PSoC6\pdl\drivers/peripheral/scb/cy_scb_spi.h **** * This number does not include any data currently in the TX shifter.
1226:Generated_Source\PSoC6\pdl\drivers/peripheral/scb/cy_scb_spi.h **** *
1227:Generated_Source\PSoC6\pdl\drivers/peripheral/scb/cy_scb_spi.h **** *******************************************************************************/
1228:Generated_Source\PSoC6\pdl\drivers/peripheral/scb/cy_scb_spi.h **** __STATIC_INLINE uint32_t Cy_SCB_SPI_GetNumInTxFifo(CySCB_Type const *base)
1229:Generated_Source\PSoC6\pdl\drivers/peripheral/scb/cy_scb_spi.h **** {
1230:Generated_Source\PSoC6\pdl\drivers/peripheral/scb/cy_scb_spi.h ****     return Cy_SCB_GetNumInTxFifo(base);
1231:Generated_Source\PSoC6\pdl\drivers/peripheral/scb/cy_scb_spi.h **** }
1232:Generated_Source\PSoC6\pdl\drivers/peripheral/scb/cy_scb_spi.h **** 
1233:Generated_Source\PSoC6\pdl\drivers/peripheral/scb/cy_scb_spi.h **** 
ARM GAS  C:\Users\Smaug\AppData\Local\Temp\ccJKcizn.s 			page 26


1234:Generated_Source\PSoC6\pdl\drivers/peripheral/scb/cy_scb_spi.h **** /*******************************************************************************
1235:Generated_Source\PSoC6\pdl\drivers/peripheral/scb/cy_scb_spi.h **** * Function Name: Cy_SCB_SPI_IsTxComplete
1236:Generated_Source\PSoC6\pdl\drivers/peripheral/scb/cy_scb_spi.h **** ****************************************************************************//**
1237:Generated_Source\PSoC6\pdl\drivers/peripheral/scb/cy_scb_spi.h **** *
1238:Generated_Source\PSoC6\pdl\drivers/peripheral/scb/cy_scb_spi.h **** * Checks whether the TX FIFO and Shifter are empty and there is no more data to send
1239:Generated_Source\PSoC6\pdl\drivers/peripheral/scb/cy_scb_spi.h **** *
1240:Generated_Source\PSoC6\pdl\drivers/peripheral/scb/cy_scb_spi.h **** * \param base
1241:Generated_Source\PSoC6\pdl\drivers/peripheral/scb/cy_scb_spi.h **** * Pointer to the SPI SCB instance.
1242:Generated_Source\PSoC6\pdl\drivers/peripheral/scb/cy_scb_spi.h **** *
1243:Generated_Source\PSoC6\pdl\drivers/peripheral/scb/cy_scb_spi.h **** * \return
1244:Generated_Source\PSoC6\pdl\drivers/peripheral/scb/cy_scb_spi.h **** * If true, transmission complete. If false, transmission is not complete.
1245:Generated_Source\PSoC6\pdl\drivers/peripheral/scb/cy_scb_spi.h **** *
1246:Generated_Source\PSoC6\pdl\drivers/peripheral/scb/cy_scb_spi.h **** *******************************************************************************/
1247:Generated_Source\PSoC6\pdl\drivers/peripheral/scb/cy_scb_spi.h **** __STATIC_INLINE bool Cy_SCB_SPI_IsTxComplete(CySCB_Type const *base)
1248:Generated_Source\PSoC6\pdl\drivers/peripheral/scb/cy_scb_spi.h **** {
1249:Generated_Source\PSoC6\pdl\drivers/peripheral/scb/cy_scb_spi.h ****     return Cy_SCB_IsTxComplete(base);
1250:Generated_Source\PSoC6\pdl\drivers/peripheral/scb/cy_scb_spi.h **** }
1251:Generated_Source\PSoC6\pdl\drivers/peripheral/scb/cy_scb_spi.h **** 
1252:Generated_Source\PSoC6\pdl\drivers/peripheral/scb/cy_scb_spi.h **** 
1253:Generated_Source\PSoC6\pdl\drivers/peripheral/scb/cy_scb_spi.h **** /*******************************************************************************
1254:Generated_Source\PSoC6\pdl\drivers/peripheral/scb/cy_scb_spi.h **** * Function Name: Cy_SCB_SPI_ClearTxFifo
1255:Generated_Source\PSoC6\pdl\drivers/peripheral/scb/cy_scb_spi.h **** ****************************************************************************//**
1256:Generated_Source\PSoC6\pdl\drivers/peripheral/scb/cy_scb_spi.h **** *
1257:Generated_Source\PSoC6\pdl\drivers/peripheral/scb/cy_scb_spi.h **** * Clears all data out of the SPI TX FIFO.
1258:Generated_Source\PSoC6\pdl\drivers/peripheral/scb/cy_scb_spi.h **** *
1259:Generated_Source\PSoC6\pdl\drivers/peripheral/scb/cy_scb_spi.h **** * \param base
1260:Generated_Source\PSoC6\pdl\drivers/peripheral/scb/cy_scb_spi.h **** * The pointer to the SPI SCB instance.
1261:Generated_Source\PSoC6\pdl\drivers/peripheral/scb/cy_scb_spi.h **** *
1262:Generated_Source\PSoC6\pdl\drivers/peripheral/scb/cy_scb_spi.h **** * \sideeffect
1263:Generated_Source\PSoC6\pdl\drivers/peripheral/scb/cy_scb_spi.h **** * The TX FIFO clear operation also clears the shift register;
1264:Generated_Source\PSoC6\pdl\drivers/peripheral/scb/cy_scb_spi.h **** * the shifter can be cleared in the middle of a data element transfer,
1265:Generated_Source\PSoC6\pdl\drivers/peripheral/scb/cy_scb_spi.h **** * corrupting it. The data element corruption means that all bits that have
1266:Generated_Source\PSoC6\pdl\drivers/peripheral/scb/cy_scb_spi.h **** * not been transmitted are transmitted as 1s on the bus.
1267:Generated_Source\PSoC6\pdl\drivers/peripheral/scb/cy_scb_spi.h **** *
1268:Generated_Source\PSoC6\pdl\drivers/peripheral/scb/cy_scb_spi.h **** *******************************************************************************/
1269:Generated_Source\PSoC6\pdl\drivers/peripheral/scb/cy_scb_spi.h **** __STATIC_INLINE void Cy_SCB_SPI_ClearTxFifo(CySCB_Type *base)
1270:Generated_Source\PSoC6\pdl\drivers/peripheral/scb/cy_scb_spi.h **** {
1271:Generated_Source\PSoC6\pdl\drivers/peripheral/scb/cy_scb_spi.h ****     Cy_SCB_ClearTxFifo(base);
1272:Generated_Source\PSoC6\pdl\drivers/peripheral/scb/cy_scb_spi.h **** }
1273:Generated_Source\PSoC6\pdl\drivers/peripheral/scb/cy_scb_spi.h **** 
1274:Generated_Source\PSoC6\pdl\drivers/peripheral/scb/cy_scb_spi.h **** 
1275:Generated_Source\PSoC6\pdl\drivers/peripheral/scb/cy_scb_spi.h **** /*******************************************************************************
1276:Generated_Source\PSoC6\pdl\drivers/peripheral/scb/cy_scb_spi.h **** * Function Name: Cy_SCB_SPI_GetSlaveMasterStatus
1277:Generated_Source\PSoC6\pdl\drivers/peripheral/scb/cy_scb_spi.h **** ****************************************************************************//**
1278:Generated_Source\PSoC6\pdl\drivers/peripheral/scb/cy_scb_spi.h **** *
1279:Generated_Source\PSoC6\pdl\drivers/peripheral/scb/cy_scb_spi.h **** * Returns the current status of either the slave or the master, depending
1280:Generated_Source\PSoC6\pdl\drivers/peripheral/scb/cy_scb_spi.h **** * on the configured SPI mode.
1281:Generated_Source\PSoC6\pdl\drivers/peripheral/scb/cy_scb_spi.h **** *
1282:Generated_Source\PSoC6\pdl\drivers/peripheral/scb/cy_scb_spi.h **** * \param base
1283:Generated_Source\PSoC6\pdl\drivers/peripheral/scb/cy_scb_spi.h **** * The pointer to the SPI SCB instance.
1284:Generated_Source\PSoC6\pdl\drivers/peripheral/scb/cy_scb_spi.h **** *
1285:Generated_Source\PSoC6\pdl\drivers/peripheral/scb/cy_scb_spi.h **** * \return
1286:Generated_Source\PSoC6\pdl\drivers/peripheral/scb/cy_scb_spi.h **** * \ref group_scb_spi_macros_master_slave_status
1287:Generated_Source\PSoC6\pdl\drivers/peripheral/scb/cy_scb_spi.h **** *
1288:Generated_Source\PSoC6\pdl\drivers/peripheral/scb/cy_scb_spi.h **** *******************************************************************************/
1289:Generated_Source\PSoC6\pdl\drivers/peripheral/scb/cy_scb_spi.h **** __STATIC_INLINE uint32_t Cy_SCB_SPI_GetSlaveMasterStatus(CySCB_Type const *base)
1290:Generated_Source\PSoC6\pdl\drivers/peripheral/scb/cy_scb_spi.h **** {
ARM GAS  C:\Users\Smaug\AppData\Local\Temp\ccJKcizn.s 			page 27


1291:Generated_Source\PSoC6\pdl\drivers/peripheral/scb/cy_scb_spi.h ****     uint32_t retStatus;
1292:Generated_Source\PSoC6\pdl\drivers/peripheral/scb/cy_scb_spi.h **** 
1293:Generated_Source\PSoC6\pdl\drivers/peripheral/scb/cy_scb_spi.h ****     if (_FLD2BOOL(SCB_SPI_CTRL_MASTER_MODE, SCB_SPI_CTRL(base)))
1294:Generated_Source\PSoC6\pdl\drivers/peripheral/scb/cy_scb_spi.h ****     {
1295:Generated_Source\PSoC6\pdl\drivers/peripheral/scb/cy_scb_spi.h ****         retStatus = (Cy_SCB_GetMasterInterruptStatus(base) & CY_SCB_MASTER_INTR_SPI_DONE);
1296:Generated_Source\PSoC6\pdl\drivers/peripheral/scb/cy_scb_spi.h ****     }
1297:Generated_Source\PSoC6\pdl\drivers/peripheral/scb/cy_scb_spi.h ****     else
1298:Generated_Source\PSoC6\pdl\drivers/peripheral/scb/cy_scb_spi.h ****     {
1299:Generated_Source\PSoC6\pdl\drivers/peripheral/scb/cy_scb_spi.h ****         retStatus = (Cy_SCB_GetSlaveInterruptStatus(base) & CY_SCB_SLAVE_INTR_SPI_BUS_ERROR);
1300:Generated_Source\PSoC6\pdl\drivers/peripheral/scb/cy_scb_spi.h ****     }
1301:Generated_Source\PSoC6\pdl\drivers/peripheral/scb/cy_scb_spi.h **** 
1302:Generated_Source\PSoC6\pdl\drivers/peripheral/scb/cy_scb_spi.h ****     return (retStatus);
1303:Generated_Source\PSoC6\pdl\drivers/peripheral/scb/cy_scb_spi.h **** }
1304:Generated_Source\PSoC6\pdl\drivers/peripheral/scb/cy_scb_spi.h **** 
1305:Generated_Source\PSoC6\pdl\drivers/peripheral/scb/cy_scb_spi.h **** 
1306:Generated_Source\PSoC6\pdl\drivers/peripheral/scb/cy_scb_spi.h **** /*******************************************************************************
1307:Generated_Source\PSoC6\pdl\drivers/peripheral/scb/cy_scb_spi.h **** * Function Name: Cy_SCB_SPI_ClearSlaveMasterStatus
1308:Generated_Source\PSoC6\pdl\drivers/peripheral/scb/cy_scb_spi.h **** ****************************************************************************//**
1309:Generated_Source\PSoC6\pdl\drivers/peripheral/scb/cy_scb_spi.h **** *
1310:Generated_Source\PSoC6\pdl\drivers/peripheral/scb/cy_scb_spi.h **** * Clears the selected statuses of either the slave or the master.
1311:Generated_Source\PSoC6\pdl\drivers/peripheral/scb/cy_scb_spi.h **** *
1312:Generated_Source\PSoC6\pdl\drivers/peripheral/scb/cy_scb_spi.h **** * \param base
1313:Generated_Source\PSoC6\pdl\drivers/peripheral/scb/cy_scb_spi.h **** * The pointer to the SPI SCB instance.
1314:Generated_Source\PSoC6\pdl\drivers/peripheral/scb/cy_scb_spi.h **** *
1315:Generated_Source\PSoC6\pdl\drivers/peripheral/scb/cy_scb_spi.h **** * \param clearMask
1316:Generated_Source\PSoC6\pdl\drivers/peripheral/scb/cy_scb_spi.h **** * The mask of which statuses to clear.
1317:Generated_Source\PSoC6\pdl\drivers/peripheral/scb/cy_scb_spi.h **** * See \ref group_scb_spi_macros_master_slave_status for the set of constants.
1318:Generated_Source\PSoC6\pdl\drivers/peripheral/scb/cy_scb_spi.h **** *
1319:Generated_Source\PSoC6\pdl\drivers/peripheral/scb/cy_scb_spi.h **** *******************************************************************************/
1320:Generated_Source\PSoC6\pdl\drivers/peripheral/scb/cy_scb_spi.h **** __STATIC_INLINE void Cy_SCB_SPI_ClearSlaveMasterStatus(CySCB_Type *base, uint32_t clearMask)
1321:Generated_Source\PSoC6\pdl\drivers/peripheral/scb/cy_scb_spi.h **** {
1322:Generated_Source\PSoC6\pdl\drivers/peripheral/scb/cy_scb_spi.h ****     if (_FLD2BOOL(SCB_SPI_CTRL_MASTER_MODE, SCB_SPI_CTRL(base)))
1323:Generated_Source\PSoC6\pdl\drivers/peripheral/scb/cy_scb_spi.h ****     {
1324:Generated_Source\PSoC6\pdl\drivers/peripheral/scb/cy_scb_spi.h ****         CY_ASSERT_L2(CY_SCB_IS_INTR_VALID(clearMask, CY_SCB_MASTER_INTR_SPI_DONE));
1325:Generated_Source\PSoC6\pdl\drivers/peripheral/scb/cy_scb_spi.h **** 
1326:Generated_Source\PSoC6\pdl\drivers/peripheral/scb/cy_scb_spi.h ****         Cy_SCB_ClearMasterInterrupt(base, clearMask);
1327:Generated_Source\PSoC6\pdl\drivers/peripheral/scb/cy_scb_spi.h ****     }
1328:Generated_Source\PSoC6\pdl\drivers/peripheral/scb/cy_scb_spi.h ****     else
1329:Generated_Source\PSoC6\pdl\drivers/peripheral/scb/cy_scb_spi.h ****     {
1330:Generated_Source\PSoC6\pdl\drivers/peripheral/scb/cy_scb_spi.h ****         CY_ASSERT_L2(CY_SCB_IS_INTR_VALID(clearMask, CY_SCB_SLAVE_INTR_SPI_BUS_ERROR));
1331:Generated_Source\PSoC6\pdl\drivers/peripheral/scb/cy_scb_spi.h **** 
1332:Generated_Source\PSoC6\pdl\drivers/peripheral/scb/cy_scb_spi.h ****         Cy_SCB_ClearSlaveInterrupt(base, clearMask);
1333:Generated_Source\PSoC6\pdl\drivers/peripheral/scb/cy_scb_spi.h ****     }
1334:Generated_Source\PSoC6\pdl\drivers/peripheral/scb/cy_scb_spi.h **** }
1335:Generated_Source\PSoC6\pdl\drivers/peripheral/scb/cy_scb_spi.h **** 
1336:Generated_Source\PSoC6\pdl\drivers/peripheral/scb/cy_scb_spi.h **** 
1337:Generated_Source\PSoC6\pdl\drivers/peripheral/scb/cy_scb_spi.h **** /*******************************************************************************
1338:Generated_Source\PSoC6\pdl\drivers/peripheral/scb/cy_scb_spi.h **** * Function Name: Cy_SCB_SPI_Read
1339:Generated_Source\PSoC6\pdl\drivers/peripheral/scb/cy_scb_spi.h **** ****************************************************************************//**
1340:Generated_Source\PSoC6\pdl\drivers/peripheral/scb/cy_scb_spi.h **** *
1341:Generated_Source\PSoC6\pdl\drivers/peripheral/scb/cy_scb_spi.h **** * Reads a single data element from the SPI RX FIFO.
1342:Generated_Source\PSoC6\pdl\drivers/peripheral/scb/cy_scb_spi.h **** * This function does not check whether the RX FIFO has data before reading it.
1343:Generated_Source\PSoC6\pdl\drivers/peripheral/scb/cy_scb_spi.h **** * If the RX FIFO is empty, the function returns \ref CY_SCB_SPI_RX_NO_DATA.
1344:Generated_Source\PSoC6\pdl\drivers/peripheral/scb/cy_scb_spi.h **** *
1345:Generated_Source\PSoC6\pdl\drivers/peripheral/scb/cy_scb_spi.h **** * \param base
1346:Generated_Source\PSoC6\pdl\drivers/peripheral/scb/cy_scb_spi.h **** * The pointer to the SPI SCB instance.
1347:Generated_Source\PSoC6\pdl\drivers/peripheral/scb/cy_scb_spi.h **** *
ARM GAS  C:\Users\Smaug\AppData\Local\Temp\ccJKcizn.s 			page 28


1348:Generated_Source\PSoC6\pdl\drivers/peripheral/scb/cy_scb_spi.h **** * \return
1349:Generated_Source\PSoC6\pdl\drivers/peripheral/scb/cy_scb_spi.h **** * Data from the RX FIFO.
1350:Generated_Source\PSoC6\pdl\drivers/peripheral/scb/cy_scb_spi.h **** * The data element size is defined by the configured RX data width.
1351:Generated_Source\PSoC6\pdl\drivers/peripheral/scb/cy_scb_spi.h **** *
1352:Generated_Source\PSoC6\pdl\drivers/peripheral/scb/cy_scb_spi.h **** * \note
1353:Generated_Source\PSoC6\pdl\drivers/peripheral/scb/cy_scb_spi.h **** * * This function only reads data available in the RX FIFO. It does not
1354:Generated_Source\PSoC6\pdl\drivers/peripheral/scb/cy_scb_spi.h **** *   initiate an SPI transfer.
1355:Generated_Source\PSoC6\pdl\drivers/peripheral/scb/cy_scb_spi.h **** * * When in the master mode, this function writes data into the TX FIFO and
1356:Generated_Source\PSoC6\pdl\drivers/peripheral/scb/cy_scb_spi.h **** *   waits until the transfer is completed before reading data from the RX FIFO.
1357:Generated_Source\PSoC6\pdl\drivers/peripheral/scb/cy_scb_spi.h **** *
1358:Generated_Source\PSoC6\pdl\drivers/peripheral/scb/cy_scb_spi.h **** *******************************************************************************/
1359:Generated_Source\PSoC6\pdl\drivers/peripheral/scb/cy_scb_spi.h **** __STATIC_INLINE uint32_t Cy_SCB_SPI_Read(CySCB_Type const *base)
1360:Generated_Source\PSoC6\pdl\drivers/peripheral/scb/cy_scb_spi.h **** {
1361:Generated_Source\PSoC6\pdl\drivers/peripheral/scb/cy_scb_spi.h ****     return Cy_SCB_ReadRxFifo(base);
1362:Generated_Source\PSoC6\pdl\drivers/peripheral/scb/cy_scb_spi.h **** }
1363:Generated_Source\PSoC6\pdl\drivers/peripheral/scb/cy_scb_spi.h **** 
1364:Generated_Source\PSoC6\pdl\drivers/peripheral/scb/cy_scb_spi.h **** 
1365:Generated_Source\PSoC6\pdl\drivers/peripheral/scb/cy_scb_spi.h **** /*******************************************************************************
1366:Generated_Source\PSoC6\pdl\drivers/peripheral/scb/cy_scb_spi.h **** * Function Name: Cy_SCB_SPI_ReadArray
1367:Generated_Source\PSoC6\pdl\drivers/peripheral/scb/cy_scb_spi.h **** ****************************************************************************//**
1368:Generated_Source\PSoC6\pdl\drivers/peripheral/scb/cy_scb_spi.h **** *
1369:Generated_Source\PSoC6\pdl\drivers/peripheral/scb/cy_scb_spi.h **** * Reads an array of data out of the SPI RX FIFO.
1370:Generated_Source\PSoC6\pdl\drivers/peripheral/scb/cy_scb_spi.h **** * This function does not block. It returns how many data elements were read
1371:Generated_Source\PSoC6\pdl\drivers/peripheral/scb/cy_scb_spi.h **** * from the RX FIFO.
1372:Generated_Source\PSoC6\pdl\drivers/peripheral/scb/cy_scb_spi.h **** *
1373:Generated_Source\PSoC6\pdl\drivers/peripheral/scb/cy_scb_spi.h **** * \param base
1374:Generated_Source\PSoC6\pdl\drivers/peripheral/scb/cy_scb_spi.h **** * The pointer to the SPI SCB instance.
1375:Generated_Source\PSoC6\pdl\drivers/peripheral/scb/cy_scb_spi.h **** *
1376:Generated_Source\PSoC6\pdl\drivers/peripheral/scb/cy_scb_spi.h **** * \param buffer
1377:Generated_Source\PSoC6\pdl\drivers/peripheral/scb/cy_scb_spi.h **** * The pointer to the location to place data read from the RX FIFO.
1378:Generated_Source\PSoC6\pdl\drivers/peripheral/scb/cy_scb_spi.h **** * The element size is defined by the data type, which depends on the configured
1379:Generated_Source\PSoC6\pdl\drivers/peripheral/scb/cy_scb_spi.h **** * RX data width.
1380:Generated_Source\PSoC6\pdl\drivers/peripheral/scb/cy_scb_spi.h **** *
1381:Generated_Source\PSoC6\pdl\drivers/peripheral/scb/cy_scb_spi.h **** * \param size
1382:Generated_Source\PSoC6\pdl\drivers/peripheral/scb/cy_scb_spi.h **** * The number of data elements to read from the RX FIFO.
1383:Generated_Source\PSoC6\pdl\drivers/peripheral/scb/cy_scb_spi.h **** *
1384:Generated_Source\PSoC6\pdl\drivers/peripheral/scb/cy_scb_spi.h **** * \return
1385:Generated_Source\PSoC6\pdl\drivers/peripheral/scb/cy_scb_spi.h **** * The number of data elements read from the RX FIFO.
1386:Generated_Source\PSoC6\pdl\drivers/peripheral/scb/cy_scb_spi.h **** *
1387:Generated_Source\PSoC6\pdl\drivers/peripheral/scb/cy_scb_spi.h **** * \note
1388:Generated_Source\PSoC6\pdl\drivers/peripheral/scb/cy_scb_spi.h **** * * This function only reads data available in the RX FIFO. It does not
1389:Generated_Source\PSoC6\pdl\drivers/peripheral/scb/cy_scb_spi.h **** *   initiate an SPI transfer.
1390:Generated_Source\PSoC6\pdl\drivers/peripheral/scb/cy_scb_spi.h **** * * When in the master mode, this function writes data into the TX FIFO and
1391:Generated_Source\PSoC6\pdl\drivers/peripheral/scb/cy_scb_spi.h **** *   waits until the transfer is completed before reading data from the RX FIFO.
1392:Generated_Source\PSoC6\pdl\drivers/peripheral/scb/cy_scb_spi.h **** *
1393:Generated_Source\PSoC6\pdl\drivers/peripheral/scb/cy_scb_spi.h **** *******************************************************************************/
1394:Generated_Source\PSoC6\pdl\drivers/peripheral/scb/cy_scb_spi.h **** __STATIC_INLINE uint32_t Cy_SCB_SPI_ReadArray(CySCB_Type const *base, void *buffer, uint32_t size)
1395:Generated_Source\PSoC6\pdl\drivers/peripheral/scb/cy_scb_spi.h **** {
1396:Generated_Source\PSoC6\pdl\drivers/peripheral/scb/cy_scb_spi.h ****     CY_ASSERT_L1(CY_SCB_IS_BUFFER_VALID(buffer, size));
1397:Generated_Source\PSoC6\pdl\drivers/peripheral/scb/cy_scb_spi.h **** 
1398:Generated_Source\PSoC6\pdl\drivers/peripheral/scb/cy_scb_spi.h ****     return Cy_SCB_ReadArray(base, buffer, size);
1399:Generated_Source\PSoC6\pdl\drivers/peripheral/scb/cy_scb_spi.h **** }
1400:Generated_Source\PSoC6\pdl\drivers/peripheral/scb/cy_scb_spi.h **** 
1401:Generated_Source\PSoC6\pdl\drivers/peripheral/scb/cy_scb_spi.h **** 
1402:Generated_Source\PSoC6\pdl\drivers/peripheral/scb/cy_scb_spi.h **** /*******************************************************************************
1403:Generated_Source\PSoC6\pdl\drivers/peripheral/scb/cy_scb_spi.h **** * Function Name: Cy_SCB_SPI_Write
1404:Generated_Source\PSoC6\pdl\drivers/peripheral/scb/cy_scb_spi.h **** ****************************************************************************//**
ARM GAS  C:\Users\Smaug\AppData\Local\Temp\ccJKcizn.s 			page 29


1405:Generated_Source\PSoC6\pdl\drivers/peripheral/scb/cy_scb_spi.h **** *
1406:Generated_Source\PSoC6\pdl\drivers/peripheral/scb/cy_scb_spi.h **** * Places a single data element in the SPI TX FIFO.
1407:Generated_Source\PSoC6\pdl\drivers/peripheral/scb/cy_scb_spi.h **** * This function does not block. It returns how many data elements were placed
1408:Generated_Source\PSoC6\pdl\drivers/peripheral/scb/cy_scb_spi.h **** * in the TX FIFO.
1409:Generated_Source\PSoC6\pdl\drivers/peripheral/scb/cy_scb_spi.h **** *
1410:Generated_Source\PSoC6\pdl\drivers/peripheral/scb/cy_scb_spi.h **** * \param base
1411:Generated_Source\PSoC6\pdl\drivers/peripheral/scb/cy_scb_spi.h **** * The pointer to the SPI SCB instance.
1412:Generated_Source\PSoC6\pdl\drivers/peripheral/scb/cy_scb_spi.h **** *
1413:Generated_Source\PSoC6\pdl\drivers/peripheral/scb/cy_scb_spi.h **** * \param data
1414:Generated_Source\PSoC6\pdl\drivers/peripheral/scb/cy_scb_spi.h **** * Data to put in the TX FIFO.
1415:Generated_Source\PSoC6\pdl\drivers/peripheral/scb/cy_scb_spi.h **** * The element size is defined by the data type, which depends on the configured
1416:Generated_Source\PSoC6\pdl\drivers/peripheral/scb/cy_scb_spi.h **** * TX data width.
1417:Generated_Source\PSoC6\pdl\drivers/peripheral/scb/cy_scb_spi.h **** *
1418:Generated_Source\PSoC6\pdl\drivers/peripheral/scb/cy_scb_spi.h **** * \return
1419:Generated_Source\PSoC6\pdl\drivers/peripheral/scb/cy_scb_spi.h **** * The number of data elements placed in the TX FIFO: 0 or 1.
1420:Generated_Source\PSoC6\pdl\drivers/peripheral/scb/cy_scb_spi.h **** *
1421:Generated_Source\PSoC6\pdl\drivers/peripheral/scb/cy_scb_spi.h **** * \note
1422:Generated_Source\PSoC6\pdl\drivers/peripheral/scb/cy_scb_spi.h **** * * When in the master mode, writing data into the TX FIFO starts an SPI
1423:Generated_Source\PSoC6\pdl\drivers/peripheral/scb/cy_scb_spi.h **** *   transfer.
1424:Generated_Source\PSoC6\pdl\drivers/peripheral/scb/cy_scb_spi.h **** * * When in the slave mode, writing data into the TX FIFO does not start
1425:Generated_Source\PSoC6\pdl\drivers/peripheral/scb/cy_scb_spi.h **** *   an SPI transfer. The data is loaded in the TX FIFO and will be sent
1426:Generated_Source\PSoC6\pdl\drivers/peripheral/scb/cy_scb_spi.h **** *   to the master on its request.
1427:Generated_Source\PSoC6\pdl\drivers/peripheral/scb/cy_scb_spi.h **** * * The SPI interface is full-duplex, therefore reads and writes occur
1428:Generated_Source\PSoC6\pdl\drivers/peripheral/scb/cy_scb_spi.h **** *   at the same time. Thus, for every data element transferred out of the
1429:Generated_Source\PSoC6\pdl\drivers/peripheral/scb/cy_scb_spi.h **** *   TX FIFO, one is transferred into the RX FIFO.
1430:Generated_Source\PSoC6\pdl\drivers/peripheral/scb/cy_scb_spi.h **** *
1431:Generated_Source\PSoC6\pdl\drivers/peripheral/scb/cy_scb_spi.h **** *******************************************************************************/
1432:Generated_Source\PSoC6\pdl\drivers/peripheral/scb/cy_scb_spi.h **** __STATIC_INLINE uint32_t Cy_SCB_SPI_Write(CySCB_Type *base, uint32_t data)
1433:Generated_Source\PSoC6\pdl\drivers/peripheral/scb/cy_scb_spi.h **** {
1434:Generated_Source\PSoC6\pdl\drivers/peripheral/scb/cy_scb_spi.h ****     return Cy_SCB_Write(base, data);
1435:Generated_Source\PSoC6\pdl\drivers/peripheral/scb/cy_scb_spi.h **** }
1436:Generated_Source\PSoC6\pdl\drivers/peripheral/scb/cy_scb_spi.h **** 
1437:Generated_Source\PSoC6\pdl\drivers/peripheral/scb/cy_scb_spi.h **** 
1438:Generated_Source\PSoC6\pdl\drivers/peripheral/scb/cy_scb_spi.h **** /*******************************************************************************
1439:Generated_Source\PSoC6\pdl\drivers/peripheral/scb/cy_scb_spi.h **** * Function Name: Cy_SCB_SPI_WriteArray
1440:Generated_Source\PSoC6\pdl\drivers/peripheral/scb/cy_scb_spi.h **** ****************************************************************************//**
1441:Generated_Source\PSoC6\pdl\drivers/peripheral/scb/cy_scb_spi.h **** *
1442:Generated_Source\PSoC6\pdl\drivers/peripheral/scb/cy_scb_spi.h **** * Places an array of data in the SPI TX FIFO. This function does not
1443:Generated_Source\PSoC6\pdl\drivers/peripheral/scb/cy_scb_spi.h **** * block. It returns how many data elements were placed in the TX FIFO.
1444:Generated_Source\PSoC6\pdl\drivers/peripheral/scb/cy_scb_spi.h **** *
1445:Generated_Source\PSoC6\pdl\drivers/peripheral/scb/cy_scb_spi.h **** * \param base
1446:Generated_Source\PSoC6\pdl\drivers/peripheral/scb/cy_scb_spi.h **** * The pointer to the SPI SCB instance.
1447:Generated_Source\PSoC6\pdl\drivers/peripheral/scb/cy_scb_spi.h **** *
1448:Generated_Source\PSoC6\pdl\drivers/peripheral/scb/cy_scb_spi.h **** * \param buffer
1449:Generated_Source\PSoC6\pdl\drivers/peripheral/scb/cy_scb_spi.h **** * The pointer to the data to place in the TX FIFO.
1450:Generated_Source\PSoC6\pdl\drivers/peripheral/scb/cy_scb_spi.h **** * The element size is defined by the data type, which depends on the configured
1451:Generated_Source\PSoC6\pdl\drivers/peripheral/scb/cy_scb_spi.h **** * TX data width.
1452:Generated_Source\PSoC6\pdl\drivers/peripheral/scb/cy_scb_spi.h **** *
1453:Generated_Source\PSoC6\pdl\drivers/peripheral/scb/cy_scb_spi.h **** * \param size
1454:Generated_Source\PSoC6\pdl\drivers/peripheral/scb/cy_scb_spi.h **** * The number of data elements to transmit.
1455:Generated_Source\PSoC6\pdl\drivers/peripheral/scb/cy_scb_spi.h **** *
1456:Generated_Source\PSoC6\pdl\drivers/peripheral/scb/cy_scb_spi.h **** * \return
1457:Generated_Source\PSoC6\pdl\drivers/peripheral/scb/cy_scb_spi.h **** * The number of data elements placed in the TX FIFO.
1458:Generated_Source\PSoC6\pdl\drivers/peripheral/scb/cy_scb_spi.h **** *
1459:Generated_Source\PSoC6\pdl\drivers/peripheral/scb/cy_scb_spi.h **** * \note
1460:Generated_Source\PSoC6\pdl\drivers/peripheral/scb/cy_scb_spi.h **** * * When in the master mode, writing data into the TX FIFO starts an SPI
1461:Generated_Source\PSoC6\pdl\drivers/peripheral/scb/cy_scb_spi.h **** *   transfer.
ARM GAS  C:\Users\Smaug\AppData\Local\Temp\ccJKcizn.s 			page 30


1462:Generated_Source\PSoC6\pdl\drivers/peripheral/scb/cy_scb_spi.h **** * * When in the slave mode, writing data into the TX FIFO does not start
1463:Generated_Source\PSoC6\pdl\drivers/peripheral/scb/cy_scb_spi.h **** *   an SPI transfer. The data is loaded in the TX FIFO and will be sent to
1464:Generated_Source\PSoC6\pdl\drivers/peripheral/scb/cy_scb_spi.h **** *   the master on its request.
1465:Generated_Source\PSoC6\pdl\drivers/peripheral/scb/cy_scb_spi.h **** * * The SPI interface is full-duplex, therefore reads and writes occur
1466:Generated_Source\PSoC6\pdl\drivers/peripheral/scb/cy_scb_spi.h **** *   at the same time. Thus, for every data element transferred out of the
1467:Generated_Source\PSoC6\pdl\drivers/peripheral/scb/cy_scb_spi.h **** *   TX FIFO, one is transferred into the RX FIFO.
1468:Generated_Source\PSoC6\pdl\drivers/peripheral/scb/cy_scb_spi.h **** *
1469:Generated_Source\PSoC6\pdl\drivers/peripheral/scb/cy_scb_spi.h **** *******************************************************************************/
1470:Generated_Source\PSoC6\pdl\drivers/peripheral/scb/cy_scb_spi.h **** __STATIC_INLINE uint32_t Cy_SCB_SPI_WriteArray(CySCB_Type *base, void *buffer, uint32_t size)
1471:Generated_Source\PSoC6\pdl\drivers/peripheral/scb/cy_scb_spi.h **** {
1472:Generated_Source\PSoC6\pdl\drivers/peripheral/scb/cy_scb_spi.h ****     CY_ASSERT_L1(CY_SCB_IS_BUFFER_VALID(buffer, size));
1473:Generated_Source\PSoC6\pdl\drivers/peripheral/scb/cy_scb_spi.h **** 
1474:Generated_Source\PSoC6\pdl\drivers/peripheral/scb/cy_scb_spi.h ****     return Cy_SCB_WriteArray(base, buffer, size);
1475:Generated_Source\PSoC6\pdl\drivers/peripheral/scb/cy_scb_spi.h **** }
1476:Generated_Source\PSoC6\pdl\drivers/peripheral/scb/cy_scb_spi.h **** 
1477:Generated_Source\PSoC6\pdl\drivers/peripheral/scb/cy_scb_spi.h **** 
1478:Generated_Source\PSoC6\pdl\drivers/peripheral/scb/cy_scb_spi.h **** /*******************************************************************************
1479:Generated_Source\PSoC6\pdl\drivers/peripheral/scb/cy_scb_spi.h **** * Function Name: Cy_SCB_SPI_WriteArrayBlocking
1480:Generated_Source\PSoC6\pdl\drivers/peripheral/scb/cy_scb_spi.h **** ****************************************************************************//**
1481:Generated_Source\PSoC6\pdl\drivers/peripheral/scb/cy_scb_spi.h **** *
1482:Generated_Source\PSoC6\pdl\drivers/peripheral/scb/cy_scb_spi.h **** * Places an array of data in the SPI TX FIFO. This function blocks
1483:Generated_Source\PSoC6\pdl\drivers/peripheral/scb/cy_scb_spi.h **** * until the number of data elements specified by size is placed in the SPI
1484:Generated_Source\PSoC6\pdl\drivers/peripheral/scb/cy_scb_spi.h **** * TX FIFO.
1485:Generated_Source\PSoC6\pdl\drivers/peripheral/scb/cy_scb_spi.h **** *
1486:Generated_Source\PSoC6\pdl\drivers/peripheral/scb/cy_scb_spi.h **** * \param base
1487:Generated_Source\PSoC6\pdl\drivers/peripheral/scb/cy_scb_spi.h **** * The pointer to the SPI SCB instance.
1488:Generated_Source\PSoC6\pdl\drivers/peripheral/scb/cy_scb_spi.h **** *
1489:Generated_Source\PSoC6\pdl\drivers/peripheral/scb/cy_scb_spi.h **** * \param buffer
1490:Generated_Source\PSoC6\pdl\drivers/peripheral/scb/cy_scb_spi.h **** * The pointer to data to place in the TX FIFO.
1491:Generated_Source\PSoC6\pdl\drivers/peripheral/scb/cy_scb_spi.h **** * The element size is defined by the data type, which depends on the configured
1492:Generated_Source\PSoC6\pdl\drivers/peripheral/scb/cy_scb_spi.h **** * TX data width.
1493:Generated_Source\PSoC6\pdl\drivers/peripheral/scb/cy_scb_spi.h **** *
1494:Generated_Source\PSoC6\pdl\drivers/peripheral/scb/cy_scb_spi.h **** * \param size
1495:Generated_Source\PSoC6\pdl\drivers/peripheral/scb/cy_scb_spi.h **** * The number of data elements to write into the TX FIFO.
1496:Generated_Source\PSoC6\pdl\drivers/peripheral/scb/cy_scb_spi.h **** *
1497:Generated_Source\PSoC6\pdl\drivers/peripheral/scb/cy_scb_spi.h **** * \note
1498:Generated_Source\PSoC6\pdl\drivers/peripheral/scb/cy_scb_spi.h **** * * When in the master mode, writing data into the TX FIFO starts an SPI
1499:Generated_Source\PSoC6\pdl\drivers/peripheral/scb/cy_scb_spi.h **** *   transfer.
1500:Generated_Source\PSoC6\pdl\drivers/peripheral/scb/cy_scb_spi.h **** * * When in the slave mode, writing data into the TX FIFO does not start
1501:Generated_Source\PSoC6\pdl\drivers/peripheral/scb/cy_scb_spi.h **** *   an SPI transfer. The data is loaded in the TX FIFO and will be sent to
1502:Generated_Source\PSoC6\pdl\drivers/peripheral/scb/cy_scb_spi.h **** *   the master on its request.
1503:Generated_Source\PSoC6\pdl\drivers/peripheral/scb/cy_scb_spi.h **** * * The SPI interface is full-duplex, therefore reads and writes occur
1504:Generated_Source\PSoC6\pdl\drivers/peripheral/scb/cy_scb_spi.h **** *   at the same time. Thus, for every data element transferred out of the
1505:Generated_Source\PSoC6\pdl\drivers/peripheral/scb/cy_scb_spi.h **** *   TX FIFO, one is transferred into the RX FIFO.
1506:Generated_Source\PSoC6\pdl\drivers/peripheral/scb/cy_scb_spi.h **** *
1507:Generated_Source\PSoC6\pdl\drivers/peripheral/scb/cy_scb_spi.h **** *******************************************************************************/
1508:Generated_Source\PSoC6\pdl\drivers/peripheral/scb/cy_scb_spi.h **** __STATIC_INLINE void Cy_SCB_SPI_WriteArrayBlocking(CySCB_Type *base, void *buffer, uint32_t size)
1509:Generated_Source\PSoC6\pdl\drivers/peripheral/scb/cy_scb_spi.h **** {
1510:Generated_Source\PSoC6\pdl\drivers/peripheral/scb/cy_scb_spi.h ****     CY_ASSERT_L1(CY_SCB_IS_BUFFER_VALID(buffer, size));
1511:Generated_Source\PSoC6\pdl\drivers/peripheral/scb/cy_scb_spi.h **** 
1512:Generated_Source\PSoC6\pdl\drivers/peripheral/scb/cy_scb_spi.h ****     Cy_SCB_WriteArrayBlocking(base, buffer, size);
 121              		.loc 2 1512 0
 122 0006 0122     		movs	r2, #1
 123 0008 0B49     		ldr	r1, .L11
 124              	.LVL14:
 125 000a 0C48     		ldr	r0, .L11+4
 126              	.LVL15:
ARM GAS  C:\Users\Smaug\AppData\Local\Temp\ccJKcizn.s 			page 31


 127 000c FFF7FEFF 		bl	Cy_SCB_WriteArrayBlocking
 128              	.LVL16:
 129              	.LBE17:
 130              	.LBE16:
 131              	.LBB18:
 132              	.LBB19:
1510:Generated_Source\PSoC6\pdl\drivers/peripheral/scb/cy_scb_spi.h **** 
 133              		.loc 2 1510 0
 134 0010 05B1     		cbz	r5, .L8
 135 0012 26B9     		cbnz	r6, .L9
 136              	.L8:
 137 0014 40F2E651 		movw	r1, #1510
 138 0018 0948     		ldr	r0, .L11+8
 139 001a FFF7FEFF 		bl	Cy_SysLib_AssertFailed
 140              	.LVL17:
 141              	.L9:
 142              		.loc 2 1512 0
 143 001e 074C     		ldr	r4, .L11+4
 144 0020 3246     		mov	r2, r6
 145 0022 2946     		mov	r1, r5
 146 0024 2046     		mov	r0, r4
 147 0026 FFF7FEFF 		bl	Cy_SCB_WriteArrayBlocking
 148              	.LVL18:
 149              	.LBE19:
 150              	.LBE18:
 151              	.LBB20:
 152              	.LBB21:
 153 002a 0122     		movs	r2, #1
 154 002c 0249     		ldr	r1, .L11
 155 002e 2046     		mov	r0, r4
 156 0030 FFF7FEFF 		bl	Cy_SCB_WriteArrayBlocking
 157              	.LVL19:
 158 0034 70BD     		pop	{r4, r5, r6, pc}
 159              	.LVL20:
 160              	.L12:
 161 0036 00BF     		.align	2
 162              	.L11:
 163 0038 00000000 		.word	.LANCHOR0
 164 003c 00006740 		.word	1080492032
 165 0040 00000000 		.word	.LC0
 166              	.LBE21:
 167              	.LBE20:
 168              		.cfi_endproc
 169              	.LFE756:
 170              		.size	Leds_SendData, .-Leds_SendData
 171              		.section	.text.Leds_Init,"ax",%progbits
 172              		.align	2
 173              		.global	Leds_Init
 174              		.thumb
 175              		.thumb_func
 176              		.type	Leds_Init, %function
 177              	Leds_Init:
 178              	.LFB755:
  25:ledctrl.c     ****     cy_en_scb_spi_status_t initStatus;
 179              		.loc 1 25 0
 180              		.cfi_startproc
 181              		@ args = 0, pretend = 0, frame = 0
ARM GAS  C:\Users\Smaug\AppData\Local\Temp\ccJKcizn.s 			page 32


 182              		@ frame_needed = 0, uses_anonymous_args = 0
 183 0000 08B5     		push	{r3, lr}
 184              		.cfi_def_cfa_offset 8
 185              		.cfi_offset 3, -8
 186              		.cfi_offset 14, -4
  29:ledctrl.c     ****     if(initStatus == CY_SCB_SPI_SUCCESS)
 187              		.loc 1 29 0
 188 0002 0022     		movs	r2, #0
 189 0004 0649     		ldr	r1, .L16
 190 0006 0748     		ldr	r0, .L16+4
 191 0008 FFF7FEFF 		bl	Cy_SCB_SPI_Init
 192              	.LVL21:
  30:ledctrl.c     ****     {
 193              		.loc 1 30 0
 194 000c 0246     		mov	r2, r0
 195 000e 20B9     		cbnz	r0, .L14
 196              	.LVL22:
 197              	.LBB22:
 198              	.LBB23:
 962:Generated_Source\PSoC6\pdl\drivers/peripheral/scb/cy_scb_spi.h **** }
 199              		.loc 2 962 0
 200 0010 0449     		ldr	r1, .L16+4
 201 0012 0B68     		ldr	r3, [r1]
 202 0014 43F00043 		orr	r3, r3, #-2147483648
 203 0018 0B60     		str	r3, [r1]
 204              	.LVL23:
 205              	.L14:
 206              	.LBE23:
 207              	.LBE22:
  37:ledctrl.c     **** 
 208              		.loc 1 37 0
 209 001a 1046     		mov	r0, r2
 210              	.LVL24:
 211 001c 08BD     		pop	{r3, pc}
 212              	.L17:
 213 001e 00BF     		.align	2
 214              	.L16:
 215 0020 00000000 		.word	SPI_LEDCTRL_config
 216 0024 00006740 		.word	1080492032
 217              		.cfi_endproc
 218              	.LFE755:
 219              		.size	Leds_Init, .-Leds_Init
 220              		.section	.text.Leds_PutPixel,"ax",%progbits
 221              		.align	2
 222              		.global	Leds_PutPixel
 223              		.thumb
 224              		.thumb_func
 225              		.type	Leds_PutPixel, %function
 226              	Leds_PutPixel:
 227              	.LFB758:
  69:ledctrl.c     **** 
  70:ledctrl.c     **** void Leds_PutPixel(uint8_t pix_no, uint8_t g, uint8_t r, uint8_t b)
  71:ledctrl.c     **** {    
 228              		.loc 1 71 0
 229              		.cfi_startproc
 230              		@ args = 0, pretend = 0, frame = 0
 231              		@ frame_needed = 0, uses_anonymous_args = 0
ARM GAS  C:\Users\Smaug\AppData\Local\Temp\ccJKcizn.s 			page 33


 232              	.LVL25:
  72:ledctrl.c     ****     if (pix_no < WS2812_LED_QTY)
 233              		.loc 1 72 0
 234 0000 0B28     		cmp	r0, #11
 235 0002 0ED8     		bhi	.L21
  71:ledctrl.c     ****     if (pix_no < WS2812_LED_QTY)
 236              		.loc 1 71 0
 237 0004 F8B5     		push	{r3, r4, r5, r6, r7, lr}
 238              		.cfi_def_cfa_offset 24
 239              		.cfi_offset 3, -24
 240              		.cfi_offset 4, -20
 241              		.cfi_offset 5, -16
 242              		.cfi_offset 6, -12
 243              		.cfi_offset 7, -8
 244              		.cfi_offset 14, -4
 245 0006 1F46     		mov	r7, r3
 246 0008 1646     		mov	r6, r2
 247 000a 0D46     		mov	r5, r1
  73:ledctrl.c     ****     {
  74:ledctrl.c     ****         Leds_ColorToRawBitstream(g, r, b, &Leds_rawColorBuffer[24 * pix_no]);
 248              		.loc 1 74 0
 249 000c 00EB4004 		add	r4, r0, r0, lsl #1
 250 0010 E300     		lsls	r3, r4, #3
 251              	.LVL26:
 252 0012 044A     		ldr	r2, .L22
 253              	.LVL27:
 254 0014 1344     		add	r3, r3, r2
 255 0016 3A46     		mov	r2, r7
 256 0018 3146     		mov	r1, r6
 257              	.LVL28:
 258 001a 2846     		mov	r0, r5
 259              	.LVL29:
 260 001c FFF7FEFF 		bl	Leds_ColorToRawBitstream
 261              	.LVL30:
 262 0020 F8BD     		pop	{r3, r4, r5, r6, r7, pc}
 263              	.LVL31:
 264              	.L21:
 265              		.cfi_def_cfa_offset 0
 266              		.cfi_restore 3
 267              		.cfi_restore 4
 268              		.cfi_restore 5
 269              		.cfi_restore 6
 270              		.cfi_restore 7
 271              		.cfi_restore 14
 272 0022 7047     		bx	lr
 273              	.L23:
 274              		.align	2
 275              	.L22:
 276 0024 04000000 		.word	.LANCHOR0+4
 277              		.cfi_endproc
 278              	.LFE758:
 279              		.size	Leds_PutPixel, .-Leds_PutPixel
 280              		.section	.text.Leds_FillSolidColor,"ax",%progbits
 281              		.align	2
 282              		.global	Leds_FillSolidColor
 283              		.thumb
 284              		.thumb_func
ARM GAS  C:\Users\Smaug\AppData\Local\Temp\ccJKcizn.s 			page 34


 285              		.type	Leds_FillSolidColor, %function
 286              	Leds_FillSolidColor:
 287              	.LFB759:
  75:ledctrl.c     ****     }
  76:ledctrl.c     **** }
  77:ledctrl.c     **** 
  78:ledctrl.c     **** void Leds_FillSolidColor(uint8_t g, uint8_t r, uint8_t b)
  79:ledctrl.c     **** {    
 288              		.loc 1 79 0
 289              		.cfi_startproc
 290              		@ args = 0, pretend = 0, frame = 0
 291              		@ frame_needed = 0, uses_anonymous_args = 0
 292              	.LVL32:
 293 0000 F8B5     		push	{r3, r4, r5, r6, r7, lr}
 294              		.cfi_def_cfa_offset 24
 295              		.cfi_offset 3, -24
 296              		.cfi_offset 4, -20
 297              		.cfi_offset 5, -16
 298              		.cfi_offset 6, -12
 299              		.cfi_offset 7, -8
 300              		.cfi_offset 14, -4
 301 0002 0746     		mov	r7, r0
 302 0004 0E46     		mov	r6, r1
 303 0006 1546     		mov	r5, r2
 304              	.LVL33:
 305              	.LBB24:
  80:ledctrl.c     ****     for (uint16_t i = 0; i < WS2812_LED_QTY; i++)
 306              		.loc 1 80 0
 307 0008 0024     		movs	r4, #0
 308 000a 0BE0     		b	.L25
 309              	.LVL34:
 310              	.L26:
  81:ledctrl.c     ****     {
  82:ledctrl.c     ****         Leds_ColorToRawBitstream(g, r, b, &Leds_rawColorBuffer[24 * i]);
 311              		.loc 1 82 0 discriminator 3
 312 000c 04EB4402 		add	r2, r4, r4, lsl #1
 313 0010 D300     		lsls	r3, r2, #3
 314 0012 064A     		ldr	r2, .L28
 315 0014 1344     		add	r3, r3, r2
 316 0016 2A46     		mov	r2, r5
 317 0018 3146     		mov	r1, r6
 318 001a 3846     		mov	r0, r7
 319 001c FFF7FEFF 		bl	Leds_ColorToRawBitstream
 320              	.LVL35:
  80:ledctrl.c     ****     for (uint16_t i = 0; i < WS2812_LED_QTY; i++)
 321              		.loc 1 80 0 discriminator 3
 322 0020 0134     		adds	r4, r4, #1
 323              	.LVL36:
 324 0022 A4B2     		uxth	r4, r4
 325              	.LVL37:
 326              	.L25:
  80:ledctrl.c     ****     for (uint16_t i = 0; i < WS2812_LED_QTY; i++)
 327              		.loc 1 80 0 is_stmt 0 discriminator 1
 328 0024 0B2C     		cmp	r4, #11
 329 0026 F1D9     		bls	.L26
 330              	.LBE24:
  83:ledctrl.c     ****     }
ARM GAS  C:\Users\Smaug\AppData\Local\Temp\ccJKcizn.s 			page 35


  84:ledctrl.c     **** }
 331              		.loc 1 84 0 is_stmt 1
 332 0028 F8BD     		pop	{r3, r4, r5, r6, r7, pc}
 333              	.LVL38:
 334              	.L29:
 335 002a 00BF     		.align	2
 336              	.L28:
 337 002c 04000000 		.word	.LANCHOR0+4
 338              		.cfi_endproc
 339              	.LFE759:
 340              		.size	Leds_FillSolidColor, .-Leds_FillSolidColor
 341              		.section	.text.Leds_Update,"ax",%progbits
 342              		.align	2
 343              		.global	Leds_Update
 344              		.thumb
 345              		.thumb_func
 346              		.type	Leds_Update, %function
 347              	Leds_Update:
 348              	.LFB760:
  85:ledctrl.c     **** 
  86:ledctrl.c     **** void Leds_Update(void)
  87:ledctrl.c     **** {
 349              		.loc 1 87 0
 350              		.cfi_startproc
 351              		@ args = 0, pretend = 0, frame = 0
 352              		@ frame_needed = 0, uses_anonymous_args = 0
 353 0000 08B5     		push	{r3, lr}
 354              		.cfi_def_cfa_offset 8
 355              		.cfi_offset 3, -8
 356              		.cfi_offset 14, -4
  88:ledctrl.c     ****     Leds_SendData(&Leds_rawColorBuffer[0], WS2812_BUFFER_SIZE);
 357              		.loc 1 88 0
 358 0002 4FF49071 		mov	r1, #288
 359 0006 0248     		ldr	r0, .L32
 360 0008 FFF7FEFF 		bl	Leds_SendData
 361              	.LVL39:
 362 000c 08BD     		pop	{r3, pc}
 363              	.L33:
 364 000e 00BF     		.align	2
 365              	.L32:
 366 0010 04000000 		.word	.LANCHOR0+4
 367              		.cfi_endproc
 368              	.LFE760:
 369              		.size	Leds_Update, .-Leds_Update
 370              		.global	Leds_rawColorBuffer
 371              		.comm	ledColorObj,3,4
 372              		.section	.rodata.str1.4,"aMS",%progbits,1
 373              		.align	2
 374              	.LC0:
 375 0000 47656E65 		.ascii	"Generated_Source\\PSoC6\\pdl\\drivers/peripheral/sc"
 375      72617465 
 375      645F536F 
 375      75726365 
 375      5C50536F 
 376 0030 622F6379 		.ascii	"b/cy_scb_spi.h\000"
 376      5F736362 
 376      5F737069 
ARM GAS  C:\Users\Smaug\AppData\Local\Temp\ccJKcizn.s 			page 36


 376      2E6800
 377              		.bss
 378              		.align	2
 379              		.set	.LANCHOR0,. + 0
 380              		.type	blankingFrame, %object
 381              		.size	blankingFrame, 1
 382              	blankingFrame:
 383 0000 00       		.space	1
 384 0001 000000   		.space	3
 385              		.type	Leds_rawColorBuffer, %object
 386              		.size	Leds_rawColorBuffer, 288
 387              	Leds_rawColorBuffer:
 388 0004 00000000 		.space	288
 388      00000000 
 388      00000000 
 388      00000000 
 388      00000000 
 389              		.text
 390              	.Letext0:
 391              		.file 3 "c:\\program files (x86)\\cypress\\psoc creator\\4.4\\psoc creator\\import\\gnu\\arm\\5.4.
 392              		.file 4 "c:\\program files (x86)\\cypress\\psoc creator\\4.4\\psoc creator\\import\\gnu\\arm\\5.4.
 393              		.file 5 "Generated_Source\\PSoC6\\pdl\\devices/psoc6/include/ip/cyip_scb.h"
 394              		.file 6 "Generated_Source\\PSoC6\\pdl\\devices/psoc6/include/psoc6_01_config.h"
 395              		.file 7 "Generated_Source\\PSoC6\\pdl\\drivers/peripheral/device/cy_device.h"
 396              		.file 8 "Generated_Source\\PSoC6\\pdl\\drivers/peripheral/syslib/cy_syslib.h"
 397              		.file 9 "Generated_Source\\PSoC6\\pdl\\drivers/peripheral/sar/cy_sar.h"
 398              		.file 10 "Generated_Source\\PSoC6\\pdl\\drivers/peripheral/scb/cy_scb_i2c.h"
 399              		.file 11 "Generated_Source\\PSoC6\\pdl\\drivers/peripheral/scb/cy_scb_uart.h"
 400              		.file 12 "Generated_Source\\PSoC6\\pdl\\drivers/peripheral/tcpwm/cy_tcpwm_counter.h"
 401              		.file 13 "Generated_Source\\PSoC6\\pdl\\drivers/peripheral/tcpwm/cy_tcpwm_pwm.h"
 402              		.file 14 "Generated_Source\\PSoC6/ADC.h"
 403              		.file 15 "ledctrl.h"
 404              		.file 16 "Generated_Source\\PSoC6\\pdl\\cmsis/include/core_cm4.h"
 405              		.file 17 "Generated_Source\\PSoC6/I2C_Main.h"
 406              		.file 18 "Generated_Source\\PSoC6/UART_Debug.h"
 407              		.file 19 "Generated_Source\\PSoC6/PWM_Trig.h"
 408              		.file 20 "Generated_Source\\PSoC6/Counter_Echo.h"
 409              		.file 21 "Generated_Source\\PSoC6/IR.h"
 410              		.file 22 "Generated_Source\\PSoC6/PWM_Buz.h"
 411              		.file 23 "Generated_Source\\PSoC6/SPI_LEDCTRL.h"
 412              		.file 24 "Generated_Source\\PSoC6\\pdl\\drivers/peripheral/scb/cy_scb_common.h"