ARM GAS  C:\Users\Smaug\AppData\Local\Temp\ccEr8D7e.s 			page 1


   1              		.syntax unified
   2              		.cpu cortex-m4
   3              		.eabi_attribute 27, 1
   4              		.fpu fpv4-sp-d16
   5              		.eabi_attribute 20, 1
   6              		.eabi_attribute 21, 1
   7              		.eabi_attribute 23, 3
   8              		.eabi_attribute 24, 1
   9              		.eabi_attribute 25, 1
  10              		.eabi_attribute 26, 1
  11              		.eabi_attribute 30, 1
  12              		.eabi_attribute 34, 1
  13              		.eabi_attribute 18, 4
  14              		.thumb
  15              		.syntax unified
  16              		.file	"music.c"
  17              		.text
  18              	.Ltext0:
  19              		.cfi_sections	.debug_frame
  20              		.section	.text.Music_FurElise,"ax",%progbits
  21              		.align	2
  22              		.global	Music_FurElise
  23              		.thumb
  24              		.thumb_func
  25              		.type	Music_FurElise, %function
  26              	Music_FurElise:
  27              	.LFB0:
  28              		.file 1 "music.c"
   1:music.c       **** /* ========================================
   2:music.c       ****  * music.c
   3:music.c       ****  * ========================================
   4:music.c       ****  */
   5:music.c       **** 
   6:music.c       **** #include "car.h"
   7:music.c       **** 
   8:music.c       **** // Frequencies in Hz for the notes
   9:music.c       **** #define C4 261
  10:music.c       **** #define E4 330
  11:music.c       **** #define G4 392
  12:music.c       **** #define Ab4 415
  13:music.c       **** #define A4 440
  14:music.c       **** #define B4 494
  15:music.c       **** #define C5 523
  16:music.c       **** #define D5 587
  17:music.c       **** #define Eb5 622
  18:music.c       **** #define E5 659
  19:music.c       **** #define F5 698
  20:music.c       **** #define G5 784
  21:music.c       **** 
  22:music.c       **** // Duration in milliseconds
  23:music.c       **** #define D 300   // Waltz beat (dotted quarter)
  24:music.c       **** #define H 600   // Half note
  25:music.c       **** #define Q 400   // Quarter note
  26:music.c       **** #define E 200   // Eighth note
  27:music.c       **** #define S 100   // Sixteenth note
  28:music.c       **** 
  29:music.c       **** void Music_FurElise(void)
ARM GAS  C:\Users\Smaug\AppData\Local\Temp\ccEr8D7e.s 			page 2


  30:music.c       **** {
  29              		.loc 1 30 0
  30              		.cfi_startproc
  31              		@ args = 0, pretend = 0, frame = 0
  32              		@ frame_needed = 0, uses_anonymous_args = 0
  33 0000 08B5     		push	{r3, lr}
  34              		.cfi_def_cfa_offset 8
  35              		.cfi_offset 3, -8
  36              		.cfi_offset 14, -4
  31:music.c       ****     Sound_Play(E5, E);
  37              		.loc 1 31 0
  38 0002 C821     		movs	r1, #200
  39 0004 40F29320 		movw	r0, #659
  40 0008 FFF7FEFF 		bl	Sound_Play
  41              	.LVL0:
  32:music.c       ****     Sound_Play(Eb5, E);
  42              		.loc 1 32 0
  43 000c C821     		movs	r1, #200
  44 000e 40F26E20 		movw	r0, #622
  45 0012 FFF7FEFF 		bl	Sound_Play
  46              	.LVL1:
  33:music.c       ****     Sound_Play(E5, E);
  47              		.loc 1 33 0
  48 0016 C821     		movs	r1, #200
  49 0018 40F29320 		movw	r0, #659
  50 001c FFF7FEFF 		bl	Sound_Play
  51              	.LVL2:
  34:music.c       ****     Sound_Play(Eb5, E);
  52              		.loc 1 34 0
  53 0020 C821     		movs	r1, #200
  54 0022 40F26E20 		movw	r0, #622
  55 0026 FFF7FEFF 		bl	Sound_Play
  56              	.LVL3:
  35:music.c       ****     Sound_Play(E5, E);
  57              		.loc 1 35 0
  58 002a C821     		movs	r1, #200
  59 002c 40F29320 		movw	r0, #659
  60 0030 FFF7FEFF 		bl	Sound_Play
  61              	.LVL4:
  36:music.c       ****     Sound_Play(B4, E);
  62              		.loc 1 36 0
  63 0034 C821     		movs	r1, #200
  64 0036 4FF4F770 		mov	r0, #494
  65 003a FFF7FEFF 		bl	Sound_Play
  66              	.LVL5:
  37:music.c       ****     Sound_Play(D5, E);
  67              		.loc 1 37 0
  68 003e C821     		movs	r1, #200
  69 0040 40F24B20 		movw	r0, #587
  70 0044 FFF7FEFF 		bl	Sound_Play
  71              	.LVL6:
  38:music.c       ****     Sound_Play(C5, E);
  72              		.loc 1 38 0
  73 0048 C821     		movs	r1, #200
  74 004a 40F20B20 		movw	r0, #523
  75 004e FFF7FEFF 		bl	Sound_Play
  76              	.LVL7:
ARM GAS  C:\Users\Smaug\AppData\Local\Temp\ccEr8D7e.s 			page 3


  39:music.c       ****     Sound_Play(A4, Q);
  77              		.loc 1 39 0
  78 0052 4FF4C871 		mov	r1, #400
  79 0056 4FF4DC70 		mov	r0, #440
  80 005a FFF7FEFF 		bl	Sound_Play
  81              	.LVL8:
  40:music.c       **** 
  41:music.c       ****     Sound_Play(C4, E);
  82              		.loc 1 41 0
  83 005e C821     		movs	r1, #200
  84 0060 40F20510 		movw	r0, #261
  85 0064 FFF7FEFF 		bl	Sound_Play
  86              	.LVL9:
  42:music.c       ****     Sound_Play(E4, E);
  87              		.loc 1 42 0
  88 0068 C821     		movs	r1, #200
  89 006a 4FF4A570 		mov	r0, #330
  90 006e FFF7FEFF 		bl	Sound_Play
  91              	.LVL10:
  43:music.c       ****     Sound_Play(A4, E);
  92              		.loc 1 43 0
  93 0072 C821     		movs	r1, #200
  94 0074 4FF4DC70 		mov	r0, #440
  95 0078 FFF7FEFF 		bl	Sound_Play
  96              	.LVL11:
  44:music.c       ****     Sound_Play(B4, Q);
  97              		.loc 1 44 0
  98 007c 4FF4C871 		mov	r1, #400
  99 0080 4FF4F770 		mov	r0, #494
 100 0084 FFF7FEFF 		bl	Sound_Play
 101              	.LVL12:
  45:music.c       **** 
  46:music.c       ****     Sound_Play(E4, E);
 102              		.loc 1 46 0
 103 0088 C821     		movs	r1, #200
 104 008a 4FF4A570 		mov	r0, #330
 105 008e FFF7FEFF 		bl	Sound_Play
 106              	.LVL13:
  47:music.c       ****     Sound_Play(Ab4, E);
 107              		.loc 1 47 0
 108 0092 C821     		movs	r1, #200
 109 0094 40F29F10 		movw	r0, #415
 110 0098 FFF7FEFF 		bl	Sound_Play
 111              	.LVL14:
  48:music.c       ****     Sound_Play(B4, E);
 112              		.loc 1 48 0
 113 009c C821     		movs	r1, #200
 114 009e 4FF4F770 		mov	r0, #494
 115 00a2 FFF7FEFF 		bl	Sound_Play
 116              	.LVL15:
  49:music.c       ****     Sound_Play(C5, Q);
 117              		.loc 1 49 0
 118 00a6 4FF4C871 		mov	r1, #400
 119 00aa 40F20B20 		movw	r0, #523
 120 00ae FFF7FEFF 		bl	Sound_Play
 121              	.LVL16:
 122 00b2 08BD     		pop	{r3, pc}
ARM GAS  C:\Users\Smaug\AppData\Local\Temp\ccEr8D7e.s 			page 4


 123              		.cfi_endproc
 124              	.LFE0:
 125              		.size	Music_FurElise, .-Music_FurElise
 126              		.section	.text.Music_ViennaWaltz,"ax",%progbits
 127              		.align	2
 128              		.global	Music_ViennaWaltz
 129              		.thumb
 130              		.thumb_func
 131              		.type	Music_ViennaWaltz, %function
 132              	Music_ViennaWaltz:
 133              	.LFB1:
  50:music.c       **** }
  51:music.c       **** 
  52:music.c       **** void Music_ViennaWaltz(void)
  53:music.c       **** {
 134              		.loc 1 53 0
 135              		.cfi_startproc
 136              		@ args = 0, pretend = 0, frame = 0
 137              		@ frame_needed = 0, uses_anonymous_args = 0
 138 0000 08B5     		push	{r3, lr}
 139              		.cfi_def_cfa_offset 8
 140              		.cfi_offset 3, -8
 141              		.cfi_offset 14, -4
  54:music.c       ****     Sound_Play(G4, D);
 142              		.loc 1 54 0
 143 0002 4FF49671 		mov	r1, #300
 144 0006 4FF4C470 		mov	r0, #392
 145 000a FFF7FEFF 		bl	Sound_Play
 146              	.LVL17:
  55:music.c       ****     Sound_Play(B4, D);
 147              		.loc 1 55 0
 148 000e 4FF49671 		mov	r1, #300
 149 0012 4FF4F770 		mov	r0, #494
 150 0016 FFF7FEFF 		bl	Sound_Play
 151              	.LVL18:
  56:music.c       ****     Sound_Play(D5, D);
 152              		.loc 1 56 0
 153 001a 4FF49671 		mov	r1, #300
 154 001e 40F24B20 		movw	r0, #587
 155 0022 FFF7FEFF 		bl	Sound_Play
 156              	.LVL19:
  57:music.c       **** 
  58:music.c       ****     Sound_Play(G4, D);
 157              		.loc 1 58 0
 158 0026 4FF49671 		mov	r1, #300
 159 002a 4FF4C470 		mov	r0, #392
 160 002e FFF7FEFF 		bl	Sound_Play
 161              	.LVL20:
  59:music.c       ****     Sound_Play(B4, D);
 162              		.loc 1 59 0
 163 0032 4FF49671 		mov	r1, #300
 164 0036 4FF4F770 		mov	r0, #494
 165 003a FFF7FEFF 		bl	Sound_Play
 166              	.LVL21:
  60:music.c       ****     Sound_Play(D5, D);
 167              		.loc 1 60 0
 168 003e 4FF49671 		mov	r1, #300
ARM GAS  C:\Users\Smaug\AppData\Local\Temp\ccEr8D7e.s 			page 5


 169 0042 40F24B20 		movw	r0, #587
 170 0046 FFF7FEFF 		bl	Sound_Play
 171              	.LVL22:
  61:music.c       **** 
  62:music.c       ****     Sound_Play(C5, D);
 172              		.loc 1 62 0
 173 004a 4FF49671 		mov	r1, #300
 174 004e 40F20B20 		movw	r0, #523
 175 0052 FFF7FEFF 		bl	Sound_Play
 176              	.LVL23:
  63:music.c       ****     Sound_Play(E5, D);
 177              		.loc 1 63 0
 178 0056 4FF49671 		mov	r1, #300
 179 005a 40F29320 		movw	r0, #659
 180 005e FFF7FEFF 		bl	Sound_Play
 181              	.LVL24:
  64:music.c       ****     Sound_Play(G5, D);
 182              		.loc 1 64 0
 183 0062 4FF49671 		mov	r1, #300
 184 0066 4FF44470 		mov	r0, #784
 185 006a FFF7FEFF 		bl	Sound_Play
 186              	.LVL25:
  65:music.c       **** 
  66:music.c       ****     Sound_Play(B4, D);
 187              		.loc 1 66 0
 188 006e 4FF49671 		mov	r1, #300
 189 0072 4FF4F770 		mov	r0, #494
 190 0076 FFF7FEFF 		bl	Sound_Play
 191              	.LVL26:
  67:music.c       ****     Sound_Play(D5, D);
 192              		.loc 1 67 0
 193 007a 4FF49671 		mov	r1, #300
 194 007e 40F24B20 		movw	r0, #587
 195 0082 FFF7FEFF 		bl	Sound_Play
 196              	.LVL27:
  68:music.c       ****     Sound_Play(F5, D);
 197              		.loc 1 68 0
 198 0086 4FF49671 		mov	r1, #300
 199 008a 40F2BA20 		movw	r0, #698
 200 008e FFF7FEFF 		bl	Sound_Play
 201              	.LVL28:
  69:music.c       **** 
  70:music.c       ****     Sound_Play(G4, H);
 202              		.loc 1 70 0
 203 0092 4FF41671 		mov	r1, #600
 204 0096 4FF4C470 		mov	r0, #392
 205 009a FFF7FEFF 		bl	Sound_Play
 206              	.LVL29:
  71:music.c       ****     Sound_Play(C5, H);
 207              		.loc 1 71 0
 208 009e 4FF41671 		mov	r1, #600
 209 00a2 40F20B20 		movw	r0, #523
 210 00a6 FFF7FEFF 		bl	Sound_Play
 211              	.LVL30:
 212 00aa 08BD     		pop	{r3, pc}
 213              		.cfi_endproc
 214              	.LFE1:
ARM GAS  C:\Users\Smaug\AppData\Local\Temp\ccEr8D7e.s 			page 6


 215              		.size	Music_ViennaWaltz, .-Music_ViennaWaltz
 216              		.text
 217              	.Letext0:
 218              		.file 2 "car.h"