ARM GAS  C:\Users\Smaug\AppData\Local\Temp\ccP4hKq2.s 			page 1


   1              		.syntax unified
   2              		.cpu cortex-m4
   3              		.eabi_attribute 27, 1
   4              		.fpu fpv4-sp-d16
   5              		.eabi_attribute 20, 1
   6              		.eabi_attribute 21, 1
   7              		.eabi_attribute 23, 3
   8              		.eabi_attribute 24, 1
   9              		.eabi_attribute 25, 1
  10              		.eabi_attribute 26, 1
  11              		.eabi_attribute 30, 1
  12              		.eabi_attribute 34, 1
  13              		.eabi_attribute 18, 4
  14              		.thumb
  15              		.syntax unified
  16              		.file	"PCA9685.c"
  17              		.text
  18              	.Ltext0:
  19              		.cfi_sections	.debug_frame
  20              		.section	.text.write32,"ax",%progbits
  21              		.align	2
  22              		.thumb
  23              		.thumb_func
  24              		.type	write32, %function
  25              	write32:
  26              	.LFB756:
  27              		.file 1 "PCA9685\\PCA9685.c"
   1:PCA9685/PCA9685.c **** #include "PCA9685.h"
   2:PCA9685/PCA9685.c **** #include "project.h"
   3:PCA9685/PCA9685.c **** #include "utils.h"
   4:PCA9685/PCA9685.c **** 
   5:PCA9685/PCA9685.c **** #define PCA9685_ADDRESS (0x5Fu)
   6:PCA9685/PCA9685.c **** #define MODE1_REGISTER_ADDRESS (0x00)
   7:PCA9685/PCA9685.c **** 
   8:PCA9685/PCA9685.c **** const static uint8_t LED0_ON_L_REGISTER_ADDRESS = 0x06;
   9:PCA9685/PCA9685.c **** const static uint8_t LED_REGISTERS_SIZE = 4;
  10:PCA9685/PCA9685.c **** 
  11:PCA9685/PCA9685.c **** const static uint8_t PRE_SCALE_REGISTER_ADDRESS = 0xFE;
  12:PCA9685/PCA9685.c **** const static uint8_t PRE_SCALE_MIN = 0x03;
  13:PCA9685/PCA9685.c **** const static uint8_t PRE_SCALE_MAX = 0xFF;
  14:PCA9685/PCA9685.c **** #define PWM_PERIOD_MIN_US (617u)
  15:PCA9685/PCA9685.c **** 
  16:PCA9685/PCA9685.c **** #define SLEEP (1u)
  17:PCA9685/PCA9685.c **** #define WAKE  (0u)
  18:PCA9685/PCA9685.c **** #define AUTO_INCREMENT_ENABLED (1u)
  19:PCA9685/PCA9685.c **** #define RESTART_ENABLED (1u)
  20:PCA9685/PCA9685.c **** #define RESTART_CLEAR (1u)
  21:PCA9685/PCA9685.c **** 
  22:PCA9685/PCA9685.c ****   const static Frequency SERVO_FREQUENCY = 50;
  23:PCA9685/PCA9685.c ****   const static DurationMicroseconds SERVO_PERIOD_MICROSECONDS = 20000;
  24:PCA9685/PCA9685.c **** 
  25:PCA9685/PCA9685.c **** static void write8(uint8_t register_address, uint8_t data)
  26:PCA9685/PCA9685.c **** {
  27:PCA9685/PCA9685.c ****   cy_stc_scb_i2c_master_xfer_config_t transaction;
  28:PCA9685/PCA9685.c ****   static uint8_t dataPacket[2];
  29:PCA9685/PCA9685.c **** 
  30:PCA9685/PCA9685.c **** /* Wait for previous transaction completion */
ARM GAS  C:\Users\Smaug\AppData\Local\Temp\ccP4hKq2.s 			page 2


  31:PCA9685/PCA9685.c ****   while (0UL != (CY_SCB_I2C_MASTER_BUSY & Cy_SCB_I2C_MasterGetStatus(I2C_Main_HW, &I2C_Main_context
  32:PCA9685/PCA9685.c ****   {
  33:PCA9685/PCA9685.c ****   }
  34:PCA9685/PCA9685.c **** 
  35:PCA9685/PCA9685.c ****   dataPacket[0] = register_address;
  36:PCA9685/PCA9685.c ****   dataPacket[1] = data;
  37:PCA9685/PCA9685.c **** 
  38:PCA9685/PCA9685.c ****   transaction.slaveAddress = PCA9685_ADDRESS;
  39:PCA9685/PCA9685.c ****   transaction.buffer = dataPacket;
  40:PCA9685/PCA9685.c ****   transaction.bufferSize = 2;
  41:PCA9685/PCA9685.c ****   transaction.xferPending = false;
  42:PCA9685/PCA9685.c ****   Cy_SCB_I2C_MasterWrite(I2C_Main_HW, &transaction, &I2C_Main_context);
  43:PCA9685/PCA9685.c **** }
  44:PCA9685/PCA9685.c **** 
  45:PCA9685/PCA9685.c **** static void write32(uint8_t register_address, uint32_t data)
  46:PCA9685/PCA9685.c **** {
  28              		.loc 1 46 0
  29              		.cfi_startproc
  30              		@ args = 0, pretend = 0, frame = 16
  31              		@ frame_needed = 0, uses_anonymous_args = 0
  32              	.LVL0:
  33 0000 30B5     		push	{r4, r5, lr}
  34              		.cfi_def_cfa_offset 12
  35              		.cfi_offset 4, -12
  36              		.cfi_offset 5, -8
  37              		.cfi_offset 14, -4
  38 0002 85B0     		sub	sp, sp, #20
  39              		.cfi_def_cfa_offset 32
  40 0004 0546     		mov	r5, r0
  41 0006 0C46     		mov	r4, r1
  42              	.LVL1:
  43              	.L2:
  47:PCA9685/PCA9685.c ****   cy_stc_scb_i2c_master_xfer_config_t transaction;
  48:PCA9685/PCA9685.c ****   static uint8_t dataPacket[5];
  49:PCA9685/PCA9685.c **** 
  50:PCA9685/PCA9685.c **** /* Wait for previous transaction completion */
  51:PCA9685/PCA9685.c ****   while (0UL != (CY_SCB_I2C_MASTER_BUSY & Cy_SCB_I2C_MasterGetStatus(I2C_Main_HW, &I2C_Main_context
  44              		.loc 1 51 0 discriminator 1
  45 0008 1249     		ldr	r1, .L6
  46 000a 1348     		ldr	r0, .L6+4
  47 000c FFF7FEFF 		bl	Cy_SCB_I2C_MasterGetStatus
  48              	.LVL2:
  49 0010 10F4803F 		tst	r0, #65536
  50 0014 F8D1     		bne	.L2
  52:PCA9685/PCA9685.c ****   {
  53:PCA9685/PCA9685.c ****   }
  54:PCA9685/PCA9685.c **** 
  55:PCA9685/PCA9685.c ****   dataPacket[0] = register_address;
  51              		.loc 1 55 0
  52 0016 114B     		ldr	r3, .L6+8
  53 0018 1D70     		strb	r5, [r3]
  54              	.LVL3:
  55              	.LBB2:
  56:PCA9685/PCA9685.c ****   for (int byte_n=0; byte_n<4; ++byte_n)
  56              		.loc 1 56 0
  57 001a 0023     		movs	r3, #0
  58 001c 06E0     		b	.L3
ARM GAS  C:\Users\Smaug\AppData\Local\Temp\ccP4hKq2.s 			page 3


  59              	.LVL4:
  60              	.L4:
  57:PCA9685/PCA9685.c ****   {
  58:PCA9685/PCA9685.c ****     dataPacket[byte_n+1] = (data >> (8u * byte_n)) & 0xFFu;
  61              		.loc 1 58 0 discriminator 3
  62 001e 5A1C     		adds	r2, r3, #1
  63 0020 DB00     		lsls	r3, r3, #3
  64              	.LVL5:
  65 0022 24FA03F3 		lsr	r3, r4, r3
  66 0026 0D49     		ldr	r1, .L6+8
  67 0028 8B54     		strb	r3, [r1, r2]
  68              	.LVL6:
  56:PCA9685/PCA9685.c ****   for (int byte_n=0; byte_n<4; ++byte_n)
  69              		.loc 1 56 0 discriminator 3
  70 002a 1346     		mov	r3, r2
  71              	.LVL7:
  72              	.L3:
  56:PCA9685/PCA9685.c ****   for (int byte_n=0; byte_n<4; ++byte_n)
  73              		.loc 1 56 0 is_stmt 0 discriminator 1
  74 002c 032B     		cmp	r3, #3
  75 002e F6DD     		ble	.L4
  76              	.LBE2:
  59:PCA9685/PCA9685.c ****   }  
  60:PCA9685/PCA9685.c **** 
  61:PCA9685/PCA9685.c ****   transaction.slaveAddress = PCA9685_ADDRESS;
  77              		.loc 1 61 0 is_stmt 1
  78 0030 5F23     		movs	r3, #95
  79              	.LVL8:
  80 0032 8DF80030 		strb	r3, [sp]
  62:PCA9685/PCA9685.c ****   transaction.buffer = dataPacket;
  81              		.loc 1 62 0
  82 0036 094B     		ldr	r3, .L6+8
  83 0038 0193     		str	r3, [sp, #4]
  63:PCA9685/PCA9685.c ****   transaction.bufferSize = 5;
  84              		.loc 1 63 0
  85 003a 0523     		movs	r3, #5
  86 003c 0293     		str	r3, [sp, #8]
  64:PCA9685/PCA9685.c ****   transaction.xferPending = false;
  87              		.loc 1 64 0
  88 003e 0023     		movs	r3, #0
  89 0040 8DF80C30 		strb	r3, [sp, #12]
  65:PCA9685/PCA9685.c ****   Cy_SCB_I2C_MasterWrite(I2C_Main_HW, &transaction, &I2C_Main_context);
  90              		.loc 1 65 0
  91 0044 034A     		ldr	r2, .L6
  92 0046 6946     		mov	r1, sp
  93 0048 0348     		ldr	r0, .L6+4
  94 004a FFF7FEFF 		bl	Cy_SCB_I2C_MasterWrite
  95              	.LVL9:
  66:PCA9685/PCA9685.c **** }
  96              		.loc 1 66 0
  97 004e 05B0     		add	sp, sp, #20
  98              		.cfi_def_cfa_offset 12
  99              		@ sp needed
 100 0050 30BD     		pop	{r4, r5, pc}
 101              	.LVL10:
 102              	.L7:
 103 0052 00BF     		.align	2
ARM GAS  C:\Users\Smaug\AppData\Local\Temp\ccP4hKq2.s 			page 4


 104              	.L6:
 105 0054 00000000 		.word	I2C_Main_context
 106 0058 00006340 		.word	1080229888
 107 005c 00000000 		.word	.LANCHOR0
 108              		.cfi_endproc
 109              	.LFE756:
 110              		.size	write32, .-write32
 111              		.section	.text.write8,"ax",%progbits
 112              		.align	2
 113              		.thumb
 114              		.thumb_func
 115              		.type	write8, %function
 116              	write8:
 117              	.LFB755:
  26:PCA9685/PCA9685.c ****   cy_stc_scb_i2c_master_xfer_config_t transaction;
 118              		.loc 1 26 0
 119              		.cfi_startproc
 120              		@ args = 0, pretend = 0, frame = 16
 121              		@ frame_needed = 0, uses_anonymous_args = 0
 122              	.LVL11:
 123 0000 30B5     		push	{r4, r5, lr}
 124              		.cfi_def_cfa_offset 12
 125              		.cfi_offset 4, -12
 126              		.cfi_offset 5, -8
 127              		.cfi_offset 14, -4
 128 0002 85B0     		sub	sp, sp, #20
 129              		.cfi_def_cfa_offset 32
 130 0004 0546     		mov	r5, r0
 131 0006 0C46     		mov	r4, r1
 132              	.LVL12:
 133              	.L9:
  31:PCA9685/PCA9685.c ****   {
 134              		.loc 1 31 0 discriminator 1
 135 0008 0D49     		ldr	r1, .L11
 136 000a 0E48     		ldr	r0, .L11+4
 137 000c FFF7FEFF 		bl	Cy_SCB_I2C_MasterGetStatus
 138              	.LVL13:
 139 0010 10F4803F 		tst	r0, #65536
 140 0014 F8D1     		bne	.L9
  35:PCA9685/PCA9685.c ****   dataPacket[1] = data;
 141              		.loc 1 35 0
 142 0016 0C4B     		ldr	r3, .L11+8
 143 0018 1D72     		strb	r5, [r3, #8]
  36:PCA9685/PCA9685.c **** 
 144              		.loc 1 36 0
 145 001a 5C72     		strb	r4, [r3, #9]
  38:PCA9685/PCA9685.c ****   transaction.buffer = dataPacket;
 146              		.loc 1 38 0
 147 001c 5F22     		movs	r2, #95
 148 001e 8DF80020 		strb	r2, [sp]
  39:PCA9685/PCA9685.c ****   transaction.bufferSize = 2;
 149              		.loc 1 39 0
 150 0022 0833     		adds	r3, r3, #8
 151 0024 0193     		str	r3, [sp, #4]
  40:PCA9685/PCA9685.c ****   transaction.xferPending = false;
 152              		.loc 1 40 0
 153 0026 0223     		movs	r3, #2
ARM GAS  C:\Users\Smaug\AppData\Local\Temp\ccP4hKq2.s 			page 5


 154 0028 0293     		str	r3, [sp, #8]
  41:PCA9685/PCA9685.c ****   Cy_SCB_I2C_MasterWrite(I2C_Main_HW, &transaction, &I2C_Main_context);
 155              		.loc 1 41 0
 156 002a 0023     		movs	r3, #0
 157 002c 8DF80C30 		strb	r3, [sp, #12]
  42:PCA9685/PCA9685.c **** }
 158              		.loc 1 42 0
 159 0030 034A     		ldr	r2, .L11
 160 0032 6946     		mov	r1, sp
 161 0034 0348     		ldr	r0, .L11+4
 162 0036 FFF7FEFF 		bl	Cy_SCB_I2C_MasterWrite
 163              	.LVL14:
  43:PCA9685/PCA9685.c **** 
 164              		.loc 1 43 0
 165 003a 05B0     		add	sp, sp, #20
 166              		.cfi_def_cfa_offset 12
 167              		@ sp needed
 168 003c 30BD     		pop	{r4, r5, pc}
 169              	.L12:
 170 003e 00BF     		.align	2
 171              	.L11:
 172 0040 00000000 		.word	I2C_Main_context
 173 0044 00006340 		.word	1080229888
 174 0048 00000000 		.word	.LANCHOR0
 175              		.cfi_endproc
 176              	.LFE755:
 177              		.size	write8, .-write8
 178              		.section	.text.read8,"ax",%progbits
 179              		.align	2
 180              		.thumb
 181              		.thumb_func
 182              		.type	read8, %function
 183              	read8:
 184              	.LFB757:
  67:PCA9685/PCA9685.c **** 
  68:PCA9685/PCA9685.c **** static uint8_t read8(uint8_t register_address)
  69:PCA9685/PCA9685.c **** {
 185              		.loc 1 69 0
 186              		.cfi_startproc
 187              		@ args = 0, pretend = 0, frame = 16
 188              		@ frame_needed = 0, uses_anonymous_args = 0
 189              	.LVL15:
 190 0000 10B5     		push	{r4, lr}
 191              		.cfi_def_cfa_offset 8
 192              		.cfi_offset 4, -8
 193              		.cfi_offset 14, -4
 194 0002 84B0     		sub	sp, sp, #16
 195              		.cfi_def_cfa_offset 24
 196 0004 0446     		mov	r4, r0
 197              	.LVL16:
 198              	.L14:
  70:PCA9685/PCA9685.c ****   cy_stc_scb_i2c_master_xfer_config_t transaction;
  71:PCA9685/PCA9685.c ****   static uint8_t dataPacket[1];
  72:PCA9685/PCA9685.c **** 
  73:PCA9685/PCA9685.c ****   /* Wait for previous transaction completion */
  74:PCA9685/PCA9685.c ****   while (0UL != (CY_SCB_I2C_MASTER_BUSY & Cy_SCB_I2C_MasterGetStatus(I2C_Main_HW, &I2C_Main_context
 199              		.loc 1 74 0 discriminator 1
ARM GAS  C:\Users\Smaug\AppData\Local\Temp\ccP4hKq2.s 			page 6


 200 0006 1649     		ldr	r1, .L17
 201 0008 1648     		ldr	r0, .L17+4
 202 000a FFF7FEFF 		bl	Cy_SCB_I2C_MasterGetStatus
 203              	.LVL17:
 204 000e 10F4803F 		tst	r0, #65536
 205 0012 F8D1     		bne	.L14
  75:PCA9685/PCA9685.c ****   {
  76:PCA9685/PCA9685.c ****   }
  77:PCA9685/PCA9685.c ****   
  78:PCA9685/PCA9685.c ****   dataPacket[0] = register_address;
 206              		.loc 1 78 0
 207 0014 144B     		ldr	r3, .L17+8
 208 0016 03F80C4F 		strb	r4, [r3, #12]!
  79:PCA9685/PCA9685.c **** 
  80:PCA9685/PCA9685.c ****   transaction.slaveAddress = PCA9685_ADDRESS;
 209              		.loc 1 80 0
 210 001a 5F22     		movs	r2, #95
 211 001c 8DF80020 		strb	r2, [sp]
  81:PCA9685/PCA9685.c ****   transaction.buffer = dataPacket;
 212              		.loc 1 81 0
 213 0020 0193     		str	r3, [sp, #4]
  82:PCA9685/PCA9685.c ****   transaction.bufferSize = 1;
 214              		.loc 1 82 0
 215 0022 0123     		movs	r3, #1
 216 0024 0293     		str	r3, [sp, #8]
  83:PCA9685/PCA9685.c ****   transaction.xferPending = true;
 217              		.loc 1 83 0
 218 0026 8DF80C30 		strb	r3, [sp, #12]
  84:PCA9685/PCA9685.c **** 
  85:PCA9685/PCA9685.c ****   Cy_SCB_I2C_MasterWrite(I2C_Main_HW, &transaction, &I2C_Main_context);
 219              		.loc 1 85 0
 220 002a 0D4A     		ldr	r2, .L17
 221 002c 6946     		mov	r1, sp
 222 002e 0D48     		ldr	r0, .L17+4
 223 0030 FFF7FEFF 		bl	Cy_SCB_I2C_MasterWrite
 224              	.LVL18:
 225              	.L15:
  86:PCA9685/PCA9685.c **** 
  87:PCA9685/PCA9685.c **** /* Wait for previous transaction completion */
  88:PCA9685/PCA9685.c ****    while (0UL != (CY_SCB_I2C_MASTER_BUSY & Cy_SCB_I2C_MasterGetStatus(I2C_Main_HW, &I2C_Main_contex
 226              		.loc 1 88 0 discriminator 1
 227 0034 0A49     		ldr	r1, .L17
 228 0036 0B48     		ldr	r0, .L17+4
 229 0038 FFF7FEFF 		bl	Cy_SCB_I2C_MasterGetStatus
 230              	.LVL19:
 231 003c 10F4803F 		tst	r0, #65536
 232 0040 F8D1     		bne	.L15
  89:PCA9685/PCA9685.c ****   {
  90:PCA9685/PCA9685.c ****   }
  91:PCA9685/PCA9685.c **** 
  92:PCA9685/PCA9685.c ****   transaction.bufferSize = 1;
 233              		.loc 1 92 0
 234 0042 0123     		movs	r3, #1
 235 0044 0293     		str	r3, [sp, #8]
  93:PCA9685/PCA9685.c ****   transaction.xferPending = false;
 236              		.loc 1 93 0
 237 0046 0023     		movs	r3, #0
ARM GAS  C:\Users\Smaug\AppData\Local\Temp\ccP4hKq2.s 			page 7


 238 0048 8DF80C30 		strb	r3, [sp, #12]
  94:PCA9685/PCA9685.c ****   Cy_SCB_I2C_MasterRead(I2C_Main_HW, &transaction, &I2C_Main_context);
 239              		.loc 1 94 0
 240 004c 044A     		ldr	r2, .L17
 241 004e 6946     		mov	r1, sp
 242 0050 0448     		ldr	r0, .L17+4
 243 0052 FFF7FEFF 		bl	Cy_SCB_I2C_MasterRead
 244              	.LVL20:
  95:PCA9685/PCA9685.c **** 
  96:PCA9685/PCA9685.c ****   return dataPacket[0];
  97:PCA9685/PCA9685.c **** }
 245              		.loc 1 97 0
 246 0056 044B     		ldr	r3, .L17+8
 247 0058 187B     		ldrb	r0, [r3, #12]	@ zero_extendqisi2
 248 005a 04B0     		add	sp, sp, #16
 249              		.cfi_def_cfa_offset 8
 250              		@ sp needed
 251 005c 10BD     		pop	{r4, pc}
 252              	.L18:
 253 005e 00BF     		.align	2
 254              	.L17:
 255 0060 00000000 		.word	I2C_Main_context
 256 0064 00006340 		.word	1080229888
 257 0068 00000000 		.word	.LANCHOR0
 258              		.cfi_endproc
 259              	.LFE757:
 260              		.size	read8, .-read8
 261              		.section	.text.sleep,"ax",%progbits
 262              		.align	2
 263              		.thumb
 264              		.thumb_func
 265              		.type	sleep, %function
 266              	sleep:
 267              	.LFB758:
  98:PCA9685/PCA9685.c **** 
  99:PCA9685/PCA9685.c **** static void sleep()
 100:PCA9685/PCA9685.c **** {
 268              		.loc 1 100 0
 269              		.cfi_startproc
 270              		@ args = 0, pretend = 0, frame = 0
 271              		@ frame_needed = 0, uses_anonymous_args = 0
 272 0000 08B5     		push	{r3, lr}
 273              		.cfi_def_cfa_offset 8
 274              		.cfi_offset 3, -8
 275              		.cfi_offset 14, -4
 101:PCA9685/PCA9685.c ****   union Mode1Register mode1_register;
 102:PCA9685/PCA9685.c ****   mode1_register.data = read8(MODE1_REGISTER_ADDRESS);
 276              		.loc 1 102 0
 277 0002 0020     		movs	r0, #0
 278 0004 FFF7FEFF 		bl	read8
 279              	.LVL21:
 103:PCA9685/PCA9685.c ****   mode1_register.fields.sleep = SLEEP;
 280              		.loc 1 103 0
 281 0008 40F01001 		orr	r1, r0, #16
 104:PCA9685/PCA9685.c ****   write8(MODE1_REGISTER_ADDRESS,mode1_register.data);
 282              		.loc 1 104 0
 283 000c C9B2     		uxtb	r1, r1
ARM GAS  C:\Users\Smaug\AppData\Local\Temp\ccP4hKq2.s 			page 8


 284 000e 0020     		movs	r0, #0
 285 0010 FFF7FEFF 		bl	write8
 286              	.LVL22:
 287 0014 08BD     		pop	{r3, pc}
 288              		.cfi_endproc
 289              	.LFE758:
 290              		.size	sleep, .-sleep
 291 0016 00BF     		.section	.text.wake,"ax",%progbits
 292              		.align	2
 293              		.thumb
 294              		.thumb_func
 295              		.type	wake, %function
 296              	wake:
 297              	.LFB759:
 105:PCA9685/PCA9685.c **** }
 106:PCA9685/PCA9685.c **** 
 107:PCA9685/PCA9685.c **** static void wake()
 108:PCA9685/PCA9685.c **** {
 298              		.loc 1 108 0
 299              		.cfi_startproc
 300              		@ args = 0, pretend = 0, frame = 0
 301              		@ frame_needed = 0, uses_anonymous_args = 0
 302 0000 10B5     		push	{r4, lr}
 303              		.cfi_def_cfa_offset 8
 304              		.cfi_offset 4, -8
 305              		.cfi_offset 14, -4
 109:PCA9685/PCA9685.c ****   union Mode1Register mode1_register;
 110:PCA9685/PCA9685.c ****   mode1_register.data = read8(MODE1_REGISTER_ADDRESS);
 306              		.loc 1 110 0
 307 0002 0020     		movs	r0, #0
 308 0004 FFF7FEFF 		bl	read8
 309              	.LVL23:
 111:PCA9685/PCA9685.c ****   mode1_register.fields.sleep = WAKE;
 310              		.loc 1 111 0
 311 0008 6FF30410 		bfc	r0, #4, #1
 312              	.LVL24:
 112:PCA9685/PCA9685.c ****   mode1_register.fields.ai = AUTO_INCREMENT_ENABLED;
 313              		.loc 1 112 0
 314 000c 40F02004 		orr	r4, r0, #32
 113:PCA9685/PCA9685.c ****   write8(MODE1_REGISTER_ADDRESS,mode1_register.data);
 315              		.loc 1 113 0
 316 0010 E1B2     		uxtb	r1, r4
 317 0012 0020     		movs	r0, #0
 318              	.LVL25:
 319 0014 FFF7FEFF 		bl	write8
 320              	.LVL26:
 114:PCA9685/PCA9685.c ****   if (mode1_register.fields.restart == RESTART_ENABLED)
 321              		.loc 1 114 0
 322 0018 14F0800F 		tst	r4, #128
 323 001c 08D0     		beq	.L21
 115:PCA9685/PCA9685.c ****   {
 116:PCA9685/PCA9685.c ****     CyDelay(1);
 324              		.loc 1 116 0
 325 001e 0120     		movs	r0, #1
 326 0020 FFF7FEFF 		bl	Cy_SysLib_Delay
 327              	.LVL27:
 117:PCA9685/PCA9685.c ****     mode1_register.fields.restart = RESTART_CLEAR;
ARM GAS  C:\Users\Smaug\AppData\Local\Temp\ccP4hKq2.s 			page 9


 328              		.loc 1 117 0
 329 0024 44F08001 		orr	r1, r4, #128
 118:PCA9685/PCA9685.c ****     write8(MODE1_REGISTER_ADDRESS,mode1_register.data);
 330              		.loc 1 118 0
 331 0028 C9B2     		uxtb	r1, r1
 332 002a 0020     		movs	r0, #0
 333 002c FFF7FEFF 		bl	write8
 334              	.LVL28:
 335              	.L21:
 336 0030 10BD     		pop	{r4, pc}
 337              		.cfi_endproc
 338              	.LFE759:
 339              		.size	wake, .-wake
 340 0032 00BF     		.section	.text.PCA9685_Init,"ax",%progbits
 341              		.align	2
 342              		.global	PCA9685_Init
 343              		.thumb
 344              		.thumb_func
 345              		.type	PCA9685_Init, %function
 346              	PCA9685_Init:
 347              	.LFB760:
 119:PCA9685/PCA9685.c ****   }
 120:PCA9685/PCA9685.c **** }
 121:PCA9685/PCA9685.c **** 
 122:PCA9685/PCA9685.c **** void PCA9685_Init(void)
 123:PCA9685/PCA9685.c **** {
 348              		.loc 1 123 0
 349              		.cfi_startproc
 350              		@ args = 0, pretend = 0, frame = 24
 351              		@ frame_needed = 0, uses_anonymous_args = 0
 352 0000 00B5     		push	{lr}
 353              		.cfi_def_cfa_offset 4
 354              		.cfi_offset 14, -4
 355 0002 87B0     		sub	sp, sp, #28
 356              		.cfi_def_cfa_offset 32
 124:PCA9685/PCA9685.c ****   /* write 0x00, 0x00 to PCA9685 */
 125:PCA9685/PCA9685.c ****   uint8_t dataToSend[2u] = {0x00, 0x00}; 
 357              		.loc 1 125 0
 358 0004 0023     		movs	r3, #0
 359 0006 8DF81430 		strb	r3, [sp, #20]
 360 000a 8DF81530 		strb	r3, [sp, #21]
 126:PCA9685/PCA9685.c ****   cy_stc_scb_i2c_master_xfer_config_t transaction;
 127:PCA9685/PCA9685.c **** 
 128:PCA9685/PCA9685.c ****   transaction.slaveAddress = PCA9685_ADDRESS;
 361              		.loc 1 128 0
 362 000e 5F22     		movs	r2, #95
 363 0010 8DF80420 		strb	r2, [sp, #4]
 129:PCA9685/PCA9685.c ****   transaction.buffer = dataToSend;
 364              		.loc 1 129 0
 365 0014 05AA     		add	r2, sp, #20
 366 0016 0292     		str	r2, [sp, #8]
 130:PCA9685/PCA9685.c ****   transaction.bufferSize = 2u;
 367              		.loc 1 130 0
 368 0018 0222     		movs	r2, #2
 369 001a 0392     		str	r2, [sp, #12]
 131:PCA9685/PCA9685.c ****   transaction.xferPending = false;
 370              		.loc 1 131 0
ARM GAS  C:\Users\Smaug\AppData\Local\Temp\ccP4hKq2.s 			page 10


 371 001c 8DF81030 		strb	r3, [sp, #16]
 132:PCA9685/PCA9685.c ****   Cy_SCB_I2C_MasterWrite(I2C_Main_HW, &transaction, &I2C_Main_context);
 372              		.loc 1 132 0
 373 0020 034A     		ldr	r2, .L26
 374 0022 01A9     		add	r1, sp, #4
 375 0024 0348     		ldr	r0, .L26+4
 376 0026 FFF7FEFF 		bl	Cy_SCB_I2C_MasterWrite
 377              	.LVL29:
 133:PCA9685/PCA9685.c **** }    
 378              		.loc 1 133 0
 379 002a 07B0     		add	sp, sp, #28
 380              		.cfi_def_cfa_offset 4
 381              		@ sp needed
 382 002c 5DF804FB 		ldr	pc, [sp], #4
 383              	.L27:
 384              		.align	2
 385              	.L26:
 386 0030 00000000 		.word	I2C_Main_context
 387 0034 00006340 		.word	1080229888
 388              		.cfi_endproc
 389              	.LFE760:
 390              		.size	PCA9685_Init, .-PCA9685_Init
 391              		.section	.text.PCA9685_setChannelOnAndOffTime,"ax",%progbits
 392              		.align	2
 393              		.global	PCA9685_setChannelOnAndOffTime
 394              		.thumb
 395              		.thumb_func
 396              		.type	PCA9685_setChannelOnAndOffTime, %function
 397              	PCA9685_setChannelOnAndOffTime:
 398              	.LFB762:
 134:PCA9685/PCA9685.c **** 
 135:PCA9685/PCA9685.c **** void PCA9685_setChannelPulseWidth(Channel channel, Duration pulse_width)
 136:PCA9685/PCA9685.c **** {
 137:PCA9685/PCA9685.c ****   Time on_time;
 138:PCA9685/PCA9685.c ****   Time off_time;
 139:PCA9685/PCA9685.c ****   PCA9685_pulseWidthAndPhaseShiftToOnTimeAndOffTime(pulse_width,&on_time,&off_time);
 140:PCA9685/PCA9685.c ****   PCA9685_setChannelOnAndOffTime(channel,on_time,off_time);
 141:PCA9685/PCA9685.c **** }
 142:PCA9685/PCA9685.c **** 
 143:PCA9685/PCA9685.c **** void PCA9685_setChannelOnAndOffTime(Channel channel, Time on_time, Time off_time)
 144:PCA9685/PCA9685.c **** {
 399              		.loc 1 144 0
 400              		.cfi_startproc
 401              		@ args = 0, pretend = 0, frame = 0
 402              		@ frame_needed = 0, uses_anonymous_args = 0
 403              	.LVL30:
 145:PCA9685/PCA9685.c ****   if (channel >= CHANNELS_PER_DEVICE)
 404              		.loc 1 145 0
 405 0000 0F28     		cmp	r0, #15
 406 0002 09D8     		bhi	.L31
 144:PCA9685/PCA9685.c ****   if (channel >= CHANNELS_PER_DEVICE)
 407              		.loc 1 144 0
 408 0004 08B5     		push	{r3, lr}
 409              		.cfi_def_cfa_offset 8
 410              		.cfi_offset 3, -8
 411              		.cfi_offset 14, -4
 146:PCA9685/PCA9685.c ****   {
ARM GAS  C:\Users\Smaug\AppData\Local\Temp\ccP4hKq2.s 			page 11


 147:PCA9685/PCA9685.c ****     return;
 148:PCA9685/PCA9685.c ****   }
 149:PCA9685/PCA9685.c ****   uint8_t register_address = LED0_ON_L_REGISTER_ADDRESS + LED_REGISTERS_SIZE * channel;
 412              		.loc 1 149 0
 413 0006 8000     		lsls	r0, r0, #2
 414              	.LVL31:
 415 0008 0630     		adds	r0, r0, #6
 416              	.LVL32:
 150:PCA9685/PCA9685.c ****   uint32_t data = (off_time << 16u) | on_time;
 151:PCA9685/PCA9685.c ****   write32(register_address,data);
 417              		.loc 1 151 0
 418 000a 41EA0241 		orr	r1, r1, r2, lsl #16
 419              	.LVL33:
 420 000e 00F0FE00 		and	r0, r0, #254
 421              	.LVL34:
 422 0012 FFF7FEFF 		bl	write32
 423              	.LVL35:
 424 0016 08BD     		pop	{r3, pc}
 425              	.LVL36:
 426              	.L31:
 427              		.cfi_def_cfa_offset 0
 428              		.cfi_restore 3
 429              		.cfi_restore 14
 430 0018 7047     		bx	lr
 431              		.cfi_endproc
 432              	.LFE762:
 433              		.size	PCA9685_setChannelOnAndOffTime, .-PCA9685_setChannelOnAndOffTime
 434 001a 00BF     		.section	.text.PCA9685_setPrescale,"ax",%progbits
 435              		.align	2
 436              		.global	PCA9685_setPrescale
 437              		.thumb
 438              		.thumb_func
 439              		.type	PCA9685_setPrescale, %function
 440              	PCA9685_setPrescale:
 441              	.LFB765:
 152:PCA9685/PCA9685.c **** }
 153:PCA9685/PCA9685.c **** 
 154:PCA9685/PCA9685.c **** void PCA9685_setToFrequency(Frequency frequency)
 155:PCA9685/PCA9685.c **** {
 156:PCA9685/PCA9685.c ****   uint8_t prescale = PCA9685_frequencyToPrescale(frequency);
 157:PCA9685/PCA9685.c ****   PCA9685_setPrescale(prescale);
 158:PCA9685/PCA9685.c **** }
 159:PCA9685/PCA9685.c **** 
 160:PCA9685/PCA9685.c **** void PCA9685_setToServoFrequency()
 161:PCA9685/PCA9685.c **** {
 162:PCA9685/PCA9685.c ****   PCA9685_setToFrequency(SERVO_FREQUENCY);
 163:PCA9685/PCA9685.c **** }
 164:PCA9685/PCA9685.c **** 
 165:PCA9685/PCA9685.c **** void PCA9685_setPrescale(uint8_t prescale)
 166:PCA9685/PCA9685.c **** {
 442              		.loc 1 166 0
 443              		.cfi_startproc
 444              		@ args = 0, pretend = 0, frame = 0
 445              		@ frame_needed = 0, uses_anonymous_args = 0
 446              	.LVL37:
 447 0000 10B5     		push	{r4, lr}
 448              		.cfi_def_cfa_offset 8
ARM GAS  C:\Users\Smaug\AppData\Local\Temp\ccP4hKq2.s 			page 12


 449              		.cfi_offset 4, -8
 450              		.cfi_offset 14, -4
 451 0002 0446     		mov	r4, r0
 167:PCA9685/PCA9685.c ****   sleep();
 452              		.loc 1 167 0
 453 0004 FFF7FEFF 		bl	sleep
 454              	.LVL38:
 168:PCA9685/PCA9685.c ****   write8(PRE_SCALE_REGISTER_ADDRESS,prescale);
 455              		.loc 1 168 0
 456 0008 2146     		mov	r1, r4
 457 000a FE20     		movs	r0, #254
 458 000c FFF7FEFF 		bl	write8
 459              	.LVL39:
 169:PCA9685/PCA9685.c ****   wake();
 460              		.loc 1 169 0
 461 0010 FFF7FEFF 		bl	wake
 462              	.LVL40:
 463 0014 10BD     		pop	{r4, pc}
 464              		.cfi_endproc
 465              	.LFE765:
 466              		.size	PCA9685_setPrescale, .-PCA9685_setPrescale
 467 0016 00BF     		.section	.text.PCA9685_frequencyToPrescale,"ax",%progbits
 468              		.align	2
 469              		.global	PCA9685_frequencyToPrescale
 470              		.thumb
 471              		.thumb_func
 472              		.type	PCA9685_frequencyToPrescale, %function
 473              	PCA9685_frequencyToPrescale:
 474              	.LFB766:
 170:PCA9685/PCA9685.c **** }
 171:PCA9685/PCA9685.c **** 
 172:PCA9685/PCA9685.c **** uint8_t PCA9685_frequencyToPrescale(Frequency frequency)
 173:PCA9685/PCA9685.c **** {
 475              		.loc 1 173 0
 476              		.cfi_startproc
 477              		@ args = 0, pretend = 0, frame = 0
 478              		@ frame_needed = 0, uses_anonymous_args = 0
 479              	.LVL41:
 480 0000 00B5     		push	{lr}
 481              		.cfi_def_cfa_offset 4
 482              		.cfi_offset 14, -4
 483 0002 83B0     		sub	sp, sp, #12
 484              		.cfi_def_cfa_offset 16
 174:PCA9685/PCA9685.c ****   DurationMicroseconds period_us = MICROSECONDS_PER_SECOND / frequency;
 485              		.loc 1 174 0
 486 0004 0B4B     		ldr	r3, .L36
 487 0006 B3FBF0F0 		udiv	r0, r3, r0
 488              	.LVL42:
 175:PCA9685/PCA9685.c ****   period_us = constrain_int(period_us,PWM_PERIOD_MIN_US,PWM_PERIOD_MAX_US);
 489              		.loc 1 175 0
 490 000a 49F66522 		movw	r2, #39525
 491 000e 40F26921 		movw	r1, #617
 492 0012 80B2     		uxth	r0, r0
 493 0014 FFF7FEFF 		bl	constrain_int
 494              	.LVL43:
 176:PCA9685/PCA9685.c ****   uint8_t prescale = map_int(period_us,PWM_PERIOD_MIN_US,PWM_PERIOD_MAX_US,PRE_SCALE_MIN,PRE_SCALE_
 495              		.loc 1 176 0
ARM GAS  C:\Users\Smaug\AppData\Local\Temp\ccP4hKq2.s 			page 13


 496 0018 FF23     		movs	r3, #255
 497 001a 0093     		str	r3, [sp]
 498 001c 0323     		movs	r3, #3
 499 001e 49F66522 		movw	r2, #39525
 500 0022 40F26921 		movw	r1, #617
 501 0026 80B2     		uxth	r0, r0
 502 0028 FFF7FEFF 		bl	map_int
 503              	.LVL44:
 177:PCA9685/PCA9685.c ****   return prescale;
 178:PCA9685/PCA9685.c **** }
 504              		.loc 1 178 0
 505 002c C0B2     		uxtb	r0, r0
 506 002e 03B0     		add	sp, sp, #12
 507              		.cfi_def_cfa_offset 4
 508              		@ sp needed
 509 0030 5DF804FB 		ldr	pc, [sp], #4
 510              	.L37:
 511              		.align	2
 512              	.L36:
 513 0034 40420F00 		.word	1000000
 514              		.cfi_endproc
 515              	.LFE766:
 516              		.size	PCA9685_frequencyToPrescale, .-PCA9685_frequencyToPrescale
 517              		.section	.text.PCA9685_setToFrequency,"ax",%progbits
 518              		.align	2
 519              		.global	PCA9685_setToFrequency
 520              		.thumb
 521              		.thumb_func
 522              		.type	PCA9685_setToFrequency, %function
 523              	PCA9685_setToFrequency:
 524              	.LFB763:
 155:PCA9685/PCA9685.c ****   uint8_t prescale = PCA9685_frequencyToPrescale(frequency);
 525              		.loc 1 155 0
 526              		.cfi_startproc
 527              		@ args = 0, pretend = 0, frame = 0
 528              		@ frame_needed = 0, uses_anonymous_args = 0
 529              	.LVL45:
 530 0000 08B5     		push	{r3, lr}
 531              		.cfi_def_cfa_offset 8
 532              		.cfi_offset 3, -8
 533              		.cfi_offset 14, -4
 156:PCA9685/PCA9685.c ****   PCA9685_setPrescale(prescale);
 534              		.loc 1 156 0
 535 0002 FFF7FEFF 		bl	PCA9685_frequencyToPrescale
 536              	.LVL46:
 157:PCA9685/PCA9685.c **** }
 537              		.loc 1 157 0
 538 0006 FFF7FEFF 		bl	PCA9685_setPrescale
 539              	.LVL47:
 540 000a 08BD     		pop	{r3, pc}
 541              		.cfi_endproc
 542              	.LFE763:
 543              		.size	PCA9685_setToFrequency, .-PCA9685_setToFrequency
 544              		.section	.text.PCA9685_setToServoFrequency,"ax",%progbits
 545              		.align	2
 546              		.global	PCA9685_setToServoFrequency
 547              		.thumb
ARM GAS  C:\Users\Smaug\AppData\Local\Temp\ccP4hKq2.s 			page 14


 548              		.thumb_func
 549              		.type	PCA9685_setToServoFrequency, %function
 550              	PCA9685_setToServoFrequency:
 551              	.LFB764:
 161:PCA9685/PCA9685.c ****   PCA9685_setToFrequency(SERVO_FREQUENCY);
 552              		.loc 1 161 0
 553              		.cfi_startproc
 554              		@ args = 0, pretend = 0, frame = 0
 555              		@ frame_needed = 0, uses_anonymous_args = 0
 556 0000 08B5     		push	{r3, lr}
 557              		.cfi_def_cfa_offset 8
 558              		.cfi_offset 3, -8
 559              		.cfi_offset 14, -4
 162:PCA9685/PCA9685.c **** }
 560              		.loc 1 162 0
 561 0002 3220     		movs	r0, #50
 562 0004 FFF7FEFF 		bl	PCA9685_setToFrequency
 563              	.LVL48:
 564 0008 08BD     		pop	{r3, pc}
 565              		.cfi_endproc
 566              	.LFE764:
 567              		.size	PCA9685_setToServoFrequency, .-PCA9685_setToServoFrequency
 568 000a 00BF     		.section	.text.PCA9685_pulseWidthAndPhaseShiftToOnTimeAndOffTime,"ax",%progbits
 569              		.align	2
 570              		.global	PCA9685_pulseWidthAndPhaseShiftToOnTimeAndOffTime
 571              		.thumb
 572              		.thumb_func
 573              		.type	PCA9685_pulseWidthAndPhaseShiftToOnTimeAndOffTime, %function
 574              	PCA9685_pulseWidthAndPhaseShiftToOnTimeAndOffTime:
 575              	.LFB767:
 179:PCA9685/PCA9685.c **** 
 180:PCA9685/PCA9685.c **** void PCA9685_pulseWidthAndPhaseShiftToOnTimeAndOffTime(Duration pulse_width,
 181:PCA9685/PCA9685.c ****   Time *on_time,
 182:PCA9685/PCA9685.c ****   Time *off_time)
 183:PCA9685/PCA9685.c **** {
 576              		.loc 1 183 0
 577              		.cfi_startproc
 578              		@ args = 0, pretend = 0, frame = 0
 579              		@ frame_needed = 0, uses_anonymous_args = 0
 580              		@ link register save eliminated.
 581              	.LVL49:
 184:PCA9685/PCA9685.c ****   if (pulse_width == TIME_MIN)
 582              		.loc 1 184 0
 583 0000 0346     		mov	r3, r0
 584 0002 28B9     		cbnz	r0, .L43
 185:PCA9685/PCA9685.c ****   {
 186:PCA9685/PCA9685.c ****     *on_time = TIME_MIN;
 585              		.loc 1 186 0
 586 0004 0023     		movs	r3, #0
 587 0006 0B80     		strh	r3, [r1]	@ movhi
 187:PCA9685/PCA9685.c ****     *off_time = TIME_MAX;
 588              		.loc 1 187 0
 589 0008 4FF48053 		mov	r3, #4096
 590 000c 1380     		strh	r3, [r2]	@ movhi
 188:PCA9685/PCA9685.c ****     return;
 591              		.loc 1 188 0
 592 000e 7047     		bx	lr
ARM GAS  C:\Users\Smaug\AppData\Local\Temp\ccP4hKq2.s 			page 15


 593              	.L43:
 189:PCA9685/PCA9685.c ****   }
 190:PCA9685/PCA9685.c ****   if (pulse_width >= TIME_MAX)
 594              		.loc 1 190 0
 595 0010 B0F5805F 		cmp	r0, #4096
 596 0014 05D3     		bcc	.L45
 191:PCA9685/PCA9685.c ****   {
 192:PCA9685/PCA9685.c ****     *on_time = TIME_MAX;
 597              		.loc 1 192 0
 598 0016 4FF48053 		mov	r3, #4096
 599 001a 0B80     		strh	r3, [r1]	@ movhi
 193:PCA9685/PCA9685.c ****     *off_time = TIME_MIN;
 600              		.loc 1 193 0
 601 001c 0023     		movs	r3, #0
 602 001e 1380     		strh	r3, [r2]	@ movhi
 194:PCA9685/PCA9685.c ****     return;
 603              		.loc 1 194 0
 604 0020 7047     		bx	lr
 605              	.L45:
 195:PCA9685/PCA9685.c ****   }
 196:PCA9685/PCA9685.c ****   *on_time = 0;
 606              		.loc 1 196 0
 607 0022 0020     		movs	r0, #0
 608              	.LVL50:
 609 0024 0880     		strh	r0, [r1]	@ movhi
 197:PCA9685/PCA9685.c ****   *off_time = (*on_time + pulse_width) % TIME_MAX;
 610              		.loc 1 197 0
 611 0026 C3F30B03 		ubfx	r3, r3, #0, #12
 612 002a 1380     		strh	r3, [r2]	@ movhi
 613 002c 7047     		bx	lr
 614              		.cfi_endproc
 615              	.LFE767:
 616              		.size	PCA9685_pulseWidthAndPhaseShiftToOnTimeAndOffTime, .-PCA9685_pulseWidthAndPhaseShiftToOnTime
 617 002e 00BF     		.section	.text.PCA9685_setChannelPulseWidth,"ax",%progbits
 618              		.align	2
 619              		.global	PCA9685_setChannelPulseWidth
 620              		.thumb
 621              		.thumb_func
 622              		.type	PCA9685_setChannelPulseWidth, %function
 623              	PCA9685_setChannelPulseWidth:
 624              	.LFB761:
 136:PCA9685/PCA9685.c ****   Time on_time;
 625              		.loc 1 136 0
 626              		.cfi_startproc
 627              		@ args = 0, pretend = 0, frame = 8
 628              		@ frame_needed = 0, uses_anonymous_args = 0
 629              	.LVL51:
 630 0000 10B5     		push	{r4, lr}
 631              		.cfi_def_cfa_offset 8
 632              		.cfi_offset 4, -8
 633              		.cfi_offset 14, -4
 634 0002 82B0     		sub	sp, sp, #8
 635              		.cfi_def_cfa_offset 16
 636 0004 0446     		mov	r4, r0
 637 0006 0846     		mov	r0, r1
 638              	.LVL52:
 139:PCA9685/PCA9685.c ****   PCA9685_setChannelOnAndOffTime(channel,on_time,off_time);
ARM GAS  C:\Users\Smaug\AppData\Local\Temp\ccP4hKq2.s 			page 16


 639              		.loc 1 139 0
 640 0008 01AA     		add	r2, sp, #4
 641 000a 0DF10601 		add	r1, sp, #6
 642              	.LVL53:
 643 000e FFF7FEFF 		bl	PCA9685_pulseWidthAndPhaseShiftToOnTimeAndOffTime
 644              	.LVL54:
 140:PCA9685/PCA9685.c **** }
 645              		.loc 1 140 0
 646 0012 BDF80420 		ldrh	r2, [sp, #4]
 647 0016 BDF80610 		ldrh	r1, [sp, #6]
 648 001a 2046     		mov	r0, r4
 649 001c FFF7FEFF 		bl	PCA9685_setChannelOnAndOffTime
 650              	.LVL55:
 141:PCA9685/PCA9685.c **** 
 651              		.loc 1 141 0
 652 0020 02B0     		add	sp, sp, #8
 653              		.cfi_def_cfa_offset 8
 654              		@ sp needed
 655 0022 10BD     		pop	{r4, pc}
 656              		.cfi_endproc
 657              	.LFE761:
 658              		.size	PCA9685_setChannelPulseWidth, .-PCA9685_setChannelPulseWidth
 659              		.bss
 660              		.align	2
 661              		.set	.LANCHOR0,. + 0
 662              		.type	dataPacket.18206, %object
 663              		.size	dataPacket.18206, 5
 664              	dataPacket.18206:
 665 0000 00000000 		.space	5
 665      00
 666 0005 000000   		.space	3
 667              		.type	dataPacket.18197, %object
 668              		.size	dataPacket.18197, 2
 669              	dataPacket.18197:
 670 0008 0000     		.space	2
 671 000a 0000     		.space	2
 672              		.type	dataPacket.18218, %object
 673              		.size	dataPacket.18218, 1
 674              	dataPacket.18218:
 675 000c 00       		.space	1
 676              		.text
 677              	.Letext0:
 678              		.file 2 "c:\\program files (x86)\\cypress\\psoc creator\\4.4\\psoc creator\\import\\gnu\\arm\\5.4.
 679              		.file 3 "c:\\program files (x86)\\cypress\\psoc creator\\4.4\\psoc creator\\import\\gnu\\arm\\5.4.
 680              		.file 4 "./PCA9685.h"
 681              		.file 5 "Generated_Source\\PSoC6\\pdl\\devices/psoc6/include/ip/cyip_scb.h"
 682              		.file 6 "Generated_Source\\PSoC6\\pdl\\devices/psoc6/include/psoc6_01_config.h"
 683              		.file 7 "Generated_Source\\PSoC6\\pdl\\drivers/peripheral/device/cy_device.h"
 684              		.file 8 "Generated_Source\\PSoC6\\pdl\\drivers/peripheral/sar/cy_sar.h"
 685              		.file 9 "Generated_Source\\PSoC6\\pdl\\drivers/peripheral/scb/cy_scb_i2c.h"
 686              		.file 10 "Generated_Source\\PSoC6\\pdl\\drivers/peripheral/scb/cy_scb_spi.h"
 687              		.file 11 "Generated_Source\\PSoC6\\pdl\\drivers/peripheral/scb/cy_scb_uart.h"
 688              		.file 12 "Generated_Source\\PSoC6\\pdl\\drivers/peripheral/tcpwm/cy_tcpwm_counter.h"
 689              		.file 13 "Generated_Source\\PSoC6\\pdl\\drivers/peripheral/tcpwm/cy_tcpwm_pwm.h"
 690              		.file 14 "Generated_Source\\PSoC6/ADC.h"
 691              		.file 15 "Generated_Source\\PSoC6\\pdl\\cmsis/include/core_cm4.h"
 692              		.file 16 "Generated_Source\\PSoC6/I2C_Main.h"
ARM GAS  C:\Users\Smaug\AppData\Local\Temp\ccP4hKq2.s 			page 17


 693              		.file 17 "Generated_Source\\PSoC6/UART_Debug.h"
 694              		.file 18 "Generated_Source\\PSoC6/PWM_Trig.h"
 695              		.file 19 "Generated_Source\\PSoC6/Counter_Echo.h"
 696              		.file 20 "Generated_Source\\PSoC6/IR.h"
 697              		.file 21 "Generated_Source\\PSoC6/PWM_Buz.h"
 698              		.file 22 "Generated_Source\\PSoC6/SPI_LEDCTRL.h"
 699              		.file 23 "Generated_Source\\PSoC6\\pdl\\drivers/peripheral/syslib/cy_syslib.h"
 700              		.file 24 "./utils.h"