ARM GAS  C:\Users\Smaug\AppData\Local\Temp\ccI0Qg8V.s 			page 1


   1              		.syntax unified
   2              		.cpu cortex-m4
   3              		.eabi_attribute 27, 1
   4              		.fpu fpv4-sp-d16
   5              		.eabi_attribute 20, 1
   6              		.eabi_attribute 21, 1
   7              		.eabi_attribute 23, 3
   8              		.eabi_attribute 24, 1
   9              		.eabi_attribute 25, 1
  10              		.eabi_attribute 26, 1
  11              		.eabi_attribute 30, 1
  12              		.eabi_attribute 34, 1
  13              		.eabi_attribute 18, 4
  14              		.thumb
  15              		.syntax unified
  16              		.file	"PCF8574.c"
  17              		.text
  18              	.Ltext0:
  19              		.cfi_sections	.debug_frame
  20              		.section	.text.PCF8574_read8,"ax",%progbits
  21              		.align	2
  22              		.global	PCF8574_read8
  23              		.thumb
  24              		.thumb_func
  25              		.type	PCF8574_read8, %function
  26              	PCF8574_read8:
  27              	.LFB756:
  28              		.file 1 "PCF8574.c"
   1:PCF8574.c     **** 
   2:PCF8574.c     **** #include "PCF8574.h"
   3:PCF8574.c     **** #include "project.h"    
   4:PCF8574.c     **** 
   5:PCF8574.c     **** #define PCF8574_ADDRESS            (0x25u)    // Tracking module I2C address
   6:PCF8574.c     **** #define PCF8574_INITIAL_VALUE      (0xFFu)      
   7:PCF8574.c     **** #define I2C_TIMEOUT_MS             (100u)  // Timeout for I2C operations    
   8:PCF8574.c     **** 
   9:PCF8574.c     **** void PCF8574_begin(void)
  10:PCF8574.c     **** {
  11:PCF8574.c     ****   PCF8574_write8(PCF8574_INITIAL_VALUE);
  12:PCF8574.c     **** }
  13:PCF8574.c     **** 
  14:PCF8574.c     **** uint8_t PCF8574_read8(void)
  15:PCF8574.c     **** {
  29              		.loc 1 15 0
  30              		.cfi_startproc
  31              		@ args = 0, pretend = 0, frame = 16
  32              		@ frame_needed = 0, uses_anonymous_args = 0
  33 0000 10B5     		push	{r4, lr}
  34              		.cfi_def_cfa_offset 8
  35              		.cfi_offset 4, -8
  36              		.cfi_offset 14, -4
  37 0002 84B0     		sub	sp, sp, #16
  38              		.cfi_def_cfa_offset 24
  39              	.L2:
  16:PCF8574.c     ****   cy_stc_scb_i2c_master_xfer_config_t transaction;
  17:PCF8574.c     ****   static uint8_t dataPacket[1];
  18:PCF8574.c     **** 
ARM GAS  C:\Users\Smaug\AppData\Local\Temp\ccI0Qg8V.s 			page 2


  19:PCF8574.c     ****   // Wait for previous transaction completion
  20:PCF8574.c     ****   while (0UL != (CY_SCB_I2C_MASTER_BUSY & Cy_SCB_I2C_MasterGetStatus(I2C_Main_HW, &I2C_Main_context
  40              		.loc 1 20 0 discriminator 1
  41 0004 0C49     		ldr	r1, .L4
  42 0006 0D48     		ldr	r0, .L4+4
  43 0008 FFF7FEFF 		bl	Cy_SCB_I2C_MasterGetStatus
  44              	.LVL0:
  45 000c 10F4803F 		tst	r0, #65536
  46 0010 F8D1     		bne	.L2
  21:PCF8574.c     ****   {
  22:PCF8574.c     ****   }
  23:PCF8574.c     ****   
  24:PCF8574.c     ****   transaction.slaveAddress = PCF8574_ADDRESS;
  47              		.loc 1 24 0
  48 0012 2523     		movs	r3, #37
  49 0014 8DF80030 		strb	r3, [sp]
  25:PCF8574.c     ****   transaction.buffer = dataPacket;
  50              		.loc 1 25 0
  51 0018 094C     		ldr	r4, .L4+8
  52 001a 0194     		str	r4, [sp, #4]
  26:PCF8574.c     ****   transaction.bufferSize = 1;
  53              		.loc 1 26 0
  54 001c 0123     		movs	r3, #1
  55 001e 0293     		str	r3, [sp, #8]
  27:PCF8574.c     ****   transaction.xferPending = false;
  56              		.loc 1 27 0
  57 0020 0023     		movs	r3, #0
  58 0022 8DF80C30 		strb	r3, [sp, #12]
  28:PCF8574.c     ****   Cy_SCB_I2C_MasterRead(I2C_Main_HW, &transaction, &I2C_Main_context);
  59              		.loc 1 28 0
  60 0026 044A     		ldr	r2, .L4
  61 0028 6946     		mov	r1, sp
  62 002a 0448     		ldr	r0, .L4+4
  63 002c FFF7FEFF 		bl	Cy_SCB_I2C_MasterRead
  64              	.LVL1:
  29:PCF8574.c     **** 
  30:PCF8574.c     ****   return dataPacket[0];
  31:PCF8574.c     **** }
  65              		.loc 1 31 0
  66 0030 2078     		ldrb	r0, [r4]	@ zero_extendqisi2
  67 0032 04B0     		add	sp, sp, #16
  68              		.cfi_def_cfa_offset 8
  69              		@ sp needed
  70 0034 10BD     		pop	{r4, pc}
  71              	.L5:
  72 0036 00BF     		.align	2
  73              	.L4:
  74 0038 00000000 		.word	I2C_Main_context
  75 003c 00006340 		.word	1080229888
  76 0040 00000000 		.word	.LANCHOR0
  77              		.cfi_endproc
  78              	.LFE756:
  79              		.size	PCF8574_read8, .-PCF8574_read8
  80              		.section	.text.PCF8574_write8,"ax",%progbits
  81              		.align	2
  82              		.global	PCF8574_write8
  83              		.thumb
ARM GAS  C:\Users\Smaug\AppData\Local\Temp\ccI0Qg8V.s 			page 3


  84              		.thumb_func
  85              		.type	PCF8574_write8, %function
  86              	PCF8574_write8:
  87              	.LFB757:
  32:PCF8574.c     **** 
  33:PCF8574.c     **** 
  34:PCF8574.c     **** void PCF8574_write8(uint8_t value)
  35:PCF8574.c     **** {
  88              		.loc 1 35 0
  89              		.cfi_startproc
  90              		@ args = 0, pretend = 0, frame = 16
  91              		@ frame_needed = 0, uses_anonymous_args = 0
  92              	.LVL2:
  93 0000 10B5     		push	{r4, lr}
  94              		.cfi_def_cfa_offset 8
  95              		.cfi_offset 4, -8
  96              		.cfi_offset 14, -4
  97 0002 84B0     		sub	sp, sp, #16
  98              		.cfi_def_cfa_offset 24
  99 0004 0446     		mov	r4, r0
 100              	.LVL3:
 101              	.L7:
  36:PCF8574.c     ****   cy_stc_scb_i2c_master_xfer_config_t transaction;
  37:PCF8574.c     ****   static uint8_t dataPacket[1];
  38:PCF8574.c     **** 
  39:PCF8574.c     ****   // Wait for previous transaction completion 
  40:PCF8574.c     ****   while (0UL != (CY_SCB_I2C_MASTER_BUSY & Cy_SCB_I2C_MasterGetStatus(I2C_Main_HW, &I2C_Main_context
 102              		.loc 1 40 0 discriminator 1
 103 0006 0D49     		ldr	r1, .L9
 104 0008 0D48     		ldr	r0, .L9+4
 105 000a FFF7FEFF 		bl	Cy_SCB_I2C_MasterGetStatus
 106              	.LVL4:
 107 000e 10F4803F 		tst	r0, #65536
 108 0012 F8D1     		bne	.L7
  41:PCF8574.c     ****   {
  42:PCF8574.c     ****   }
  43:PCF8574.c     **** 
  44:PCF8574.c     ****   dataPacket[0] = value;
 109              		.loc 1 44 0
 110 0014 0B4B     		ldr	r3, .L9+8
 111 0016 03F8044F 		strb	r4, [r3, #4]!
  45:PCF8574.c     **** 
  46:PCF8574.c     ****   transaction.slaveAddress = PCF8574_ADDRESS;
 112              		.loc 1 46 0
 113 001a 2522     		movs	r2, #37
 114 001c 8DF80020 		strb	r2, [sp]
  47:PCF8574.c     ****   transaction.buffer = dataPacket;
 115              		.loc 1 47 0
 116 0020 0193     		str	r3, [sp, #4]
  48:PCF8574.c     ****   transaction.bufferSize = 1;
 117              		.loc 1 48 0
 118 0022 0123     		movs	r3, #1
 119 0024 0293     		str	r3, [sp, #8]
  49:PCF8574.c     ****   transaction.xferPending = false;
 120              		.loc 1 49 0
 121 0026 0023     		movs	r3, #0
 122 0028 8DF80C30 		strb	r3, [sp, #12]
ARM GAS  C:\Users\Smaug\AppData\Local\Temp\ccI0Qg8V.s 			page 4


  50:PCF8574.c     ****   Cy_SCB_I2C_MasterWrite(I2C_Main_HW, &transaction, &I2C_Main_context);
 123              		.loc 1 50 0
 124 002c 034A     		ldr	r2, .L9
 125 002e 6946     		mov	r1, sp
 126 0030 0348     		ldr	r0, .L9+4
 127 0032 FFF7FEFF 		bl	Cy_SCB_I2C_MasterWrite
 128              	.LVL5:
  51:PCF8574.c     **** }
 129              		.loc 1 51 0
 130 0036 04B0     		add	sp, sp, #16
 131              		.cfi_def_cfa_offset 8
 132              		@ sp needed
 133 0038 10BD     		pop	{r4, pc}
 134              	.L10:
 135 003a 00BF     		.align	2
 136              	.L9:
 137 003c 00000000 		.word	I2C_Main_context
 138 0040 00006340 		.word	1080229888
 139 0044 00000000 		.word	.LANCHOR0
 140              		.cfi_endproc
 141              	.LFE757:
 142              		.size	PCF8574_write8, .-PCF8574_write8
 143              		.section	.text.PCF8574_begin,"ax",%progbits
 144              		.align	2
 145              		.global	PCF8574_begin
 146              		.thumb
 147              		.thumb_func
 148              		.type	PCF8574_begin, %function
 149              	PCF8574_begin:
 150              	.LFB755:
  10:PCF8574.c     ****   PCF8574_write8(PCF8574_INITIAL_VALUE);
 151              		.loc 1 10 0
 152              		.cfi_startproc
 153              		@ args = 0, pretend = 0, frame = 0
 154              		@ frame_needed = 0, uses_anonymous_args = 0
 155 0000 08B5     		push	{r3, lr}
 156              		.cfi_def_cfa_offset 8
 157              		.cfi_offset 3, -8
 158              		.cfi_offset 14, -4
  11:PCF8574.c     **** }
 159              		.loc 1 11 0
 160 0002 FF20     		movs	r0, #255
 161 0004 FFF7FEFF 		bl	PCF8574_write8
 162              	.LVL6:
 163 0008 08BD     		pop	{r3, pc}
 164              		.cfi_endproc
 165              	.LFE755:
 166              		.size	PCF8574_begin, .-PCF8574_begin
 167 000a 00BF     		.bss
 168              		.align	2
 169              		.set	.LANCHOR0,. + 0
 170              		.type	dataPacket.18133, %object
 171              		.size	dataPacket.18133, 1
 172              	dataPacket.18133:
 173 0000 00       		.space	1
 174 0001 000000   		.space	3
 175              		.type	dataPacket.18141, %object
ARM GAS  C:\Users\Smaug\AppData\Local\Temp\ccI0Qg8V.s 			page 5


 176              		.size	dataPacket.18141, 1
 177              	dataPacket.18141:
 178 0004 00       		.space	1
 179              		.text
 180              	.Letext0:
 181              		.file 2 "c:\\program files (x86)\\cypress\\psoc creator\\4.4\\psoc creator\\import\\gnu\\arm\\5.4.
 182              		.file 3 "c:\\program files (x86)\\cypress\\psoc creator\\4.4\\psoc creator\\import\\gnu\\arm\\5.4.
 183              		.file 4 "Generated_Source\\PSoC6\\pdl\\devices/psoc6/include/ip/cyip_scb.h"
 184              		.file 5 "Generated_Source\\PSoC6\\pdl\\devices/psoc6/include/psoc6_01_config.h"
 185              		.file 6 "Generated_Source\\PSoC6\\pdl\\drivers/peripheral/device/cy_device.h"
 186              		.file 7 "Generated_Source\\PSoC6\\pdl\\drivers/peripheral/sar/cy_sar.h"
 187              		.file 8 "Generated_Source\\PSoC6\\pdl\\drivers/peripheral/scb/cy_scb_i2c.h"
 188              		.file 9 "Generated_Source\\PSoC6\\pdl\\drivers/peripheral/scb/cy_scb_spi.h"
 189              		.file 10 "Generated_Source\\PSoC6\\pdl\\drivers/peripheral/scb/cy_scb_uart.h"
 190              		.file 11 "Generated_Source\\PSoC6\\pdl\\drivers/peripheral/tcpwm/cy_tcpwm_counter.h"
 191              		.file 12 "Generated_Source\\PSoC6\\pdl\\drivers/peripheral/tcpwm/cy_tcpwm_pwm.h"
 192              		.file 13 "Generated_Source\\PSoC6/ADC.h"
 193              		.file 14 "Generated_Source\\PSoC6\\pdl\\cmsis/include/core_cm4.h"
 194              		.file 15 "Generated_Source\\PSoC6/I2C_Main.h"
 195              		.file 16 "Generated_Source\\PSoC6/UART_Debug.h"
 196              		.file 17 "Generated_Source\\PSoC6/PWM_Trig.h"
 197              		.file 18 "Generated_Source\\PSoC6/Counter_Echo.h"
 198              		.file 19 "Generated_Source\\PSoC6/IR.h"
 199              		.file 20 "Generated_Source\\PSoC6/PWM_Buz.h"
 200              		.file 21 "Generated_Source\\PSoC6/SPI_LEDCTRL.h"