ARM GAS  C:\Users\Smaug\AppData\Local\Temp\cchgsRlh.s 			page 1


   1              		.syntax unified
   2              		.cpu cortex-m4
   3              		.eabi_attribute 27, 1
   4              		.fpu fpv4-sp-d16
   5              		.eabi_attribute 20, 1
   6              		.eabi_attribute 21, 1
   7              		.eabi_attribute 23, 3
   8              		.eabi_attribute 24, 1
   9              		.eabi_attribute 25, 1
  10              		.eabi_attribute 26, 1
  11              		.eabi_attribute 30, 1
  12              		.eabi_attribute 34, 1
  13              		.eabi_attribute 18, 4
  14              		.thumb
  15              		.syntax unified
  16              		.file	"utils.c"
  17              		.text
  18              	.Ltext0:
  19              		.cfi_sections	.debug_frame
  20              		.section	.text.constrain_int,"ax",%progbits
  21              		.align	2
  22              		.global	constrain_int
  23              		.thumb
  24              		.thumb_func
  25              		.type	constrain_int, %function
  26              	constrain_int:
  27              	.LFB0:
  28              		.file 1 "utils.c"
   1:utils.c       **** /* ========================================
   2:utils.c       ****  * utils.c
   3:utils.c       ****  * ========================================
   4:utils.c       ****  */
   5:utils.c       **** 
   6:utils.c       **** // function to limit a value within a range
   7:utils.c       **** // constrain() ensures value stays within minVal and maxVal
   8:utils.c       **** int constrain_int(int x, int a, int b) 
   9:utils.c       **** {
  29              		.loc 1 9 0
  30              		.cfi_startproc
  31              		@ args = 0, pretend = 0, frame = 0
  32              		@ frame_needed = 0, uses_anonymous_args = 0
  33              		@ link register save eliminated.
  34              	.LVL0:
  10:utils.c       ****   if (x < a) 
  35              		.loc 1 10 0
  36 0000 8842     		cmp	r0, r1
  37 0002 03DB     		blt	.L3
  11:utils.c       ****     return a;       // Return lower limit if x is below a
  12:utils.c       ****   else if (x > b) 
  38              		.loc 1 12 0
  39 0004 9042     		cmp	r0, r2
  40 0006 02DD     		ble	.L2
  13:utils.c       ****     return b;  // Return upper limit if x exceeds b
  41              		.loc 1 13 0
  42 0008 1046     		mov	r0, r2
  43              	.LVL1:
  44 000a 7047     		bx	lr
ARM GAS  C:\Users\Smaug\AppData\Local\Temp\cchgsRlh.s 			page 2


  45              	.LVL2:
  46              	.L3:
  11:utils.c       ****     return a;       // Return lower limit if x is below a
  47              		.loc 1 11 0
  48 000c 0846     		mov	r0, r1
  49              	.LVL3:
  50              	.L2:
  14:utils.c       ****   else 
  15:utils.c       ****     return x;             // Return x if it's within the range
  16:utils.c       **** }
  51              		.loc 1 16 0
  52 000e 7047     		bx	lr
  53              		.cfi_endproc
  54              	.LFE0:
  55              		.size	constrain_int, .-constrain_int
  56              		.section	.text.constrain_float,"ax",%progbits
  57              		.align	2
  58              		.global	constrain_float
  59              		.thumb
  60              		.thumb_func
  61              		.type	constrain_float, %function
  62              	constrain_float:
  63              	.LFB1:
  17:utils.c       **** 
  18:utils.c       **** float constrain_float(float x, float a, float b) 
  19:utils.c       **** {
  64              		.loc 1 19 0
  65              		.cfi_startproc
  66              		@ args = 0, pretend = 0, frame = 0
  67              		@ frame_needed = 0, uses_anonymous_args = 0
  68              		@ link register save eliminated.
  69              	.LVL4:
  70 0000 07EE100A 		vmov	s14, r0
  71 0004 07EE901A 		vmov	s15, r1
  72 0008 06EE902A 		vmov	s13, r2
  20:utils.c       ****   if (x < a) 
  73              		.loc 1 20 0
  74 000c B4EEE77A 		vcmpe.f32	s14, s15
  75 0010 F1EE10FA 		vmrs	APSR_nzcv, FPSCR
  76 0014 06D4     		bmi	.L8
  21:utils.c       ****     return a;       // Return lower limit if x is below a
  22:utils.c       ****   else if (x > b) 
  77              		.loc 1 22 0
  78 0016 B4EEE67A 		vcmpe.f32	s14, s13
  79 001a F1EE10FA 		vmrs	APSR_nzcv, FPSCR
  80 001e 03DD     		ble	.L11
  23:utils.c       ****     return b;  // Return upper limit if x exceeds b
  81              		.loc 1 23 0
  82 0020 1046     		mov	r0, r2	@ float
  83              	.LVL5:
  84 0022 7047     		bx	lr
  85              	.LVL6:
  86              	.L8:
  21:utils.c       ****     return a;       // Return lower limit if x is below a
  87              		.loc 1 21 0
  88 0024 0846     		mov	r0, r1	@ float
  89              	.LVL7:
ARM GAS  C:\Users\Smaug\AppData\Local\Temp\cchgsRlh.s 			page 3


  90 0026 7047     		bx	lr
  91              	.LVL8:
  92              	.L11:
  24:utils.c       ****   else 
  25:utils.c       ****     return x;             // Return x if it's within the range
  26:utils.c       **** }
  93              		.loc 1 26 0
  94 0028 7047     		bx	lr
  95              		.cfi_endproc
  96              	.LFE1:
  97              		.size	constrain_float, .-constrain_float
  98 002a 00BF     		.section	.text.map_int,"ax",%progbits
  99              		.align	2
 100              		.global	map_int
 101              		.thumb
 102              		.thumb_func
 103              		.type	map_int, %function
 104              	map_int:
 105              	.LFB2:
  27:utils.c       **** 
  28:utils.c       **** 
  29:utils.c       **** // Re-maps a number from one range to another. That is, a value of fromLow 
  30:utils.c       **** // would get mapped to toLow, a value of fromHigh to toHigh, values 
  31:utils.c       **** // in-between to values in-between, etc.
  32:utils.c       **** // Does not constrain values to within the range, because out-of-range 
  33:utils.c       **** // values are sometimes intended and useful. The constrain() function may 
  34:utils.c       **** // be used either before or after this function, if limits to the ranges are
  35:utils.c       **** // desired.
  36:utils.c       **** // Note that the "lower bounds" of either range may be larger or smaller than
  37:utils.c       **** // the "upper bounds", so the map() function may be used to reverse a range of
  38:utils.c       **** // numbers, for example.
  39:utils.c       **** int map_int(int value, int in_min, int in_max, int out_min, int out_max) 
  40:utils.c       **** {
 106              		.loc 1 40 0
 107              		.cfi_startproc
 108              		@ args = 4, pretend = 0, frame = 0
 109              		@ frame_needed = 0, uses_anonymous_args = 0
 110              		@ link register save eliminated.
 111              	.LVL9:
 112 0000 10B4     		push	{r4}
 113              		.cfi_def_cfa_offset 4
 114              		.cfi_offset 4, -4
  41:utils.c       ****   return (value - in_min) * (out_max - out_min) / (in_max - in_min) + out_min;
 115              		.loc 1 41 0
 116 0002 401A     		subs	r0, r0, r1
 117              	.LVL10:
 118 0004 019C     		ldr	r4, [sp, #4]
 119 0006 E41A     		subs	r4, r4, r3
 120 0008 04FB00F0 		mul	r0, r4, r0
 121 000c 521A     		subs	r2, r2, r1
 122              	.LVL11:
 123 000e 90FBF2F0 		sdiv	r0, r0, r2
  42:utils.c       **** }
 124              		.loc 1 42 0
 125 0012 1844     		add	r0, r0, r3
 126 0014 5DF8044B 		ldr	r4, [sp], #4
 127              		.cfi_restore 4
ARM GAS  C:\Users\Smaug\AppData\Local\Temp\cchgsRlh.s 			page 4


 128              		.cfi_def_cfa_offset 0
 129              	.LVL12:
 130 0018 7047     		bx	lr
 131              		.cfi_endproc
 132              	.LFE2:
 133              		.size	map_int, .-map_int
 134 001a 00BF     		.section	.text.map_float,"ax",%progbits
 135              		.align	2
 136              		.global	map_float
 137              		.thumb
 138              		.thumb_func
 139              		.type	map_float, %function
 140              	map_float:
 141              	.LFB3:
  43:utils.c       **** 
  44:utils.c       **** float map_float(float value, float in_min, float in_max, float out_min, float out_max) 
  45:utils.c       **** {
 142              		.loc 1 45 0
 143              		.cfi_startproc
 144              		@ args = 4, pretend = 0, frame = 0
 145              		@ frame_needed = 0, uses_anonymous_args = 0
 146              		@ link register save eliminated.
 147              	.LVL13:
 148 0000 07EE901A 		vmov	s15, r1
 149 0004 06EE103A 		vmov	s12, r3
  46:utils.c       ****   return (value - in_min) * (out_max - out_min) / (in_max - in_min) + out_min;
 150              		.loc 1 46 0
 151 0008 07EE100A 		vmov	s14, r0
 152 000c 77EE676A 		vsub.f32	s13, s14, s15
 153 0010 9DED007A 		vldr.32	s14, [sp]
 154 0014 37EE467A 		vsub.f32	s14, s14, s12
 155 0018 26EE877A 		vmul.f32	s14, s13, s14
 156 001c 06EE902A 		vmov	s13, r2
 157 0020 76EEE77A 		vsub.f32	s15, s13, s15
 158 0024 C7EE276A 		vdiv.f32	s13, s14, s15
  47:utils.c       **** }
 159              		.loc 1 47 0
 160 0028 76EE267A 		vadd.f32	s15, s12, s13
 161 002c 17EE900A 		vmov	r0, s15
 162              	.LVL14:
 163 0030 7047     		bx	lr
 164              		.cfi_endproc
 165              	.LFE3:
 166              		.size	map_float, .-map_float
 167 0032 00BF     		.text
 168              	.Letext0: