ARM GAS  C:\Users\Smaug\AppData\Local\Temp\ccBC96Bl.s 			page 1


   1              		.syntax unified
   2              		.cpu cortex-m0plus
   3              		.fpu softvfp
   4              		.eabi_attribute 20, 1
   5              		.eabi_attribute 21, 1
   6              		.eabi_attribute 23, 3
   7              		.eabi_attribute 24, 1
   8              		.eabi_attribute 25, 1
   9              		.eabi_attribute 26, 1
  10              		.eabi_attribute 30, 1
  11              		.eabi_attribute 34, 0
  12              		.eabi_attribute 18, 4
  13              		.thumb
  14              		.syntax unified
  15              		.file	"ble_nus_subsys.c"
  16              		.text
  17              	.Ltext0:
  18              		.cfi_sections	.debug_frame
  19              		.section	.text.parseIncomingBLECommand,"ax",%progbits
  20              		.align	2
  21              		.code	16
  22              		.thumb_func
  23              		.type	parseIncomingBLECommand, %function
  24              	parseIncomingBLECommand:
  25              	.LFB679:
  26              		.file 1 "ble_nus_subsys.c"
   1:ble_nus_subsys.c **** /* ========================================
   2:ble_nus_subsys.c ****  *
   3:ble_nus_subsys.c ****  * Copyright YOUR COMPANY, THE YEAR
   4:ble_nus_subsys.c ****  * All Rights Reserved
   5:ble_nus_subsys.c ****  * UNPUBLISHED, LICENSED SOFTWARE.
   6:ble_nus_subsys.c ****  *
   7:ble_nus_subsys.c ****  * CONFIDENTIAL AND PROPRIETARY INFORMATION
   8:ble_nus_subsys.c ****  * WHICH IS THE PROPERTY OF your company.
   9:ble_nus_subsys.c ****  *
  10:ble_nus_subsys.c ****  * ========================================
  11:ble_nus_subsys.c **** */
  12:ble_nus_subsys.c **** 
  13:ble_nus_subsys.c **** #include "ble_nus_subsys.h"
  14:ble_nus_subsys.c **** 
  15:ble_nus_subsys.c **** // ----------------------- Variables -----------------------
  16:ble_nus_subsys.c **** // Connection handle. We will use only one connection for simplicity.
  17:ble_nus_subsys.c **** static cy_stc_ble_conn_handle_t appConnHandle;
  18:ble_nus_subsys.c **** // Track Notification subscription status. BLE stack can do it for you, yet access is not trivial.
  19:ble_nus_subsys.c **** static bool isSubscribedToNtf = false;
  20:ble_nus_subsys.c **** // Notification structure which will be sent to subscribed Central.
  21:ble_nus_subsys.c **** // Example
  22:ble_nus_subsys.c **** /*
  23:ble_nus_subsys.c **** notifyValPair.attrHandle = CY_BLE_NUS_UART_NUS_TX_CHAR_HANDLE;  // Be sure to select correct handle
  24:ble_nus_subsys.c **** notifyValPair.value.len = writeReqParam->handleValPair.value.len;
  25:ble_nus_subsys.c **** notifyValPair.value.val = writeReqParam->handleValPair.value.val;
  26:ble_nus_subsys.c **** 
  27:ble_nus_subsys.c **** Cy_BLE_GATTS_SendNotification(&appConnHandle, &notifyValPair);  // Need to check status from return
  28:ble_nus_subsys.c **** */
  29:ble_nus_subsys.c **** static cy_stc_ble_gatt_handle_value_pair_t notifyValPair;
  30:ble_nus_subsys.c **** 
  31:ble_nus_subsys.c **** ipc_msg_t ipcMsgForCM4 = {               /* IPC structure to be sent to CM4 */
ARM GAS  C:\Users\Smaug\AppData\Local\Temp\ccBC96Bl.s 			page 2


  32:ble_nus_subsys.c ****     .clientId = IPC_CM0_TO_CM4_CLIENT_ID,
  33:ble_nus_subsys.c ****     .userCode = 0,
  34:ble_nus_subsys.c ****     .intrMask = CY_SYS_CYPIPE_INTR_MASK,
  35:ble_nus_subsys.c ****     .buffer   = {},
  36:ble_nus_subsys.c ****     .len      = 0
  37:ble_nus_subsys.c **** };
  38:ble_nus_subsys.c **** 
  39:ble_nus_subsys.c **** uint16_t mtu_val = 0;
  40:ble_nus_subsys.c **** const char* carsay = "Wroom!";
  41:ble_nus_subsys.c **** // ----------------------- Variables END -----------------------
  42:ble_nus_subsys.c **** 
  43:ble_nus_subsys.c **** static void processIncomingIPCMessage(ipc_msg_t* msg);
  44:ble_nus_subsys.c **** static void processCM0Command(uint8_t cmd);
  45:ble_nus_subsys.c **** 
  46:ble_nus_subsys.c **** // TODO comment
  47:ble_nus_subsys.c **** cy_en_ble_api_result_t sendDataNotificationNUS(uint8_t* data, uint16_t len)
  48:ble_nus_subsys.c **** {
  49:ble_nus_subsys.c ****     cy_en_ble_api_result_t err;
  50:ble_nus_subsys.c ****     
  51:ble_nus_subsys.c ****     if (len >= mtu_val)
  52:ble_nus_subsys.c ****     {
  53:ble_nus_subsys.c ****         // Length to send is bigger than possible MTU
  54:ble_nus_subsys.c ****         err = CY_BLE_ERROR_MEMORY_ALLOCATION_FAILED;
  55:ble_nus_subsys.c ****     }
  56:ble_nus_subsys.c ****     else
  57:ble_nus_subsys.c ****     {
  58:ble_nus_subsys.c ****         notifyValPair.attrHandle = CY_BLE_NUS_UART_NUS_TX_CHAR_HANDLE;
  59:ble_nus_subsys.c ****         notifyValPair.value.actualLen = len;
  60:ble_nus_subsys.c ****         notifyValPair.value.len = len;
  61:ble_nus_subsys.c ****         notifyValPair.value.val = data; // Please be aware, it is only a pointer! Data is not alloc
  62:ble_nus_subsys.c ****         
  63:ble_nus_subsys.c ****         err = Cy_BLE_GATTS_SendNotification(&appConnHandle, &notifyValPair);
  64:ble_nus_subsys.c ****     }
  65:ble_nus_subsys.c ****     
  66:ble_nus_subsys.c ****     DBG_PRINTF("sendDataNotificationNUS %X\r\n", err);
  67:ble_nus_subsys.c ****     
  68:ble_nus_subsys.c ****     return err;
  69:ble_nus_subsys.c **** }
  70:ble_nus_subsys.c **** 
  71:ble_nus_subsys.c **** static void parseIncomingBLECommand(uint8_t* val, uint16 len)
  72:ble_nus_subsys.c **** {
  27              		.loc 1 72 0
  28              		.cfi_startproc
  29              		@ args = 0, pretend = 0, frame = 0
  30              		@ frame_needed = 0, uses_anonymous_args = 0
  31              	.LVL0:
  32 0000 10B5     		push	{r4, lr}
  33              		.cfi_def_cfa_offset 8
  34              		.cfi_offset 4, -8
  35              		.cfi_offset 14, -4
  73:ble_nus_subsys.c ****     enum blePayloadTypes payloadType = val[0];
  36              		.loc 1 73 0
  37 0002 0378     		ldrb	r3, [r0]
  38              	.LVL1:
  74:ble_nus_subsys.c ****     
  75:ble_nus_subsys.c ****     switch (payloadType)
  39              		.loc 1 75 0
ARM GAS  C:\Users\Smaug\AppData\Local\Temp\ccBC96Bl.s 			page 3


  40 0004 022B     		cmp	r3, #2
  41 0006 12D1     		bne	.L1
  76:ble_nus_subsys.c ****     {
  77:ble_nus_subsys.c ****         case BLE_NUS_PAYLOAD_CM0_CMD:
  78:ble_nus_subsys.c ****         {
  79:ble_nus_subsys.c ****             // Not implemented
  80:ble_nus_subsys.c ****             // For example, here you can configure CM0P core without routing messages to CM4
  81:ble_nus_subsys.c ****             DBG_PRINTF("CM0 CMD\r\n");
  82:ble_nus_subsys.c ****             break;
  83:ble_nus_subsys.c ****         }
  84:ble_nus_subsys.c ****         case BLE_NUS_PAYLOAD_CM4_CMD:
  85:ble_nus_subsys.c ****         {
  86:ble_nus_subsys.c ****             // Command will be routed to CM4
  87:ble_nus_subsys.c ****             DBG_PRINTF("CM4 CMD\r\n");
  88:ble_nus_subsys.c ****             ipcMsgForCM4.userCode = IPC_USR_CODE_CMD;
  42              		.loc 1 88 0
  43 0008 094B     		ldr	r3, .L4
  44              	.LVL2:
  45 000a 0122     		movs	r2, #1
  46 000c 5A70     		strb	r2, [r3, #1]
  47              	.LVL3:
  89:ble_nus_subsys.c ****             // We don't send the first byte because it is intended only for CM0P core!
  90:ble_nus_subsys.c ****             ipcMsgForCM4.len = len - 1;
  48              		.loc 1 90 0
  49 000e 0139     		subs	r1, r1, #1
  50              	.LVL4:
  51 0010 CAB2     		uxtb	r2, r1
  52 0012 8221     		movs	r1, #130
  53 0014 4900     		lsls	r1, r1, #1
  54 0016 5A54     		strb	r2, [r3, r1]
  91:ble_nus_subsys.c ****             memcpy(&ipcMsgForCM4.buffer[0], &val[1], ipcMsgForCM4.len);
  55              		.loc 1 91 0
  56 0018 411C     		adds	r1, r0, #1
  57 001a 181D     		adds	r0, r3, #4
  58              	.LVL5:
  59 001c FFF7FEFF 		bl	memcpy
  60              	.LVL6:
  92:ble_nus_subsys.c ****             if (CM0_IsCM4Ready())
  61              		.loc 1 92 0
  62 0020 FFF7FEFF 		bl	CM0_IsCM4Ready
  63              	.LVL7:
  64 0024 0028     		cmp	r0, #0
  65 0026 02D0     		beq	.L1
  93:ble_nus_subsys.c ****             {
  94:ble_nus_subsys.c ****                 CM0_SendCM4Message(&ipcMsgForCM4);
  66              		.loc 1 94 0
  67 0028 0148     		ldr	r0, .L4
  68 002a FFF7FEFF 		bl	CM0_SendCM4Message
  69              	.LVL8:
  70              	.L1:
  95:ble_nus_subsys.c ****             }
  96:ble_nus_subsys.c ****             break;
  97:ble_nus_subsys.c ****         }
  98:ble_nus_subsys.c ****         default:
  99:ble_nus_subsys.c ****             break;
 100:ble_nus_subsys.c ****     }
 101:ble_nus_subsys.c **** }
ARM GAS  C:\Users\Smaug\AppData\Local\Temp\ccBC96Bl.s 			page 4


  71              		.loc 1 101 0
  72              		@ sp needed
  73 002e 10BD     		pop	{r4, pc}
  74              	.L5:
  75              		.align	2
  76              	.L4:
  77 0030 00000000 		.word	.LANCHOR0
  78              		.cfi_endproc
  79              	.LFE679:
  80              		.size	parseIncomingBLECommand, .-parseIncomingBLECommand
  81              		.section	.text.AppCallBack,"ax",%progbits
  82              		.align	2
  83              		.code	16
  84              		.thumb_func
  85              		.type	AppCallBack, %function
  86              	AppCallBack:
  87              	.LFB680:
 102:ble_nus_subsys.c **** 
 103:ble_nus_subsys.c **** // Generic callback for all possible BLE events.
 104:ble_nus_subsys.c **** // Please note, for standardized services, you could go with specialized functions.
 105:ble_nus_subsys.c **** // For custom services, such approach is used.
 106:ble_nus_subsys.c **** static void AppCallBack(uint32_t event, void* eventParam)
 107:ble_nus_subsys.c **** {
  88              		.loc 1 107 0
  89              		.cfi_startproc
  90              		@ args = 0, pretend = 0, frame = 8
  91              		@ frame_needed = 0, uses_anonymous_args = 0
  92              	.LVL9:
  93 0000 30B5     		push	{r4, r5, lr}
  94              		.cfi_def_cfa_offset 12
  95              		.cfi_offset 4, -12
  96              		.cfi_offset 5, -8
  97              		.cfi_offset 14, -4
  98 0002 83B0     		sub	sp, sp, #12
  99              		.cfi_def_cfa_offset 24
 100 0004 0C00     		movs	r4, r1
 108:ble_nus_subsys.c ****     cy_en_ble_api_result_t apiResult;
 109:ble_nus_subsys.c ****     // Local variable to store Write Request data from central.
 110:ble_nus_subsys.c ****     cy_stc_ble_gatts_write_cmd_req_param_t* writeReqParam;
 111:ble_nus_subsys.c ****     uint32_t i;
 112:ble_nus_subsys.c ****     
 113:ble_nus_subsys.c ****     // Unused unless you want privacy.
 114:ble_nus_subsys.c ****     static cy_stc_ble_gap_sec_key_info_t keyInfo =
 115:ble_nus_subsys.c ****     {
 116:ble_nus_subsys.c ****         .localKeysFlag    = CY_BLE_GAP_SMP_INIT_ENC_KEY_DIST | 
 117:ble_nus_subsys.c ****                             CY_BLE_GAP_SMP_INIT_IRK_KEY_DIST | 
 118:ble_nus_subsys.c ****                             CY_BLE_GAP_SMP_INIT_CSRK_KEY_DIST,
 119:ble_nus_subsys.c ****         .exchangeKeysFlag = CY_BLE_GAP_SMP_INIT_ENC_KEY_DIST | 
 120:ble_nus_subsys.c ****                             CY_BLE_GAP_SMP_INIT_IRK_KEY_DIST | 
 121:ble_nus_subsys.c ****                             CY_BLE_GAP_SMP_INIT_CSRK_KEY_DIST |
 122:ble_nus_subsys.c ****                             CY_BLE_GAP_SMP_RESP_ENC_KEY_DIST |
 123:ble_nus_subsys.c ****                             CY_BLE_GAP_SMP_RESP_IRK_KEY_DIST |
 124:ble_nus_subsys.c ****                             CY_BLE_GAP_SMP_RESP_CSRK_KEY_DIST,
 125:ble_nus_subsys.c ****     };
 126:ble_nus_subsys.c **** 
 127:ble_nus_subsys.c ****     switch (event)
 101              		.loc 1 127 0
ARM GAS  C:\Users\Smaug\AppData\Local\Temp\ccBC96Bl.s 			page 5


 102 0006 284B     		ldr	r3, .L19
 103 0008 9842     		cmp	r0, r3
 104 000a 29D0     		beq	.L8
 105 000c 0AD8     		bhi	.L9
 106 000e 274B     		ldr	r3, .L19+4
 107 0010 9842     		cmp	r0, r3
 108 0012 1CD0     		beq	.L18
 109 0014 264B     		ldr	r3, .L19+8
 110 0016 9842     		cmp	r0, r3
 111 0018 1DD0     		beq	.L11
 112 001a 8023     		movs	r3, #128
 113 001c 5B01     		lsls	r3, r3, #5
 114 001e 9842     		cmp	r0, r3
 115 0020 40D1     		bne	.L6
 116 0022 09E0     		b	.L12
 117              	.L9:
 118 0024 234B     		ldr	r3, .L19+12
 119 0026 9842     		cmp	r0, r3
 120 0028 2BD0     		beq	.L13
 121 002a 234B     		ldr	r3, .L19+16
 122 002c 9842     		cmp	r0, r3
 123 002e 28D0     		beq	.L13
 124 0030 224B     		ldr	r3, .L19+20
 125 0032 9842     		cmp	r0, r3
 126 0034 19D0     		beq	.L14
 127 0036 35E0     		b	.L6
 128              	.L12:
 128:ble_nus_subsys.c ****     {
 129:ble_nus_subsys.c ****         /**********************************************************
 130:ble_nus_subsys.c ****         *                       General Events
 131:ble_nus_subsys.c ****         ***********************************************************/
 132:ble_nus_subsys.c ****         case CY_BLE_EVT_STACK_ON: /* This event is received when the component is Started */
 133:ble_nus_subsys.c ****             DBG_PRINTF("CY_BLE_EVT_STACK_ON, StartAdvertisement \r\n");   
 134:ble_nus_subsys.c ****             
 135:ble_nus_subsys.c ****             /* Enter into discoverable mode so that remote can find it. */
 136:ble_nus_subsys.c ****             apiResult = Cy_BLE_GAPP_StartAdvertisement(CY_BLE_ADVERTISING_FAST, CY_BLE_PERIPHERAL_C
 129              		.loc 1 136 0
 130 0038 0021     		movs	r1, #0
 131              	.LVL10:
 132 003a 0020     		movs	r0, #0
 133              	.LVL11:
 134 003c FFF7FEFF 		bl	Cy_BLE_GAPP_StartAdvertisement
 135              	.LVL12:
 137:ble_nus_subsys.c ****             
 138:ble_nus_subsys.c ****             if(apiResult != CY_BLE_SUCCESS)
 139:ble_nus_subsys.c ****             {
 140:ble_nus_subsys.c ****                 DBG_PRINTF("Cy_BLE_GAPP_StartAdvertisement API Error: 0x%x \r\n", apiResult);
 141:ble_nus_subsys.c ****             }
 142:ble_nus_subsys.c ****                 DBG_PRINTF("Cy_BLE_GAPP_StartAdvertisement OK!\n");
 143:ble_nus_subsys.c ****             
 144:ble_nus_subsys.c ****             /* Generates the security keys */
 145:ble_nus_subsys.c ****             // Unused for simplicity.
 146:ble_nus_subsys.c ****             apiResult = Cy_BLE_GAP_GenerateKeys(&keyInfo);
 136              		.loc 1 146 0
 137 0040 1F48     		ldr	r0, .L19+24
 138 0042 0830     		adds	r0, r0, #8
 139 0044 FFF7FEFF 		bl	Cy_BLE_GAP_GenerateKeys
ARM GAS  C:\Users\Smaug\AppData\Local\Temp\ccBC96Bl.s 			page 6


 140              	.LVL13:
 141 0048 2CE0     		b	.L6
 142              	.LVL14:
 143              	.L15:
 147:ble_nus_subsys.c ****             if(apiResult != CY_BLE_SUCCESS)
 148:ble_nus_subsys.c ****             {
 149:ble_nus_subsys.c ****                 DBG_PRINTF("Cy_BLE_GAP_GenerateKeys API Error: 0x%x \r\n", apiResult);
 150:ble_nus_subsys.c ****             }
 151:ble_nus_subsys.c ****             DBG_PRINTF("Cy_BLE_GAP_GenerateKeys OK!\n");
 152:ble_nus_subsys.c ****             
 153:ble_nus_subsys.c ****             break;
 154:ble_nus_subsys.c ****             
 155:ble_nus_subsys.c ****         case CY_BLE_EVT_GET_DEVICE_ADDR_COMPLETE:
 156:ble_nus_subsys.c ****             DBG_PRINTF("CY_BLE_EVT_GET_DEVICE_ADDR_COMPLETE: ");
 157:ble_nus_subsys.c ****             for(i = CY_BLE_GAP_BD_ADDR_SIZE; i > 0u; i--)
 144              		.loc 1 157 0 discriminator 3
 145 004a 013B     		subs	r3, r3, #1
 146              	.LVL15:
 147 004c 00E0     		b	.L10
 148              	.LVL16:
 149              	.L18:
 127:ble_nus_subsys.c ****     {
 150              		.loc 1 127 0
 151 004e 0623     		movs	r3, #6
 152              	.L10:
 153              	.LVL17:
 154              		.loc 1 157 0 discriminator 1
 155 0050 002B     		cmp	r3, #0
 156 0052 FAD1     		bne	.L15
 157 0054 26E0     		b	.L6
 158              	.LVL18:
 159              	.L11:
 158:ble_nus_subsys.c ****             {
 159:ble_nus_subsys.c ****                 DBG_PRINTF("%2.2x", ((cy_stc_ble_bd_addrs_t *)
 160:ble_nus_subsys.c ****                                     ((cy_stc_ble_events_param_generic_t *)eventParam)->eventParams)
 161:ble_nus_subsys.c ****             }
 162:ble_nus_subsys.c ****             DBG_PRINTF("\r\n");
 163:ble_nus_subsys.c ****             
 164:ble_nus_subsys.c ****             break;
 165:ble_nus_subsys.c ****             
 166:ble_nus_subsys.c ****         case CY_BLE_EVT_GAP_DEVICE_DISCONNECTED:
 167:ble_nus_subsys.c ****             DBG_PRINTF("CY_BLE_EVT_GAP_DEVICE_DISCONNECTED: bdHandle=%x, reason=%x, status=%x\r\n",
 168:ble_nus_subsys.c ****                 (*(cy_stc_ble_gap_disconnect_param_t *)eventParam).bdHandle, 
 169:ble_nus_subsys.c ****                 (*(cy_stc_ble_gap_disconnect_param_t *)eventParam).reason, 
 170:ble_nus_subsys.c ****                 (*(cy_stc_ble_gap_disconnect_param_t *)eventParam).status);
 171:ble_nus_subsys.c ****                         
 172:ble_nus_subsys.c ****             // If Central unsubscribed from Peripheral (us), let's update subscription variable.
 173:ble_nus_subsys.c ****             isSubscribedToNtf = false;
 174:ble_nus_subsys.c ****             
 175:ble_nus_subsys.c ****             /* Put the device into discoverable mode so that a remote can search it. */
 176:ble_nus_subsys.c ****             apiResult = Cy_BLE_GAPP_StartAdvertisement(CY_BLE_ADVERTISING_FAST, CY_BLE_PERIPHERAL_C
 160              		.loc 1 176 0
 161 0056 0021     		movs	r1, #0
 162              	.LVL19:
 163 0058 0020     		movs	r0, #0
 164              	.LVL20:
 165 005a FFF7FEFF 		bl	Cy_BLE_GAPP_StartAdvertisement
ARM GAS  C:\Users\Smaug\AppData\Local\Temp\ccBC96Bl.s 			page 7


 166              	.LVL21:
 177:ble_nus_subsys.c ****             if(apiResult != CY_BLE_SUCCESS)
 178:ble_nus_subsys.c ****             {
 179:ble_nus_subsys.c ****                 DBG_PRINTF("StartAdvertisement API Error: 0x%x \r\n", apiResult);
 180:ble_nus_subsys.c ****             }
 181:ble_nus_subsys.c ****             break;
 167              		.loc 1 181 0
 168 005e 21E0     		b	.L6
 169              	.LVL22:
 170              	.L8:
 182:ble_nus_subsys.c ****             
 183:ble_nus_subsys.c ****         /**********************************************************
 184:ble_nus_subsys.c ****         *                       GATT Events
 185:ble_nus_subsys.c ****         ***********************************************************/
 186:ble_nus_subsys.c ****         case CY_BLE_EVT_GATT_CONNECT_IND:
 187:ble_nus_subsys.c ****             appConnHandle = *(cy_stc_ble_conn_handle_t *)eventParam;
 171              		.loc 1 187 0
 172 0060 0222     		movs	r2, #2
 173 0062 1848     		ldr	r0, .L19+28
 174              	.LVL23:
 175 0064 FFF7FEFF 		bl	memcpy
 176              	.LVL24:
 188:ble_nus_subsys.c ****             DBG_PRINTF("CY_BLE_EVT_GATT_CONNECT_IND: %x, %x \r\n", 
 189:ble_nus_subsys.c ****                 (*(cy_stc_ble_conn_handle_t *)eventParam).attId, 
 190:ble_nus_subsys.c ****                 (*(cy_stc_ble_conn_handle_t *)eventParam).bdHandle);
 191:ble_nus_subsys.c ****             break;
 177              		.loc 1 191 0
 178 0068 1CE0     		b	.L6
 179              	.LVL25:
 180              	.L14:
 181              	.LBB2:
 192:ble_nus_subsys.c ****             
 193:ble_nus_subsys.c ****         case CY_BLE_EVT_GATT_DISCONNECT_IND:
 194:ble_nus_subsys.c ****             DBG_PRINTF("CY_BLE_EVT_GATT_DISCONNECT_IND: %x, %x \r\n", 
 195:ble_nus_subsys.c ****                 (*(cy_stc_ble_conn_handle_t *)eventParam).attId, 
 196:ble_nus_subsys.c ****                 (*(cy_stc_ble_conn_handle_t *)eventParam).bdHandle);
 197:ble_nus_subsys.c ****             break;
 198:ble_nus_subsys.c ****             
 199:ble_nus_subsys.c ****         // Exchange MTU (Maximal Transmission Unit). To put it simply, those are max bytes in one p
 200:ble_nus_subsys.c ****         // Determined BOTH by Client and Peripheral. For peripheral, check BLE 5.0 Component!
 201:ble_nus_subsys.c ****         case CY_BLE_EVT_GATTS_XCNHG_MTU_REQ:
 202:ble_nus_subsys.c ****             { 
 203:ble_nus_subsys.c ****                 cy_stc_ble_gatt_xchg_mtu_param_t mtu = 
 182              		.loc 1 203 0
 183 006a 01AD     		add	r5, sp, #4
 184 006c 0023     		movs	r3, #0
 185 006e 0193     		str	r3, [sp, #4]
 186 0070 0B88     		ldrh	r3, [r1]
 187 0072 2B80     		strh	r3, [r5]
 204:ble_nus_subsys.c ****                 {
 205:ble_nus_subsys.c ****                     .connHandle = ((cy_stc_ble_gatt_xchg_mtu_param_t *)eventParam)->connHandle
 206:ble_nus_subsys.c ****                 };
 207:ble_nus_subsys.c ****                 Cy_BLE_GATT_GetMtuSize(&mtu);
 188              		.loc 1 207 0
 189 0074 2800     		movs	r0, r5
 190              	.LVL26:
 191 0076 FFF7FEFF 		bl	Cy_BLE_GATT_GetMtuSize
ARM GAS  C:\Users\Smaug\AppData\Local\Temp\ccBC96Bl.s 			page 8


 192              	.LVL27:
 208:ble_nus_subsys.c ****                 
 209:ble_nus_subsys.c ****                 // Store MTU for further usage
 210:ble_nus_subsys.c ****                 
 211:ble_nus_subsys.c ****                 mtu_val = mtu.mtu;
 193              		.loc 1 211 0
 194 007a 6A88     		ldrh	r2, [r5, #2]
 195 007c 114B     		ldr	r3, .L19+28
 196 007e 5A80     		strh	r2, [r3, #2]
 197              	.LBE2:
 212:ble_nus_subsys.c ****                 
 213:ble_nus_subsys.c ****                 DBG_PRINTF("CY_BLE_EVT_GATTS_XCNHG_MTU_REQ %x, %x, final mtu= %d \r\n", mtu.connHan
 214:ble_nus_subsys.c ****                             mtu.connHandle.bdHandle, mtu.mtu);
 215:ble_nus_subsys.c ****             }
 216:ble_nus_subsys.c ****             break;
 198              		.loc 1 216 0
 199 0080 10E0     		b	.L6
 200              	.LVL28:
 201              	.L13:
 217:ble_nus_subsys.c ****             
 218:ble_nus_subsys.c ****         case CY_BLE_EVT_GATTS_READ_CHAR_VAL_ACCESS_REQ:
 219:ble_nus_subsys.c ****             /* Triggered on server side when client sends read request and when
 220:ble_nus_subsys.c ****             * characteristic has CY_BLE_GATT_DB_ATTR_CHAR_VAL_RD_EVENT property set.
 221:ble_nus_subsys.c ****             * This event could be ignored by application unless it need to response
 222:ble_nus_subsys.c ****             * by error response which needs to be set in gattErrorCode field of
 223:ble_nus_subsys.c ****             * event parameter. */
 224:ble_nus_subsys.c ****             DBG_PRINTF("CY_BLE_EVT_GATTS_READ_CHAR_VAL_ACCESS_REQ: handle: %x \r\n", 
 225:ble_nus_subsys.c ****                 ((cy_stc_ble_gatts_char_val_read_req_t *)eventParam)->attrHandle);
 226:ble_nus_subsys.c ****             break;
 227:ble_nus_subsys.c ****             
 228:ble_nus_subsys.c ****         // Handle write request from Central. This is very important function.
 229:ble_nus_subsys.c ****         case CY_BLE_EVT_GATTS_WRITE_CMD_REQ: // We won't distinguish commands and requests via BLE
 230:ble_nus_subsys.c ****         case CY_BLE_EVT_GATTS_WRITE_REQ:
 231:ble_nus_subsys.c ****             // Store and cast it just for the ease of use
 232:ble_nus_subsys.c ****             writeReqParam = (cy_stc_ble_gatts_write_cmd_req_param_t*)eventParam;
 233:ble_nus_subsys.c ****             
 234:ble_nus_subsys.c ****             DBG_PRINTF("CY_BLE_EVT_GATTS_WRITE_REQ: handle: %X \r\n",
 235:ble_nus_subsys.c ****                         writeReqParam->handleValPair.attrHandle);
 236:ble_nus_subsys.c ****             DBG_PRINTF("Req len: %d\r\n",
 237:ble_nus_subsys.c ****                         writeReqParam->handleValPair.value.len);
 238:ble_nus_subsys.c ****             
 239:ble_nus_subsys.c ****             // Separately check whether someone is trying to modify CCCD. This is Notification-rela
 240:ble_nus_subsys.c ****             // See BLE_config.h to find the definitions.
 241:ble_nus_subsys.c ****             if (writeReqParam->handleValPair.attrHandle == CY_BLE_NUS_UART_NUS_TX_TX_CCCD_DESC_HAND
 202              		.loc 1 241 0
 203 0082 2389     		ldrh	r3, [r4, #8]
 204 0084 152B     		cmp	r3, #21
 205 0086 04D1     		bne	.L16
 242:ble_nus_subsys.c ****             {
 243:ble_nus_subsys.c ****                 // This is of utmost importance! You need to update your CCCD Database to know whet
 244:ble_nus_subsys.c ****                 Cy_BLE_GATTS_WriteAttributeValuePeer(&appConnHandle,
 206              		.loc 1 244 0
 207 0088 2100     		movs	r1, r4
 208              	.LVL29:
 209 008a 0E48     		ldr	r0, .L19+28
 210              	.LVL30:
 211 008c FFF7FEFF 		bl	Cy_BLE_GATTS_WriteAttributeValuePeer
ARM GAS  C:\Users\Smaug\AppData\Local\Temp\ccBC96Bl.s 			page 9


 212              	.LVL31:
 213 0090 05E0     		b	.L17
 214              	.LVL32:
 215              	.L16:
 245:ble_nus_subsys.c ****                                                      &writeReqParam->handleValPair);
 246:ble_nus_subsys.c ****                 
 247:ble_nus_subsys.c ****                 // In that case, Central will always sent 2 bytes. First would be either 0u or 1u. 
 248:ble_nus_subsys.c ****                 isSubscribedToNtf = !!(writeReqParam->handleValPair.value.val[0]);
 249:ble_nus_subsys.c ****                 
 250:ble_nus_subsys.c ****                 DBG_PRINTF("NEW NTF STATUS: 0x%X\r\n", isSubscribedToNtf);
 251:ble_nus_subsys.c ****             }
 252:ble_nus_subsys.c ****             else
 253:ble_nus_subsys.c ****             {
 254:ble_nus_subsys.c ****                 // Do not waste cycles if not in debug mode
 255:ble_nus_subsys.c ****                 #if DEBUG_UART_ENABLED == 1
 256:ble_nus_subsys.c ****                 // Debug-display message/data
 257:ble_nus_subsys.c ****                 for (uint16_t i = 0; i < writeReqParam->handleValPair.value.len; i++)
 258:ble_nus_subsys.c ****                 {
 259:ble_nus_subsys.c ****                     DBG_PRINTF("%X/%c\r\n", writeReqParam->handleValPair.value.val[i], writeReqPara
 260:ble_nus_subsys.c ****                 }
 261:ble_nus_subsys.c ****                 #endif
 262:ble_nus_subsys.c **** 
 263:ble_nus_subsys.c ****                 if (writeReqParam->handleValPair.value.len != 0)
 216              		.loc 1 263 0
 217 0092 A188     		ldrh	r1, [r4, #4]
 218              	.LVL33:
 219 0094 0029     		cmp	r1, #0
 220 0096 02D0     		beq	.L17
 264:ble_nus_subsys.c ****                 {
 265:ble_nus_subsys.c ****                     parseIncomingBLECommand(writeReqParam->handleValPair.value.val,
 221              		.loc 1 265 0
 222 0098 2068     		ldr	r0, [r4]
 223              	.LVL34:
 224 009a FFF7FEFF 		bl	parseIncomingBLECommand
 225              	.LVL35:
 226              	.L17:
 266:ble_nus_subsys.c ****                                             writeReqParam->handleValPair.value.len);
 267:ble_nus_subsys.c ****                 }
 268:ble_nus_subsys.c ****             }
 269:ble_nus_subsys.c ****             // You absolutely need to respond to write request. Try WriteWithoutResponse Peripheral
 270:ble_nus_subsys.c ****             Cy_BLE_GATTS_WriteRsp(writeReqParam->connHandle);
 227              		.loc 1 270 0
 228 009e E068     		ldr	r0, [r4, #12]
 229 00a0 FFF7FEFF 		bl	Cy_BLE_GATTS_WriteRsp
 230              	.LVL36:
 231              	.L6:
 271:ble_nus_subsys.c ****             break;
 272:ble_nus_subsys.c ****             
 273:ble_nus_subsys.c ****         default:
 274:ble_nus_subsys.c ****             DBG_PRINTF("Other event: 0x%X \r\n", event);
 275:ble_nus_subsys.c ****             break;
 276:ble_nus_subsys.c ****     }
 277:ble_nus_subsys.c **** }
 232              		.loc 1 277 0
 233 00a4 03B0     		add	sp, sp, #12
 234              		@ sp needed
 235              	.LVL37:
ARM GAS  C:\Users\Smaug\AppData\Local\Temp\ccBC96Bl.s 			page 10


 236 00a6 30BD     		pop	{r4, r5, pc}
 237              	.L20:
 238              		.align	2
 239              	.L19:
 240 00a8 01500000 		.word	20481
 241 00ac 03300000 		.word	12291
 242 00b0 08400000 		.word	16392
 243 00b4 0C500000 		.word	20492
 244 00b8 0E500000 		.word	20494
 245 00bc 03500000 		.word	20483
 246 00c0 00010000 		.word	.LANCHOR1
 247 00c4 00000000 		.word	.LANCHOR2
 248              		.cfi_endproc
 249              	.LFE680:
 250              		.size	AppCallBack, .-AppCallBack
 251              		.section	.text.sendDataNotificationNUS,"ax",%progbits
 252              		.align	2
 253              		.global	sendDataNotificationNUS
 254              		.code	16
 255              		.thumb_func
 256              		.type	sendDataNotificationNUS, %function
 257              	sendDataNotificationNUS:
 258              	.LFB678:
  48:ble_nus_subsys.c ****     cy_en_ble_api_result_t err;
 259              		.loc 1 48 0
 260              		.cfi_startproc
 261              		@ args = 0, pretend = 0, frame = 0
 262              		@ frame_needed = 0, uses_anonymous_args = 0
 263              	.LVL38:
 264 0000 10B5     		push	{r4, lr}
 265              		.cfi_def_cfa_offset 8
 266              		.cfi_offset 4, -8
 267              		.cfi_offset 14, -4
  51:ble_nus_subsys.c ****     {
 268              		.loc 1 51 0
 269 0002 084B     		ldr	r3, .L24
 270 0004 5B88     		ldrh	r3, [r3, #2]
 271 0006 8B42     		cmp	r3, r1
 272 0008 0AD9     		bls	.L23
  58:ble_nus_subsys.c ****         notifyValPair.value.actualLen = len;
 273              		.loc 1 58 0
 274 000a 064B     		ldr	r3, .L24
 275 000c 1422     		movs	r2, #20
 276 000e 9A81     		strh	r2, [r3, #12]
  59:ble_nus_subsys.c ****         notifyValPair.value.len = len;
 277              		.loc 1 59 0
 278 0010 5981     		strh	r1, [r3, #10]
  60:ble_nus_subsys.c ****         notifyValPair.value.val = data; // Please be aware, it is only a pointer! Data is not alloc
 279              		.loc 1 60 0
 280 0012 1981     		strh	r1, [r3, #8]
  61:ble_nus_subsys.c ****         
 281              		.loc 1 61 0
 282 0014 5860     		str	r0, [r3, #4]
  63:ble_nus_subsys.c ****     }
 283              		.loc 1 63 0
 284 0016 191D     		adds	r1, r3, #4
 285              	.LVL39:
ARM GAS  C:\Users\Smaug\AppData\Local\Temp\ccBC96Bl.s 			page 11


 286 0018 1800     		movs	r0, r3
 287              	.LVL40:
 288 001a FFF7FEFF 		bl	Cy_BLE_GATTS_SendNotification
 289              	.LVL41:
 290 001e 00E0     		b	.L22
 291              	.LVL42:
 292              	.L23:
  54:ble_nus_subsys.c ****     }
 293              		.loc 1 54 0
 294 0020 0148     		ldr	r0, .L24+4
 295              	.LVL43:
 296              	.L22:
  69:ble_nus_subsys.c **** 
 297              		.loc 1 69 0
 298              		@ sp needed
 299 0022 10BD     		pop	{r4, pc}
 300              	.L25:
 301              		.align	2
 302              	.L24:
 303 0024 00000000 		.word	.LANCHOR2
 304 0028 03001600 		.word	1441795
 305              		.cfi_endproc
 306              	.LFE678:
 307              		.size	sendDataNotificationNUS, .-sendDataNotificationNUS
 308              		.section	.text.processCM0Command,"ax",%progbits
 309              		.align	2
 310              		.code	16
 311              		.thumb_func
 312              		.type	processCM0Command, %function
 313              	processCM0Command:
 314              	.LFB683:
 278:ble_nus_subsys.c **** 
 279:ble_nus_subsys.c **** void BleNUSInit(void)
 280:ble_nus_subsys.c **** {
 281:ble_nus_subsys.c ****     UART_START();
 282:ble_nus_subsys.c ****     
 283:ble_nus_subsys.c ****     DBG_PRINTF("BleLogService Init\n");
 284:ble_nus_subsys.c ****     
 285:ble_nus_subsys.c ****     volatile cy_en_ble_api_result_t apiResult;
 286:ble_nus_subsys.c ****     
 287:ble_nus_subsys.c ****     /* Start BLE component and register generic event handler */
 288:ble_nus_subsys.c ****     apiResult = Cy_BLE_Start(AppCallBack);
 289:ble_nus_subsys.c ****     
 290:ble_nus_subsys.c ****     if(apiResult != CY_BLE_SUCCESS)
 291:ble_nus_subsys.c ****     {
 292:ble_nus_subsys.c ****         DBG_PRINTF("Failed to start BLE... err %d\n", apiResult);
 293:ble_nus_subsys.c ****     }
 294:ble_nus_subsys.c ****     
 295:ble_nus_subsys.c ****     DBG_PRINTF("BleLogService Init Success!\n");
 296:ble_nus_subsys.c ****  
 297:ble_nus_subsys.c ****     /* Register callback to handle response from CM4 */
 298:ble_nus_subsys.c ****     Cy_IPC_Pipe_RegisterCallback(CY_IPC_EP_CYPIPE_ADDR,
 299:ble_nus_subsys.c ****                                  CM0_MessageCallback,
 300:ble_nus_subsys.c ****                                  CY_IPC_EP_CYPIPE_CM4_ADDR);
 301:ble_nus_subsys.c ****     
 302:ble_nus_subsys.c ****     
 303:ble_nus_subsys.c ****     /***************************************************************************
ARM GAS  C:\Users\Smaug\AppData\Local\Temp\ccBC96Bl.s 			page 12


 304:ble_nus_subsys.c ****     * Main polling loop
 305:ble_nus_subsys.c ****     ***************************************************************************/
 306:ble_nus_subsys.c ****     while(1) 
 307:ble_nus_subsys.c ****     {   
 308:ble_nus_subsys.c ****         /* Cy_BLE_ProcessEvents() allows BLE stack to process pending events */
 309:ble_nus_subsys.c ****         // This must be executed in order for BLE to function properly
 310:ble_nus_subsys.c ****         Cy_BLE_ProcessEvents();
 311:ble_nus_subsys.c ****         
 312:ble_nus_subsys.c ****         // Check for new messages from CM4 core and process them.
 313:ble_nus_subsys.c ****         if (CM0_isDataAvailableFromCM4())
 314:ble_nus_subsys.c ****         {
 315:ble_nus_subsys.c ****             processIncomingIPCMessage(CM0_GetCM4Message());
 316:ble_nus_subsys.c ****         }
 317:ble_nus_subsys.c ****         
 318:ble_nus_subsys.c ****         // Mostly you don't want more code here!
 319:ble_nus_subsys.c ****     }
 320:ble_nus_subsys.c **** }
 321:ble_nus_subsys.c **** 
 322:ble_nus_subsys.c **** static void processIncomingIPCMessage(ipc_msg_t* msg)
 323:ble_nus_subsys.c **** {
 324:ble_nus_subsys.c ****     // In general, impossible situation, but never trust anyone.
 325:ble_nus_subsys.c ****     if (msg != NULL)
 326:ble_nus_subsys.c ****     {
 327:ble_nus_subsys.c ****         // Process messages with at least 1 byte of payload
 328:ble_nus_subsys.c ****         if (msg->len > 0)
 329:ble_nus_subsys.c ****         {
 330:ble_nus_subsys.c ****             // Decode message code. You would mostly like to use Commands
 331:ble_nus_subsys.c ****             switch (msg->userCode)
 332:ble_nus_subsys.c ****             {
 333:ble_nus_subsys.c ****                 case IPC_USR_CODE_CMD:
 334:ble_nus_subsys.c ****                 {
 335:ble_nus_subsys.c ****                     // Only [0] element was used for simplicity.
 336:ble_nus_subsys.c ****                     // IDEA: You could expand it to accept strings or more complex data packets!
 337:ble_nus_subsys.c ****                     // You can define array of strings and perform memcmp. This operation is a bit 
 338:ble_nus_subsys.c ****                     processCM0Command(msg->buffer[0]);
 339:ble_nus_subsys.c ****                     break;
 340:ble_nus_subsys.c ****                 }
 341:ble_nus_subsys.c ****                 case IPC_USR_CODE_REQ:
 342:ble_nus_subsys.c ****                 {
 343:ble_nus_subsys.c ****                     // Not implemented. You can be very creative here!
 344:ble_nus_subsys.c ****                     break;
 345:ble_nus_subsys.c ****                 }
 346:ble_nus_subsys.c ****                 default:
 347:ble_nus_subsys.c ****                     break;
 348:ble_nus_subsys.c ****             }
 349:ble_nus_subsys.c ****         }
 350:ble_nus_subsys.c ****     }
 351:ble_nus_subsys.c **** }
 352:ble_nus_subsys.c **** 
 353:ble_nus_subsys.c **** static void processCM0Command(uint8_t cmd)
 354:ble_nus_subsys.c **** {
 315              		.loc 1 354 0
 316              		.cfi_startproc
 317              		@ args = 0, pretend = 0, frame = 0
 318              		@ frame_needed = 0, uses_anonymous_args = 0
 319              	.LVL44:
 320 0000 10B5     		push	{r4, lr}
ARM GAS  C:\Users\Smaug\AppData\Local\Temp\ccBC96Bl.s 			page 13


 321              		.cfi_def_cfa_offset 8
 322              		.cfi_offset 4, -8
 323              		.cfi_offset 14, -4
 355:ble_nus_subsys.c ****     switch (cmd)
 324              		.loc 1 355 0
 325 0002 0128     		cmp	r0, #1
 326 0004 02D0     		beq	.L28
 327 0006 0228     		cmp	r0, #2
 328 0008 0ED0     		beq	.L29
 329 000a 17E0     		b	.L26
 330              	.L28:
 356:ble_nus_subsys.c ****     {
 357:ble_nus_subsys.c ****         case CM0_SHARED_BLE_NTF_RELAY:
 358:ble_nus_subsys.c ****         {
 359:ble_nus_subsys.c ****             DBG_PRINTF("Relay\r\n");
 360:ble_nus_subsys.c ****             sendDataNotificationNUS(&CM0_GetCM4Message()->buffer[1], CM0_GetCM4Message()->len - 1);
 331              		.loc 1 360 0
 332 000c FFF7FEFF 		bl	CM0_GetCM4Message
 333              	.LVL45:
 334 0010 0400     		movs	r4, r0
 335 0012 FFF7FEFF 		bl	CM0_GetCM4Message
 336              	.LVL46:
 337 0016 8223     		movs	r3, #130
 338 0018 5B00     		lsls	r3, r3, #1
 339 001a C15C     		ldrb	r1, [r0, r3]
 340 001c 0139     		subs	r1, r1, #1
 341 001e 89B2     		uxth	r1, r1
 342 0020 601D     		adds	r0, r4, #5
 343 0022 FFF7FEFF 		bl	sendDataNotificationNUS
 344              	.LVL47:
 361:ble_nus_subsys.c ****             break;
 345              		.loc 1 361 0
 346 0026 09E0     		b	.L26
 347              	.LVL48:
 348              	.L29:
 362:ble_nus_subsys.c ****         }
 363:ble_nus_subsys.c ****         case CM0_SHARED_CAR_SAY:
 364:ble_nus_subsys.c ****         {
 365:ble_nus_subsys.c ****             DBG_PRINTF("Car Say\r\n");
 366:ble_nus_subsys.c ****             sendDataNotificationNUS((uint8_t*)carsay, strlen(carsay) - 1);
 349              		.loc 1 366 0
 350 0028 054B     		ldr	r3, .L30
 351 002a DC6C     		ldr	r4, [r3, #76]
 352 002c 2000     		movs	r0, r4
 353              	.LVL49:
 354 002e FFF7FEFF 		bl	strlen
 355              	.LVL50:
 356 0032 0138     		subs	r0, r0, #1
 357 0034 81B2     		uxth	r1, r0
 358 0036 2000     		movs	r0, r4
 359 0038 FFF7FEFF 		bl	sendDataNotificationNUS
 360              	.LVL51:
 361              	.L26:
 367:ble_nus_subsys.c ****             break;
 368:ble_nus_subsys.c ****         }
 369:ble_nus_subsys.c ****         default:
 370:ble_nus_subsys.c ****             break;
ARM GAS  C:\Users\Smaug\AppData\Local\Temp\ccBC96Bl.s 			page 14


 371:ble_nus_subsys.c ****     }
 372:ble_nus_subsys.c **** }
 362              		.loc 1 372 0
 363              		@ sp needed
 364 003c 10BD     		pop	{r4, pc}
 365              	.L31:
 366 003e C046     		.align	2
 367              	.L30:
 368 0040 00010000 		.word	.LANCHOR1
 369              		.cfi_endproc
 370              	.LFE683:
 371              		.size	processCM0Command, .-processCM0Command
 372              		.section	.text.processIncomingIPCMessage,"ax",%progbits
 373              		.align	2
 374              		.code	16
 375              		.thumb_func
 376              		.type	processIncomingIPCMessage, %function
 377              	processIncomingIPCMessage:
 378              	.LFB682:
 323:ble_nus_subsys.c ****     // In general, impossible situation, but never trust anyone.
 379              		.loc 1 323 0
 380              		.cfi_startproc
 381              		@ args = 0, pretend = 0, frame = 0
 382              		@ frame_needed = 0, uses_anonymous_args = 0
 383              	.LVL52:
 384 0000 10B5     		push	{r4, lr}
 385              		.cfi_def_cfa_offset 8
 386              		.cfi_offset 4, -8
 387              		.cfi_offset 14, -4
 325:ble_nus_subsys.c ****     {
 388              		.loc 1 325 0
 389 0002 0028     		cmp	r0, #0
 390 0004 0AD0     		beq	.L32
 328:ble_nus_subsys.c ****         {
 391              		.loc 1 328 0
 392 0006 8223     		movs	r3, #130
 393 0008 5B00     		lsls	r3, r3, #1
 394 000a C35C     		ldrb	r3, [r0, r3]
 395 000c 002B     		cmp	r3, #0
 396 000e 05D0     		beq	.L32
 331:ble_nus_subsys.c ****             {
 397              		.loc 1 331 0
 398 0010 4378     		ldrb	r3, [r0, #1]
 399 0012 012B     		cmp	r3, #1
 400 0014 02D1     		bne	.L32
 338:ble_nus_subsys.c ****                     break;
 401              		.loc 1 338 0
 402 0016 0079     		ldrb	r0, [r0, #4]
 403              	.LVL53:
 404 0018 FFF7FEFF 		bl	processCM0Command
 405              	.LVL54:
 406              	.L32:
 351:ble_nus_subsys.c **** 
 407              		.loc 1 351 0
 408              		@ sp needed
 409 001c 10BD     		pop	{r4, pc}
 410              		.cfi_endproc
ARM GAS  C:\Users\Smaug\AppData\Local\Temp\ccBC96Bl.s 			page 15


 411              	.LFE682:
 412              		.size	processIncomingIPCMessage, .-processIncomingIPCMessage
 413 001e C046     		.section	.text.BleNUSInit,"ax",%progbits
 414              		.align	2
 415              		.global	BleNUSInit
 416              		.code	16
 417              		.thumb_func
 418              		.type	BleNUSInit, %function
 419              	BleNUSInit:
 420              	.LFB681:
 280:ble_nus_subsys.c ****     UART_START();
 421              		.loc 1 280 0
 422              		.cfi_startproc
 423              		@ args = 0, pretend = 0, frame = 8
 424              		@ frame_needed = 0, uses_anonymous_args = 0
 425 0000 00B5     		push	{lr}
 426              		.cfi_def_cfa_offset 4
 427              		.cfi_offset 14, -4
 428 0002 83B0     		sub	sp, sp, #12
 429              		.cfi_def_cfa_offset 16
 288:ble_nus_subsys.c ****     
 430              		.loc 1 288 0
 431 0004 0A48     		ldr	r0, .L38
 432 0006 FFF7FEFF 		bl	Cy_BLE_Start
 433              	.LVL55:
 434 000a 0190     		str	r0, [sp, #4]
 290:ble_nus_subsys.c ****     {
 435              		.loc 1 290 0
 436 000c 019B     		ldr	r3, [sp, #4]
 298:ble_nus_subsys.c ****                                  CM0_MessageCallback,
 437              		.loc 1 298 0
 438 000e 0122     		movs	r2, #1
 439 0010 0849     		ldr	r1, .L38+4
 440 0012 0020     		movs	r0, #0
 441 0014 FFF7FEFF 		bl	Cy_IPC_Pipe_RegisterCallback
 442              	.LVL56:
 443              	.L36:
 310:ble_nus_subsys.c ****         
 444              		.loc 1 310 0
 445 0018 FFF7FEFF 		bl	Cy_BLE_ProcessEvents
 446              	.LVL57:
 313:ble_nus_subsys.c ****         {
 447              		.loc 1 313 0
 448 001c FFF7FEFF 		bl	CM0_isDataAvailableFromCM4
 449              	.LVL58:
 450 0020 0028     		cmp	r0, #0
 451 0022 F9D0     		beq	.L36
 315:ble_nus_subsys.c ****         }
 452              		.loc 1 315 0
 453 0024 FFF7FEFF 		bl	CM0_GetCM4Message
 454              	.LVL59:
 455 0028 FFF7FEFF 		bl	processIncomingIPCMessage
 456              	.LVL60:
 457 002c F4E7     		b	.L36
 458              	.L39:
 459 002e C046     		.align	2
 460              	.L38:
ARM GAS  C:\Users\Smaug\AppData\Local\Temp\ccBC96Bl.s 			page 16


 461 0030 00000000 		.word	AppCallBack
 462 0034 00000000 		.word	CM0_MessageCallback
 463              		.cfi_endproc
 464              	.LFE681:
 465              		.size	BleNUSInit, .-BleNUSInit
 466              		.global	carsay
 467              		.global	mtu_val
 468              		.global	ipcMsgForCM4
 469              		.data
 470              		.align	2
 471              		.set	.LANCHOR0,. + 0
 472              		.set	.LANCHOR1,. + 256
 473              		.type	ipcMsgForCM4, %object
 474              		.size	ipcMsgForCM4, 264
 475              	ipcMsgForCM4:
 476 0000 00       		.byte	0
 477 0001 00       		.byte	0
 478 0002 6000     		.short	96
 479 0004 00000000 		.space	256
 479      00000000 
 479      00000000 
 479      00000000 
 479      00000000 
 480 0104 00       		.byte	0
 481 0105 000000   		.space	3
 482              		.type	keyInfo.19096, %object
 483              		.size	keyInfo.19096, 68
 484              	keyInfo.19096:
 485 0108 00000000 		.space	66
 485      00000000 
 485      00000000 
 485      00000000 
 485      00000000 
 486 014a 77       		.byte	119
 487 014b 07       		.byte	7
 488              		.type	carsay, %object
 489              		.size	carsay, 4
 490              	carsay:
 491 014c 00000000 		.word	.LC9
 492              		.section	.rodata.str1.4,"aMS",%progbits,1
 493              		.align	2
 494              	.LC9:
 495 0000 57726F6F 		.ascii	"Wroom!\000"
 495      6D2100
 496              		.bss
 497              		.align	2
 498              		.set	.LANCHOR2,. + 0
 499              		.type	appConnHandle, %object
 500              		.size	appConnHandle, 2
 501              	appConnHandle:
 502 0000 0000     		.space	2
 503              		.type	mtu_val, %object
 504              		.size	mtu_val, 2
 505              	mtu_val:
 506 0002 0000     		.space	2
 507              		.type	notifyValPair, %object
 508              		.size	notifyValPair, 12
ARM GAS  C:\Users\Smaug\AppData\Local\Temp\ccBC96Bl.s 			page 17


 509              	notifyValPair:
 510 0004 00000000 		.space	12
 510      00000000 
 510      00000000 
 511              		.text
 512              	.Letext0:
 513              		.file 2 "c:\\program files (x86)\\cypress\\psoc creator\\4.4\\psoc creator\\import\\gnu\\arm\\5.4.
 514              		.file 3 "c:\\program files (x86)\\cypress\\psoc creator\\4.4\\psoc creator\\import\\gnu\\arm\\5.4.
 515              		.file 4 "Generated_Source\\PSoC6\\pdl\\drivers/peripheral/device/cy_device.h"
 516              		.file 5 "Generated_Source\\PSoC6\\pdl\\drivers/peripheral/syslib/cy_syslib.h"
 517              		.file 6 "Generated_Source\\PSoC6\\pdl\\drivers/peripheral/sar/cy_sar.h"
 518              		.file 7 "Generated_Source\\PSoC6\\pdl\\drivers/peripheral/scb/cy_scb_i2c.h"
 519              		.file 8 "Generated_Source\\PSoC6\\pdl\\drivers/peripheral/scb/cy_scb_spi.h"
 520              		.file 9 "Generated_Source\\PSoC6\\pdl\\drivers/peripheral/scb/cy_scb_uart.h"
 521              		.file 10 "Generated_Source\\PSoC6\\pdl\\drivers/peripheral/tcpwm/cy_tcpwm_counter.h"
 522              		.file 11 "Generated_Source\\PSoC6\\pdl\\drivers/peripheral/tcpwm/cy_tcpwm_pwm.h"
 523              		.file 12 "Generated_Source\\PSoC6\\pdl\\middleware/ble/cy_ble_stack.h"
 524              		.file 13 "Generated_Source\\PSoC6\\pdl\\middleware/ble/cy_ble_stack_host_main.h"
 525              		.file 14 "Generated_Source\\PSoC6\\pdl\\middleware/ble/cy_ble_stack_gatt.h"
 526              		.file 15 "Generated_Source\\PSoC6\\pdl\\middleware/ble/cy_ble_stack_gap.h"
 527              		.file 16 "Generated_Source\\PSoC6\\pdl\\middleware/ble/cy_ble_gap.h"
 528              		.file 17 "Generated_Source\\PSoC6\\pdl\\middleware/ble/cy_ble_stack_gatt_server.h"
 529              		.file 18 "Generated_Source\\PSoC6/ADC.h"
 530              		.file 19 "ipc_def.h"
 531              		.file 20 "ble_nus_subsys.h"
 532              		.file 21 "cm0_cm4_shared_cmd.h"
 533              		.file 22 "Generated_Source\\PSoC6/I2C_Main.h"
 534              		.file 23 "Generated_Source\\PSoC6/UART_Debug.h"
 535              		.file 24 "Generated_Source\\PSoC6/PWM_Trig.h"
 536              		.file 25 "Generated_Source\\PSoC6/Counter_Echo.h"
 537              		.file 26 "Generated_Source\\PSoC6/IR.h"
 538              		.file 27 "Generated_Source\\PSoC6/PWM_Buz.h"
 539              		.file 28 "Generated_Source\\PSoC6/SPI_LEDCTRL.h"
 540              		.file 29 "cm0_ipc.h"
 541              		.file 30 "Generated_Source\\PSoC6\\pdl\\middleware/ble/cy_ble_gatt.h"
 542              		.file 31 "c:\\program files (x86)\\cypress\\psoc creator\\4.4\\psoc creator\\import\\gnu\\arm\\5.4
 543              		.file 32 "Generated_Source\\PSoC6/BLE.h"
 544              		.file 33 "Generated_Source\\PSoC6\\pdl\\drivers/peripheral/ipc/cy_ipc_pipe.h"