ARM GAS  C:\Users\Smaug\AppData\Local\Temp\ccLZDz0J.s 			page 1


   1              		.syntax unified
   2              		.cpu cortex-m0plus
   3              		.fpu softvfp
   4              		.eabi_attribute 20, 1
   5              		.eabi_attribute 21, 1
   6              		.eabi_attribute 23, 3
   7              		.eabi_attribute 24, 1
   8              		.eabi_attribute 25, 1
   9              		.eabi_attribute 26, 1
  10              		.eabi_attribute 30, 1
  11              		.eabi_attribute 34, 0
  12              		.eabi_attribute 18, 4
  13              		.thumb
  14              		.syntax unified
  15              		.file	"cm0_ipc.c"
  16              		.text
  17              	.Ltext0:
  18              		.cfi_sections	.debug_frame
  19              		.section	.text.CM0_ReleaseCallback,"ax",%progbits
  20              		.align	2
  21              		.global	CM0_ReleaseCallback
  22              		.code	16
  23              		.thumb_func
  24              		.type	CM0_ReleaseCallback, %function
  25              	CM0_ReleaseCallback:
  26              	.LFB679:
  27              		.file 1 "cm0_ipc.c"
   1:cm0_ipc.c     **** /* ========================================
   2:cm0_ipc.c     ****  *
   3:cm0_ipc.c     ****  * Copyright YOUR COMPANY, THE YEAR
   4:cm0_ipc.c     ****  * All Rights Reserved
   5:cm0_ipc.c     ****  * UNPUBLISHED, LICENSED SOFTWARE.
   6:cm0_ipc.c     ****  *
   7:cm0_ipc.c     ****  * CONFIDENTIAL AND PROPRIETARY INFORMATION
   8:cm0_ipc.c     ****  * WHICH IS THE PROPERTY OF your company.
   9:cm0_ipc.c     ****  *
  10:cm0_ipc.c     ****  * ========================================
  11:cm0_ipc.c     **** */
  12:cm0_ipc.c     **** 
  13:cm0_ipc.c     **** #include "cm0_ipc.h"
  14:cm0_ipc.c     **** 
  15:cm0_ipc.c     **** static bool isCM4Ready = true;
  16:cm0_ipc.c     **** static bool isDataAvailableFromCM4 = false;
  17:cm0_ipc.c     **** 
  18:cm0_ipc.c     **** static ipc_msg_t ipcMsgFromCM4_Local;
  19:cm0_ipc.c     **** 
  20:cm0_ipc.c     **** // Do not use directly, only pass to IPC functions!
  21:cm0_ipc.c     **** void CM0_MessageCallback(uint32_t *msg)
  22:cm0_ipc.c     **** {
  23:cm0_ipc.c     ****     ipc_msg_t *ipcMsgFromCM4;
  24:cm0_ipc.c     ****     
  25:cm0_ipc.c     ****     if (msg != NULL)
  26:cm0_ipc.c     ****     {
  27:cm0_ipc.c     ****         /* Cast the message received to the IPC structure */
  28:cm0_ipc.c     ****         ipcMsgFromCM4 = (ipc_msg_t*)msg;
  29:cm0_ipc.c     **** 
  30:cm0_ipc.c     ****         // Store the message locally
ARM GAS  C:\Users\Smaug\AppData\Local\Temp\ccLZDz0J.s 			page 2


  31:cm0_ipc.c     ****         memcpy((void*)&ipcMsgFromCM4_Local,
  32:cm0_ipc.c     ****                (void*)ipcMsgFromCM4,
  33:cm0_ipc.c     ****                 sizeof(ipc_msg_t));
  34:cm0_ipc.c     ****         
  35:cm0_ipc.c     ****         // Mark new data is available
  36:cm0_ipc.c     ****         isDataAvailableFromCM4 = true;
  37:cm0_ipc.c     ****     }
  38:cm0_ipc.c     **** }
  39:cm0_ipc.c     **** 
  40:cm0_ipc.c     **** // Do not use directly, only pass to IPC functions!
  41:cm0_ipc.c     **** void CM0_ReleaseCallback(void)
  42:cm0_ipc.c     **** {
  28              		.loc 1 42 0
  29              		.cfi_startproc
  30              		@ args = 0, pretend = 0, frame = 0
  31              		@ frame_needed = 0, uses_anonymous_args = 0
  32              		@ link register save eliminated.
  43:cm0_ipc.c     ****     /* Message processed by CM4. Ready to receive a new message */
  44:cm0_ipc.c     ****     isCM4Ready = true;
  33              		.loc 1 44 0
  34 0000 0122     		movs	r2, #1
  35 0002 014B     		ldr	r3, .L2
  36 0004 1A70     		strb	r2, [r3]
  45:cm0_ipc.c     ****     DBG_PRINTF("CM4 Accepted msg!\r\n");
  46:cm0_ipc.c     **** }
  37              		.loc 1 46 0
  38              		@ sp needed
  39 0006 7047     		bx	lr
  40              	.L3:
  41              		.align	2
  42              	.L2:
  43 0008 00000000 		.word	.LANCHOR0
  44              		.cfi_endproc
  45              	.LFE679:
  46              		.size	CM0_ReleaseCallback, .-CM0_ReleaseCallback
  47              		.section	.text.CM0_MessageCallback,"ax",%progbits
  48              		.align	2
  49              		.global	CM0_MessageCallback
  50              		.code	16
  51              		.thumb_func
  52              		.type	CM0_MessageCallback, %function
  53              	CM0_MessageCallback:
  54              	.LFB678:
  22:cm0_ipc.c     ****     ipc_msg_t *ipcMsgFromCM4;
  55              		.loc 1 22 0
  56              		.cfi_startproc
  57              		@ args = 0, pretend = 0, frame = 0
  58              		@ frame_needed = 0, uses_anonymous_args = 0
  59              	.LVL0:
  60 0000 10B5     		push	{r4, lr}
  61              		.cfi_def_cfa_offset 8
  62              		.cfi_offset 4, -8
  63              		.cfi_offset 14, -4
  25:cm0_ipc.c     ****     {
  64              		.loc 1 25 0
  65 0002 0028     		cmp	r0, #0
  66 0004 08D0     		beq	.L4
ARM GAS  C:\Users\Smaug\AppData\Local\Temp\ccLZDz0J.s 			page 3


  67              	.LVL1:
  31:cm0_ipc.c     ****                (void*)ipcMsgFromCM4,
  68              		.loc 1 31 0
  69 0006 8422     		movs	r2, #132
  70 0008 5200     		lsls	r2, r2, #1
  71 000a 0100     		movs	r1, r0
  72 000c 0348     		ldr	r0, .L6
  73              	.LVL2:
  74 000e FFF7FEFF 		bl	memcpy
  75              	.LVL3:
  36:cm0_ipc.c     ****     }
  76              		.loc 1 36 0
  77 0012 0122     		movs	r2, #1
  78 0014 024B     		ldr	r3, .L6+4
  79 0016 1A72     		strb	r2, [r3, #8]
  80              	.LVL4:
  81              	.L4:
  38:cm0_ipc.c     **** 
  82              		.loc 1 38 0
  83              		@ sp needed
  84 0018 10BD     		pop	{r4, pc}
  85              	.L7:
  86 001a C046     		.align	2
  87              	.L6:
  88 001c 00000000 		.word	.LANCHOR1
  89 0020 00010000 		.word	.LANCHOR2
  90              		.cfi_endproc
  91              	.LFE678:
  92              		.size	CM0_MessageCallback, .-CM0_MessageCallback
  93              		.section	.text.CM0_IsCM4Ready,"ax",%progbits
  94              		.align	2
  95              		.global	CM0_IsCM4Ready
  96              		.code	16
  97              		.thumb_func
  98              		.type	CM0_IsCM4Ready, %function
  99              	CM0_IsCM4Ready:
 100              	.LFB680:
  47:cm0_ipc.c     **** 
  48:cm0_ipc.c     **** bool CM0_IsCM4Ready(void)
  49:cm0_ipc.c     **** {
 101              		.loc 1 49 0
 102              		.cfi_startproc
 103              		@ args = 0, pretend = 0, frame = 0
 104              		@ frame_needed = 0, uses_anonymous_args = 0
 105              		@ link register save eliminated.
  50:cm0_ipc.c     ****     return isCM4Ready;
 106              		.loc 1 50 0
 107 0000 014B     		ldr	r3, .L9
 108 0002 1878     		ldrb	r0, [r3]
  51:cm0_ipc.c     **** }
 109              		.loc 1 51 0
 110              		@ sp needed
 111 0004 7047     		bx	lr
 112              	.L10:
 113 0006 C046     		.align	2
 114              	.L9:
 115 0008 00000000 		.word	.LANCHOR0
ARM GAS  C:\Users\Smaug\AppData\Local\Temp\ccLZDz0J.s 			page 4


 116              		.cfi_endproc
 117              	.LFE680:
 118              		.size	CM0_IsCM4Ready, .-CM0_IsCM4Ready
 119              		.section	.text.CM0_isDataAvailableFromCM4,"ax",%progbits
 120              		.align	2
 121              		.global	CM0_isDataAvailableFromCM4
 122              		.code	16
 123              		.thumb_func
 124              		.type	CM0_isDataAvailableFromCM4, %function
 125              	CM0_isDataAvailableFromCM4:
 126              	.LFB681:
  52:cm0_ipc.c     **** 
  53:cm0_ipc.c     **** bool CM0_isDataAvailableFromCM4(void)
  54:cm0_ipc.c     **** {
 127              		.loc 1 54 0
 128              		.cfi_startproc
 129              		@ args = 0, pretend = 0, frame = 0
 130              		@ frame_needed = 0, uses_anonymous_args = 0
 131              		@ link register save eliminated.
  55:cm0_ipc.c     ****     return isDataAvailableFromCM4;
 132              		.loc 1 55 0
 133 0000 014B     		ldr	r3, .L12
 134 0002 187A     		ldrb	r0, [r3, #8]
  56:cm0_ipc.c     **** }
 135              		.loc 1 56 0
 136              		@ sp needed
 137 0004 7047     		bx	lr
 138              	.L13:
 139 0006 C046     		.align	2
 140              	.L12:
 141 0008 00010000 		.word	.LANCHOR2
 142              		.cfi_endproc
 143              	.LFE681:
 144              		.size	CM0_isDataAvailableFromCM4, .-CM0_isDataAvailableFromCM4
 145              		.section	.text.CM0_GetCM4Message,"ax",%progbits
 146              		.align	2
 147              		.global	CM0_GetCM4Message
 148              		.code	16
 149              		.thumb_func
 150              		.type	CM0_GetCM4Message, %function
 151              	CM0_GetCM4Message:
 152              	.LFB682:
  57:cm0_ipc.c     **** 
  58:cm0_ipc.c     **** ipc_msg_t* CM0_GetCM4Message(void)
  59:cm0_ipc.c     **** {
 153              		.loc 1 59 0
 154              		.cfi_startproc
 155              		@ args = 0, pretend = 0, frame = 0
 156              		@ frame_needed = 0, uses_anonymous_args = 0
 157              		@ link register save eliminated.
  60:cm0_ipc.c     ****     // Mark that no new data is available from CM4 (we read it just now).
  61:cm0_ipc.c     ****     isDataAvailableFromCM4 = false;
 158              		.loc 1 61 0
 159 0000 0022     		movs	r2, #0
 160 0002 024B     		ldr	r3, .L15
 161 0004 1A72     		strb	r2, [r3, #8]
  62:cm0_ipc.c     ****     // This is a programmer responsibility to check for NULL pointer!
ARM GAS  C:\Users\Smaug\AppData\Local\Temp\ccLZDz0J.s 			page 5


  63:cm0_ipc.c     ****     return &ipcMsgFromCM4_Local;
  64:cm0_ipc.c     **** }
 162              		.loc 1 64 0
 163 0006 0248     		ldr	r0, .L15+4
 164              		@ sp needed
 165 0008 7047     		bx	lr
 166              	.L16:
 167 000a C046     		.align	2
 168              	.L15:
 169 000c 00010000 		.word	.LANCHOR2
 170 0010 00000000 		.word	.LANCHOR1
 171              		.cfi_endproc
 172              	.LFE682:
 173              		.size	CM0_GetCM4Message, .-CM0_GetCM4Message
 174              		.section	.text.CM0_SendCM4Message,"ax",%progbits
 175              		.align	2
 176              		.global	CM0_SendCM4Message
 177              		.code	16
 178              		.thumb_func
 179              		.type	CM0_SendCM4Message, %function
 180              	CM0_SendCM4Message:
 181              	.LFB683:
  65:cm0_ipc.c     **** 
  66:cm0_ipc.c     **** bool CM0_SendCM4Message(ipc_msg_t* msg)
  67:cm0_ipc.c     **** {
 182              		.loc 1 67 0
 183              		.cfi_startproc
 184              		@ args = 0, pretend = 0, frame = 0
 185              		@ frame_needed = 0, uses_anonymous_args = 0
 186              	.LVL5:
 187 0000 10B5     		push	{r4, lr}
 188              		.cfi_def_cfa_offset 8
 189              		.cfi_offset 4, -8
 190              		.cfi_offset 14, -4
 191 0002 0200     		movs	r2, r0
 192              	.LVL6:
  68:cm0_ipc.c     ****     bool ret = true;
  69:cm0_ipc.c     ****     /* Send the string message to CM4 */
  70:cm0_ipc.c     ****     // For the sake of simplicity, we won't record exact error.
  71:cm0_ipc.c     ****     // Inversion is needed so retuned 0 error will be actually converted to true
  72:cm0_ipc.c     ****     ret = (bool)!Cy_IPC_Pipe_SendMessage(CY_IPC_EP_CYPIPE_CM4_ADDR,
 193              		.loc 1 72 0
 194 0004 044B     		ldr	r3, .L18
 195 0006 0021     		movs	r1, #0
 196 0008 0120     		movs	r0, #1
 197              	.LVL7:
 198 000a FFF7FEFF 		bl	Cy_IPC_Pipe_SendMessage
 199              	.LVL8:
 200 000e 4342     		rsbs	r3, r0, #0
 201 0010 5841     		adcs	r0, r0, r3
 202 0012 C0B2     		uxtb	r0, r0
 203              	.LVL9:
  73:cm0_ipc.c     ****                                          CY_IPC_EP_CYPIPE_CM0_ADDR,
  74:cm0_ipc.c     ****                                          (void *)msg,
  75:cm0_ipc.c     ****                                          CM0_ReleaseCallback);
  76:cm0_ipc.c     ****     return ret;
  77:cm0_ipc.c     **** }
ARM GAS  C:\Users\Smaug\AppData\Local\Temp\ccLZDz0J.s 			page 6


 204              		.loc 1 77 0
 205              		@ sp needed
 206 0014 10BD     		pop	{r4, pc}
 207              	.L19:
 208 0016 C046     		.align	2
 209              	.L18:
 210 0018 00000000 		.word	CM0_ReleaseCallback
 211              		.cfi_endproc
 212              	.LFE683:
 213              		.size	CM0_SendCM4Message, .-CM0_SendCM4Message
 214              		.data
 215              		.set	.LANCHOR0,. + 0
 216              		.type	isCM4Ready, %object
 217              		.size	isCM4Ready, 1
 218              	isCM4Ready:
 219 0000 01       		.byte	1
 220              		.bss
 221              		.align	2
 222              		.set	.LANCHOR1,. + 0
 223              		.set	.LANCHOR2,. + 256
 224              		.type	ipcMsgFromCM4_Local, %object
 225              		.size	ipcMsgFromCM4_Local, 264
 226              	ipcMsgFromCM4_Local:
 227 0000 00000000 		.space	264
 227      00000000 
 227      00000000 
 227      00000000 
 227      00000000 
 228              		.type	isDataAvailableFromCM4, %object
 229              		.size	isDataAvailableFromCM4, 1
 230              	isDataAvailableFromCM4:
 231 0108 00       		.space	1
 232              		.text
 233              	.Letext0:
 234              		.file 2 "c:\\program files (x86)\\cypress\\psoc creator\\4.4\\psoc creator\\import\\gnu\\arm\\5.4.
 235              		.file 3 "c:\\program files (x86)\\cypress\\psoc creator\\4.4\\psoc creator\\import\\gnu\\arm\\5.4.
 236              		.file 4 "Generated_Source\\PSoC6\\pdl\\drivers/peripheral/device/cy_device.h"
 237              		.file 5 "Generated_Source\\PSoC6\\pdl\\drivers/peripheral/sar/cy_sar.h"
 238              		.file 6 "Generated_Source\\PSoC6\\pdl\\drivers/peripheral/scb/cy_scb_i2c.h"
 239              		.file 7 "Generated_Source\\PSoC6\\pdl\\drivers/peripheral/scb/cy_scb_spi.h"
 240              		.file 8 "Generated_Source\\PSoC6\\pdl\\drivers/peripheral/scb/cy_scb_uart.h"
 241              		.file 9 "Generated_Source\\PSoC6\\pdl\\drivers/peripheral/tcpwm/cy_tcpwm_counter.h"
 242              		.file 10 "Generated_Source\\PSoC6\\pdl\\drivers/peripheral/tcpwm/cy_tcpwm_pwm.h"
 243              		.file 11 "Generated_Source\\PSoC6\\pdl\\middleware/ble/cy_ble_stack.h"
 244              		.file 12 "Generated_Source\\PSoC6\\pdl\\middleware/ble/cy_ble_stack_host_main.h"
 245              		.file 13 "Generated_Source\\PSoC6\\pdl\\middleware/ble/cy_ble_gap.h"
 246              		.file 14 "Generated_Source\\PSoC6/ADC.h"
 247              		.file 15 "ipc_def.h"
 248              		.file 16 "Generated_Source\\PSoC6/I2C_Main.h"
 249              		.file 17 "Generated_Source\\PSoC6/UART_Debug.h"
 250              		.file 18 "Generated_Source\\PSoC6/PWM_Trig.h"
 251              		.file 19 "Generated_Source\\PSoC6/Counter_Echo.h"
 252              		.file 20 "Generated_Source\\PSoC6/IR.h"
 253              		.file 21 "Generated_Source\\PSoC6/PWM_Buz.h"
 254              		.file 22 "Generated_Source\\PSoC6/SPI_LEDCTRL.h"
 255              		.file 23 "Generated_Source\\PSoC6\\pdl\\drivers/peripheral/ipc/cy_ipc_pipe.h"