ARM GAS  C:\Users\Smaug\AppData\Local\Temp\ccVZzAJS.s 			page 1


   1              		.syntax unified
   2              		.cpu cortex-m0plus
   3              		.fpu softvfp
   4              		.eabi_attribute 20, 1
   5              		.eabi_attribute 21, 1
   6              		.eabi_attribute 23, 3
   7              		.eabi_attribute 24, 1
   8              		.eabi_attribute 25, 1
   9              		.eabi_attribute 26, 1
  10              		.eabi_attribute 30, 1
  11              		.eabi_attribute 34, 0
  12              		.eabi_attribute 18, 4
  13              		.thumb
  14              		.syntax unified
  15              		.file	"cy_ble_event_handler.c"
  16              		.text
  17              	.Ltext0:
  18              		.cfi_sections	.debug_frame
  19              		.section	.text.Cy_BLE_SendWriteResponse,"ax",%progbits
  20              		.align	2
  21              		.code	16
  22              		.thumb_func
  23              		.type	Cy_BLE_SendWriteResponse, %function
  24              	Cy_BLE_SendWriteResponse:
  25              	.LFB169:
  26              		.file 1 "Generated_Source\\PSoC6\\pdl\\middleware\\ble\\cy_ble_event_handler.c"
   1:Generated_Source\PSoC6\pdl\middleware\ble/cy_ble_event_handler.c **** /***************************************************************************//**
   2:Generated_Source\PSoC6\pdl\middleware\ble/cy_ble_event_handler.c **** * \file cy_ble_event_handler.c
   3:Generated_Source\PSoC6\pdl\middleware\ble/cy_ble_event_handler.c **** * \version 2.90
   4:Generated_Source\PSoC6\pdl\middleware\ble/cy_ble_event_handler.c **** *
   5:Generated_Source\PSoC6\pdl\middleware\ble/cy_ble_event_handler.c **** * \brief
   6:Generated_Source\PSoC6\pdl\middleware\ble/cy_ble_event_handler.c **** *  This file contains the source code for the Event Handler State Machine
   7:Generated_Source\PSoC6\pdl\middleware\ble/cy_ble_event_handler.c **** *  of the BLE Middleware.
   8:Generated_Source\PSoC6\pdl\middleware\ble/cy_ble_event_handler.c **** *
   9:Generated_Source\PSoC6\pdl\middleware\ble/cy_ble_event_handler.c **** ********************************************************************************
  10:Generated_Source\PSoC6\pdl\middleware\ble/cy_ble_event_handler.c **** * \copyright
  11:Generated_Source\PSoC6\pdl\middleware\ble/cy_ble_event_handler.c **** * Copyright 2017-2023, Cypress Semiconductor Corporation.  All rights reserved.
  12:Generated_Source\PSoC6\pdl\middleware\ble/cy_ble_event_handler.c **** * You may use this file only in accordance with the license, terms, conditions,
  13:Generated_Source\PSoC6\pdl\middleware\ble/cy_ble_event_handler.c **** * disclaimers, and limitations in the end user license agreement accompanying
  14:Generated_Source\PSoC6\pdl\middleware\ble/cy_ble_event_handler.c **** * the software package with which this file was provided.
  15:Generated_Source\PSoC6\pdl\middleware\ble/cy_ble_event_handler.c **** *******************************************************************************/
  16:Generated_Source\PSoC6\pdl\middleware\ble/cy_ble_event_handler.c **** 
  17:Generated_Source\PSoC6\pdl\middleware\ble/cy_ble_event_handler.c **** #include "cy_ble_event_handler.h"
  18:Generated_Source\PSoC6\pdl\middleware\ble/cy_ble_event_handler.c **** 
  19:Generated_Source\PSoC6\pdl\middleware\ble/cy_ble_event_handler.c **** /* C binding of definitions if building with C++ compiler */
  20:Generated_Source\PSoC6\pdl\middleware\ble/cy_ble_event_handler.c **** #ifdef __cplusplus
  21:Generated_Source\PSoC6\pdl\middleware\ble/cy_ble_event_handler.c **** extern "C" {
  22:Generated_Source\PSoC6\pdl\middleware\ble/cy_ble_event_handler.c **** #endif /* __cplusplus */
  23:Generated_Source\PSoC6\pdl\middleware\ble/cy_ble_event_handler.c **** 
  24:Generated_Source\PSoC6\pdl\middleware\ble/cy_ble_event_handler.c **** #if (CY_BLE_MODE_PROFILE)
  25:Generated_Source\PSoC6\pdl\middleware\ble/cy_ble_event_handler.c **** 
  26:Generated_Source\PSoC6\pdl\middleware\ble/cy_ble_event_handler.c **** /***************************************
  27:Generated_Source\PSoC6\pdl\middleware\ble/cy_ble_event_handler.c **** * Private Function Prototypes
  28:Generated_Source\PSoC6\pdl\middleware\ble/cy_ble_event_handler.c **** ***************************************/
  29:Generated_Source\PSoC6\pdl\middleware\ble/cy_ble_event_handler.c **** 
  30:Generated_Source\PSoC6\pdl\middleware\ble/cy_ble_event_handler.c **** static void Cy_BLE_TimeOutEventHandler(const cy_stc_ble_timeout_param_t *eventParam);
  31:Generated_Source\PSoC6\pdl\middleware\ble/cy_ble_event_handler.c **** 
ARM GAS  C:\Users\Smaug\AppData\Local\Temp\ccVZzAJS.s 			page 2


  32:Generated_Source\PSoC6\pdl\middleware\ble/cy_ble_event_handler.c **** #if (CY_BLE_GATT_ROLE_SERVER)
  33:Generated_Source\PSoC6\pdl\middleware\ble/cy_ble_event_handler.c **** static void Cy_BLE_SendWriteResponse(const cy_stc_ble_gatts_write_cmd_req_param_t *eventParam,
  34:Generated_Source\PSoC6\pdl\middleware\ble/cy_ble_event_handler.c ****                                      cy_en_ble_gatt_err_code_t gattErr);
  35:Generated_Source\PSoC6\pdl\middleware\ble/cy_ble_event_handler.c **** #endif /* CY_BLE_GATT_ROLE_SERVER */
  36:Generated_Source\PSoC6\pdl\middleware\ble/cy_ble_event_handler.c **** 
  37:Generated_Source\PSoC6\pdl\middleware\ble/cy_ble_event_handler.c **** #if (CY_BLE_GATT_ROLE_CLIENT)
  38:Generated_Source\PSoC6\pdl\middleware\ble/cy_ble_event_handler.c **** static void Cy_BLE_GAPC_DiscoverCharacteristicsEventHandler(cy_stc_ble_disc_char_info_t *discCharIn
  39:Generated_Source\PSoC6\pdl\middleware\ble/cy_ble_event_handler.c **** #endif /* CY_BLE_GATT_ROLE_CLIENT */
  40:Generated_Source\PSoC6\pdl\middleware\ble/cy_ble_event_handler.c **** 
  41:Generated_Source\PSoC6\pdl\middleware\ble/cy_ble_event_handler.c **** 
  42:Generated_Source\PSoC6\pdl\middleware\ble/cy_ble_event_handler.c **** /***************************************
  43:Generated_Source\PSoC6\pdl\middleware\ble/cy_ble_event_handler.c **** * Global Variables
  44:Generated_Source\PSoC6\pdl\middleware\ble/cy_ble_event_handler.c **** ***************************************/
  45:Generated_Source\PSoC6\pdl\middleware\ble/cy_ble_event_handler.c **** volatile uint8_t cy_ble_busyStatus[CY_BLE_CONN_COUNT];
  46:Generated_Source\PSoC6\pdl\middleware\ble/cy_ble_event_handler.c **** volatile uint8_t cy_ble_eventHandlerFlag;
  47:Generated_Source\PSoC6\pdl\middleware\ble/cy_ble_event_handler.c **** volatile uint32_t cy_ble_cmdStatus;
  48:Generated_Source\PSoC6\pdl\middleware\ble/cy_ble_event_handler.c **** 
  49:Generated_Source\PSoC6\pdl\middleware\ble/cy_ble_event_handler.c **** #if (CY_BLE_GAP_ROLE_PERIPHERAL || CY_BLE_GAP_ROLE_BROADCASTER)
  50:Generated_Source\PSoC6\pdl\middleware\ble/cy_ble_event_handler.c **** uint8_t cy_ble_advertisingIntervalType;
  51:Generated_Source\PSoC6\pdl\middleware\ble/cy_ble_event_handler.c **** #endif /* CY_BLE_GAP_ROLE_PERIPHERAL || CY_BLE_GAP_ROLE_BROADCASTER) */
  52:Generated_Source\PSoC6\pdl\middleware\ble/cy_ble_event_handler.c **** 
  53:Generated_Source\PSoC6\pdl\middleware\ble/cy_ble_event_handler.c **** #if (CY_BLE_GAP_ROLE_CENTRAL || CY_BLE_GAP_ROLE_OBSERVER)
  54:Generated_Source\PSoC6\pdl\middleware\ble/cy_ble_event_handler.c **** uint8_t cy_ble_scanningIntervalType;
  55:Generated_Source\PSoC6\pdl\middleware\ble/cy_ble_event_handler.c **** #endif /* CY_BLE_GAP_ROLE_CENTRAL || CY_BLE_GAP_ROLE_OBSERVER */
  56:Generated_Source\PSoC6\pdl\middleware\ble/cy_ble_event_handler.c **** 
  57:Generated_Source\PSoC6\pdl\middleware\ble/cy_ble_event_handler.c **** #if (CY_BLE_GATT_ROLE_CLIENT)
  58:Generated_Source\PSoC6\pdl\middleware\ble/cy_ble_event_handler.c **** cy_stc_ble_discovery_t cy_ble_discovery[CY_BLE_GATTC_COUNT];
  59:Generated_Source\PSoC6\pdl\middleware\ble/cy_ble_event_handler.c **** cy_stc_ble_disc_srvc_info_t cy_ble_serverInfo[CY_BLE_GATTC_COUNT][CY_BLE_SRVI_COUNT];
  60:Generated_Source\PSoC6\pdl\middleware\ble/cy_ble_event_handler.c **** #endif /* CY_BLE_GATT_ROLE_CLIENT */
  61:Generated_Source\PSoC6\pdl\middleware\ble/cy_ble_event_handler.c **** 
  62:Generated_Source\PSoC6\pdl\middleware\ble/cy_ble_event_handler.c **** #if (CY_BLE_GAP_ROLE_PERIPHERAL || CY_BLE_GAP_ROLE_CENTRAL)
  63:Generated_Source\PSoC6\pdl\middleware\ble/cy_ble_event_handler.c **** cy_stc_ble_event_handler_t cy_ble_eventHandler;
  64:Generated_Source\PSoC6\pdl\middleware\ble/cy_ble_event_handler.c **** 
  65:Generated_Source\PSoC6\pdl\middleware\ble/cy_ble_event_handler.c **** 
  66:Generated_Source\PSoC6\pdl\middleware\ble/cy_ble_event_handler.c **** /******************************************************************************
  67:Generated_Source\PSoC6\pdl\middleware\ble/cy_ble_event_handler.c **** * Function Name: Cy_BLE_RegisterServiceEventHandler
  68:Generated_Source\PSoC6\pdl\middleware\ble/cy_ble_event_handler.c **** ***************************************************************************//**
  69:Generated_Source\PSoC6\pdl\middleware\ble/cy_ble_event_handler.c **** *
  70:Generated_Source\PSoC6\pdl\middleware\ble/cy_ble_event_handler.c **** *  Registration Service Event Handler
  71:Generated_Source\PSoC6\pdl\middleware\ble/cy_ble_event_handler.c **** *
  72:Generated_Source\PSoC6\pdl\middleware\ble/cy_ble_event_handler.c **** *  \param  eventHandlerFunc: The pointer to the callback procedure.
  73:Generated_Source\PSoC6\pdl\middleware\ble/cy_ble_event_handler.c **** *
  74:Generated_Source\PSoC6\pdl\middleware\ble/cy_ble_event_handler.c **** *  \return
  75:Generated_Source\PSoC6\pdl\middleware\ble/cy_ble_event_handler.c **** *  cy_en_ble_api_result_t : Return value indicates if the function succeeded or
  76:Generated_Source\PSoC6\pdl\middleware\ble/cy_ble_event_handler.c **** *  failed. The following are possible error codes.
  77:Generated_Source\PSoC6\pdl\middleware\ble/cy_ble_event_handler.c **** *
  78:Generated_Source\PSoC6\pdl\middleware\ble/cy_ble_event_handler.c **** *   Error Codes                           | Description
  79:Generated_Source\PSoC6\pdl\middleware\ble/cy_ble_event_handler.c **** *   ------------                          | -----------
  80:Generated_Source\PSoC6\pdl\middleware\ble/cy_ble_event_handler.c **** *   CY_BLE_SUCCESS                        | The function completed successfully.
  81:Generated_Source\PSoC6\pdl\middleware\ble/cy_ble_event_handler.c **** *   CY_BLE_ERROR_INVALID_PARAMETER        | On specifying NULL as input parameter.
  82:Generated_Source\PSoC6\pdl\middleware\ble/cy_ble_event_handler.c **** *   CY_BLE_ERROR_MEMORY_ALLOCATION_FAILED | Buffer overflow in the registration callback.
  83:Generated_Source\PSoC6\pdl\middleware\ble/cy_ble_event_handler.c **** *
  84:Generated_Source\PSoC6\pdl\middleware\ble/cy_ble_event_handler.c **** ******************************************************************************/
  85:Generated_Source\PSoC6\pdl\middleware\ble/cy_ble_event_handler.c **** cy_en_ble_api_result_t Cy_BLE_RegisterServiceEventHandler(cy_ble_event_handle_t eventHandlerFunc)
  86:Generated_Source\PSoC6\pdl\middleware\ble/cy_ble_event_handler.c **** {
  87:Generated_Source\PSoC6\pdl\middleware\ble/cy_ble_event_handler.c ****     cy_en_ble_api_result_t apiResult = CY_BLE_SUCCESS;
  88:Generated_Source\PSoC6\pdl\middleware\ble/cy_ble_event_handler.c ****     uint8_t existFlag = 0u;
ARM GAS  C:\Users\Smaug\AppData\Local\Temp\ccVZzAJS.s 			page 3


  89:Generated_Source\PSoC6\pdl\middleware\ble/cy_ble_event_handler.c **** 
  90:Generated_Source\PSoC6\pdl\middleware\ble/cy_ble_event_handler.c ****     if(eventHandlerFunc == NULL)
  91:Generated_Source\PSoC6\pdl\middleware\ble/cy_ble_event_handler.c ****     {
  92:Generated_Source\PSoC6\pdl\middleware\ble/cy_ble_event_handler.c ****         apiResult = CY_BLE_ERROR_INVALID_PARAMETER;
  93:Generated_Source\PSoC6\pdl\middleware\ble/cy_ble_event_handler.c ****     }
  94:Generated_Source\PSoC6\pdl\middleware\ble/cy_ble_event_handler.c ****     else
  95:Generated_Source\PSoC6\pdl\middleware\ble/cy_ble_event_handler.c ****     {
  96:Generated_Source\PSoC6\pdl\middleware\ble/cy_ble_event_handler.c ****         /* Check if eventHandlerFunc has been already registered */
  97:Generated_Source\PSoC6\pdl\middleware\ble/cy_ble_event_handler.c ****         uint32_t idx;
  98:Generated_Source\PSoC6\pdl\middleware\ble/cy_ble_event_handler.c ****         for(idx = 0u; (idx < cy_ble_eventHandler.count) && (existFlag == 0u); idx++)
  99:Generated_Source\PSoC6\pdl\middleware\ble/cy_ble_event_handler.c ****         {
 100:Generated_Source\PSoC6\pdl\middleware\ble/cy_ble_event_handler.c ****             if(cy_ble_eventHandler.serviceEventHandler[idx] == eventHandlerFunc)
 101:Generated_Source\PSoC6\pdl\middleware\ble/cy_ble_event_handler.c ****             {
 102:Generated_Source\PSoC6\pdl\middleware\ble/cy_ble_event_handler.c ****                 existFlag = 1u;
 103:Generated_Source\PSoC6\pdl\middleware\ble/cy_ble_event_handler.c ****             }
 104:Generated_Source\PSoC6\pdl\middleware\ble/cy_ble_event_handler.c ****         }
 105:Generated_Source\PSoC6\pdl\middleware\ble/cy_ble_event_handler.c ****     }
 106:Generated_Source\PSoC6\pdl\middleware\ble/cy_ble_event_handler.c ****     /* Register eventHandlerFunc callback */
 107:Generated_Source\PSoC6\pdl\middleware\ble/cy_ble_event_handler.c ****     if((apiResult == CY_BLE_SUCCESS) && (existFlag == 0u))
 108:Generated_Source\PSoC6\pdl\middleware\ble/cy_ble_event_handler.c ****     {
 109:Generated_Source\PSoC6\pdl\middleware\ble/cy_ble_event_handler.c ****         if(cy_ble_eventHandler.count < CY_BLE_MAX_SRVI)
 110:Generated_Source\PSoC6\pdl\middleware\ble/cy_ble_event_handler.c ****         {
 111:Generated_Source\PSoC6\pdl\middleware\ble/cy_ble_event_handler.c ****             cy_ble_eventHandler.serviceEventHandler[cy_ble_eventHandler.count] = eventHandlerFunc;
 112:Generated_Source\PSoC6\pdl\middleware\ble/cy_ble_event_handler.c ****             cy_ble_eventHandler.count += 1u;
 113:Generated_Source\PSoC6\pdl\middleware\ble/cy_ble_event_handler.c ****         }
 114:Generated_Source\PSoC6\pdl\middleware\ble/cy_ble_event_handler.c ****         else
 115:Generated_Source\PSoC6\pdl\middleware\ble/cy_ble_event_handler.c ****         {
 116:Generated_Source\PSoC6\pdl\middleware\ble/cy_ble_event_handler.c ****             apiResult = CY_BLE_ERROR_MEMORY_ALLOCATION_FAILED;
 117:Generated_Source\PSoC6\pdl\middleware\ble/cy_ble_event_handler.c ****         }
 118:Generated_Source\PSoC6\pdl\middleware\ble/cy_ble_event_handler.c ****     }
 119:Generated_Source\PSoC6\pdl\middleware\ble/cy_ble_event_handler.c **** 
 120:Generated_Source\PSoC6\pdl\middleware\ble/cy_ble_event_handler.c ****     return(apiResult);
 121:Generated_Source\PSoC6\pdl\middleware\ble/cy_ble_event_handler.c **** }
 122:Generated_Source\PSoC6\pdl\middleware\ble/cy_ble_event_handler.c **** 
 123:Generated_Source\PSoC6\pdl\middleware\ble/cy_ble_event_handler.c **** /******************************************************************************
 124:Generated_Source\PSoC6\pdl\middleware\ble/cy_ble_event_handler.c **** * Function Name: Cy_BLE_InvokeServiceEventHandler
 125:Generated_Source\PSoC6\pdl\middleware\ble/cy_ble_event_handler.c **** ***************************************************************************//**
 126:Generated_Source\PSoC6\pdl\middleware\ble/cy_ble_event_handler.c **** *
 127:Generated_Source\PSoC6\pdl\middleware\ble/cy_ble_event_handler.c **** *  Invoke registered service event handlers.
 128:Generated_Source\PSoC6\pdl\middleware\ble/cy_ble_event_handler.c **** *
 129:Generated_Source\PSoC6\pdl\middleware\ble/cy_ble_event_handler.c **** *  \param eventCode:   The event code.
 130:Generated_Source\PSoC6\pdl\middleware\ble/cy_ble_event_handler.c **** *  \param eventParam:  The event parameters.
 131:Generated_Source\PSoC6\pdl\middleware\ble/cy_ble_event_handler.c **** *
 132:Generated_Source\PSoC6\pdl\middleware\ble/cy_ble_event_handler.c **** * \return
 133:Generated_Source\PSoC6\pdl\middleware\ble/cy_ble_event_handler.c **** *  A return value of type cy_en_ble_gatt_err_code_t.
 134:Generated_Source\PSoC6\pdl\middleware\ble/cy_ble_event_handler.c **** *
 135:Generated_Source\PSoC6\pdl\middleware\ble/cy_ble_event_handler.c **** ******************************************************************************/
 136:Generated_Source\PSoC6\pdl\middleware\ble/cy_ble_event_handler.c **** cy_en_ble_gatt_err_code_t Cy_BLE_InvokeServiceEventHandler(uint32_t eventCode,
 137:Generated_Source\PSoC6\pdl\middleware\ble/cy_ble_event_handler.c ****                                                            void *eventParam)
 138:Generated_Source\PSoC6\pdl\middleware\ble/cy_ble_event_handler.c **** {
 139:Generated_Source\PSoC6\pdl\middleware\ble/cy_ble_event_handler.c ****     uint32_t idx;
 140:Generated_Source\PSoC6\pdl\middleware\ble/cy_ble_event_handler.c ****     cy_en_ble_gatt_err_code_t gattErr = CY_BLE_GATT_ERR_NONE;
 141:Generated_Source\PSoC6\pdl\middleware\ble/cy_ble_event_handler.c **** 
 142:Generated_Source\PSoC6\pdl\middleware\ble/cy_ble_event_handler.c ****     for(idx = 0u; (idx < cy_ble_eventHandler.count) && ((cy_ble_eventHandlerFlag & CY_BLE_CALLBACK)
 143:Generated_Source\PSoC6\pdl\middleware\ble/cy_ble_event_handler.c ****     {
 144:Generated_Source\PSoC6\pdl\middleware\ble/cy_ble_event_handler.c ****         gattErr = cy_ble_eventHandler.serviceEventHandler[idx](eventCode, eventParam);
 145:Generated_Source\PSoC6\pdl\middleware\ble/cy_ble_event_handler.c ****     }
ARM GAS  C:\Users\Smaug\AppData\Local\Temp\ccVZzAJS.s 			page 4


 146:Generated_Source\PSoC6\pdl\middleware\ble/cy_ble_event_handler.c **** 
 147:Generated_Source\PSoC6\pdl\middleware\ble/cy_ble_event_handler.c ****     return(gattErr);
 148:Generated_Source\PSoC6\pdl\middleware\ble/cy_ble_event_handler.c **** }
 149:Generated_Source\PSoC6\pdl\middleware\ble/cy_ble_event_handler.c **** #endif /* CY_BLE_GAP_ROLE_PERIPHERAL || CY_BLE_GAP_ROLE_CENTRAL */
 150:Generated_Source\PSoC6\pdl\middleware\ble/cy_ble_event_handler.c **** 
 151:Generated_Source\PSoC6\pdl\middleware\ble/cy_ble_event_handler.c **** #if (CY_BLE_GATT_ROLE_SERVER)
 152:Generated_Source\PSoC6\pdl\middleware\ble/cy_ble_event_handler.c **** 
 153:Generated_Source\PSoC6\pdl\middleware\ble/cy_ble_event_handler.c **** 
 154:Generated_Source\PSoC6\pdl\middleware\ble/cy_ble_event_handler.c **** /******************************************************************************
 155:Generated_Source\PSoC6\pdl\middleware\ble/cy_ble_event_handler.c **** * Function Name: Cy_BLE_SendWriteResponse
 156:Generated_Source\PSoC6\pdl\middleware\ble/cy_ble_event_handler.c **** ***************************************************************************//**
 157:Generated_Source\PSoC6\pdl\middleware\ble/cy_ble_event_handler.c **** *
 158:Generated_Source\PSoC6\pdl\middleware\ble/cy_ble_event_handler.c **** *  Sends the Write Response to Write Request when event was handled by service.
 159:Generated_Source\PSoC6\pdl\middleware\ble/cy_ble_event_handler.c **** *
 160:Generated_Source\PSoC6\pdl\middleware\ble/cy_ble_event_handler.c **** *  \param eventParam - The event parameter.
 161:Generated_Source\PSoC6\pdl\middleware\ble/cy_ble_event_handler.c **** *  \param gattErr - The error code.
 162:Generated_Source\PSoC6\pdl\middleware\ble/cy_ble_event_handler.c **** *
 163:Generated_Source\PSoC6\pdl\middleware\ble/cy_ble_event_handler.c **** * \return
 164:Generated_Source\PSoC6\pdl\middleware\ble/cy_ble_event_handler.c **** *  None.
 165:Generated_Source\PSoC6\pdl\middleware\ble/cy_ble_event_handler.c **** *
 166:Generated_Source\PSoC6\pdl\middleware\ble/cy_ble_event_handler.c **** ******************************************************************************/
 167:Generated_Source\PSoC6\pdl\middleware\ble/cy_ble_event_handler.c **** static void Cy_BLE_SendWriteResponse(const cy_stc_ble_gatts_write_cmd_req_param_t *eventParam,
 168:Generated_Source\PSoC6\pdl\middleware\ble/cy_ble_event_handler.c ****                                      cy_en_ble_gatt_err_code_t gattErr)
 169:Generated_Source\PSoC6\pdl\middleware\ble/cy_ble_event_handler.c **** {
  27              		.loc 1 169 0
  28              		.cfi_startproc
  29              		@ args = 0, pretend = 0, frame = 8
  30              		@ frame_needed = 0, uses_anonymous_args = 0
  31              	.LVL0:
  32 0000 30B5     		push	{r4, r5, lr}
  33              		.cfi_def_cfa_offset 12
  34              		.cfi_offset 4, -12
  35              		.cfi_offset 5, -8
  36              		.cfi_offset 14, -4
  37 0002 83B0     		sub	sp, sp, #12
  38              		.cfi_def_cfa_offset 24
  39 0004 0400     		movs	r4, r0
  40 0006 0D00     		movs	r5, r1
 170:Generated_Source\PSoC6\pdl\middleware\ble/cy_ble_event_handler.c ****     cy_stc_ble_gatt_err_param_t err_param =
  41              		.loc 1 170 0
  42 0008 0622     		movs	r2, #6
  43 000a 0021     		movs	r1, #0
  44              	.LVL1:
  45 000c 6846     		mov	r0, sp
  46              	.LVL2:
  47 000e FFF7FEFF 		bl	memset
  48              	.LVL3:
  49 0012 A389     		ldrh	r3, [r4, #12]
  50 0014 6A46     		mov	r2, sp
  51 0016 1380     		strh	r3, [r2]
 171:Generated_Source\PSoC6\pdl\middleware\ble/cy_ble_event_handler.c ****     {
 172:Generated_Source\PSoC6\pdl\middleware\ble/cy_ble_event_handler.c ****         .errInfo.opCode     = CY_BLE_GATT_WRITE_REQ,
 173:Generated_Source\PSoC6\pdl\middleware\ble/cy_ble_event_handler.c ****         .errInfo.attrHandle = eventParam->handleValPair.attrHandle,
  52              		.loc 1 173 0
  53 0018 2389     		ldrh	r3, [r4, #8]
 170:Generated_Source\PSoC6\pdl\middleware\ble/cy_ble_event_handler.c ****     cy_stc_ble_gatt_err_param_t err_param =
  54              		.loc 1 170 0
ARM GAS  C:\Users\Smaug\AppData\Local\Temp\ccVZzAJS.s 			page 5


  55 001a 5380     		strh	r3, [r2, #2]
  56 001c 1223     		movs	r3, #18
  57 001e 1371     		strb	r3, [r2, #4]
 174:Generated_Source\PSoC6\pdl\middleware\ble/cy_ble_event_handler.c ****         .connHandle         = eventParam->connHandle
 175:Generated_Source\PSoC6\pdl\middleware\ble/cy_ble_event_handler.c ****     };
 176:Generated_Source\PSoC6\pdl\middleware\ble/cy_ble_event_handler.c **** 
 177:Generated_Source\PSoC6\pdl\middleware\ble/cy_ble_event_handler.c ****     /* Send response when event was handled by the service */
 178:Generated_Source\PSoC6\pdl\middleware\ble/cy_ble_event_handler.c ****     if((cy_ble_eventHandlerFlag & CY_BLE_CALLBACK) == 0u)
  58              		.loc 1 178 0
  59 0020 074B     		ldr	r3, .L4
  60 0022 1B78     		ldrb	r3, [r3]
  61 0024 DB07     		lsls	r3, r3, #31
  62 0026 09D4     		bmi	.L1
 179:Generated_Source\PSoC6\pdl\middleware\ble/cy_ble_event_handler.c ****     {
 180:Generated_Source\PSoC6\pdl\middleware\ble/cy_ble_event_handler.c ****         if(gattErr != CY_BLE_GATT_ERR_NONE)
  63              		.loc 1 180 0
  64 0028 002D     		cmp	r5, #0
  65 002a 04D0     		beq	.L3
 181:Generated_Source\PSoC6\pdl\middleware\ble/cy_ble_event_handler.c ****         {
 182:Generated_Source\PSoC6\pdl\middleware\ble/cy_ble_event_handler.c ****             /* Send an Error Response */
 183:Generated_Source\PSoC6\pdl\middleware\ble/cy_ble_event_handler.c ****             err_param.errInfo.errorCode  = gattErr;
  66              		.loc 1 183 0
  67 002c 5571     		strb	r5, [r2, #5]
 184:Generated_Source\PSoC6\pdl\middleware\ble/cy_ble_event_handler.c ****             (void)Cy_BLE_GATTS_ErrorRsp(&err_param);
  68              		.loc 1 184 0
  69 002e 6846     		mov	r0, sp
  70 0030 FFF7FEFF 		bl	Cy_BLE_GATTS_ErrorRsp
  71              	.LVL4:
  72 0034 02E0     		b	.L1
  73              	.L3:
 185:Generated_Source\PSoC6\pdl\middleware\ble/cy_ble_event_handler.c ****         }
 186:Generated_Source\PSoC6\pdl\middleware\ble/cy_ble_event_handler.c ****         else
 187:Generated_Source\PSoC6\pdl\middleware\ble/cy_ble_event_handler.c ****         {
 188:Generated_Source\PSoC6\pdl\middleware\ble/cy_ble_event_handler.c ****             /* Send an Write Response */
 189:Generated_Source\PSoC6\pdl\middleware\ble/cy_ble_event_handler.c ****             (void)Cy_BLE_GATTS_WriteRsp(eventParam->connHandle);
  74              		.loc 1 189 0
  75 0036 E068     		ldr	r0, [r4, #12]
  76 0038 FFF7FEFF 		bl	Cy_BLE_GATTS_WriteRsp
  77              	.LVL5:
  78              	.L1:
 190:Generated_Source\PSoC6\pdl\middleware\ble/cy_ble_event_handler.c ****         }
 191:Generated_Source\PSoC6\pdl\middleware\ble/cy_ble_event_handler.c ****     }
 192:Generated_Source\PSoC6\pdl\middleware\ble/cy_ble_event_handler.c **** }
  79              		.loc 1 192 0
  80 003c 03B0     		add	sp, sp, #12
  81              		@ sp needed
  82              	.LVL6:
  83 003e 30BD     		pop	{r4, r5, pc}
  84              	.L5:
  85              		.align	2
  86              	.L4:
  87 0040 00000000 		.word	cy_ble_eventHandlerFlag
  88              		.cfi_endproc
  89              	.LFE169:
  90              		.size	Cy_BLE_SendWriteResponse, .-Cy_BLE_SendWriteResponse
  91              		.section	.text.Cy_BLE_RegisterServiceEventHandler,"ax",%progbits
  92              		.align	2
ARM GAS  C:\Users\Smaug\AppData\Local\Temp\ccVZzAJS.s 			page 6


  93              		.global	Cy_BLE_RegisterServiceEventHandler
  94              		.code	16
  95              		.thumb_func
  96              		.type	Cy_BLE_RegisterServiceEventHandler, %function
  97              	Cy_BLE_RegisterServiceEventHandler:
  98              	.LFB167:
  86:Generated_Source\PSoC6\pdl\middleware\ble/cy_ble_event_handler.c ****     cy_en_ble_api_result_t apiResult = CY_BLE_SUCCESS;
  99              		.loc 1 86 0
 100              		.cfi_startproc
 101              		@ args = 0, pretend = 0, frame = 0
 102              		@ frame_needed = 0, uses_anonymous_args = 0
 103              	.LVL7:
 104 0000 10B5     		push	{r4, lr}
 105              		.cfi_def_cfa_offset 8
 106              		.cfi_offset 4, -8
 107              		.cfi_offset 14, -4
 108              	.LVL8:
  90:Generated_Source\PSoC6\pdl\middleware\ble/cy_ble_event_handler.c ****     {
 109              		.loc 1 90 0
 110 0002 0028     		cmp	r0, #0
 111 0004 11D0     		beq	.L12
 112 0006 0023     		movs	r3, #0
 113 0008 0024     		movs	r4, #0
 114 000a 06E0     		b	.L8
 115              	.LVL9:
 116              	.L10:
 117              	.LBB38:
 100:Generated_Source\PSoC6\pdl\middleware\ble/cy_ble_event_handler.c ****             {
 118              		.loc 1 100 0
 119 000c 9A00     		lsls	r2, r3, #2
 120 000e 1149     		ldr	r1, .L16
 121 0010 5258     		ldr	r2, [r2, r1]
 122 0012 9042     		cmp	r0, r2
 123 0014 00D1     		bne	.L9
 102:Generated_Source\PSoC6\pdl\middleware\ble/cy_ble_event_handler.c ****             }
 124              		.loc 1 102 0
 125 0016 0124     		movs	r4, #1
 126              	.LVL10:
 127              	.L9:
  98:Generated_Source\PSoC6\pdl\middleware\ble/cy_ble_event_handler.c ****         {
 128              		.loc 1 98 0 discriminator 2
 129 0018 0133     		adds	r3, r3, #1
 130              	.LVL11:
 131              	.L8:
  98:Generated_Source\PSoC6\pdl\middleware\ble/cy_ble_event_handler.c ****         {
 132              		.loc 1 98 0 is_stmt 0 discriminator 1
 133 001a 0E4A     		ldr	r2, .L16
 134 001c 1279     		ldrb	r2, [r2, #4]
 135 001e 9342     		cmp	r3, r2
 136 0020 06D2     		bcs	.L14
  98:Generated_Source\PSoC6\pdl\middleware\ble/cy_ble_event_handler.c ****         {
 137              		.loc 1 98 0 discriminator 3
 138 0022 002C     		cmp	r4, #0
 139 0024 F2D0     		beq	.L10
 140              	.LBE38:
  87:Generated_Source\PSoC6\pdl\middleware\ble/cy_ble_event_handler.c ****     uint8_t existFlag = 0u;
 141              		.loc 1 87 0 is_stmt 1
ARM GAS  C:\Users\Smaug\AppData\Local\Temp\ccVZzAJS.s 			page 7


 142 0026 0023     		movs	r3, #0
 143              	.LVL12:
 144              	.LBB39:
 145 0028 03E0     		b	.L7
 146              	.LVL13:
 147              	.L12:
 148              	.LBE39:
  88:Generated_Source\PSoC6\pdl\middleware\ble/cy_ble_event_handler.c **** 
 149              		.loc 1 88 0
 150 002a 0024     		movs	r4, #0
  92:Generated_Source\PSoC6\pdl\middleware\ble/cy_ble_event_handler.c ****     }
 151              		.loc 1 92 0
 152 002c 0A4B     		ldr	r3, .L16+4
 153 002e 00E0     		b	.L7
 154              	.LVL14:
 155              	.L14:
  87:Generated_Source\PSoC6\pdl\middleware\ble/cy_ble_event_handler.c ****     uint8_t existFlag = 0u;
 156              		.loc 1 87 0
 157 0030 0023     		movs	r3, #0
 158              	.LVL15:
 159              	.L7:
 107:Generated_Source\PSoC6\pdl\middleware\ble/cy_ble_event_handler.c ****     {
 160              		.loc 1 107 0
 161 0032 002B     		cmp	r3, #0
 162 0034 0CD1     		bne	.L11
 107:Generated_Source\PSoC6\pdl\middleware\ble/cy_ble_event_handler.c ****     {
 163              		.loc 1 107 0 is_stmt 0 discriminator 1
 164 0036 002C     		cmp	r4, #0
 165 0038 0AD1     		bne	.L11
 109:Generated_Source\PSoC6\pdl\middleware\ble/cy_ble_event_handler.c ****         {
 166              		.loc 1 109 0 is_stmt 1
 167 003a 064A     		ldr	r2, .L16
 168 003c 1279     		ldrb	r2, [r2, #4]
 169 003e 002A     		cmp	r2, #0
 170 0040 05D1     		bne	.L15
 111:Generated_Source\PSoC6\pdl\middleware\ble/cy_ble_event_handler.c ****             cy_ble_eventHandler.count += 1u;
 171              		.loc 1 111 0
 172 0042 0449     		ldr	r1, .L16
 173 0044 9400     		lsls	r4, r2, #2
 174              	.LVL16:
 175 0046 6050     		str	r0, [r4, r1]
 112:Generated_Source\PSoC6\pdl\middleware\ble/cy_ble_event_handler.c ****         }
 176              		.loc 1 112 0
 177 0048 0132     		adds	r2, r2, #1
 178 004a 0A71     		strb	r2, [r1, #4]
 179 004c 00E0     		b	.L11
 180              	.LVL17:
 181              	.L15:
 116:Generated_Source\PSoC6\pdl\middleware\ble/cy_ble_event_handler.c ****         }
 182              		.loc 1 116 0
 183 004e 034B     		ldr	r3, .L16+8
 184              	.LVL18:
 185              	.L11:
 121:Generated_Source\PSoC6\pdl\middleware\ble/cy_ble_event_handler.c **** 
 186              		.loc 1 121 0
 187 0050 1800     		movs	r0, r3
 188              	.LVL19:
ARM GAS  C:\Users\Smaug\AppData\Local\Temp\ccVZzAJS.s 			page 8


 189              		@ sp needed
 190 0052 10BD     		pop	{r4, pc}
 191              	.L17:
 192              		.align	2
 193              	.L16:
 194 0054 00000000 		.word	cy_ble_eventHandler
 195 0058 01001600 		.word	1441793
 196 005c 03001600 		.word	1441795
 197              		.cfi_endproc
 198              	.LFE167:
 199              		.size	Cy_BLE_RegisterServiceEventHandler, .-Cy_BLE_RegisterServiceEventHandler
 200              		.section	.text.Cy_BLE_InvokeServiceEventHandler,"ax",%progbits
 201              		.align	2
 202              		.global	Cy_BLE_InvokeServiceEventHandler
 203              		.code	16
 204              		.thumb_func
 205              		.type	Cy_BLE_InvokeServiceEventHandler, %function
 206              	Cy_BLE_InvokeServiceEventHandler:
 207              	.LFB168:
 138:Generated_Source\PSoC6\pdl\middleware\ble/cy_ble_event_handler.c ****     uint32_t idx;
 208              		.loc 1 138 0
 209              		.cfi_startproc
 210              		@ args = 0, pretend = 0, frame = 0
 211              		@ frame_needed = 0, uses_anonymous_args = 0
 212              	.LVL20:
 213 0000 70B5     		push	{r4, r5, r6, lr}
 214              		.cfi_def_cfa_offset 16
 215              		.cfi_offset 4, -16
 216              		.cfi_offset 5, -12
 217              		.cfi_offset 6, -8
 218              		.cfi_offset 14, -4
 219 0002 0600     		movs	r6, r0
 220 0004 0D00     		movs	r5, r1
 221              	.LVL21:
 140:Generated_Source\PSoC6\pdl\middleware\ble/cy_ble_event_handler.c **** 
 222              		.loc 1 140 0
 223 0006 0020     		movs	r0, #0
 224              	.LVL22:
 142:Generated_Source\PSoC6\pdl\middleware\ble/cy_ble_event_handler.c ****     {
 225              		.loc 1 142 0
 226 0008 0024     		movs	r4, #0
 227 000a 06E0     		b	.L19
 228              	.LVL23:
 229              	.L21:
 144:Generated_Source\PSoC6\pdl\middleware\ble/cy_ble_event_handler.c ****     }
 230              		.loc 1 144 0 discriminator 4
 231 000c A200     		lsls	r2, r4, #2
 232 000e 074B     		ldr	r3, .L22
 233 0010 D358     		ldr	r3, [r2, r3]
 234 0012 2900     		movs	r1, r5
 235 0014 3000     		movs	r0, r6
 236              	.LVL24:
 237 0016 9847     		blx	r3
 238              	.LVL25:
 142:Generated_Source\PSoC6\pdl\middleware\ble/cy_ble_event_handler.c ****     {
 239              		.loc 1 142 0 discriminator 4
 240 0018 0134     		adds	r4, r4, #1
ARM GAS  C:\Users\Smaug\AppData\Local\Temp\ccVZzAJS.s 			page 9


 241              	.LVL26:
 242              	.L19:
 142:Generated_Source\PSoC6\pdl\middleware\ble/cy_ble_event_handler.c ****     {
 243              		.loc 1 142 0 is_stmt 0 discriminator 1
 244 001a 044B     		ldr	r3, .L22
 245 001c 1B79     		ldrb	r3, [r3, #4]
 246 001e 9C42     		cmp	r4, r3
 247 0020 03D2     		bcs	.L20
 142:Generated_Source\PSoC6\pdl\middleware\ble/cy_ble_event_handler.c ****     {
 248              		.loc 1 142 0 discriminator 3
 249 0022 034B     		ldr	r3, .L22+4
 250 0024 1B78     		ldrb	r3, [r3]
 251 0026 DB07     		lsls	r3, r3, #31
 252 0028 F0D4     		bmi	.L21
 253              	.L20:
 148:Generated_Source\PSoC6\pdl\middleware\ble/cy_ble_event_handler.c **** #endif /* CY_BLE_GAP_ROLE_PERIPHERAL || CY_BLE_GAP_ROLE_CENTRAL */
 254              		.loc 1 148 0 is_stmt 1
 255              		@ sp needed
 256              	.LVL27:
 257              	.LVL28:
 258              	.LVL29:
 259 002a 70BD     		pop	{r4, r5, r6, pc}
 260              	.L23:
 261              		.align	2
 262              	.L22:
 263 002c 00000000 		.word	cy_ble_eventHandler
 264 0030 00000000 		.word	cy_ble_eventHandlerFlag
 265              		.cfi_endproc
 266              	.LFE168:
 267              		.size	Cy_BLE_InvokeServiceEventHandler, .-Cy_BLE_InvokeServiceEventHandler
 268              		.section	.text.Cy_BLE_IsDeviceAddressValid,"ax",%progbits
 269              		.align	2
 270              		.global	Cy_BLE_IsDeviceAddressValid
 271              		.code	16
 272              		.thumb_func
 273              		.type	Cy_BLE_IsDeviceAddressValid, %function
 274              	Cy_BLE_IsDeviceAddressValid:
 275              	.LFB171:
 193:Generated_Source\PSoC6\pdl\middleware\ble/cy_ble_event_handler.c **** #endif /* CY_BLE_GATT_ROLE_SERVER */
 194:Generated_Source\PSoC6\pdl\middleware\ble/cy_ble_event_handler.c **** 
 195:Generated_Source\PSoC6\pdl\middleware\ble/cy_ble_event_handler.c **** 
 196:Generated_Source\PSoC6\pdl\middleware\ble/cy_ble_event_handler.c **** /******************************************************************************
 197:Generated_Source\PSoC6\pdl\middleware\ble/cy_ble_event_handler.c **** * Function Name: Cy_BLE_TimeOutEventHandler
 198:Generated_Source\PSoC6\pdl\middleware\ble/cy_ble_event_handler.c **** ***************************************************************************//**
 199:Generated_Source\PSoC6\pdl\middleware\ble/cy_ble_event_handler.c **** *
 200:Generated_Source\PSoC6\pdl\middleware\ble/cy_ble_event_handler.c **** *  Handles a CY_BLE_EVT_TIMEOUT event from the BLE Stack.
 201:Generated_Source\PSoC6\pdl\middleware\ble/cy_ble_event_handler.c **** *
 202:Generated_Source\PSoC6\pdl\middleware\ble/cy_ble_event_handler.c **** *  \param eventParam: The pointer to a structure of type cy_stc_ble_timeout_param_t.
 203:Generated_Source\PSoC6\pdl\middleware\ble/cy_ble_event_handler.c **** *
 204:Generated_Source\PSoC6\pdl\middleware\ble/cy_ble_event_handler.c **** * \return
 205:Generated_Source\PSoC6\pdl\middleware\ble/cy_ble_event_handler.c **** *  None
 206:Generated_Source\PSoC6\pdl\middleware\ble/cy_ble_event_handler.c **** *
 207:Generated_Source\PSoC6\pdl\middleware\ble/cy_ble_event_handler.c **** ******************************************************************************/
 208:Generated_Source\PSoC6\pdl\middleware\ble/cy_ble_event_handler.c **** static void Cy_BLE_TimeOutEventHandler(const cy_stc_ble_timeout_param_t *eventParam)
 209:Generated_Source\PSoC6\pdl\middleware\ble/cy_ble_event_handler.c **** {
 210:Generated_Source\PSoC6\pdl\middleware\ble/cy_ble_event_handler.c ****     if(eventParam->reasonCode == CY_BLE_GATT_RSP_TO)
 211:Generated_Source\PSoC6\pdl\middleware\ble/cy_ble_event_handler.c ****     {
ARM GAS  C:\Users\Smaug\AppData\Local\Temp\ccVZzAJS.s 			page 10


 212:Generated_Source\PSoC6\pdl\middleware\ble/cy_ble_event_handler.c ****     #if (CY_BLE_GATT_ROLE_CLIENT)
 213:Generated_Source\PSoC6\pdl\middleware\ble/cy_ble_event_handler.c ****         {
 214:Generated_Source\PSoC6\pdl\middleware\ble/cy_ble_event_handler.c ****             uint32_t discIdx = Cy_BLE_GetDiscoveryIdx(eventParam->CY_BLE_HANDLE.connHandle);
 215:Generated_Source\PSoC6\pdl\middleware\ble/cy_ble_event_handler.c ****             if((discIdx < CY_BLE_GATTC_COUNT) && (cy_ble_discovery[discIdx].autoDiscoveryFlag != 0u
 216:Generated_Source\PSoC6\pdl\middleware\ble/cy_ble_event_handler.c ****             {
 217:Generated_Source\PSoC6\pdl\middleware\ble/cy_ble_event_handler.c ****                 switch(Cy_BLE_GetConnectionState(eventParam->CY_BLE_HANDLE.connHandle))
 218:Generated_Source\PSoC6\pdl\middleware\ble/cy_ble_event_handler.c ****                 {
 219:Generated_Source\PSoC6\pdl\middleware\ble/cy_ble_event_handler.c ****                     case CY_BLE_CONN_STATE_CLIENT_SRVC_DISCOVERING:
 220:Generated_Source\PSoC6\pdl\middleware\ble/cy_ble_event_handler.c ****                         Cy_BLE_ApplCallback((uint32_t)CY_BLE_EVT_GATTC_SRVC_DISCOVERY_FAILED,
 221:Generated_Source\PSoC6\pdl\middleware\ble/cy_ble_event_handler.c ****                                             (cy_stc_ble_conn_handle_t*)&eventParam->CY_BLE_HANDLE.c
 222:Generated_Source\PSoC6\pdl\middleware\ble/cy_ble_event_handler.c ****                         break;
 223:Generated_Source\PSoC6\pdl\middleware\ble/cy_ble_event_handler.c **** 
 224:Generated_Source\PSoC6\pdl\middleware\ble/cy_ble_event_handler.c ****                     case CY_BLE_CONN_STATE_CLIENT_INCL_DISCOVERING:
 225:Generated_Source\PSoC6\pdl\middleware\ble/cy_ble_event_handler.c ****                         Cy_BLE_ApplCallback((uint32_t)CY_BLE_EVT_GATTC_INCL_DISCOVERY_FAILED,
 226:Generated_Source\PSoC6\pdl\middleware\ble/cy_ble_event_handler.c ****                                             (cy_stc_ble_conn_handle_t*)&eventParam->CY_BLE_HANDLE.c
 227:Generated_Source\PSoC6\pdl\middleware\ble/cy_ble_event_handler.c ****                         break;
 228:Generated_Source\PSoC6\pdl\middleware\ble/cy_ble_event_handler.c **** 
 229:Generated_Source\PSoC6\pdl\middleware\ble/cy_ble_event_handler.c ****                     case CY_BLE_CONN_STATE_CLIENT_CHAR_DISCOVERING:
 230:Generated_Source\PSoC6\pdl\middleware\ble/cy_ble_event_handler.c ****                         Cy_BLE_ApplCallback((uint32_t)CY_BLE_EVT_GATTC_CHAR_DISCOVERY_FAILED,
 231:Generated_Source\PSoC6\pdl\middleware\ble/cy_ble_event_handler.c ****                                             (cy_stc_ble_conn_handle_t*)&eventParam->CY_BLE_HANDLE.c
 232:Generated_Source\PSoC6\pdl\middleware\ble/cy_ble_event_handler.c ****                         break;
 233:Generated_Source\PSoC6\pdl\middleware\ble/cy_ble_event_handler.c **** 
 234:Generated_Source\PSoC6\pdl\middleware\ble/cy_ble_event_handler.c ****                     case CY_BLE_CONN_STATE_CLIENT_DESCR_DISCOVERING:
 235:Generated_Source\PSoC6\pdl\middleware\ble/cy_ble_event_handler.c ****                         Cy_BLE_ApplCallback((uint32_t)CY_BLE_EVT_GATTC_DESCR_DISCOVERY_FAILED,
 236:Generated_Source\PSoC6\pdl\middleware\ble/cy_ble_event_handler.c ****                                             (cy_stc_ble_conn_handle_t*)&eventParam->CY_BLE_HANDLE.c
 237:Generated_Source\PSoC6\pdl\middleware\ble/cy_ble_event_handler.c ****                         break;
 238:Generated_Source\PSoC6\pdl\middleware\ble/cy_ble_event_handler.c **** 
 239:Generated_Source\PSoC6\pdl\middleware\ble/cy_ble_event_handler.c ****                     default:        /* Other states should not be set in Auto discovery mode */
 240:Generated_Source\PSoC6\pdl\middleware\ble/cy_ble_event_handler.c ****                         break;
 241:Generated_Source\PSoC6\pdl\middleware\ble/cy_ble_event_handler.c ****                 }
 242:Generated_Source\PSoC6\pdl\middleware\ble/cy_ble_event_handler.c ****                 cy_ble_discovery[discIdx].autoDiscoveryFlag = 0u;
 243:Generated_Source\PSoC6\pdl\middleware\ble/cy_ble_event_handler.c ****                 Cy_BLE_SetConnectionState(eventParam->CY_BLE_HANDLE.connHandle, CY_BLE_CONN_STATE_C
 244:Generated_Source\PSoC6\pdl\middleware\ble/cy_ble_event_handler.c ****             }
 245:Generated_Source\PSoC6\pdl\middleware\ble/cy_ble_event_handler.c ****         }
 246:Generated_Source\PSoC6\pdl\middleware\ble/cy_ble_event_handler.c ****     #endif /* CY_BLE_GATT_ROLE_CLIENT */
 247:Generated_Source\PSoC6\pdl\middleware\ble/cy_ble_event_handler.c ****     }
 248:Generated_Source\PSoC6\pdl\middleware\ble/cy_ble_event_handler.c **** 
 249:Generated_Source\PSoC6\pdl\middleware\ble/cy_ble_event_handler.c ****     #if (CY_BLE_GAP_ROLE_CENTRAL)
 250:Generated_Source\PSoC6\pdl\middleware\ble/cy_ble_event_handler.c ****     /* Connection procedure timeout */
 251:Generated_Source\PSoC6\pdl\middleware\ble/cy_ble_event_handler.c ****     if((eventParam->reasonCode == CY_BLE_GENERIC_APP_TO) &&
 252:Generated_Source\PSoC6\pdl\middleware\ble/cy_ble_event_handler.c ****        (cy_ble_connectingTimeout.timerHandle == eventParam->timerHandle))
 253:Generated_Source\PSoC6\pdl\middleware\ble/cy_ble_event_handler.c ****     {
 254:Generated_Source\PSoC6\pdl\middleware\ble/cy_ble_event_handler.c ****         if(Cy_BLE_GetState() == CY_BLE_STATE_CONNECTING)
 255:Generated_Source\PSoC6\pdl\middleware\ble/cy_ble_event_handler.c ****         {
 256:Generated_Source\PSoC6\pdl\middleware\ble/cy_ble_event_handler.c ****             (void)Cy_BLE_GAPC_CancelDeviceConnection();
 257:Generated_Source\PSoC6\pdl\middleware\ble/cy_ble_event_handler.c ****         }
 258:Generated_Source\PSoC6\pdl\middleware\ble/cy_ble_event_handler.c ****     }
 259:Generated_Source\PSoC6\pdl\middleware\ble/cy_ble_event_handler.c ****     #endif /* CY_BLE_GAP_ROLE_CENTRAL */
 260:Generated_Source\PSoC6\pdl\middleware\ble/cy_ble_event_handler.c **** }
 261:Generated_Source\PSoC6\pdl\middleware\ble/cy_ble_event_handler.c **** 
 262:Generated_Source\PSoC6\pdl\middleware\ble/cy_ble_event_handler.c **** 
 263:Generated_Source\PSoC6\pdl\middleware\ble/cy_ble_event_handler.c **** /******************************************************************************
 264:Generated_Source\PSoC6\pdl\middleware\ble/cy_ble_event_handler.c **** * Function Name: Cy_BLE_IsDeviceAddressValid
 265:Generated_Source\PSoC6\pdl\middleware\ble/cy_ble_event_handler.c **** ***************************************************************************//**
 266:Generated_Source\PSoC6\pdl\middleware\ble/cy_ble_event_handler.c **** *
 267:Generated_Source\PSoC6\pdl\middleware\ble/cy_ble_event_handler.c **** *  This function verifies that the device address is valid (not equal zero)
 268:Generated_Source\PSoC6\pdl\middleware\ble/cy_ble_event_handler.c **** *
ARM GAS  C:\Users\Smaug\AppData\Local\Temp\ccVZzAJS.s 			page 11


 269:Generated_Source\PSoC6\pdl\middleware\ble/cy_ble_event_handler.c **** *  \param deviceAddress: The pointer to the BD address of
 270:Generated_Source\PSoC6\pdl\middleware\ble/cy_ble_event_handler.c **** *                        type #cy_stc_ble_gap_bd_addr_t.
 271:Generated_Source\PSoC6\pdl\middleware\ble/cy_ble_event_handler.c **** *
 272:Generated_Source\PSoC6\pdl\middleware\ble/cy_ble_event_handler.c **** *  \return
 273:Generated_Source\PSoC6\pdl\middleware\ble/cy_ble_event_handler.c **** *   A non-zero value when a device address is valid
 274:Generated_Source\PSoC6\pdl\middleware\ble/cy_ble_event_handler.c **** *
 275:Generated_Source\PSoC6\pdl\middleware\ble/cy_ble_event_handler.c **** ******************************************************************************/
 276:Generated_Source\PSoC6\pdl\middleware\ble/cy_ble_event_handler.c **** uint8_t Cy_BLE_IsDeviceAddressValid(const cy_stc_ble_gap_bd_addr_t *deviceAddress)
 277:Generated_Source\PSoC6\pdl\middleware\ble/cy_ble_event_handler.c **** {
 276              		.loc 1 277 0
 277              		.cfi_startproc
 278              		@ args = 0, pretend = 0, frame = 0
 279              		@ frame_needed = 0, uses_anonymous_args = 0
 280              		@ link register save eliminated.
 281              	.LVL30:
 278:Generated_Source\PSoC6\pdl\middleware\ble/cy_ble_event_handler.c ****     uint8_t addressValid = 0u;
 279:Generated_Source\PSoC6\pdl\middleware\ble/cy_ble_event_handler.c ****     uint32_t i;
 280:Generated_Source\PSoC6\pdl\middleware\ble/cy_ble_event_handler.c **** 
 281:Generated_Source\PSoC6\pdl\middleware\ble/cy_ble_event_handler.c ****     if(deviceAddress->type == CY_BLE_GAP_ADDR_TYPE_PUBLIC)
 282              		.loc 1 281 0
 283 0000 8379     		ldrb	r3, [r0, #6]
 284 0002 002B     		cmp	r3, #0
 285 0004 06D0     		beq	.L28
 278:Generated_Source\PSoC6\pdl\middleware\ble/cy_ble_event_handler.c ****     uint8_t addressValid = 0u;
 286              		.loc 1 278 0
 287 0006 0020     		movs	r0, #0
 288              	.LVL31:
 289 0008 0AE0     		b	.L26
 290              	.LVL32:
 291              	.L27:
 282:Generated_Source\PSoC6\pdl\middleware\ble/cy_ble_event_handler.c ****     {
 283:Generated_Source\PSoC6\pdl\middleware\ble/cy_ble_event_handler.c ****         for(i = 0u; i < CY_BLE_GAP_BD_ADDR_SIZE; i++)
 284:Generated_Source\PSoC6\pdl\middleware\ble/cy_ble_event_handler.c ****         {
 285:Generated_Source\PSoC6\pdl\middleware\ble/cy_ble_event_handler.c ****             if(deviceAddress->bdAddr[i] != 0u)
 292              		.loc 1 285 0
 293 000a C25C     		ldrb	r2, [r0, r3]
 294 000c 002A     		cmp	r2, #0
 295 000e 06D1     		bne	.L29
 283:Generated_Source\PSoC6\pdl\middleware\ble/cy_ble_event_handler.c ****         {
 296              		.loc 1 283 0 discriminator 2
 297 0010 0133     		adds	r3, r3, #1
 298              	.LVL33:
 299 0012 00E0     		b	.L25
 300              	.LVL34:
 301              	.L28:
 302 0014 0023     		movs	r3, #0
 303              	.L25:
 304              	.LVL35:
 283:Generated_Source\PSoC6\pdl\middleware\ble/cy_ble_event_handler.c ****         {
 305              		.loc 1 283 0 is_stmt 0 discriminator 1
 306 0016 052B     		cmp	r3, #5
 307 0018 F7D9     		bls	.L27
 278:Generated_Source\PSoC6\pdl\middleware\ble/cy_ble_event_handler.c ****     uint8_t addressValid = 0u;
 308              		.loc 1 278 0 is_stmt 1
 309 001a 0020     		movs	r0, #0
 310              	.LVL36:
 311 001c 00E0     		b	.L26
ARM GAS  C:\Users\Smaug\AppData\Local\Temp\ccVZzAJS.s 			page 12


 312              	.LVL37:
 313              	.L29:
 286:Generated_Source\PSoC6\pdl\middleware\ble/cy_ble_event_handler.c ****             {
 287:Generated_Source\PSoC6\pdl\middleware\ble/cy_ble_event_handler.c ****                 addressValid = 1u;
 314              		.loc 1 287 0
 315 001e 0120     		movs	r0, #1
 316              	.LVL38:
 317              	.L26:
 288:Generated_Source\PSoC6\pdl\middleware\ble/cy_ble_event_handler.c ****                 break;
 289:Generated_Source\PSoC6\pdl\middleware\ble/cy_ble_event_handler.c ****             }
 290:Generated_Source\PSoC6\pdl\middleware\ble/cy_ble_event_handler.c ****         }
 291:Generated_Source\PSoC6\pdl\middleware\ble/cy_ble_event_handler.c ****     }
 292:Generated_Source\PSoC6\pdl\middleware\ble/cy_ble_event_handler.c **** 
 293:Generated_Source\PSoC6\pdl\middleware\ble/cy_ble_event_handler.c ****     return(addressValid);
 294:Generated_Source\PSoC6\pdl\middleware\ble/cy_ble_event_handler.c **** }
 318              		.loc 1 294 0
 319              		@ sp needed
 320 0020 7047     		bx	lr
 321              		.cfi_endproc
 322              	.LFE171:
 323              		.size	Cy_BLE_IsDeviceAddressValid, .-Cy_BLE_IsDeviceAddressValid
 324 0022 C046     		.section	.text.Cy_BLE_EventHandler,"ax",%progbits
 325              		.align	2
 326              		.global	Cy_BLE_EventHandler
 327              		.code	16
 328              		.thumb_func
 329              		.type	Cy_BLE_EventHandler, %function
 330              	Cy_BLE_EventHandler:
 331              	.LFB172:
 295:Generated_Source\PSoC6\pdl\middleware\ble/cy_ble_event_handler.c **** 
 296:Generated_Source\PSoC6\pdl\middleware\ble/cy_ble_event_handler.c **** 
 297:Generated_Source\PSoC6\pdl\middleware\ble/cy_ble_event_handler.c **** /******************************************************************************
 298:Generated_Source\PSoC6\pdl\middleware\ble/cy_ble_event_handler.c **** * Function Name: Cy_BLE_EventHandler
 299:Generated_Source\PSoC6\pdl\middleware\ble/cy_ble_event_handler.c **** ***************************************************************************//**
 300:Generated_Source\PSoC6\pdl\middleware\ble/cy_ble_event_handler.c **** *
 301:Generated_Source\PSoC6\pdl\middleware\ble/cy_ble_event_handler.c **** *  Handles events from the BLE Stack.
 302:Generated_Source\PSoC6\pdl\middleware\ble/cy_ble_event_handler.c **** *
 303:Generated_Source\PSoC6\pdl\middleware\ble/cy_ble_event_handler.c **** *  \param event:   The event code.
 304:Generated_Source\PSoC6\pdl\middleware\ble/cy_ble_event_handler.c **** *  \param evParam: The event parameters.
 305:Generated_Source\PSoC6\pdl\middleware\ble/cy_ble_event_handler.c **** *
 306:Generated_Source\PSoC6\pdl\middleware\ble/cy_ble_event_handler.c **** * \return
 307:Generated_Source\PSoC6\pdl\middleware\ble/cy_ble_event_handler.c **** *  None.
 308:Generated_Source\PSoC6\pdl\middleware\ble/cy_ble_event_handler.c **** *
 309:Generated_Source\PSoC6\pdl\middleware\ble/cy_ble_event_handler.c **** ******************************************************************************/
 310:Generated_Source\PSoC6\pdl\middleware\ble/cy_ble_event_handler.c **** void Cy_BLE_EventHandler(cy_en_ble_event_t event,
 311:Generated_Source\PSoC6\pdl\middleware\ble/cy_ble_event_handler.c ****                          void *evParam)
 312:Generated_Source\PSoC6\pdl\middleware\ble/cy_ble_event_handler.c **** {
 332              		.loc 1 312 0
 333              		.cfi_startproc
 334              		@ args = 0, pretend = 0, frame = 40
 335              		@ frame_needed = 0, uses_anonymous_args = 0
 336              	.LVL39:
 337 0000 F0B5     		push	{r4, r5, r6, r7, lr}
 338              		.cfi_def_cfa_offset 20
 339              		.cfi_offset 4, -20
 340              		.cfi_offset 5, -16
 341              		.cfi_offset 6, -12
ARM GAS  C:\Users\Smaug\AppData\Local\Temp\ccVZzAJS.s 			page 13


 342              		.cfi_offset 7, -8
 343              		.cfi_offset 14, -4
 344 0002 4746     		mov	r7, r8
 345 0004 80B4     		push	{r7}
 346              		.cfi_def_cfa_offset 24
 347              		.cfi_offset 8, -24
 348 0006 8AB0     		sub	sp, sp, #40
 349              		.cfi_def_cfa_offset 64
 350 0008 0400     		movs	r4, r0
 351 000a 0D00     		movs	r5, r1
 313:Generated_Source\PSoC6\pdl\middleware\ble/cy_ble_event_handler.c ****     cy_ble_eventHandlerFlag |= CY_BLE_CALLBACK;
 352              		.loc 1 313 0
 353 000c C74A     		ldr	r2, .L99
 354 000e 1178     		ldrb	r1, [r2]
 355              	.LVL40:
 356 0010 0123     		movs	r3, #1
 357 0012 0B43     		orrs	r3, r1
 358 0014 DBB2     		uxtb	r3, r3
 359 0016 1370     		strb	r3, [r2]
 314:Generated_Source\PSoC6\pdl\middleware\ble/cy_ble_event_handler.c **** 
 315:Generated_Source\PSoC6\pdl\middleware\ble/cy_ble_event_handler.c ****     /* Common Profile event handling */
 316:Generated_Source\PSoC6\pdl\middleware\ble/cy_ble_event_handler.c ****     switch(event)
 360              		.loc 1 316 0
 361 0018 C54B     		ldr	r3, .L99+4
 362 001a 9842     		cmp	r0, r3
 363 001c 00D1     		bne	.LCB358
 364 001e 3CE2     		b	.L32	@long jump
 365              	.LCB358:
 366 0020 30D8     		bhi	.L33
 367 0022 C44B     		ldr	r3, .L99+8
 368 0024 9842     		cmp	r0, r3
 369 0026 00D1     		bne	.LCB363
 370 0028 CAE0     		b	.L34	@long jump
 371              	.LCB363:
 372 002a 15D8     		bhi	.L35
 373 002c C24B     		ldr	r3, .L99+12
 374 002e 9842     		cmp	r0, r3
 375 0030 00D1     		bne	.LCB368
 376 0032 FCE0     		b	.L36	@long jump
 377              	.LCB368:
 378 0034 07D8     		bhi	.L37
 379 0036 023B     		subs	r3, r3, #2
 380 0038 9842     		cmp	r0, r3
 381 003a 63D0     		beq	.L38
 382 003c BF4B     		ldr	r3, .L99+16
 383 003e 9842     		cmp	r0, r3
 384 0040 00D1     		bne	.LCB376
 385 0042 F0E0     		b	.L39	@long jump
 386              	.LCB376:
 387 0044 FCE2     		b	.L31
 388              	.L37:
 389 0046 BE4B     		ldr	r3, .L99+20
 390 0048 9842     		cmp	r0, r3
 391 004a 00D1     		bne	.LCB383
 392 004c 2DE1     		b	.L40	@long jump
 393              	.LCB383:
 394 004e BD4B     		ldr	r3, .L99+24
ARM GAS  C:\Users\Smaug\AppData\Local\Temp\ccVZzAJS.s 			page 14


 395 0050 9842     		cmp	r0, r3
 396 0052 00D1     		bne	.LCB386
 397 0054 C2E0     		b	.L41	@long jump
 398              	.LCB386:
 399 0056 F3E2     		b	.L31
 400              	.L35:
 401 0058 BB4B     		ldr	r3, .L99+28
 402 005a 9842     		cmp	r0, r3
 403 005c 00D1     		bne	.LCB393
 404 005e 39E1     		b	.L42	@long jump
 405              	.LCB393:
 406 0060 07D8     		bhi	.L43
 407 0062 BA4B     		ldr	r3, .L99+32
 408 0064 9842     		cmp	r0, r3
 409 0066 00D1     		bne	.LCB398
 410 0068 AAE0     		b	.L34	@long jump
 411              	.LCB398:
 412 006a B94B     		ldr	r3, .L99+36
 413 006c 9842     		cmp	r0, r3
 414 006e 40D0     		beq	.L44
 415 0070 E6E2     		b	.L31
 416              	.L43:
 417 0072 B84B     		ldr	r3, .L99+40
 418 0074 9842     		cmp	r0, r3
 419 0076 00D1     		bne	.LCB408
 420 0078 13E2     		b	.L45	@long jump
 421              	.LCB408:
 422 007a B74B     		ldr	r3, .L99+44
 423 007c 9842     		cmp	r0, r3
 424 007e 00D1     		bne	.LCB411
 425 0080 C0E1     		b	.L46	@long jump
 426              	.LCB411:
 427 0082 DDE2     		b	.L31
 428              	.L33:
 429 0084 B54B     		ldr	r3, .L99+48
 430 0086 9842     		cmp	r0, r3
 431 0088 00D1     		bne	.LCB418
 432 008a 92E2     		b	.L47	@long jump
 433              	.LCB418:
 434 008c 16D8     		bhi	.L48
 435 008e B44B     		ldr	r3, .L99+52
 436 0090 9842     		cmp	r0, r3
 437 0092 00D1     		bne	.LCB423
 438 0094 45E2     		b	.L49	@long jump
 439              	.LCB423:
 440 0096 08D8     		bhi	.L50
 441 0098 B24B     		ldr	r3, .L99+56
 442 009a 9842     		cmp	r0, r3
 443 009c 00D1     		bne	.LCB428
 444 009e ADE1     		b	.L51	@long jump
 445              	.LCB428:
 446 00a0 B14B     		ldr	r3, .L99+60
 447 00a2 9842     		cmp	r0, r3
 448 00a4 00D1     		bne	.LCB431
 449 00a6 ADE1     		b	.L46	@long jump
 450              	.LCB431:
 451 00a8 CAE2     		b	.L31
ARM GAS  C:\Users\Smaug\AppData\Local\Temp\ccVZzAJS.s 			page 15


 452              	.L50:
 453 00aa B04B     		ldr	r3, .L99+64
 454 00ac 9842     		cmp	r0, r3
 455 00ae 00D1     		bne	.LCB438
 456 00b0 5BE2     		b	.L52	@long jump
 457              	.LCB438:
 458 00b2 AF4B     		ldr	r3, .L99+68
 459 00b4 9842     		cmp	r0, r3
 460 00b6 00D1     		bne	.LCB441
 461 00b8 73E2     		b	.L53	@long jump
 462              	.LCB441:
 463 00ba C1E2     		b	.L31
 464              	.L48:
 465 00bc AD4B     		ldr	r3, .L99+72
 466 00be 9842     		cmp	r0, r3
 467 00c0 00D1     		bne	.LCB448
 468 00c2 AEE2     		b	.L54	@long jump
 469              	.LCB448:
 470 00c4 08D8     		bhi	.L55
 471 00c6 AC4B     		ldr	r3, .L99+76
 472 00c8 9842     		cmp	r0, r3
 473 00ca 00D1     		bne	.LCB453
 474 00cc A1E2     		b	.L56	@long jump
 475              	.LCB453:
 476 00ce AB4B     		ldr	r3, .L99+80
 477 00d0 9842     		cmp	r0, r3
 478 00d2 00D1     		bne	.LCB456
 479 00d4 A1E2     		b	.L57	@long jump
 480              	.LCB456:
 481 00d6 B3E2     		b	.L31
 482              	.L55:
 483 00d8 A94B     		ldr	r3, .L99+84
 484 00da 9842     		cmp	r0, r3
 485 00dc 00D1     		bne	.LCB463
 486 00de A8E2     		b	.L58	@long jump
 487              	.LCB463:
 488 00e0 A84B     		ldr	r3, .L99+88
 489 00e2 9842     		cmp	r0, r3
 490 00e4 00D1     		bne	.LCB466
 491 00e6 18E2     		b	.L59	@long jump
 492              	.LCB466:
 493 00e8 A74B     		ldr	r3, .L99+92
 494 00ea 9842     		cmp	r0, r3
 495 00ec 00D0     		beq	.LCB469
 496 00ee A7E2     		b	.L31	@long jump
 497              	.LCB469:
 498 00f0 9BE2     		b	.L60
 499              	.L44:
 500              	.LVL41:
 501              	.LBB82:
 317:Generated_Source\PSoC6\pdl\middleware\ble/cy_ble_event_handler.c ****     {
 318:Generated_Source\PSoC6\pdl\middleware\ble/cy_ble_event_handler.c ****         /**********************************************************
 319:Generated_Source\PSoC6\pdl\middleware\ble/cy_ble_event_handler.c ****          * General events
 320:Generated_Source\PSoC6\pdl\middleware\ble/cy_ble_event_handler.c ****          ************************************************************/
 321:Generated_Source\PSoC6\pdl\middleware\ble/cy_ble_event_handler.c ****         case CY_BLE_EVT_HCI_PKT_RCVD:
 322:Generated_Source\PSoC6\pdl\middleware\ble/cy_ble_event_handler.c ****         {
 323:Generated_Source\PSoC6\pdl\middleware\ble/cy_ble_event_handler.c ****             #if (CY_BLE_MODE_PROFILE) && (!CY_BLE_STACK_MODE_IPC)
ARM GAS  C:\Users\Smaug\AppData\Local\Temp\ccVZzAJS.s 			page 16


 324:Generated_Source\PSoC6\pdl\middleware\ble/cy_ble_event_handler.c ****             cy_stc_ble_hci_tx_packet_info_t *HciPktParams = (cy_stc_ble_hci_tx_packet_info_t*)evPar
 325:Generated_Source\PSoC6\pdl\middleware\ble/cy_ble_event_handler.c **** 
 326:Generated_Source\PSoC6\pdl\middleware\ble/cy_ble_event_handler.c ****             Cy_BLE_HAL_SoftHciHostReceiveControllerPkt(HciPktParams);
 502              		.loc 1 326 0
 503 00f2 2800     		movs	r0, r5
 504              	.LVL42:
 505 00f4 FFF7FEFF 		bl	Cy_BLE_HAL_SoftHciHostReceiveControllerPkt
 506              	.LVL43:
 327:Generated_Source\PSoC6\pdl\middleware\ble/cy_ble_event_handler.c ****             #endif /* (CY_BLE_MODE_PROFILE) && (!CY_BLE_STACK_MODE_IPC) */
 328:Generated_Source\PSoC6\pdl\middleware\ble/cy_ble_event_handler.c **** 
 329:Generated_Source\PSoC6\pdl\middleware\ble/cy_ble_event_handler.c ****             /* Clear the CY_BLE_CALLBACK flag not to provide a handled event to the application */
 330:Generated_Source\PSoC6\pdl\middleware\ble/cy_ble_event_handler.c ****             cy_ble_eventHandlerFlag &= (uint8_t) ~CY_BLE_CALLBACK;
 507              		.loc 1 330 0
 508 00f8 8C4A     		ldr	r2, .L99
 509 00fa 1378     		ldrb	r3, [r2]
 510 00fc 0121     		movs	r1, #1
 511 00fe 8B43     		bics	r3, r1
 512 0100 1370     		strb	r3, [r2]
 513              	.LBE82:
 331:Generated_Source\PSoC6\pdl\middleware\ble/cy_ble_event_handler.c ****         }
 332:Generated_Source\PSoC6\pdl\middleware\ble/cy_ble_event_handler.c ****         break;
 514              		.loc 1 332 0
 515 0102 9DE2     		b	.L31
 516              	.LVL44:
 517              	.L38:
 333:Generated_Source\PSoC6\pdl\middleware\ble/cy_ble_event_handler.c **** 
 334:Generated_Source\PSoC6\pdl\middleware\ble/cy_ble_event_handler.c ****         case CY_BLE_EVT_STACK_ON:
 335:Generated_Source\PSoC6\pdl\middleware\ble/cy_ble_event_handler.c **** 
 336:Generated_Source\PSoC6\pdl\middleware\ble/cy_ble_event_handler.c ****             /* Set a device address  */
 337:Generated_Source\PSoC6\pdl\middleware\ble/cy_ble_event_handler.c ****             if(Cy_BLE_IsDeviceAddressValid(cy_ble_sflashDeviceAddress) != 0u)
 518              		.loc 1 337 0
 519 0104 A14B     		ldr	r3, .L99+96
 520 0106 1E68     		ldr	r6, [r3]
 521 0108 3000     		movs	r0, r6
 522              	.LVL45:
 523 010a FFF7FEFF 		bl	Cy_BLE_IsDeviceAddressValid
 524              	.LVL46:
 525 010e 0028     		cmp	r0, #0
 526 0110 0CD0     		beq	.L61
 338:Generated_Source\PSoC6\pdl\middleware\ble/cy_ble_event_handler.c ****             {
 339:Generated_Source\PSoC6\pdl\middleware\ble/cy_ble_event_handler.c ****                 (void)Cy_BLE_GAP_SetBdAddress(cy_ble_sflashDeviceAddress);
 527              		.loc 1 339 0
 528 0112 3000     		movs	r0, r6
 529 0114 FFF7FEFF 		bl	Cy_BLE_GAP_SetBdAddress
 530              	.LVL47:
 340:Generated_Source\PSoC6\pdl\middleware\ble/cy_ble_event_handler.c **** 
 341:Generated_Source\PSoC6\pdl\middleware\ble/cy_ble_event_handler.c ****                 #if (CY_BLE_GAP_ROLE_PERIPHERAL || CY_BLE_GAP_ROLE_BROADCASTER)
 342:Generated_Source\PSoC6\pdl\middleware\ble/cy_ble_event_handler.c ****                 Cy_BLE_ChangeAdDeviceAddress(cy_ble_sflashDeviceAddress, 0u);
 531              		.loc 1 342 0
 532 0118 9C4E     		ldr	r6, .L99+96
 533 011a 0021     		movs	r1, #0
 534 011c 3068     		ldr	r0, [r6]
 535 011e FFF7FEFF 		bl	Cy_BLE_ChangeAdDeviceAddress
 536              	.LVL48:
 343:Generated_Source\PSoC6\pdl\middleware\ble/cy_ble_event_handler.c ****                 Cy_BLE_ChangeAdDeviceAddress(cy_ble_sflashDeviceAddress, 1u);
 537              		.loc 1 343 0
 538 0122 3068     		ldr	r0, [r6]
ARM GAS  C:\Users\Smaug\AppData\Local\Temp\ccVZzAJS.s 			page 17


 539 0124 0121     		movs	r1, #1
 540 0126 FFF7FEFF 		bl	Cy_BLE_ChangeAdDeviceAddress
 541              	.LVL49:
 542 012a 37E0     		b	.L62
 543              	.L61:
 344:Generated_Source\PSoC6\pdl\middleware\ble/cy_ble_event_handler.c ****                 #endif /* CY_BLE_GAP_ROLE_PERIPHERAL || CY_BLE_GAP_ROLE_BROADCASTER */
 345:Generated_Source\PSoC6\pdl\middleware\ble/cy_ble_event_handler.c ****             }
 346:Generated_Source\PSoC6\pdl\middleware\ble/cy_ble_event_handler.c ****             else
 347:Generated_Source\PSoC6\pdl\middleware\ble/cy_ble_event_handler.c ****             {
 348:Generated_Source\PSoC6\pdl\middleware\ble/cy_ble_event_handler.c ****                 if(cy_ble_configPtr->params->siliconDeviceAddressEnabled != 0u)
 544              		.loc 1 348 0
 545 012c 984B     		ldr	r3, .L99+100
 546 012e 1968     		ldr	r1, [r3]
 547 0130 8B6A     		ldr	r3, [r1, #40]
 548 0132 1B79     		ldrb	r3, [r3, #4]
 549 0134 002B     		cmp	r3, #0
 550 0136 22D0     		beq	.L63
 551              	.LBB83:
 349:Generated_Source\PSoC6\pdl\middleware\ble/cy_ble_event_handler.c ****                 {
 350:Generated_Source\PSoC6\pdl\middleware\ble/cy_ble_event_handler.c ****                     uint32_t bdAddrLoc;
 351:Generated_Source\PSoC6\pdl\middleware\ble/cy_ble_event_handler.c ****                     bdAddrLoc = ((uint32_t)SFLASH->DIE_X & (uint32_t)CY_BLE_SFLASH_DIE_X_MASK) |
 552              		.loc 1 351 0
 553 0138 B020     		movs	r0, #176
 554 013a 4005     		lsls	r0, r0, #21
 555 013c 954B     		ldr	r3, .L99+104
 556 013e C35C     		ldrb	r3, [r0, r3]
 557 0140 3F22     		movs	r2, #63
 558 0142 1340     		ands	r3, r2
 352:Generated_Source\PSoC6\pdl\middleware\ble/cy_ble_event_handler.c ****                                 ((uint32_t)(((uint32_t)SFLASH->DIE_Y) & ((uint32_t)CY_BLE_SFLASH_DI
 559              		.loc 1 352 0
 560 0144 944E     		ldr	r6, .L99+108
 561 0146 865D     		ldrb	r6, [r0, r6]
 562 0148 3240     		ands	r2, r6
 563 014a 9201     		lsls	r2, r2, #6
 351:Generated_Source\PSoC6\pdl\middleware\ble/cy_ble_event_handler.c ****                                 ((uint32_t)(((uint32_t)SFLASH->DIE_Y) & ((uint32_t)CY_BLE_SFLASH_DI
 564              		.loc 1 351 0
 565 014c 1A43     		orrs	r2, r3
 353:Generated_Source\PSoC6\pdl\middleware\ble/cy_ble_event_handler.c ****                                  CY_BLE_SFLASH_DIE_X_BITS) |
 354:Generated_Source\PSoC6\pdl\middleware\ble/cy_ble_event_handler.c ****                                 ((uint32_t)(((uint32_t)SFLASH->DIE_WAFER) & ((uint32_t)CY_BLE_SFLAS
 566              		.loc 1 354 0
 567 014e 934B     		ldr	r3, .L99+112
 568 0150 C65C     		ldrb	r6, [r0, r3]
 569 0152 1F23     		movs	r3, #31
 570 0154 3340     		ands	r3, r6
 571 0156 1B03     		lsls	r3, r3, #12
 353:Generated_Source\PSoC6\pdl\middleware\ble/cy_ble_event_handler.c ****                                  CY_BLE_SFLASH_DIE_X_BITS) |
 572              		.loc 1 353 0
 573 0158 1343     		orrs	r3, r2
 355:Generated_Source\PSoC6\pdl\middleware\ble/cy_ble_event_handler.c ****                                  CY_BLE_SFLASH_DIE_XY_BITS) |
 356:Generated_Source\PSoC6\pdl\middleware\ble/cy_ble_event_handler.c ****                                 ((uint32_t)(((uint32_t)SFLASH->DIE_LOT[0]) & ((uint32_t)CY_BLE_SFLA
 574              		.loc 1 356 0
 575 015a C022     		movs	r2, #192
 576 015c D200     		lsls	r2, r2, #3
 577 015e 805C     		ldrb	r0, [r0, r2]
 578 0160 7F22     		movs	r2, #127
 579 0162 0240     		ands	r2, r0
 580 0164 5204     		lsls	r2, r2, #17
ARM GAS  C:\Users\Smaug\AppData\Local\Temp\ccVZzAJS.s 			page 18


 351:Generated_Source\PSoC6\pdl\middleware\ble/cy_ble_event_handler.c ****                                 ((uint32_t)(((uint32_t)SFLASH->DIE_Y) & ((uint32_t)CY_BLE_SFLASH_DI
 581              		.loc 1 351 0
 582 0166 1343     		orrs	r3, r2
 583              	.LVL50:
 357:Generated_Source\PSoC6\pdl\middleware\ble/cy_ble_event_handler.c ****                                  CY_BLE_SFLASH_DIE_XYWAFER_BITS);
 358:Generated_Source\PSoC6\pdl\middleware\ble/cy_ble_event_handler.c **** 
 359:Generated_Source\PSoC6\pdl\middleware\ble/cy_ble_event_handler.c ****                     cy_ble_configPtr->deviceAddress->bdAddr[0] = (uint8_t)bdAddrLoc;
 584              		.loc 1 359 0
 585 0168 0A6B     		ldr	r2, [r1, #48]
 586 016a 1370     		strb	r3, [r2]
 360:Generated_Source\PSoC6\pdl\middleware\ble/cy_ble_event_handler.c ****                     cy_ble_configPtr->deviceAddress->bdAddr[1] = (uint8_t)(bdAddrLoc >> 8u);
 587              		.loc 1 360 0
 588 016c 884A     		ldr	r2, .L99+100
 589 016e 1168     		ldr	r1, [r2]
 590 0170 096B     		ldr	r1, [r1, #48]
 591 0172 180A     		lsrs	r0, r3, #8
 592 0174 4870     		strb	r0, [r1, #1]
 361:Generated_Source\PSoC6\pdl\middleware\ble/cy_ble_event_handler.c ****                     cy_ble_configPtr->deviceAddress->bdAddr[2] = (uint8_t)(bdAddrLoc >> 16u);
 593              		.loc 1 361 0
 594 0176 1268     		ldr	r2, [r2]
 595 0178 126B     		ldr	r2, [r2, #48]
 596 017a 1B0C     		lsrs	r3, r3, #16
 597              	.LVL51:
 598 017c 9370     		strb	r3, [r2, #2]
 599              	.L63:
 600              	.LBE83:
 362:Generated_Source\PSoC6\pdl\middleware\ble/cy_ble_event_handler.c ****                 }
 363:Generated_Source\PSoC6\pdl\middleware\ble/cy_ble_event_handler.c ****                 (void)Cy_BLE_GAP_SetBdAddress(cy_ble_configPtr->deviceAddress);
 601              		.loc 1 363 0
 602 017e 844E     		ldr	r6, .L99+100
 603 0180 3368     		ldr	r3, [r6]
 604 0182 186B     		ldr	r0, [r3, #48]
 605 0184 FFF7FEFF 		bl	Cy_BLE_GAP_SetBdAddress
 606              	.LVL52:
 364:Generated_Source\PSoC6\pdl\middleware\ble/cy_ble_event_handler.c **** 
 365:Generated_Source\PSoC6\pdl\middleware\ble/cy_ble_event_handler.c ****                 #if (CY_BLE_GAP_ROLE_PERIPHERAL || CY_BLE_GAP_ROLE_BROADCASTER)
 366:Generated_Source\PSoC6\pdl\middleware\ble/cy_ble_event_handler.c ****                 Cy_BLE_ChangeAdDeviceAddress(cy_ble_configPtr->deviceAddress, 0u);
 607              		.loc 1 366 0
 608 0188 3368     		ldr	r3, [r6]
 609 018a 186B     		ldr	r0, [r3, #48]
 610 018c 0021     		movs	r1, #0
 611 018e FFF7FEFF 		bl	Cy_BLE_ChangeAdDeviceAddress
 612              	.LVL53:
 367:Generated_Source\PSoC6\pdl\middleware\ble/cy_ble_event_handler.c ****                 Cy_BLE_ChangeAdDeviceAddress(cy_ble_configPtr->deviceAddress, 1u);
 613              		.loc 1 367 0
 614 0192 3368     		ldr	r3, [r6]
 615 0194 186B     		ldr	r0, [r3, #48]
 616 0196 0121     		movs	r1, #1
 617 0198 FFF7FEFF 		bl	Cy_BLE_ChangeAdDeviceAddress
 618              	.LVL54:
 619              	.L62:
 368:Generated_Source\PSoC6\pdl\middleware\ble/cy_ble_event_handler.c ****                 #endif /* CY_BLE_GAP_ROLE_PERIPHERAL || CY_BLE_GAP_ROLE_BROADCASTER */
 369:Generated_Source\PSoC6\pdl\middleware\ble/cy_ble_event_handler.c ****             }
 370:Generated_Source\PSoC6\pdl\middleware\ble/cy_ble_event_handler.c **** 
 371:Generated_Source\PSoC6\pdl\middleware\ble/cy_ble_event_handler.c ****             /* Set the device IO Capability  */
 372:Generated_Source\PSoC6\pdl\middleware\ble/cy_ble_event_handler.c ****             (void)Cy_BLE_GAP_SetIoCap((cy_en_ble_gap_iocap_t*)&cy_ble_configPtr->params->securityIo
 620              		.loc 1 372 0
ARM GAS  C:\Users\Smaug\AppData\Local\Temp\ccVZzAJS.s 			page 19


 621 019c 7C4B     		ldr	r3, .L99+100
 622 019e 1B68     		ldr	r3, [r3]
 623 01a0 986A     		ldr	r0, [r3, #40]
 624 01a2 0230     		adds	r0, r0, #2
 625 01a4 FFF7FEFF 		bl	Cy_BLE_GAP_SetIoCap
 626              	.LVL55:
 627              	.LBB84:
 373:Generated_Source\PSoC6\pdl\middleware\ble/cy_ble_event_handler.c **** 
 374:Generated_Source\PSoC6\pdl\middleware\ble/cy_ble_event_handler.c ****             /* Enable all 4.1 events and configured 4.2 events */
 375:Generated_Source\PSoC6\pdl\middleware\ble/cy_ble_event_handler.c ****             {
 376:Generated_Source\PSoC6\pdl\middleware\ble/cy_ble_event_handler.c ****                 uint8_t leMask[CY_BLE_LE_MASK_LENGTH] = { CY_LO8(CY_BLE_LE_MASK),
 628              		.loc 1 376 0
 629 01a8 0822     		movs	r2, #8
 630 01aa 7D49     		ldr	r1, .L99+116
 631 01ac 04A8     		add	r0, sp, #16
 632 01ae FFF7FEFF 		bl	memcpy
 633              	.LVL56:
 377:Generated_Source\PSoC6\pdl\middleware\ble/cy_ble_event_handler.c ****                                                           CY_HI8(CY_BLE_LE_MASK),0u,  0u, 0u, 0u, 0
 378:Generated_Source\PSoC6\pdl\middleware\ble/cy_ble_event_handler.c ****                 (void)Cy_BLE_SetLeEventMask(leMask);
 634              		.loc 1 378 0
 635 01b2 04A8     		add	r0, sp, #16
 636 01b4 FFF7FEFF 		bl	Cy_BLE_SetLeEventMask
 637              	.LVL57:
 638              	.LBE84:
 379:Generated_Source\PSoC6\pdl\middleware\ble/cy_ble_event_handler.c ****             }
 380:Generated_Source\PSoC6\pdl\middleware\ble/cy_ble_event_handler.c **** 
 381:Generated_Source\PSoC6\pdl\middleware\ble/cy_ble_event_handler.c ****             /* Update BLE state  */
 382:Generated_Source\PSoC6\pdl\middleware\ble/cy_ble_event_handler.c ****             Cy_BLE_SetState(CY_BLE_STATE_ON);
 639              		.loc 1 382 0
 640 01b8 0222     		movs	r2, #2
 641 01ba 7A4B     		ldr	r3, .L99+120
 642 01bc 1A70     		strb	r2, [r3]
 383:Generated_Source\PSoC6\pdl\middleware\ble/cy_ble_event_handler.c ****             break;
 643              		.loc 1 383 0
 644 01be 3FE2     		b	.L31
 645              	.LVL58:
 646              	.L34:
 384:Generated_Source\PSoC6\pdl\middleware\ble/cy_ble_event_handler.c **** 
 385:Generated_Source\PSoC6\pdl\middleware\ble/cy_ble_event_handler.c **** 
 386:Generated_Source\PSoC6\pdl\middleware\ble/cy_ble_event_handler.c ****         case CY_BLE_EVT_SOFT_RESET_COMPLETE:
 387:Generated_Source\PSoC6\pdl\middleware\ble/cy_ble_event_handler.c ****         case CY_BLE_EVT_STACK_SHUTDOWN_COMPLETE:
 388:Generated_Source\PSoC6\pdl\middleware\ble/cy_ble_event_handler.c **** 
 389:Generated_Source\PSoC6\pdl\middleware\ble/cy_ble_event_handler.c ****             /* Update BLE / Adv. / Scan states  */
 390:Generated_Source\PSoC6\pdl\middleware\ble/cy_ble_event_handler.c ****             Cy_BLE_SetState(CY_BLE_STATE_STOPPED);
 647              		.loc 1 390 0
 648 01c0 0023     		movs	r3, #0
 649 01c2 784A     		ldr	r2, .L99+120
 650 01c4 1370     		strb	r3, [r2]
 651              	.LVL59:
 652              	.LBB85:
 653              	.LBB86:
 654              		.file 2 "Generated_Source\\PSoC6\\pdl\\middleware\\ble\\cy_ble_gap.h"
   1:Generated_Source\PSoC6\pdl\middleware\ble/cy_ble_gap.h **** /***************************************************************************//**
   2:Generated_Source\PSoC6\pdl\middleware\ble/cy_ble_gap.h **** * \file cy_ble_gap.h
   3:Generated_Source\PSoC6\pdl\middleware\ble/cy_ble_gap.h **** * \version 2.90
   4:Generated_Source\PSoC6\pdl\middleware\ble/cy_ble_gap.h **** *
   5:Generated_Source\PSoC6\pdl\middleware\ble/cy_ble_gap.h **** * \brief
ARM GAS  C:\Users\Smaug\AppData\Local\Temp\ccVZzAJS.s 			page 20


   6:Generated_Source\PSoC6\pdl\middleware\ble/cy_ble_gap.h **** *  Contains the prototypes and constants used in the BLE GAP profile.
   7:Generated_Source\PSoC6\pdl\middleware\ble/cy_ble_gap.h **** *
   8:Generated_Source\PSoC6\pdl\middleware\ble/cy_ble_gap.h **** ********************************************************************************
   9:Generated_Source\PSoC6\pdl\middleware\ble/cy_ble_gap.h **** * \copyright
  10:Generated_Source\PSoC6\pdl\middleware\ble/cy_ble_gap.h **** * Copyright 2017-2023, Cypress Semiconductor Corporation.  All rights reserved.
  11:Generated_Source\PSoC6\pdl\middleware\ble/cy_ble_gap.h **** * You may use this file only in accordance with the license, terms, conditions,
  12:Generated_Source\PSoC6\pdl\middleware\ble/cy_ble_gap.h **** * disclaimers, and limitations in the end user license agreement accompanying
  13:Generated_Source\PSoC6\pdl\middleware\ble/cy_ble_gap.h **** * the software package with which this file was provided.
  14:Generated_Source\PSoC6\pdl\middleware\ble/cy_ble_gap.h **** *******************************************************************************/
  15:Generated_Source\PSoC6\pdl\middleware\ble/cy_ble_gap.h **** 
  16:Generated_Source\PSoC6\pdl\middleware\ble/cy_ble_gap.h **** 
  17:Generated_Source\PSoC6\pdl\middleware\ble/cy_ble_gap.h **** #ifndef CY_BLE_GAP_H
  18:Generated_Source\PSoC6\pdl\middleware\ble/cy_ble_gap.h **** #define CY_BLE_GAP_H
  19:Generated_Source\PSoC6\pdl\middleware\ble/cy_ble_gap.h **** 
  20:Generated_Source\PSoC6\pdl\middleware\ble/cy_ble_gap.h **** #include "cy_ble_config.h"
  21:Generated_Source\PSoC6\pdl\middleware\ble/cy_ble_gap.h **** 
  22:Generated_Source\PSoC6\pdl\middleware\ble/cy_ble_gap.h **** /***************************************
  23:Generated_Source\PSoC6\pdl\middleware\ble/cy_ble_gap.h **** * BLE Stack includes
  24:Generated_Source\PSoC6\pdl\middleware\ble/cy_ble_gap.h **** ***************************************/
  25:Generated_Source\PSoC6\pdl\middleware\ble/cy_ble_gap.h **** #include "cy_ble_stack_gatt.h"
  26:Generated_Source\PSoC6\pdl\middleware\ble/cy_ble_gap.h **** #include "cy_ble_stack_gap.h"
  27:Generated_Source\PSoC6\pdl\middleware\ble/cy_ble_gap.h **** #include "cy_ble_stack_gap_central.h"
  28:Generated_Source\PSoC6\pdl\middleware\ble/cy_ble_gap.h **** #include "cy_ble_stack_gap_peripheral.h"
  29:Generated_Source\PSoC6\pdl\middleware\ble/cy_ble_gap.h **** 
  30:Generated_Source\PSoC6\pdl\middleware\ble/cy_ble_gap.h **** /* C binding of definitions if building with C++ compiler */
  31:Generated_Source\PSoC6\pdl\middleware\ble/cy_ble_gap.h **** #ifdef __cplusplus
  32:Generated_Source\PSoC6\pdl\middleware\ble/cy_ble_gap.h **** extern "C" {
  33:Generated_Source\PSoC6\pdl\middleware\ble/cy_ble_gap.h **** #endif /* __cplusplus */
  34:Generated_Source\PSoC6\pdl\middleware\ble/cy_ble_gap.h **** 
  35:Generated_Source\PSoC6\pdl\middleware\ble/cy_ble_gap.h **** /***************************************
  36:Generated_Source\PSoC6\pdl\middleware\ble/cy_ble_gap.h **** * Conditional Compilation Parameters
  37:Generated_Source\PSoC6\pdl\middleware\ble/cy_ble_gap.h **** ***************************************/
  38:Generated_Source\PSoC6\pdl\middleware\ble/cy_ble_gap.h **** /**
  39:Generated_Source\PSoC6\pdl\middleware\ble/cy_ble_gap.h ****  * The BLE operation mode.
  40:Generated_Source\PSoC6\pdl\middleware\ble/cy_ble_gap.h ****  */
  41:Generated_Source\PSoC6\pdl\middleware\ble/cy_ble_gap.h **** #define CY_BLE_MODE                          (CY_BLE_CONFIG_MODE)
  42:Generated_Source\PSoC6\pdl\middleware\ble/cy_ble_gap.h **** 
  43:Generated_Source\PSoC6\pdl\middleware\ble/cy_ble_gap.h **** /**
  44:Generated_Source\PSoC6\pdl\middleware\ble/cy_ble_gap.h ****  * Maximum number of BLE connections
  45:Generated_Source\PSoC6\pdl\middleware\ble/cy_ble_gap.h ****  * This parameter displays how many BLE connections (both Central and
  46:Generated_Source\PSoC6\pdl\middleware\ble/cy_ble_gap.h ****  * Peripheral) are allowed. Valid range is from 1 to 4.
  47:Generated_Source\PSoC6\pdl\middleware\ble/cy_ble_gap.h ****  */
  48:Generated_Source\PSoC6\pdl\middleware\ble/cy_ble_gap.h **** #define CY_BLE_CONN_COUNT                    (CY_BLE_CONFIG_CONN_COUNT)
  49:Generated_Source\PSoC6\pdl\middleware\ble/cy_ble_gap.h **** 
  50:Generated_Source\PSoC6\pdl\middleware\ble/cy_ble_gap.h **** /**
  51:Generated_Source\PSoC6\pdl\middleware\ble/cy_ble_gap.h ****  * The GAP Role
  52:Generated_Source\PSoC6\pdl\middleware\ble/cy_ble_gap.h ****  * The following defined mask can be used:
  53:Generated_Source\PSoC6\pdl\middleware\ble/cy_ble_gap.h ****  * CY_BLE_GAP_PERIPHERAL  (0x01u) - device operates as peripheral.
  54:Generated_Source\PSoC6\pdl\middleware\ble/cy_ble_gap.h ****  * CY_BLE_GAP_CENTRAL     (0x02u) - device operates as central.
  55:Generated_Source\PSoC6\pdl\middleware\ble/cy_ble_gap.h ****  * CY_BLE_GAP_BROADCASTER (0x04u) - device operates as broadcaster.
  56:Generated_Source\PSoC6\pdl\middleware\ble/cy_ble_gap.h ****  * CY_BLE_GAP_OBSERVER    (0x08u) - device operates as observer.
  57:Generated_Source\PSoC6\pdl\middleware\ble/cy_ble_gap.h ****  * CY_BLE_GAP_HCI         (0x00u) - used when BLE operates in HCI mode.
  58:Generated_Source\PSoC6\pdl\middleware\ble/cy_ble_gap.h ****  */
  59:Generated_Source\PSoC6\pdl\middleware\ble/cy_ble_gap.h **** #define CY_BLE_GAP_ROLE                       (CY_BLE_CONFIG_GAP_ROLE)
  60:Generated_Source\PSoC6\pdl\middleware\ble/cy_ble_gap.h **** 
  61:Generated_Source\PSoC6\pdl\middleware\ble/cy_ble_gap.h **** /** The number of GAP Peripheral configurations structures */
  62:Generated_Source\PSoC6\pdl\middleware\ble/cy_ble_gap.h **** #define CY_BLE_GAP_PERIPHERAL_COUNT           (CY_BLE_CONFIG_GAP_PERIPHERAL_COUNT)
ARM GAS  C:\Users\Smaug\AppData\Local\Temp\ccVZzAJS.s 			page 21


  63:Generated_Source\PSoC6\pdl\middleware\ble/cy_ble_gap.h **** 
  64:Generated_Source\PSoC6\pdl\middleware\ble/cy_ble_gap.h **** /** The number of GAP Broadcaster configurations structures */
  65:Generated_Source\PSoC6\pdl\middleware\ble/cy_ble_gap.h **** #define CY_BLE_GAP_BROADCASTER_COUNT          (CY_BLE_CONFIG_GAP_BROADCASTER_COUNT)
  66:Generated_Source\PSoC6\pdl\middleware\ble/cy_ble_gap.h **** 
  67:Generated_Source\PSoC6\pdl\middleware\ble/cy_ble_gap.h **** /** The number of GAP Central configurations structures */
  68:Generated_Source\PSoC6\pdl\middleware\ble/cy_ble_gap.h **** #define CY_BLE_GAP_CENTRAL_COUNT              (CY_BLE_CONFIG_GAP_CENTRAL_COUNT)
  69:Generated_Source\PSoC6\pdl\middleware\ble/cy_ble_gap.h **** 
  70:Generated_Source\PSoC6\pdl\middleware\ble/cy_ble_gap.h **** /** The number of GAP Observer configurations structures */
  71:Generated_Source\PSoC6\pdl\middleware\ble/cy_ble_gap.h **** #define CY_BLE_GAP_OBSERVER_COUNT             (CY_BLE_CONFIG_GAP_OBSERVER_COUNT)
  72:Generated_Source\PSoC6\pdl\middleware\ble/cy_ble_gap.h **** 
  73:Generated_Source\PSoC6\pdl\middleware\ble/cy_ble_gap.h **** /** The number of Security configurations structures */
  74:Generated_Source\PSoC6\pdl\middleware\ble/cy_ble_gap.h **** #define CY_BLE_AUTH_INFO_COUNT                (CY_BLE_CONFIG_AUTH_INFO_COUNT)
  75:Generated_Source\PSoC6\pdl\middleware\ble/cy_ble_gap.h **** 
  76:Generated_Source\PSoC6\pdl\middleware\ble/cy_ble_gap.h **** /** The Bonding Requirement structures */
  77:Generated_Source\PSoC6\pdl\middleware\ble/cy_ble_gap.h **** #define CY_BLE_BONDING_REQUIREMENT            (CY_BLE_CONFIG_BONDING_REQUIREMENT)
  78:Generated_Source\PSoC6\pdl\middleware\ble/cy_ble_gap.h **** 
  79:Generated_Source\PSoC6\pdl\middleware\ble/cy_ble_gap.h **** /** The GAP Role defines */
  80:Generated_Source\PSoC6\pdl\middleware\ble/cy_ble_gap.h **** #define CY_BLE_GAP_ROLE_PERIPHERAL            (0u != (CY_BLE_GAP_ROLE & CY_BLE_GAP_PERIPHERAL))
  81:Generated_Source\PSoC6\pdl\middleware\ble/cy_ble_gap.h **** #define CY_BLE_GAP_ROLE_CENTRAL               (0u != (CY_BLE_GAP_ROLE & CY_BLE_GAP_CENTRAL))
  82:Generated_Source\PSoC6\pdl\middleware\ble/cy_ble_gap.h **** #define CY_BLE_GAP_ROLE_OBSERVER              (0u != (CY_BLE_GAP_ROLE & CY_BLE_GAP_OBSERVER))
  83:Generated_Source\PSoC6\pdl\middleware\ble/cy_ble_gap.h **** #define CY_BLE_GAP_ROLE_BROADCASTER           (0u != (CY_BLE_GAP_ROLE & CY_BLE_GAP_BROADCASTER))
  84:Generated_Source\PSoC6\pdl\middleware\ble/cy_ble_gap.h **** 
  85:Generated_Source\PSoC6\pdl\middleware\ble/cy_ble_gap.h **** #define CY_BLE_GAPP_CONF_COUNT                (CY_BLE_GAP_PERIPHERAL_COUNT + CY_BLE_GAP_BROADCASTER
  86:Generated_Source\PSoC6\pdl\middleware\ble/cy_ble_gap.h **** #define CY_BLE_GAPC_CONF_COUNT                (CY_BLE_GAP_CENTRAL_COUNT + CY_BLE_GAP_OBSERVER_COUNT
  87:Generated_Source\PSoC6\pdl\middleware\ble/cy_ble_gap.h **** 
  88:Generated_Source\PSoC6\pdl\middleware\ble/cy_ble_gap.h **** /***************************************
  89:Generated_Source\PSoC6\pdl\middleware\ble/cy_ble_gap.h **** * Type Definitions
  90:Generated_Source\PSoC6\pdl\middleware\ble/cy_ble_gap.h **** ***************************************/
  91:Generated_Source\PSoC6\pdl\middleware\ble/cy_ble_gap.h **** 
  92:Generated_Source\PSoC6\pdl\middleware\ble/cy_ble_gap.h **** #if (CY_BLE_MODE_PROFILE)
  93:Generated_Source\PSoC6\pdl\middleware\ble/cy_ble_gap.h **** 
  94:Generated_Source\PSoC6\pdl\middleware\ble/cy_ble_gap.h **** /***************************************
  95:Generated_Source\PSoC6\pdl\middleware\ble/cy_ble_gap.h **** * Enumerated Types and Structures
  96:Generated_Source\PSoC6\pdl\middleware\ble/cy_ble_gap.h **** ***************************************/
  97:Generated_Source\PSoC6\pdl\middleware\ble/cy_ble_gap.h **** 
  98:Generated_Source\PSoC6\pdl\middleware\ble/cy_ble_gap.h **** /**
  99:Generated_Source\PSoC6\pdl\middleware\ble/cy_ble_gap.h ****  * \addtogroup group_ble_common_api_gap_definitions
 100:Generated_Source\PSoC6\pdl\middleware\ble/cy_ble_gap.h ****  * @{
 101:Generated_Source\PSoC6\pdl\middleware\ble/cy_ble_gap.h ****  */
 102:Generated_Source\PSoC6\pdl\middleware\ble/cy_ble_gap.h **** 
 103:Generated_Source\PSoC6\pdl\middleware\ble/cy_ble_gap.h **** /** BLE state machine type */
 104:Generated_Source\PSoC6\pdl\middleware\ble/cy_ble_gap.h **** typedef enum
 105:Generated_Source\PSoC6\pdl\middleware\ble/cy_ble_gap.h **** {
 106:Generated_Source\PSoC6\pdl\middleware\ble/cy_ble_gap.h ****     CY_BLE_STATE_STOPPED,                             /**< BLE is turned off */
 107:Generated_Source\PSoC6\pdl\middleware\ble/cy_ble_gap.h ****     CY_BLE_STATE_INITIALIZING,                        /**< Initializing state */
 108:Generated_Source\PSoC6\pdl\middleware\ble/cy_ble_gap.h ****     CY_BLE_STATE_ON,                                  /**< BLE is turned on */
 109:Generated_Source\PSoC6\pdl\middleware\ble/cy_ble_gap.h **** #if (CY_BLE_GAP_ROLE_CENTRAL)
 110:Generated_Source\PSoC6\pdl\middleware\ble/cy_ble_gap.h ****     CY_BLE_STATE_CONNECTING,                          /**< Connecting */
 111:Generated_Source\PSoC6\pdl\middleware\ble/cy_ble_gap.h **** #endif /* CY_BLE_GAP_ROLE_CENTRAL */
 112:Generated_Source\PSoC6\pdl\middleware\ble/cy_ble_gap.h **** } cy_en_ble_state_t;
 113:Generated_Source\PSoC6\pdl\middleware\ble/cy_ble_gap.h **** 
 114:Generated_Source\PSoC6\pdl\middleware\ble/cy_ble_gap.h **** 
 115:Generated_Source\PSoC6\pdl\middleware\ble/cy_ble_gap.h **** /** Scanning state machine type */
 116:Generated_Source\PSoC6\pdl\middleware\ble/cy_ble_gap.h **** typedef enum
 117:Generated_Source\PSoC6\pdl\middleware\ble/cy_ble_gap.h **** {
 118:Generated_Source\PSoC6\pdl\middleware\ble/cy_ble_gap.h ****     CY_BLE_SCAN_STATE_STOPPED,                        /**< Scanning is stopped */
 119:Generated_Source\PSoC6\pdl\middleware\ble/cy_ble_gap.h ****     CY_BLE_SCAN_STATE_SCAN_INITIATED,                 /**< Scanning is initiated */
ARM GAS  C:\Users\Smaug\AppData\Local\Temp\ccVZzAJS.s 			page 22


 120:Generated_Source\PSoC6\pdl\middleware\ble/cy_ble_gap.h ****     CY_BLE_SCAN_STATE_SCANNING,                       /**< Scanning process */
 121:Generated_Source\PSoC6\pdl\middleware\ble/cy_ble_gap.h ****     CY_BLE_SCAN_STATE_STOP_INITIATED                  /**< Stop scanning is initiated */
 122:Generated_Source\PSoC6\pdl\middleware\ble/cy_ble_gap.h **** } cy_en_ble_scan_state_t;
 123:Generated_Source\PSoC6\pdl\middleware\ble/cy_ble_gap.h **** 
 124:Generated_Source\PSoC6\pdl\middleware\ble/cy_ble_gap.h **** /** Advertising state machine type */
 125:Generated_Source\PSoC6\pdl\middleware\ble/cy_ble_gap.h **** typedef enum
 126:Generated_Source\PSoC6\pdl\middleware\ble/cy_ble_gap.h **** {
 127:Generated_Source\PSoC6\pdl\middleware\ble/cy_ble_gap.h ****     CY_BLE_ADV_STATE_STOPPED,                         /**< Advertising is stopped */
 128:Generated_Source\PSoC6\pdl\middleware\ble/cy_ble_gap.h ****     CY_BLE_ADV_STATE_ADV_INITIATED,                   /**< Advertising is initiated */
 129:Generated_Source\PSoC6\pdl\middleware\ble/cy_ble_gap.h ****     CY_BLE_ADV_STATE_ADVERTISING,                     /**< Advertising process */
 130:Generated_Source\PSoC6\pdl\middleware\ble/cy_ble_gap.h ****     CY_BLE_ADV_STATE_STOP_INITIATED                   /**< Stop advertising is initiated */
 131:Generated_Source\PSoC6\pdl\middleware\ble/cy_ble_gap.h **** } cy_en_ble_adv_state_t;
 132:Generated_Source\PSoC6\pdl\middleware\ble/cy_ble_gap.h **** 
 133:Generated_Source\PSoC6\pdl\middleware\ble/cy_ble_gap.h **** /** Connection state machine type */
 134:Generated_Source\PSoC6\pdl\middleware\ble/cy_ble_gap.h **** typedef enum
 135:Generated_Source\PSoC6\pdl\middleware\ble/cy_ble_gap.h **** {
 136:Generated_Source\PSoC6\pdl\middleware\ble/cy_ble_gap.h ****     CY_BLE_CONN_STATE_DISCONNECTED,                   /**< Essentially idle state */
 137:Generated_Source\PSoC6\pdl\middleware\ble/cy_ble_gap.h ****     CY_BLE_CONN_STATE_CLIENT_DISCONNECTED_DISCOVERED, /**< Server is disconnected but discovered */
 138:Generated_Source\PSoC6\pdl\middleware\ble/cy_ble_gap.h ****     CY_BLE_CONN_STATE_CONNECTED,                      /**< Peer device is connected for this and fo
 139:Generated_Source\PSoC6\pdl\middleware\ble/cy_ble_gap.h ****     CY_BLE_CONN_STATE_CLIENT_SRVC_DISCOVERING,        /**< Server services are being discovered */
 140:Generated_Source\PSoC6\pdl\middleware\ble/cy_ble_gap.h ****     CY_BLE_CONN_STATE_CLIENT_INCL_DISCOVERING,        /**< Server included services are being disco
 141:Generated_Source\PSoC6\pdl\middleware\ble/cy_ble_gap.h ****     CY_BLE_CONN_STATE_CLIENT_CHAR_DISCOVERING,        /**< Server characteristics are being discove
 142:Generated_Source\PSoC6\pdl\middleware\ble/cy_ble_gap.h ****     CY_BLE_CONN_STATE_CLIENT_DESCR_DISCOVERING,       /**< Server char. descriptors are being disco
 143:Generated_Source\PSoC6\pdl\middleware\ble/cy_ble_gap.h ****     CY_BLE_CONN_STATE_CLIENT_DISCOVERED               /**< Server is discovered */
 144:Generated_Source\PSoC6\pdl\middleware\ble/cy_ble_gap.h **** } cy_en_ble_conn_state_t;
 145:Generated_Source\PSoC6\pdl\middleware\ble/cy_ble_gap.h **** 
 146:Generated_Source\PSoC6\pdl\middleware\ble/cy_ble_gap.h **** /** Structure with Generic Access Profile Service (GAPS) attribute handles */
 147:Generated_Source\PSoC6\pdl\middleware\ble/cy_ble_gap.h **** typedef struct
 148:Generated_Source\PSoC6\pdl\middleware\ble/cy_ble_gap.h **** {
 149:Generated_Source\PSoC6\pdl\middleware\ble/cy_ble_gap.h ****     /** Service handle*/
 150:Generated_Source\PSoC6\pdl\middleware\ble/cy_ble_gap.h ****     cy_ble_gatt_db_attr_handle_t serviceHandle;
 151:Generated_Source\PSoC6\pdl\middleware\ble/cy_ble_gap.h **** 
 152:Generated_Source\PSoC6\pdl\middleware\ble/cy_ble_gap.h ****     /** Handle of the GAPS Device Name Characteristic */
 153:Generated_Source\PSoC6\pdl\middleware\ble/cy_ble_gap.h ****     cy_ble_gatt_db_attr_handle_t deviceNameCharHandle;
 154:Generated_Source\PSoC6\pdl\middleware\ble/cy_ble_gap.h **** 
 155:Generated_Source\PSoC6\pdl\middleware\ble/cy_ble_gap.h ****     /** Handle of the GAPS Appearance Characteristic */
 156:Generated_Source\PSoC6\pdl\middleware\ble/cy_ble_gap.h ****     cy_ble_gatt_db_attr_handle_t appearanceCharHandle;
 157:Generated_Source\PSoC6\pdl\middleware\ble/cy_ble_gap.h **** 
 158:Generated_Source\PSoC6\pdl\middleware\ble/cy_ble_gap.h ****     /** Handle of the GAPS Peripheral Preferred Connection Parameters Characteristic */
 159:Generated_Source\PSoC6\pdl\middleware\ble/cy_ble_gap.h ****     cy_ble_gatt_db_attr_handle_t prefConnParamCharHandle;
 160:Generated_Source\PSoC6\pdl\middleware\ble/cy_ble_gap.h **** 
 161:Generated_Source\PSoC6\pdl\middleware\ble/cy_ble_gap.h ****     /** Handle of the GAPS Central Address Resolution characteristic */
 162:Generated_Source\PSoC6\pdl\middleware\ble/cy_ble_gap.h ****     cy_ble_gatt_db_attr_handle_t centralAddrResolutionCharHandle;
 163:Generated_Source\PSoC6\pdl\middleware\ble/cy_ble_gap.h **** 
 164:Generated_Source\PSoC6\pdl\middleware\ble/cy_ble_gap.h ****     /** Handle of the GAPS Resolvable Private Address Only characteristic */
 165:Generated_Source\PSoC6\pdl\middleware\ble/cy_ble_gap.h ****     cy_ble_gatt_db_attr_handle_t resolvablePrivateAddressOnly;
 166:Generated_Source\PSoC6\pdl\middleware\ble/cy_ble_gap.h **** } cy_stc_ble_gaps_t;
 167:Generated_Source\PSoC6\pdl\middleware\ble/cy_ble_gap.h **** 
 168:Generated_Source\PSoC6\pdl\middleware\ble/cy_ble_gap.h **** /** GAP Service characteristics server's GATT DB handles structure type */
 169:Generated_Source\PSoC6\pdl\middleware\ble/cy_ble_gap.h **** typedef struct
 170:Generated_Source\PSoC6\pdl\middleware\ble/cy_ble_gap.h **** {
 171:Generated_Source\PSoC6\pdl\middleware\ble/cy_ble_gap.h ****     /** Handle of the GAPS Device Name Characteristic */
 172:Generated_Source\PSoC6\pdl\middleware\ble/cy_ble_gap.h ****     cy_ble_gatt_db_attr_handle_t deviceNameCharHandle;
 173:Generated_Source\PSoC6\pdl\middleware\ble/cy_ble_gap.h **** 
 174:Generated_Source\PSoC6\pdl\middleware\ble/cy_ble_gap.h ****     /** Handle of the GAPS Appearance Characteristic */
 175:Generated_Source\PSoC6\pdl\middleware\ble/cy_ble_gap.h ****     cy_ble_gatt_db_attr_handle_t appearanceCharHandle;
 176:Generated_Source\PSoC6\pdl\middleware\ble/cy_ble_gap.h **** 
ARM GAS  C:\Users\Smaug\AppData\Local\Temp\ccVZzAJS.s 			page 23


 177:Generated_Source\PSoC6\pdl\middleware\ble/cy_ble_gap.h ****     /** Handle of the GAPS Peripheral Privacy Flag Parameters Characteristic */
 178:Generated_Source\PSoC6\pdl\middleware\ble/cy_ble_gap.h ****     cy_ble_gatt_db_attr_handle_t periphPrivacyCharHandle;
 179:Generated_Source\PSoC6\pdl\middleware\ble/cy_ble_gap.h **** 
 180:Generated_Source\PSoC6\pdl\middleware\ble/cy_ble_gap.h ****     /** Handle of the GAPS Reconnection Address Characteristic */
 181:Generated_Source\PSoC6\pdl\middleware\ble/cy_ble_gap.h ****     cy_ble_gatt_db_attr_handle_t reconnAddrCharHandle;
 182:Generated_Source\PSoC6\pdl\middleware\ble/cy_ble_gap.h **** 
 183:Generated_Source\PSoC6\pdl\middleware\ble/cy_ble_gap.h ****     /** Handle of the GAPS Peripheral Preferred Connection Parameters Characteristic */
 184:Generated_Source\PSoC6\pdl\middleware\ble/cy_ble_gap.h ****     cy_ble_gatt_db_attr_handle_t prefConnParamCharHandle;
 185:Generated_Source\PSoC6\pdl\middleware\ble/cy_ble_gap.h **** 
 186:Generated_Source\PSoC6\pdl\middleware\ble/cy_ble_gap.h ****     /** Handle of the GAPS Central Address Resolution characteristic */
 187:Generated_Source\PSoC6\pdl\middleware\ble/cy_ble_gap.h ****     cy_ble_gatt_db_attr_handle_t centralAddrResolutionCharHandle;
 188:Generated_Source\PSoC6\pdl\middleware\ble/cy_ble_gap.h **** 
 189:Generated_Source\PSoC6\pdl\middleware\ble/cy_ble_gap.h ****     /** Handle of the GAPS Resolvable Private Address Only characteristic */
 190:Generated_Source\PSoC6\pdl\middleware\ble/cy_ble_gap.h ****     cy_ble_gatt_db_attr_handle_t resolvablePrivateAddressOnly;
 191:Generated_Source\PSoC6\pdl\middleware\ble/cy_ble_gap.h **** }cy_stc_ble_gapc_t;
 192:Generated_Source\PSoC6\pdl\middleware\ble/cy_ble_gap.h **** 
 193:Generated_Source\PSoC6\pdl\middleware\ble/cy_ble_gap.h **** /* Stack mode defines */
 194:Generated_Source\PSoC6\pdl\middleware\ble/cy_ble_gap.h **** 
 195:Generated_Source\PSoC6\pdl\middleware\ble/cy_ble_gap.h **** /** Advertisement SIG assigned numbers */
 196:Generated_Source\PSoC6\pdl\middleware\ble/cy_ble_gap.h **** typedef enum
 197:Generated_Source\PSoC6\pdl\middleware\ble/cy_ble_gap.h **** {
 198:Generated_Source\PSoC6\pdl\middleware\ble/cy_ble_gap.h ****     /** Flags */
 199:Generated_Source\PSoC6\pdl\middleware\ble/cy_ble_gap.h ****     CY_BLE_GAP_ADV_FLAGS = 0x01u,
 200:Generated_Source\PSoC6\pdl\middleware\ble/cy_ble_gap.h **** 
 201:Generated_Source\PSoC6\pdl\middleware\ble/cy_ble_gap.h ****     /** Incomplete List of 16-bit Service Class UUIDs */
 202:Generated_Source\PSoC6\pdl\middleware\ble/cy_ble_gap.h ****     CY_BLE_GAP_ADV_INCOMPL_16UUID,
 203:Generated_Source\PSoC6\pdl\middleware\ble/cy_ble_gap.h **** 
 204:Generated_Source\PSoC6\pdl\middleware\ble/cy_ble_gap.h ****     /** Complete List of 16-bit Service Class UUIDs */
 205:Generated_Source\PSoC6\pdl\middleware\ble/cy_ble_gap.h ****     CY_BLE_GAP_ADV_COMPL_16UUID,
 206:Generated_Source\PSoC6\pdl\middleware\ble/cy_ble_gap.h **** 
 207:Generated_Source\PSoC6\pdl\middleware\ble/cy_ble_gap.h ****     /** Incomplete List of 32-bit Service Class UUIDs */
 208:Generated_Source\PSoC6\pdl\middleware\ble/cy_ble_gap.h ****     CY_BLE_GAP_ADV_INCOMPL_32_UUID,
 209:Generated_Source\PSoC6\pdl\middleware\ble/cy_ble_gap.h **** 
 210:Generated_Source\PSoC6\pdl\middleware\ble/cy_ble_gap.h ****     /** Complete List of 32-bit Service Class UUIDs */
 211:Generated_Source\PSoC6\pdl\middleware\ble/cy_ble_gap.h ****     CY_BLE_GAP_ADV_COMPL_32_UUID,
 212:Generated_Source\PSoC6\pdl\middleware\ble/cy_ble_gap.h **** 
 213:Generated_Source\PSoC6\pdl\middleware\ble/cy_ble_gap.h ****     /** Incomplete List of 128-bit Service Class UUIDs */
 214:Generated_Source\PSoC6\pdl\middleware\ble/cy_ble_gap.h ****     CY_BLE_GAP_ADV_INCOMPL_128_UUID,
 215:Generated_Source\PSoC6\pdl\middleware\ble/cy_ble_gap.h **** 
 216:Generated_Source\PSoC6\pdl\middleware\ble/cy_ble_gap.h ****     /** Complete List of 128-bit Service Class UUIDs */
 217:Generated_Source\PSoC6\pdl\middleware\ble/cy_ble_gap.h ****     CY_BLE_GAP_ADV_COMPL_128_UUID,
 218:Generated_Source\PSoC6\pdl\middleware\ble/cy_ble_gap.h **** 
 219:Generated_Source\PSoC6\pdl\middleware\ble/cy_ble_gap.h ****     /** Shortened Local Name */
 220:Generated_Source\PSoC6\pdl\middleware\ble/cy_ble_gap.h ****     CY_BLE_GAP_ADV_SHORT_NAME,
 221:Generated_Source\PSoC6\pdl\middleware\ble/cy_ble_gap.h **** 
 222:Generated_Source\PSoC6\pdl\middleware\ble/cy_ble_gap.h ****     /** Complete Local Name */
 223:Generated_Source\PSoC6\pdl\middleware\ble/cy_ble_gap.h ****     CY_BLE_GAP_ADV_COMPL_NAME,
 224:Generated_Source\PSoC6\pdl\middleware\ble/cy_ble_gap.h **** 
 225:Generated_Source\PSoC6\pdl\middleware\ble/cy_ble_gap.h ****     /** Tx Power Level */
 226:Generated_Source\PSoC6\pdl\middleware\ble/cy_ble_gap.h ****     CY_BLE_GAP_ADV_TX_PWR_LVL,
 227:Generated_Source\PSoC6\pdl\middleware\ble/cy_ble_gap.h **** 
 228:Generated_Source\PSoC6\pdl\middleware\ble/cy_ble_gap.h ****     /** Class of Device */
 229:Generated_Source\PSoC6\pdl\middleware\ble/cy_ble_gap.h ****     CY_BLE_GAP_ADV_CLASS_OF_DEVICE = 0x0Du,
 230:Generated_Source\PSoC6\pdl\middleware\ble/cy_ble_gap.h **** 
 231:Generated_Source\PSoC6\pdl\middleware\ble/cy_ble_gap.h ****     /** Simple Pairing Hash C */
 232:Generated_Source\PSoC6\pdl\middleware\ble/cy_ble_gap.h ****     CY_BLE_GAP_ADV_SMPL_PAIR_HASH_C,
 233:Generated_Source\PSoC6\pdl\middleware\ble/cy_ble_gap.h **** 
ARM GAS  C:\Users\Smaug\AppData\Local\Temp\ccVZzAJS.s 			page 24


 234:Generated_Source\PSoC6\pdl\middleware\ble/cy_ble_gap.h ****     /** Simple Pairing Randomizer R */
 235:Generated_Source\PSoC6\pdl\middleware\ble/cy_ble_gap.h ****     CY_BLE_GAP_ADV_SMPL_PAIR_RANDOM_R,
 236:Generated_Source\PSoC6\pdl\middleware\ble/cy_ble_gap.h **** 
 237:Generated_Source\PSoC6\pdl\middleware\ble/cy_ble_gap.h ****     /** Device ID*/
 238:Generated_Source\PSoC6\pdl\middleware\ble/cy_ble_gap.h ****     CY_BLE_GAP_ADV_DEVICE_ID,
 239:Generated_Source\PSoC6\pdl\middleware\ble/cy_ble_gap.h **** 
 240:Generated_Source\PSoC6\pdl\middleware\ble/cy_ble_gap.h ****     /** Security Manager TK Value */
 241:Generated_Source\PSoC6\pdl\middleware\ble/cy_ble_gap.h ****     CY_BLE_GAP_ADV_SCRT_MNGR_TK_VAL = 0x10u,
 242:Generated_Source\PSoC6\pdl\middleware\ble/cy_ble_gap.h **** 
 243:Generated_Source\PSoC6\pdl\middleware\ble/cy_ble_gap.h ****     /** Security Manager Out of Band Flags */
 244:Generated_Source\PSoC6\pdl\middleware\ble/cy_ble_gap.h ****     CY_BLE_GAP_ADV_SCRT_MNGR_OOB_FLAGS,
 245:Generated_Source\PSoC6\pdl\middleware\ble/cy_ble_gap.h **** 
 246:Generated_Source\PSoC6\pdl\middleware\ble/cy_ble_gap.h ****     /** Slave Connection Interval Range */
 247:Generated_Source\PSoC6\pdl\middleware\ble/cy_ble_gap.h ****     CY_BLE_GAP_ADV_SLAVE_CONN_INTRV_RANGE,
 248:Generated_Source\PSoC6\pdl\middleware\ble/cy_ble_gap.h **** 
 249:Generated_Source\PSoC6\pdl\middleware\ble/cy_ble_gap.h ****     /** List of 16-bit Service Solicitation UUIDs */
 250:Generated_Source\PSoC6\pdl\middleware\ble/cy_ble_gap.h ****     CY_BLE_GAP_ADV_SOLICIT_16UUID = 0x14u,
 251:Generated_Source\PSoC6\pdl\middleware\ble/cy_ble_gap.h **** 
 252:Generated_Source\PSoC6\pdl\middleware\ble/cy_ble_gap.h ****     /** List of 128-bit Service Solicitation UUIDs */
 253:Generated_Source\PSoC6\pdl\middleware\ble/cy_ble_gap.h ****     CY_BLE_GAP_ADV_SOLICIT_128UUID,
 254:Generated_Source\PSoC6\pdl\middleware\ble/cy_ble_gap.h **** 
 255:Generated_Source\PSoC6\pdl\middleware\ble/cy_ble_gap.h ****     /** Service Data - 16-bit UUID */
 256:Generated_Source\PSoC6\pdl\middleware\ble/cy_ble_gap.h ****     CY_BLE_GAP_ADV_SRVC_DATA_16UUID,
 257:Generated_Source\PSoC6\pdl\middleware\ble/cy_ble_gap.h **** 
 258:Generated_Source\PSoC6\pdl\middleware\ble/cy_ble_gap.h ****     /** Public Target Address */
 259:Generated_Source\PSoC6\pdl\middleware\ble/cy_ble_gap.h ****     CY_BLE_GAP_ADV_PUBLIC_TARGET_ADDR,
 260:Generated_Source\PSoC6\pdl\middleware\ble/cy_ble_gap.h **** 
 261:Generated_Source\PSoC6\pdl\middleware\ble/cy_ble_gap.h ****     /** Random Target Address */
 262:Generated_Source\PSoC6\pdl\middleware\ble/cy_ble_gap.h ****     CY_BLE_GAP_ADV_RANDOM_TARGET_ADDR,
 263:Generated_Source\PSoC6\pdl\middleware\ble/cy_ble_gap.h **** 
 264:Generated_Source\PSoC6\pdl\middleware\ble/cy_ble_gap.h ****     /** Appearance */
 265:Generated_Source\PSoC6\pdl\middleware\ble/cy_ble_gap.h ****     CY_BLE_GAP_ADV_APPEARANCE,
 266:Generated_Source\PSoC6\pdl\middleware\ble/cy_ble_gap.h **** 
 267:Generated_Source\PSoC6\pdl\middleware\ble/cy_ble_gap.h ****     /** Advertising Interval */
 268:Generated_Source\PSoC6\pdl\middleware\ble/cy_ble_gap.h ****     CY_BLE_GAP_ADV_ADVERT_INTERVAL,
 269:Generated_Source\PSoC6\pdl\middleware\ble/cy_ble_gap.h **** 
 270:Generated_Source\PSoC6\pdl\middleware\ble/cy_ble_gap.h ****     /** LE Bluetooth Device Address */
 271:Generated_Source\PSoC6\pdl\middleware\ble/cy_ble_gap.h ****     CY_BLE_GAP_ADV_LE_BT_DEVICE_ADDR,
 272:Generated_Source\PSoC6\pdl\middleware\ble/cy_ble_gap.h **** 
 273:Generated_Source\PSoC6\pdl\middleware\ble/cy_ble_gap.h ****     /** LE Role */
 274:Generated_Source\PSoC6\pdl\middleware\ble/cy_ble_gap.h ****     CY_BLE_GAP_ADV_LE_ROLE,
 275:Generated_Source\PSoC6\pdl\middleware\ble/cy_ble_gap.h **** 
 276:Generated_Source\PSoC6\pdl\middleware\ble/cy_ble_gap.h ****     /** Simple Pairing Hash C-256 */
 277:Generated_Source\PSoC6\pdl\middleware\ble/cy_ble_gap.h ****     CY_BLE_GAP_ADV_SMPL_PAIR_HASH_C256,
 278:Generated_Source\PSoC6\pdl\middleware\ble/cy_ble_gap.h **** 
 279:Generated_Source\PSoC6\pdl\middleware\ble/cy_ble_gap.h ****     /** Simple Pairing Randomizer R-256 */
 280:Generated_Source\PSoC6\pdl\middleware\ble/cy_ble_gap.h ****     CY_BLE_GAP_ADV_SMPL_PAIR_RANDOM_R256,
 281:Generated_Source\PSoC6\pdl\middleware\ble/cy_ble_gap.h **** 
 282:Generated_Source\PSoC6\pdl\middleware\ble/cy_ble_gap.h ****     /** List of 32-bit Service Solicitation UUIDs */
 283:Generated_Source\PSoC6\pdl\middleware\ble/cy_ble_gap.h ****     CY_BLE_GAP_ADV_SOLICIT_32UUID,
 284:Generated_Source\PSoC6\pdl\middleware\ble/cy_ble_gap.h **** 
 285:Generated_Source\PSoC6\pdl\middleware\ble/cy_ble_gap.h ****     /** Service Data - 32-bit UUID */
 286:Generated_Source\PSoC6\pdl\middleware\ble/cy_ble_gap.h ****     CY_BLE_GAP_ADV_SRVC_DATA_32UUID,
 287:Generated_Source\PSoC6\pdl\middleware\ble/cy_ble_gap.h **** 
 288:Generated_Source\PSoC6\pdl\middleware\ble/cy_ble_gap.h ****     /** Service Data - 128-bit UUID */
 289:Generated_Source\PSoC6\pdl\middleware\ble/cy_ble_gap.h ****     CY_BLE_GAP_ADV_SRVC_DATA_128UUID,
 290:Generated_Source\PSoC6\pdl\middleware\ble/cy_ble_gap.h **** 
ARM GAS  C:\Users\Smaug\AppData\Local\Temp\ccVZzAJS.s 			page 25


 291:Generated_Source\PSoC6\pdl\middleware\ble/cy_ble_gap.h ****     /** 3D Information Data */
 292:Generated_Source\PSoC6\pdl\middleware\ble/cy_ble_gap.h ****     CY_BLE_GAP_ADV_3D_INFO_DATA = 0x3D,
 293:Generated_Source\PSoC6\pdl\middleware\ble/cy_ble_gap.h **** 
 294:Generated_Source\PSoC6\pdl\middleware\ble/cy_ble_gap.h ****     /** Manufacturer Specific Data */
 295:Generated_Source\PSoC6\pdl\middleware\ble/cy_ble_gap.h ****     CY_BLE_GAP_ADV_MANUFACTURER_SPECIFIC_DATA = 0xFF
 296:Generated_Source\PSoC6\pdl\middleware\ble/cy_ble_gap.h **** }cy_en_ble_gap_adv_assign_numbers_t;
 297:Generated_Source\PSoC6\pdl\middleware\ble/cy_ble_gap.h **** 
 298:Generated_Source\PSoC6\pdl\middleware\ble/cy_ble_gap.h **** /** GAPP advertising configuration parameters structure */
 299:Generated_Source\PSoC6\pdl\middleware\ble/cy_ble_gap.h **** typedef struct
 300:Generated_Source\PSoC6\pdl\middleware\ble/cy_ble_gap.h **** {
 301:Generated_Source\PSoC6\pdl\middleware\ble/cy_ble_gap.h ****     /** The minimum interval for fast advertising the data and establishing the LE Connection */
 302:Generated_Source\PSoC6\pdl\middleware\ble/cy_ble_gap.h ****     uint16_t fastAdvIntervalMin;
 303:Generated_Source\PSoC6\pdl\middleware\ble/cy_ble_gap.h **** 
 304:Generated_Source\PSoC6\pdl\middleware\ble/cy_ble_gap.h ****     /** The maximum interval for fast advertising the data and establishing the LE Connection */
 305:Generated_Source\PSoC6\pdl\middleware\ble/cy_ble_gap.h ****     uint16_t fastAdvIntervalMax;
 306:Generated_Source\PSoC6\pdl\middleware\ble/cy_ble_gap.h **** 
 307:Generated_Source\PSoC6\pdl\middleware\ble/cy_ble_gap.h ****     /** The timeout value of  fast advertising with fast advertising interval parameters */
 308:Generated_Source\PSoC6\pdl\middleware\ble/cy_ble_gap.h ****     uint16_t fastAdvTimeOut;
 309:Generated_Source\PSoC6\pdl\middleware\ble/cy_ble_gap.h **** 
 310:Generated_Source\PSoC6\pdl\middleware\ble/cy_ble_gap.h ****     /** Slow advertising enable */
 311:Generated_Source\PSoC6\pdl\middleware\ble/cy_ble_gap.h ****     uint8_t  slowAdvEnable;
 312:Generated_Source\PSoC6\pdl\middleware\ble/cy_ble_gap.h **** 
 313:Generated_Source\PSoC6\pdl\middleware\ble/cy_ble_gap.h ****     /** The minimum interval for slow advertising the data and establishing the LE Connection */
 314:Generated_Source\PSoC6\pdl\middleware\ble/cy_ble_gap.h ****     uint16_t slowAdvIntervalMin;
 315:Generated_Source\PSoC6\pdl\middleware\ble/cy_ble_gap.h **** 
 316:Generated_Source\PSoC6\pdl\middleware\ble/cy_ble_gap.h ****     /** The maximum interval for slow  advertising the data and establishing the LE Connection */
 317:Generated_Source\PSoC6\pdl\middleware\ble/cy_ble_gap.h ****     uint16_t slowAdvIntervalMax;
 318:Generated_Source\PSoC6\pdl\middleware\ble/cy_ble_gap.h **** 
 319:Generated_Source\PSoC6\pdl\middleware\ble/cy_ble_gap.h ****     /** The timeout value of slow advertising with slow advertising interval parameters */
 320:Generated_Source\PSoC6\pdl\middleware\ble/cy_ble_gap.h ****     uint16_t slowAdvTimeOut;
 321:Generated_Source\PSoC6\pdl\middleware\ble/cy_ble_gap.h **** }cy_stc_ble_gapp_adv_params_t;
 322:Generated_Source\PSoC6\pdl\middleware\ble/cy_ble_gap.h **** 
 323:Generated_Source\PSoC6\pdl\middleware\ble/cy_ble_gap.h **** /** GAPC advertising configuration parameters structure */
 324:Generated_Source\PSoC6\pdl\middleware\ble/cy_ble_gap.h **** typedef struct
 325:Generated_Source\PSoC6\pdl\middleware\ble/cy_ble_gap.h **** {
 326:Generated_Source\PSoC6\pdl\middleware\ble/cy_ble_gap.h ****     /** The scan interval when operating in Fast connection */
 327:Generated_Source\PSoC6\pdl\middleware\ble/cy_ble_gap.h ****     uint16_t fastScanInterval;
 328:Generated_Source\PSoC6\pdl\middleware\ble/cy_ble_gap.h **** 
 329:Generated_Source\PSoC6\pdl\middleware\ble/cy_ble_gap.h ****     /** Defines the scan window when operating in Fast connection */
 330:Generated_Source\PSoC6\pdl\middleware\ble/cy_ble_gap.h ****     uint16_t fastScanWindow;
 331:Generated_Source\PSoC6\pdl\middleware\ble/cy_ble_gap.h **** 
 332:Generated_Source\PSoC6\pdl\middleware\ble/cy_ble_gap.h ****     /** The timeout value of scanning with fast scan parameters */
 333:Generated_Source\PSoC6\pdl\middleware\ble/cy_ble_gap.h ****     uint16_t fastScanTimeOut;
 334:Generated_Source\PSoC6\pdl\middleware\ble/cy_ble_gap.h **** 
 335:Generated_Source\PSoC6\pdl\middleware\ble/cy_ble_gap.h ****     /** Slow scan enable/disable */
 336:Generated_Source\PSoC6\pdl\middleware\ble/cy_ble_gap.h ****     uint8_t  slowScanEnabled;
 337:Generated_Source\PSoC6\pdl\middleware\ble/cy_ble_gap.h **** 
 338:Generated_Source\PSoC6\pdl\middleware\ble/cy_ble_gap.h ****     /** The scan interval when operating in Slow connection */
 339:Generated_Source\PSoC6\pdl\middleware\ble/cy_ble_gap.h ****     uint16_t slowScanInterval;
 340:Generated_Source\PSoC6\pdl\middleware\ble/cy_ble_gap.h **** 
 341:Generated_Source\PSoC6\pdl\middleware\ble/cy_ble_gap.h ****     /** Defines the scan window when operating in Slow connection */
 342:Generated_Source\PSoC6\pdl\middleware\ble/cy_ble_gap.h ****     uint16_t slowScanWindow;
 343:Generated_Source\PSoC6\pdl\middleware\ble/cy_ble_gap.h **** 
 344:Generated_Source\PSoC6\pdl\middleware\ble/cy_ble_gap.h ****     /** The timeout value of scanning with Slow scan parameters */
 345:Generated_Source\PSoC6\pdl\middleware\ble/cy_ble_gap.h ****     uint16_t slowScanTimeOut;
 346:Generated_Source\PSoC6\pdl\middleware\ble/cy_ble_gap.h **** 
 347:Generated_Source\PSoC6\pdl\middleware\ble/cy_ble_gap.h ****     /** The minimum permissible connection time value to be used during a connection event */
ARM GAS  C:\Users\Smaug\AppData\Local\Temp\ccVZzAJS.s 			page 26


 348:Generated_Source\PSoC6\pdl\middleware\ble/cy_ble_gap.h ****     uint16_t gapcConnectionIntervalMin;
 349:Generated_Source\PSoC6\pdl\middleware\ble/cy_ble_gap.h **** 
 350:Generated_Source\PSoC6\pdl\middleware\ble/cy_ble_gap.h ****     /** The maximum permissible connection time value to be used during a connection event */
 351:Generated_Source\PSoC6\pdl\middleware\ble/cy_ble_gap.h ****     uint16_t gapcConnectionIntervalMax;
 352:Generated_Source\PSoC6\pdl\middleware\ble/cy_ble_gap.h **** 
 353:Generated_Source\PSoC6\pdl\middleware\ble/cy_ble_gap.h ****     /** Defines the maximum time between two received Data Packet PDUs before
 354:Generated_Source\PSoC6\pdl\middleware\ble/cy_ble_gap.h ****      *  the connection is considered lost */
 355:Generated_Source\PSoC6\pdl\middleware\ble/cy_ble_gap.h ****     uint16_t gapcConnectionSlaveLatency;
 356:Generated_Source\PSoC6\pdl\middleware\ble/cy_ble_gap.h **** 
 357:Generated_Source\PSoC6\pdl\middleware\ble/cy_ble_gap.h ****     /** Defines the LE link supervision timeout interval */
 358:Generated_Source\PSoC6\pdl\middleware\ble/cy_ble_gap.h ****     uint16_t gapcConnectionTimeOut;
 359:Generated_Source\PSoC6\pdl\middleware\ble/cy_ble_gap.h **** }cy_stc_ble_gapc_scan_params_t;
 360:Generated_Source\PSoC6\pdl\middleware\ble/cy_ble_gap.h **** 
 361:Generated_Source\PSoC6\pdl\middleware\ble/cy_ble_gap.h **** /** Store BLE Application Data parameter into flash */
 362:Generated_Source\PSoC6\pdl\middleware\ble/cy_ble_gap.h **** typedef struct
 363:Generated_Source\PSoC6\pdl\middleware\ble/cy_ble_gap.h **** {
 364:Generated_Source\PSoC6\pdl\middleware\ble/cy_ble_gap.h ****     /** Source buffer */
 365:Generated_Source\PSoC6\pdl\middleware\ble/cy_ble_gap.h ****     const uint8_t *srcBuff;
 366:Generated_Source\PSoC6\pdl\middleware\ble/cy_ble_gap.h **** 
 367:Generated_Source\PSoC6\pdl\middleware\ble/cy_ble_gap.h ****     /** Destination buffer */
 368:Generated_Source\PSoC6\pdl\middleware\ble/cy_ble_gap.h ****     const uint8_t *destAddr;
 369:Generated_Source\PSoC6\pdl\middleware\ble/cy_ble_gap.h **** 
 370:Generated_Source\PSoC6\pdl\middleware\ble/cy_ble_gap.h ****     /** Source buffer length */
 371:Generated_Source\PSoC6\pdl\middleware\ble/cy_ble_gap.h ****     uint32_t      buffLen;
 372:Generated_Source\PSoC6\pdl\middleware\ble/cy_ble_gap.h **** 
 373:Generated_Source\PSoC6\pdl\middleware\ble/cy_ble_gap.h ****     /** Write mode: blocking (default) / non-blocking */
 374:Generated_Source\PSoC6\pdl\middleware\ble/cy_ble_gap.h ****     uint32_t      writeMode;
 375:Generated_Source\PSoC6\pdl\middleware\ble/cy_ble_gap.h **** 
 376:Generated_Source\PSoC6\pdl\middleware\ble/cy_ble_gap.h **** } cy_stc_ble_app_flash_param_t;
 377:Generated_Source\PSoC6\pdl\middleware\ble/cy_ble_gap.h **** 
 378:Generated_Source\PSoC6\pdl\middleware\ble/cy_ble_gap.h **** /** @} group_ble_common_api_gap_definitions */
 379:Generated_Source\PSoC6\pdl\middleware\ble/cy_ble_gap.h **** 
 380:Generated_Source\PSoC6\pdl\middleware\ble/cy_ble_gap.h **** /***************************************
 381:Generated_Source\PSoC6\pdl\middleware\ble/cy_ble_gap.h **** * API Constants
 382:Generated_Source\PSoC6\pdl\middleware\ble/cy_ble_gap.h **** ***************************************/
 383:Generated_Source\PSoC6\pdl\middleware\ble/cy_ble_gap.h **** #define CY_BLE_AD_TYPE_MORE16UUID                  (0x02u)
 384:Generated_Source\PSoC6\pdl\middleware\ble/cy_ble_gap.h **** #define CY_BLE_AD_TYPE_CMPL16UUID                  (0x03u)
 385:Generated_Source\PSoC6\pdl\middleware\ble/cy_ble_gap.h **** #define CY_BLE_AD_TYPE_MORE32UUID                  (0x04u)
 386:Generated_Source\PSoC6\pdl\middleware\ble/cy_ble_gap.h **** #define CY_BLE_AD_TYPE_CMPL32UUID                  (0x05u)
 387:Generated_Source\PSoC6\pdl\middleware\ble/cy_ble_gap.h **** #define CY_BLE_AD_TYPE_MORE128UUID                 (0x06u)
 388:Generated_Source\PSoC6\pdl\middleware\ble/cy_ble_gap.h **** #define CY_BLE_AD_TYPE_CMPL128UUID                 (0x07u)
 389:Generated_Source\PSoC6\pdl\middleware\ble/cy_ble_gap.h **** 
 390:Generated_Source\PSoC6\pdl\middleware\ble/cy_ble_gap.h **** #define CY_BLE_AD_TYPE_SERVICE_DATA                (0x16u)
 391:Generated_Source\PSoC6\pdl\middleware\ble/cy_ble_gap.h **** #define CY_BLE_AD_SERVICE_DATA_OVERHEAD            (0x03u)
 392:Generated_Source\PSoC6\pdl\middleware\ble/cy_ble_gap.h **** 
 393:Generated_Source\PSoC6\pdl\middleware\ble/cy_ble_gap.h **** #define CY_BLE_DISCOVERY_IDLE                      (0x00u)
 394:Generated_Source\PSoC6\pdl\middleware\ble/cy_ble_gap.h **** #define CY_BLE_DISCOVERY_SERVICE                   (0x01u)
 395:Generated_Source\PSoC6\pdl\middleware\ble/cy_ble_gap.h **** #define CY_BLE_DISCOVERY_CHAR                      (0x02u)
 396:Generated_Source\PSoC6\pdl\middleware\ble/cy_ble_gap.h **** #define CY_BLE_DISCOVERY_DESCR                     (0x03u)
 397:Generated_Source\PSoC6\pdl\middleware\ble/cy_ble_gap.h **** #define CY_BLE_DISCOVERY_DONE                      (0x04u)
 398:Generated_Source\PSoC6\pdl\middleware\ble/cy_ble_gap.h **** 
 399:Generated_Source\PSoC6\pdl\middleware\ble/cy_ble_gap.h **** /* Cy_BLE_NextCharDscrDiscovery parameters */
 400:Generated_Source\PSoC6\pdl\middleware\ble/cy_ble_gap.h **** #define CY_BLE_DISCOVERY_INIT                      (0x00u)
 401:Generated_Source\PSoC6\pdl\middleware\ble/cy_ble_gap.h **** #define CY_BLE_DISCOVERY_CONTINUE                  (0x01u)
 402:Generated_Source\PSoC6\pdl\middleware\ble/cy_ble_gap.h **** 
 403:Generated_Source\PSoC6\pdl\middleware\ble/cy_ble_gap.h **** #define CY_BLE_SFLASH_DIE_X_MASK                   (0x3Fu)
 404:Generated_Source\PSoC6\pdl\middleware\ble/cy_ble_gap.h **** #define CY_BLE_SFLASH_DIE_X_BITS                   (6u)
ARM GAS  C:\Users\Smaug\AppData\Local\Temp\ccVZzAJS.s 			page 27


 405:Generated_Source\PSoC6\pdl\middleware\ble/cy_ble_gap.h **** #define CY_BLE_SFLASH_DIE_Y_MASK                   (0x3Fu)
 406:Generated_Source\PSoC6\pdl\middleware\ble/cy_ble_gap.h **** #define CY_BLE_SFLASH_DIE_Y_BITS                   (6u)
 407:Generated_Source\PSoC6\pdl\middleware\ble/cy_ble_gap.h **** #define CY_BLE_SFLASH_DIE_XY_BITS                  (CY_BLE_SFLASH_DIE_X_BITS + CY_BLE_SFLASH_DIE_Y_
 408:Generated_Source\PSoC6\pdl\middleware\ble/cy_ble_gap.h **** #define CY_BLE_SFLASH_DIE_WAFER_MASK               (0x1Fu)
 409:Generated_Source\PSoC6\pdl\middleware\ble/cy_ble_gap.h **** #define CY_BLE_SFLASH_DIE_WAFER_BITS               (5u)
 410:Generated_Source\PSoC6\pdl\middleware\ble/cy_ble_gap.h **** #define CY_BLE_SFLASH_DIE_XYWAFER_BITS             (CY_BLE_SFLASH_DIE_XY_BITS + CY_BLE_SFLASH_DIE_W
 411:Generated_Source\PSoC6\pdl\middleware\ble/cy_ble_gap.h **** #define CY_BLE_SFLASH_DIE_LOT_MASK                 (0x7Fu)
 412:Generated_Source\PSoC6\pdl\middleware\ble/cy_ble_gap.h **** #define CY_BLE_SFLASH_DIE_LOT_BITS                 (7u)
 413:Generated_Source\PSoC6\pdl\middleware\ble/cy_ble_gap.h **** 
 414:Generated_Source\PSoC6\pdl\middleware\ble/cy_ble_gap.h **** /* Device address stored by user in ROW4 of the SFLASH */
 415:Generated_Source\PSoC6\pdl\middleware\ble/cy_ble_gap.h **** #define CY_BLE_SFLASH_DEVICE_ADDRESS_PTR           ((cy_stc_ble_gap_bd_addr_t*)(SFLASH->BLE_DEVICE_
 416:Generated_Source\PSoC6\pdl\middleware\ble/cy_ble_gap.h **** #define CY_BLE_AD_STRUCTURE_MAX_LENGTH             (31u)
 417:Generated_Source\PSoC6\pdl\middleware\ble/cy_ble_gap.h **** 
 418:Generated_Source\PSoC6\pdl\middleware\ble/cy_ble_gap.h **** /* AD types for complete, shortened local name and device address */
 419:Generated_Source\PSoC6\pdl\middleware\ble/cy_ble_gap.h **** #define CY_BLE_SHORT_LOCAL_NAME                    (0x08u)  /**< Shortened Local Name */
 420:Generated_Source\PSoC6\pdl\middleware\ble/cy_ble_gap.h **** #define CY_BLE_COMPLETE_LOCAL_NAME                 (0x09u)  /**< Complete Local Name */
 421:Generated_Source\PSoC6\pdl\middleware\ble/cy_ble_gap.h **** #define CY_BLE_ADV_DEVICE_ADDR                     (0x1Bu)  /**< LE Bluetooth Device Address */
 422:Generated_Source\PSoC6\pdl\middleware\ble/cy_ble_gap.h **** 
 423:Generated_Source\PSoC6\pdl\middleware\ble/cy_ble_gap.h **** #define CY_BLE_ADVERTISING_FAST                    (0x00u)
 424:Generated_Source\PSoC6\pdl\middleware\ble/cy_ble_gap.h **** #define CY_BLE_ADVERTISING_SLOW                    (0x01u)
 425:Generated_Source\PSoC6\pdl\middleware\ble/cy_ble_gap.h **** #define CY_BLE_ADVERTISING_CUSTOM                  (0x02u)
 426:Generated_Source\PSoC6\pdl\middleware\ble/cy_ble_gap.h **** 
 427:Generated_Source\PSoC6\pdl\middleware\ble/cy_ble_gap.h **** #define CY_BLE_SCANNING_FAST                       (0x00u)
 428:Generated_Source\PSoC6\pdl\middleware\ble/cy_ble_gap.h **** #define CY_BLE_SCANNING_SLOW                       (0x01u)
 429:Generated_Source\PSoC6\pdl\middleware\ble/cy_ble_gap.h **** #define CY_BLE_SCANNING_CUSTOM                     (0x02u)
 430:Generated_Source\PSoC6\pdl\middleware\ble/cy_ble_gap.h **** 
 431:Generated_Source\PSoC6\pdl\middleware\ble/cy_ble_gap.h **** #define CY_BLE_PENDING_STACK_FLASH_WRITE_BIT       (0x01u)
 432:Generated_Source\PSoC6\pdl\middleware\ble/cy_ble_gap.h **** #define CY_BLE_PENDING_CCCD_FLASH_WRITE_BIT        (0x02u)
 433:Generated_Source\PSoC6\pdl\middleware\ble/cy_ble_gap.h **** #define CY_BLE_PENDING_CCCD_FLASH_CLEAR_BIT        (0x04u)
 434:Generated_Source\PSoC6\pdl\middleware\ble/cy_ble_gap.h **** #define CY_BLE_PENDING_CCCD_FLASH_CLEAR_ALL_BIT    (0x08u)
 435:Generated_Source\PSoC6\pdl\middleware\ble/cy_ble_gap.h **** #define CY_BLE_PENDING_CCCD_FLASH_CLEAR_MASK \
 436:Generated_Source\PSoC6\pdl\middleware\ble/cy_ble_gap.h ****     (CY_BLE_PENDING_CCCD_FLASH_CLEAR_BIT | CY_BLE_PENDING_CCCD_FLASH_CLEAR_ALL_BIT)
 437:Generated_Source\PSoC6\pdl\middleware\ble/cy_ble_gap.h **** 
 438:Generated_Source\PSoC6\pdl\middleware\ble/cy_ble_gap.h **** /**
 439:Generated_Source\PSoC6\pdl\middleware\ble/cy_ble_gap.h ****  * \addtogroup group_ble_common_api_macros
 440:Generated_Source\PSoC6\pdl\middleware\ble/cy_ble_gap.h ****  * @{
 441:Generated_Source\PSoC6\pdl\middleware\ble/cy_ble_gap.h ****  */
 442:Generated_Source\PSoC6\pdl\middleware\ble/cy_ble_gap.h **** 
 443:Generated_Source\PSoC6\pdl\middleware\ble/cy_ble_gap.h **** /* GAP Advertisement Flags */
 444:Generated_Source\PSoC6\pdl\middleware\ble/cy_ble_gap.h **** #define CY_BLE_GAP_ADV_FLAG_LE_LIMITED_DISC_MODE        (0x01u)     /**< LE Limited Discoverable Mo
 445:Generated_Source\PSoC6\pdl\middleware\ble/cy_ble_gap.h **** #define CY_BLE_GAP_ADV_FLAG_LE_GENERAL_DISC_MODE        (0x02u)     /**< LE General Discoverable Mo
 446:Generated_Source\PSoC6\pdl\middleware\ble/cy_ble_gap.h **** #define CY_BLE_GAP_ADV_FLAG_BR_EDR_NOT_SUPPORTED        (0x04u)     /**< BR/EDR not supported. */
 447:Generated_Source\PSoC6\pdl\middleware\ble/cy_ble_gap.h **** #define CY_BLE_GAP_ADV_FLAG_LE_BR_EDR_CONTROLLER        (0x08u)     /**< Simultaneous LE and BR/EDR
 448:Generated_Source\PSoC6\pdl\middleware\ble/cy_ble_gap.h **** #define CY_BLE_GAP_ADV_FLAG_LE_BR_EDR_HOST              (0x10u)     /**< Simultaneous LE and BR/EDR
 449:Generated_Source\PSoC6\pdl\middleware\ble/cy_ble_gap.h **** #define CY_BLE_GAP_ADV_FLAGS_PACKET_LENGTH              (0x02u)     /**< Length of flags in an adve
 450:Generated_Source\PSoC6\pdl\middleware\ble/cy_ble_gap.h **** 
 451:Generated_Source\PSoC6\pdl\middleware\ble/cy_ble_gap.h **** /* GAP Advertising interval min and max */
 452:Generated_Source\PSoC6\pdl\middleware\ble/cy_ble_gap.h **** #define CY_BLE_GAP_ADV_ADVERT_INTERVAL_MIN              (0x0020u)   /**< Minimum Advertising interv
 453:Generated_Source\PSoC6\pdl\middleware\ble/cy_ble_gap.h ****                                                                      *   i.e. 20 ms. */
 454:Generated_Source\PSoC6\pdl\middleware\ble/cy_ble_gap.h **** #define CY_BLE_GAP_ADV_ADVERT_INTERVAL_NONCON_MIN       (0x00A0u)   /**< Minimum Advertising interv
 455:Generated_Source\PSoC6\pdl\middleware\ble/cy_ble_gap.h ****                                                                      *   for non connectable mode, 
 456:Generated_Source\PSoC6\pdl\middleware\ble/cy_ble_gap.h **** #define CY_BLE_GAP_ADV_ADVERT_INTERVAL_MAX              (0x4000u)   /**< Maximum Advertising interv
 457:Generated_Source\PSoC6\pdl\middleware\ble/cy_ble_gap.h ****                                                                      *   i.e. 10.24 s. */
 458:Generated_Source\PSoC6\pdl\middleware\ble/cy_ble_gap.h **** #define CY_BLE_GAP_ADV_ADVERT_INTERVAL_PACKET_LENGTH    (0x03u)     /**< Length of the Advertising 
 459:Generated_Source\PSoC6\pdl\middleware\ble/cy_ble_gap.h ****                                                                      *   an advertisement packet */
 460:Generated_Source\PSoC6\pdl\middleware\ble/cy_ble_gap.h **** #define CY_BLE_GAPC_CONNECTING_TIMEOUT                  (30u)       /**< Seconds */
 461:Generated_Source\PSoC6\pdl\middleware\ble/cy_ble_gap.h **** #define CY_BLE_INVALID_CONN_HANDLE_VALUE                (0xFFu)     /**< Invalid Connection Handle 
ARM GAS  C:\Users\Smaug\AppData\Local\Temp\ccVZzAJS.s 			page 28


 462:Generated_Source\PSoC6\pdl\middleware\ble/cy_ble_gap.h **** 
 463:Generated_Source\PSoC6\pdl\middleware\ble/cy_ble_gap.h **** /* Write mode for Cy_BLE_StoreAppData */
 464:Generated_Source\PSoC6\pdl\middleware\ble/cy_ble_gap.h **** #define CY_BLE_STORE_DATA_MODE_BLOCKING                 (0x0u)      /**< Blocking write */
 465:Generated_Source\PSoC6\pdl\middleware\ble/cy_ble_gap.h **** #define CY_BLE_STORE_DATA_MODE_NON_BLOCKING             (0x1u)      /**< Non-blocking write */
 466:Generated_Source\PSoC6\pdl\middleware\ble/cy_ble_gap.h **** 
 467:Generated_Source\PSoC6\pdl\middleware\ble/cy_ble_gap.h **** /** @} group_ble_common_api_macros */
 468:Generated_Source\PSoC6\pdl\middleware\ble/cy_ble_gap.h **** 
 469:Generated_Source\PSoC6\pdl\middleware\ble/cy_ble_gap.h **** /***************************************
 470:Generated_Source\PSoC6\pdl\middleware\ble/cy_ble_gap.h **** * Private Function Prototypes
 471:Generated_Source\PSoC6\pdl\middleware\ble/cy_ble_gap.h **** ***************************************/
 472:Generated_Source\PSoC6\pdl\middleware\ble/cy_ble_gap.h **** void Cy_BLE_ServiceInit(void);
 473:Generated_Source\PSoC6\pdl\middleware\ble/cy_ble_gap.h **** uint32_t Cy_BLE_GetDiscoveryIdx(cy_stc_ble_conn_handle_t connHandle);
 474:Generated_Source\PSoC6\pdl\middleware\ble/cy_ble_gap.h **** 
 475:Generated_Source\PSoC6\pdl\middleware\ble/cy_ble_gap.h **** /***************************************
 476:Generated_Source\PSoC6\pdl\middleware\ble/cy_ble_gap.h **** * Function Prototypes
 477:Generated_Source\PSoC6\pdl\middleware\ble/cy_ble_gap.h **** ***************************************/
 478:Generated_Source\PSoC6\pdl\middleware\ble/cy_ble_gap.h **** /**
 479:Generated_Source\PSoC6\pdl\middleware\ble/cy_ble_gap.h ****  * \addtogroup group_ble_common_api_functions
 480:Generated_Source\PSoC6\pdl\middleware\ble/cy_ble_gap.h ****  * @{
 481:Generated_Source\PSoC6\pdl\middleware\ble/cy_ble_gap.h ****  */
 482:Generated_Source\PSoC6\pdl\middleware\ble/cy_ble_gap.h **** 
 483:Generated_Source\PSoC6\pdl\middleware\ble/cy_ble_gap.h **** cy_en_ble_api_result_t Cy_BLE_StoreAppData(const cy_stc_ble_app_flash_param_t *param);
 484:Generated_Source\PSoC6\pdl\middleware\ble/cy_ble_gap.h **** 
 485:Generated_Source\PSoC6\pdl\middleware\ble/cy_ble_gap.h **** #if ((CY_BLE_GAP_ROLE_PERIPHERAL || CY_BLE_GAP_ROLE_CENTRAL) && (CY_BLE_BONDING_REQUIREMENT == CY_B
 486:Generated_Source\PSoC6\pdl\middleware\ble/cy_ble_gap.h **** cy_en_ble_api_result_t Cy_BLE_StoreBondingData(void);
 487:Generated_Source\PSoC6\pdl\middleware\ble/cy_ble_gap.h **** cy_en_ble_api_result_t Cy_BLE_GAP_RemoveBondedDevice(cy_stc_ble_gap_bd_addr_t* bdAddr);
 488:Generated_Source\PSoC6\pdl\middleware\ble/cy_ble_gap.h **** #endif /* (CY_BLE_GAP_ROLE_PERIPHERAL || CY_BLE_GAP_ROLE_CENTRAL) && (CY_BLE_BONDING_REQUIREMENT ==
 489:Generated_Source\PSoC6\pdl\middleware\ble/cy_ble_gap.h **** 
 490:Generated_Source\PSoC6\pdl\middleware\ble/cy_ble_gap.h **** #if (CY_BLE_GAP_ROLE_PERIPHERAL || CY_BLE_GAP_ROLE_CENTRAL)
 491:Generated_Source\PSoC6\pdl\middleware\ble/cy_ble_gap.h **** bool Cy_BLE_IsPeerConnected(uint8_t *bdAddr);
 492:Generated_Source\PSoC6\pdl\middleware\ble/cy_ble_gap.h **** bool Cy_BLE_IsDevicePaired(cy_stc_ble_conn_handle_t *connHandle);
 493:Generated_Source\PSoC6\pdl\middleware\ble/cy_ble_gap.h **** uint8_t Cy_BLE_GetDeviceRole(cy_stc_ble_conn_handle_t *connHandle);
 494:Generated_Source\PSoC6\pdl\middleware\ble/cy_ble_gap.h **** 
 495:Generated_Source\PSoC6\pdl\middleware\ble/cy_ble_gap.h **** cy_en_ble_api_result_t Cy_BLE_GetRssiPeer(uint8_t  bdHandle);
 496:Generated_Source\PSoC6\pdl\middleware\ble/cy_ble_gap.h **** #endif /* (CY_BLE_GAP_ROLE_PERIPHERAL || CY_BLE_GAP_ROLE_CENTRAL) */
 497:Generated_Source\PSoC6\pdl\middleware\ble/cy_ble_gap.h **** /** @} group_ble_common_api_functions */
 498:Generated_Source\PSoC6\pdl\middleware\ble/cy_ble_gap.h **** 
 499:Generated_Source\PSoC6\pdl\middleware\ble/cy_ble_gap.h **** /**
 500:Generated_Source\PSoC6\pdl\middleware\ble/cy_ble_gap.h ****  * \addtogroup group_ble_common_api_gap_peripheral_functions
 501:Generated_Source\PSoC6\pdl\middleware\ble/cy_ble_gap.h ****  * @{
 502:Generated_Source\PSoC6\pdl\middleware\ble/cy_ble_gap.h ****  */
 503:Generated_Source\PSoC6\pdl\middleware\ble/cy_ble_gap.h **** 
 504:Generated_Source\PSoC6\pdl\middleware\ble/cy_ble_gap.h **** #if (CY_BLE_GAP_ROLE_PERIPHERAL || CY_BLE_GAP_ROLE_BROADCASTER)
 505:Generated_Source\PSoC6\pdl\middleware\ble/cy_ble_gap.h **** cy_en_ble_api_result_t Cy_BLE_GAPP_StartAdvertisement(uint8_t advertisingIntervalType, uint8_t adve
 506:Generated_Source\PSoC6\pdl\middleware\ble/cy_ble_gap.h **** cy_en_ble_api_result_t Cy_BLE_GAPP_StopAdvertisement(void);
 507:Generated_Source\PSoC6\pdl\middleware\ble/cy_ble_gap.h **** 
 508:Generated_Source\PSoC6\pdl\middleware\ble/cy_ble_gap.h **** /** \cond IGNORE */
 509:Generated_Source\PSoC6\pdl\middleware\ble/cy_ble_gap.h **** void Cy_BLE_ChangeAdDeviceAddress(const cy_stc_ble_gap_bd_addr_t* bdAddr, uint8_t dest);
 510:Generated_Source\PSoC6\pdl\middleware\ble/cy_ble_gap.h **** /** \endcond */
 511:Generated_Source\PSoC6\pdl\middleware\ble/cy_ble_gap.h **** 
 512:Generated_Source\PSoC6\pdl\middleware\ble/cy_ble_gap.h **** #endif /* CY_BLE_GAP_ROLE_PERIPHERAL */
 513:Generated_Source\PSoC6\pdl\middleware\ble/cy_ble_gap.h **** 
 514:Generated_Source\PSoC6\pdl\middleware\ble/cy_ble_gap.h **** /** @} group_ble_common_api_gap_peripheral_functions */
 515:Generated_Source\PSoC6\pdl\middleware\ble/cy_ble_gap.h **** 
 516:Generated_Source\PSoC6\pdl\middleware\ble/cy_ble_gap.h **** /**
 517:Generated_Source\PSoC6\pdl\middleware\ble/cy_ble_gap.h ****  * \addtogroup group_ble_common_api_gap_central_functions
 518:Generated_Source\PSoC6\pdl\middleware\ble/cy_ble_gap.h ****  * @{
ARM GAS  C:\Users\Smaug\AppData\Local\Temp\ccVZzAJS.s 			page 29


 519:Generated_Source\PSoC6\pdl\middleware\ble/cy_ble_gap.h ****  */
 520:Generated_Source\PSoC6\pdl\middleware\ble/cy_ble_gap.h **** 
 521:Generated_Source\PSoC6\pdl\middleware\ble/cy_ble_gap.h **** #if (CY_BLE_GAP_ROLE_CENTRAL || CY_BLE_GAP_ROLE_OBSERVER)
 522:Generated_Source\PSoC6\pdl\middleware\ble/cy_ble_gap.h **** cy_en_ble_api_result_t Cy_BLE_GAPC_StartScan(uint8_t scanningIntervalType, uint8_t scanParamIndex);
 523:Generated_Source\PSoC6\pdl\middleware\ble/cy_ble_gap.h **** cy_en_ble_api_result_t Cy_BLE_GAPC_StopScan(void);
 524:Generated_Source\PSoC6\pdl\middleware\ble/cy_ble_gap.h **** #endif /* CY_BLE_GAP_ROLE_CENTRAL || CY_BLE_GAP_ROLE_OBSERVER */
 525:Generated_Source\PSoC6\pdl\middleware\ble/cy_ble_gap.h **** 
 526:Generated_Source\PSoC6\pdl\middleware\ble/cy_ble_gap.h **** #if (CY_BLE_GAP_ROLE_CENTRAL)
 527:Generated_Source\PSoC6\pdl\middleware\ble/cy_ble_gap.h **** cy_en_ble_api_result_t Cy_BLE_GAPC_ConnectDevice(const cy_stc_ble_gap_bd_addr_t * address, uint8_t 
 528:Generated_Source\PSoC6\pdl\middleware\ble/cy_ble_gap.h **** cy_en_ble_api_result_t Cy_BLE_GAPC_CancelDeviceConnection(void);
 529:Generated_Source\PSoC6\pdl\middleware\ble/cy_ble_gap.h **** #endif /* CY_BLE_GAP_ROLE_CENTRAL */
 530:Generated_Source\PSoC6\pdl\middleware\ble/cy_ble_gap.h **** 
 531:Generated_Source\PSoC6\pdl\middleware\ble/cy_ble_gap.h **** /** @} group_ble_common_api_gap_central_functions */
 532:Generated_Source\PSoC6\pdl\middleware\ble/cy_ble_gap.h **** 
 533:Generated_Source\PSoC6\pdl\middleware\ble/cy_ble_gap.h **** /***************************************
 534:Generated_Source\PSoC6\pdl\middleware\ble/cy_ble_gap.h **** * External data references
 535:Generated_Source\PSoC6\pdl\middleware\ble/cy_ble_gap.h **** ***************************************/
 536:Generated_Source\PSoC6\pdl\middleware\ble/cy_ble_gap.h **** extern volatile uint8_t cy_ble_eventHandlerFlag;
 537:Generated_Source\PSoC6\pdl\middleware\ble/cy_ble_gap.h **** extern cy_stc_ble_gap_bd_addr_t *cy_ble_sflashDeviceAddress;
 538:Generated_Source\PSoC6\pdl\middleware\ble/cy_ble_gap.h **** extern cy_stc_ble_gap_bd_addr_t cy_ble_deviceAddress;
 539:Generated_Source\PSoC6\pdl\middleware\ble/cy_ble_gap.h **** extern cy_en_ble_state_t cy_ble_state;
 540:Generated_Source\PSoC6\pdl\middleware\ble/cy_ble_gap.h **** 
 541:Generated_Source\PSoC6\pdl\middleware\ble/cy_ble_gap.h **** #if ((CY_BLE_GAP_ROLE_PERIPHERAL || CY_BLE_GAP_ROLE_CENTRAL))
 542:Generated_Source\PSoC6\pdl\middleware\ble/cy_ble_gap.h **** extern cy_stc_ble_gap_auth_info_t cy_ble_authInfo[CY_BLE_AUTH_INFO_COUNT];
 543:Generated_Source\PSoC6\pdl\middleware\ble/cy_ble_gap.h **** #endif /* ((CY_BLE_GAP_ROLE_PERIPHERAL || CY_BLE_GAP_ROLE_CENTRAL)) */
 544:Generated_Source\PSoC6\pdl\middleware\ble/cy_ble_gap.h **** 
 545:Generated_Source\PSoC6\pdl\middleware\ble/cy_ble_gap.h **** #if (CY_BLE_GAP_ROLE_PERIPHERAL || CY_BLE_GAP_ROLE_BROADCASTER)
 546:Generated_Source\PSoC6\pdl\middleware\ble/cy_ble_gap.h **** extern cy_en_ble_adv_state_t cy_ble_advState;
 547:Generated_Source\PSoC6\pdl\middleware\ble/cy_ble_gap.h **** extern uint8_t cy_ble_advIndex;
 548:Generated_Source\PSoC6\pdl\middleware\ble/cy_ble_gap.h **** #endif  /* (CY_BLE_GAP_ROLE_PERIPHERAL || CY_BLE_GAP_ROLE_BROADCASTER) */
 549:Generated_Source\PSoC6\pdl\middleware\ble/cy_ble_gap.h **** 
 550:Generated_Source\PSoC6\pdl\middleware\ble/cy_ble_gap.h **** #if (CY_BLE_GAP_ROLE_CENTRAL || CY_BLE_GAP_ROLE_OBSERVER)
 551:Generated_Source\PSoC6\pdl\middleware\ble/cy_ble_gap.h **** extern cy_en_ble_scan_state_t cy_ble_scanState;
 552:Generated_Source\PSoC6\pdl\middleware\ble/cy_ble_gap.h **** extern uint8_t cy_ble_scanIndex;
 553:Generated_Source\PSoC6\pdl\middleware\ble/cy_ble_gap.h **** #endif /* (CY_BLE_GAP_ROLE_CENTRAL || CY_BLE_GAP_ROLE_OBSERVER) */
 554:Generated_Source\PSoC6\pdl\middleware\ble/cy_ble_gap.h **** 
 555:Generated_Source\PSoC6\pdl\middleware\ble/cy_ble_gap.h **** #if ((CY_BLE_GAP_ROLE_PERIPHERAL || CY_BLE_GAP_ROLE_CENTRAL))
 556:Generated_Source\PSoC6\pdl\middleware\ble/cy_ble_gap.h **** extern cy_stc_ble_conn_handle_t cy_ble_connHandle[CY_BLE_CONN_COUNT];
 557:Generated_Source\PSoC6\pdl\middleware\ble/cy_ble_gap.h **** extern cy_en_ble_conn_state_t cy_ble_connState[CY_BLE_CONN_COUNT];
 558:Generated_Source\PSoC6\pdl\middleware\ble/cy_ble_gap.h **** 
 559:Generated_Source\PSoC6\pdl\middleware\ble/cy_ble_gap.h **** extern volatile uint8_t cy_ble_devConnRole[CY_BLE_CONN_COUNT];
 560:Generated_Source\PSoC6\pdl\middleware\ble/cy_ble_gap.h **** extern volatile bool cy_ble_pairStatus[CY_BLE_CONN_COUNT];
 561:Generated_Source\PSoC6\pdl\middleware\ble/cy_ble_gap.h **** 
 562:Generated_Source\PSoC6\pdl\middleware\ble/cy_ble_gap.h **** #endif /* ((CY_BLE_GAP_ROLE_PERIPHERAL || CY_BLE_GAP_ROLE_CENTRAL)) */
 563:Generated_Source\PSoC6\pdl\middleware\ble/cy_ble_gap.h **** 
 564:Generated_Source\PSoC6\pdl\middleware\ble/cy_ble_gap.h **** #if (CY_BLE_GAP_ROLE_CENTRAL || CY_BLE_GAP_ROLE_OBSERVER)
 565:Generated_Source\PSoC6\pdl\middleware\ble/cy_ble_gap.h **** extern cy_stc_ble_gapc_disc_info_t cy_ble_discoveryInfo[CY_BLE_GAPC_CONF_COUNT];
 566:Generated_Source\PSoC6\pdl\middleware\ble/cy_ble_gap.h **** #endif /* CY_BLE_GAP_ROLE_CENTRAL || CY_BLE_GAP_ROLE_OBSERVER */
 567:Generated_Source\PSoC6\pdl\middleware\ble/cy_ble_gap.h **** 
 568:Generated_Source\PSoC6\pdl\middleware\ble/cy_ble_gap.h **** #if (CY_BLE_GAP_ROLE_CENTRAL)
 569:Generated_Source\PSoC6\pdl\middleware\ble/cy_ble_gap.h **** extern cy_stc_ble_gapc_conn_info_t cy_ble_connectionParameters;
 570:Generated_Source\PSoC6\pdl\middleware\ble/cy_ble_gap.h **** extern cy_stc_ble_timer_info_t cy_ble_connectingTimeout;
 571:Generated_Source\PSoC6\pdl\middleware\ble/cy_ble_gap.h **** #endif /* CY_BLE_GAP_ROLE_CENTRAL */
 572:Generated_Source\PSoC6\pdl\middleware\ble/cy_ble_gap.h **** 
 573:Generated_Source\PSoC6\pdl\middleware\ble/cy_ble_gap.h **** #if (CY_BLE_GAP_ROLE_PERIPHERAL || CY_BLE_GAP_ROLE_BROADCASTER)
 574:Generated_Source\PSoC6\pdl\middleware\ble/cy_ble_gap.h **** extern cy_stc_ble_gapp_disc_mode_info_t cy_ble_discoveryModeInfo[CY_BLE_GAPP_CONF_COUNT];
 575:Generated_Source\PSoC6\pdl\middleware\ble/cy_ble_gap.h **** extern cy_stc_ble_gapp_disc_param_t cy_ble_discoveryParam[CY_BLE_GAPP_CONF_COUNT];
ARM GAS  C:\Users\Smaug\AppData\Local\Temp\ccVZzAJS.s 			page 30


 576:Generated_Source\PSoC6\pdl\middleware\ble/cy_ble_gap.h **** extern cy_stc_ble_gapp_disc_data_t cy_ble_discoveryData[CY_BLE_GAPP_CONF_COUNT];
 577:Generated_Source\PSoC6\pdl\middleware\ble/cy_ble_gap.h **** extern cy_stc_ble_gapp_scan_rsp_data_t cy_ble_scanRspData[CY_BLE_GAPP_CONF_COUNT];
 578:Generated_Source\PSoC6\pdl\middleware\ble/cy_ble_gap.h **** #endif /* CY_BLE_GAP_ROLE_PERIPHERAL || CY_BLE_GAP_ROLE_BROADCASTER */
 579:Generated_Source\PSoC6\pdl\middleware\ble/cy_ble_gap.h **** 
 580:Generated_Source\PSoC6\pdl\middleware\ble/cy_ble_gap.h **** #if ((CY_BLE_GAP_ROLE_PERIPHERAL || CY_BLE_GAP_ROLE_CENTRAL) && (CY_BLE_BONDING_REQUIREMENT == CY_B
 581:Generated_Source\PSoC6\pdl\middleware\ble/cy_ble_gap.h **** 
 582:Generated_Source\PSoC6\pdl\middleware\ble/cy_ble_gap.h **** /**
 583:Generated_Source\PSoC6\pdl\middleware\ble/cy_ble_gap.h ****  * \addtogroup group_ble_common_api_global_variables
 584:Generated_Source\PSoC6\pdl\middleware\ble/cy_ble_gap.h ****  * @{
 585:Generated_Source\PSoC6\pdl\middleware\ble/cy_ble_gap.h ****  */
 586:Generated_Source\PSoC6\pdl\middleware\ble/cy_ble_gap.h **** /** This is a two-bit variable that contains status of pending write to flash operation.
 587:Generated_Source\PSoC6\pdl\middleware\ble/cy_ble_gap.h ****  * This variable is initialized to zero in Cy_BLE_Init().
 588:Generated_Source\PSoC6\pdl\middleware\ble/cy_ble_gap.h ****  * CY_BLE_PENDING_CCCD_FLASH_WRITE_BIT flag is set after write to CCCD event when a
 589:Generated_Source\PSoC6\pdl\middleware\ble/cy_ble_gap.h ****  * peer device supports bonding (cy_ble_peerBonding[eventParam->connHandle.attId] == CY_BLE_GAP_BON
 590:Generated_Source\PSoC6\pdl\middleware\ble/cy_ble_gap.h ****  * CY_BLE_PENDING_STACK_FLASH_WRITE_BIT flag is set after CY_BLE_EVT_PENDING_FLASH_WRITE event.
 591:Generated_Source\PSoC6\pdl\middleware\ble/cy_ble_gap.h ****  * Cy_BLE_StoreBondingData() should be called to store pending bonding data.
 592:Generated_Source\PSoC6\pdl\middleware\ble/cy_ble_gap.h ****  * This function automatically clears pending bits after write operation is complete.
 593:Generated_Source\PSoC6\pdl\middleware\ble/cy_ble_gap.h ****  */
 594:Generated_Source\PSoC6\pdl\middleware\ble/cy_ble_gap.h **** extern uint8_t cy_ble_pendingFlashWrite;
 595:Generated_Source\PSoC6\pdl\middleware\ble/cy_ble_gap.h **** /** @} group_ble_common_api_global_variables */
 596:Generated_Source\PSoC6\pdl\middleware\ble/cy_ble_gap.h **** 
 597:Generated_Source\PSoC6\pdl\middleware\ble/cy_ble_gap.h **** /** Bonding type setting of peer device, CY_BLE_GAP_BONDING_NONE or CY_BLE_GAP_BONDING.
 598:Generated_Source\PSoC6\pdl\middleware\ble/cy_ble_gap.h ****  * It is initialized after pairing with peer device and used for cy_ble_pendingFlashWrite variable
 599:Generated_Source\PSoC6\pdl\middleware\ble/cy_ble_gap.h ****  * setting.
 600:Generated_Source\PSoC6\pdl\middleware\ble/cy_ble_gap.h ****  */
 601:Generated_Source\PSoC6\pdl\middleware\ble/cy_ble_gap.h **** extern uint8_t cy_ble_peerBonding[CY_BLE_CONN_COUNT];
 602:Generated_Source\PSoC6\pdl\middleware\ble/cy_ble_gap.h **** 
 603:Generated_Source\PSoC6\pdl\middleware\ble/cy_ble_gap.h **** #endif  /* (CY_BLE_BONDING_REQUIREMENT == CY_BLE_BONDING_YES) */
 604:Generated_Source\PSoC6\pdl\middleware\ble/cy_ble_gap.h **** 
 605:Generated_Source\PSoC6\pdl\middleware\ble/cy_ble_gap.h **** 
 606:Generated_Source\PSoC6\pdl\middleware\ble/cy_ble_gap.h **** /***************************************
 607:Generated_Source\PSoC6\pdl\middleware\ble/cy_ble_gap.h **** * Exported Functions (MACROS)
 608:Generated_Source\PSoC6\pdl\middleware\ble/cy_ble_gap.h **** ***************************************/
 609:Generated_Source\PSoC6\pdl\middleware\ble/cy_ble_gap.h **** #if ((CY_BLE_GAP_ROLE_PERIPHERAL || CY_BLE_GAP_ROLE_CENTRAL))
 610:Generated_Source\PSoC6\pdl\middleware\ble/cy_ble_gap.h **** 
 611:Generated_Source\PSoC6\pdl\middleware\ble/cy_ble_gap.h **** /******************************************************************************
 612:Generated_Source\PSoC6\pdl\middleware\ble/cy_ble_gap.h **** * Function Name: Cy_BLE_GetConnHandleIdx
 613:Generated_Source\PSoC6\pdl\middleware\ble/cy_ble_gap.h **** ***************************************************************************//**
 614:Generated_Source\PSoC6\pdl\middleware\ble/cy_ble_gap.h **** *
 615:Generated_Source\PSoC6\pdl\middleware\ble/cy_ble_gap.h **** *  This function searches the array of connection handles (cy_ble_connHandle[])
 616:Generated_Source\PSoC6\pdl\middleware\ble/cy_ble_gap.h **** *  for the location (index) of a handle that corresponds to the input parameter
 617:Generated_Source\PSoC6\pdl\middleware\ble/cy_ble_gap.h **** *  connHandle. bdHandle.
 618:Generated_Source\PSoC6\pdl\middleware\ble/cy_ble_gap.h **** *
 619:Generated_Source\PSoC6\pdl\middleware\ble/cy_ble_gap.h **** *  This function is designated for internal usage.
 620:Generated_Source\PSoC6\pdl\middleware\ble/cy_ble_gap.h **** *
 621:Generated_Source\PSoC6\pdl\middleware\ble/cy_ble_gap.h **** *  \param connHandle: The connection handle.
 622:Generated_Source\PSoC6\pdl\middleware\ble/cy_ble_gap.h **** *
 623:Generated_Source\PSoC6\pdl\middleware\ble/cy_ble_gap.h **** *  \return
 624:Generated_Source\PSoC6\pdl\middleware\ble/cy_ble_gap.h **** *  retValue: the index of connHandle
 625:Generated_Source\PSoC6\pdl\middleware\ble/cy_ble_gap.h **** *
 626:Generated_Source\PSoC6\pdl\middleware\ble/cy_ble_gap.h **** ******************************************************************************/
 627:Generated_Source\PSoC6\pdl\middleware\ble/cy_ble_gap.h **** __STATIC_INLINE uint8_t Cy_BLE_GetConnHandleIdx(cy_stc_ble_conn_handle_t connHandle)
 628:Generated_Source\PSoC6\pdl\middleware\ble/cy_ble_gap.h **** {
 629:Generated_Source\PSoC6\pdl\middleware\ble/cy_ble_gap.h ****     uint8_t idx;
 630:Generated_Source\PSoC6\pdl\middleware\ble/cy_ble_gap.h ****     uint8_t retValue = CY_BLE_CONN_COUNT;
 631:Generated_Source\PSoC6\pdl\middleware\ble/cy_ble_gap.h **** 
 632:Generated_Source\PSoC6\pdl\middleware\ble/cy_ble_gap.h ****     for(idx = 0u; idx < CY_BLE_CONN_COUNT; idx++)
ARM GAS  C:\Users\Smaug\AppData\Local\Temp\ccVZzAJS.s 			page 31


 633:Generated_Source\PSoC6\pdl\middleware\ble/cy_ble_gap.h ****     {
 634:Generated_Source\PSoC6\pdl\middleware\ble/cy_ble_gap.h ****         if(cy_ble_connHandle[idx].bdHandle == connHandle.bdHandle)
 635:Generated_Source\PSoC6\pdl\middleware\ble/cy_ble_gap.h ****         {
 636:Generated_Source\PSoC6\pdl\middleware\ble/cy_ble_gap.h ****             retValue = idx;
 637:Generated_Source\PSoC6\pdl\middleware\ble/cy_ble_gap.h ****             break;
 638:Generated_Source\PSoC6\pdl\middleware\ble/cy_ble_gap.h ****         }
 639:Generated_Source\PSoC6\pdl\middleware\ble/cy_ble_gap.h ****     }
 640:Generated_Source\PSoC6\pdl\middleware\ble/cy_ble_gap.h ****     if(retValue == CY_BLE_CONN_COUNT)
 641:Generated_Source\PSoC6\pdl\middleware\ble/cy_ble_gap.h ****     {
 642:Generated_Source\PSoC6\pdl\middleware\ble/cy_ble_gap.h ****         /* HALT in debug mode */
 643:Generated_Source\PSoC6\pdl\middleware\ble/cy_ble_gap.h ****         CY_ASSERT(retValue != CY_BLE_CONN_COUNT);
 644:Generated_Source\PSoC6\pdl\middleware\ble/cy_ble_gap.h ****         retValue = 0u;
 645:Generated_Source\PSoC6\pdl\middleware\ble/cy_ble_gap.h ****     }
 646:Generated_Source\PSoC6\pdl\middleware\ble/cy_ble_gap.h **** 
 647:Generated_Source\PSoC6\pdl\middleware\ble/cy_ble_gap.h ****     return(retValue);
 648:Generated_Source\PSoC6\pdl\middleware\ble/cy_ble_gap.h **** }
 649:Generated_Source\PSoC6\pdl\middleware\ble/cy_ble_gap.h **** #endif  /* ((CY_BLE_GAP_ROLE_PERIPHERAL || CY_BLE_GAP_ROLE_CENTRAL)) */
 650:Generated_Source\PSoC6\pdl\middleware\ble/cy_ble_gap.h **** 
 651:Generated_Source\PSoC6\pdl\middleware\ble/cy_ble_gap.h **** /**
 652:Generated_Source\PSoC6\pdl\middleware\ble/cy_ble_gap.h ****  * \addtogroup group_ble_common_api_functions
 653:Generated_Source\PSoC6\pdl\middleware\ble/cy_ble_gap.h ****  * @{
 654:Generated_Source\PSoC6\pdl\middleware\ble/cy_ble_gap.h **** */
 655:Generated_Source\PSoC6\pdl\middleware\ble/cy_ble_gap.h **** /******************************************************************************
 656:Generated_Source\PSoC6\pdl\middleware\ble/cy_ble_gap.h **** * Function Name: Cy_BLE_GetState
 657:Generated_Source\PSoC6\pdl\middleware\ble/cy_ble_gap.h **** ***************************************************************************//**
 658:Generated_Source\PSoC6\pdl\middleware\ble/cy_ble_gap.h **** *
 659:Generated_Source\PSoC6\pdl\middleware\ble/cy_ble_gap.h **** *  This function is used to determine the current state of the BLE Middleware
 660:Generated_Source\PSoC6\pdl\middleware\ble/cy_ble_gap.h **** *  state machine :
 661:Generated_Source\PSoC6\pdl\middleware\ble/cy_ble_gap.h **** *
 662:Generated_Source\PSoC6\pdl\middleware\ble/cy_ble_gap.h **** *  \image html ble_middleware_state_machine.png
 663:Generated_Source\PSoC6\pdl\middleware\ble/cy_ble_gap.h **** *
 664:Generated_Source\PSoC6\pdl\middleware\ble/cy_ble_gap.h **** *  The BLE Middleware is in the state #CY_BLE_STATE_INITIALIZING after the
 665:Generated_Source\PSoC6\pdl\middleware\ble/cy_ble_gap.h **** *  Cy_BLE_Enable() is called and until the #CY_BLE_EVT_STACK_ON event is not
 666:Generated_Source\PSoC6\pdl\middleware\ble/cy_ble_gap.h **** *  received. After successful initialization the state is changed to
 667:Generated_Source\PSoC6\pdl\middleware\ble/cy_ble_gap.h **** *  #CY_BLE_STATE_ON.
 668:Generated_Source\PSoC6\pdl\middleware\ble/cy_ble_gap.h **** *
 669:Generated_Source\PSoC6\pdl\middleware\ble/cy_ble_gap.h **** *  The BLE Middleware is in the state #CY_BLE_STATE_STOPPED
 670:Generated_Source\PSoC6\pdl\middleware\ble/cy_ble_gap.h **** *  when the #CY_BLE_EVT_STACK_SHUTDOWN_COMPLETE event is received (after the
 671:Generated_Source\PSoC6\pdl\middleware\ble/cy_ble_gap.h **** *  Cy_BLE_Disable() is called).
 672:Generated_Source\PSoC6\pdl\middleware\ble/cy_ble_gap.h **** *
 673:Generated_Source\PSoC6\pdl\middleware\ble/cy_ble_gap.h **** *  For GAP Central role when the Cy_BLE_GAPC_ConnectDevice() is called, the state
 674:Generated_Source\PSoC6\pdl\middleware\ble/cy_ble_gap.h **** *  is changed to #CY_BLE_STATE_CONNECTING. After successful connection indicated
 675:Generated_Source\PSoC6\pdl\middleware\ble/cy_ble_gap.h **** *  by #CY_BLE_EVT_GAP_DEVICE_CONNECTED or #CY_BLE_EVT_GAP_ENHANCE_CONN_COMPLETE
 676:Generated_Source\PSoC6\pdl\middleware\ble/cy_ble_gap.h **** *  event or the timeout indicated by #CY_BLE_EVT_TIMEOUT event, the state is
 677:Generated_Source\PSoC6\pdl\middleware\ble/cy_ble_gap.h **** *  changed to #CY_BLE_STATE_ON.
 678:Generated_Source\PSoC6\pdl\middleware\ble/cy_ble_gap.h **** *
 679:Generated_Source\PSoC6\pdl\middleware\ble/cy_ble_gap.h **** * \return
 680:Generated_Source\PSoC6\pdl\middleware\ble/cy_ble_gap.h **** * \ref cy_en_ble_state_t : The current BLE Middleware state. The following are
 681:Generated_Source\PSoC6\pdl\middleware\ble/cy_ble_gap.h **** *                         possible states:
 682:Generated_Source\PSoC6\pdl\middleware\ble/cy_ble_gap.h **** *
 683:Generated_Source\PSoC6\pdl\middleware\ble/cy_ble_gap.h **** *   State                      | Description
 684:Generated_Source\PSoC6\pdl\middleware\ble/cy_ble_gap.h **** *   -------------------------- | -----------
 685:Generated_Source\PSoC6\pdl\middleware\ble/cy_ble_gap.h **** *   CY_BLE_STATE_STOPPED       | BLE is turned off.
 686:Generated_Source\PSoC6\pdl\middleware\ble/cy_ble_gap.h **** *   CY_BLE_STATE_INITIALIZING  | BLE is initializing (waiting for #CY_BLE_EVT_STACK_ON event).
 687:Generated_Source\PSoC6\pdl\middleware\ble/cy_ble_gap.h **** *   CY_BLE_STATE_ON            | BLE is turned on.
 688:Generated_Source\PSoC6\pdl\middleware\ble/cy_ble_gap.h **** *   CY_BLE_STATE_CONNECTING    | BLE is connecting.
 689:Generated_Source\PSoC6\pdl\middleware\ble/cy_ble_gap.h **** 
ARM GAS  C:\Users\Smaug\AppData\Local\Temp\ccVZzAJS.s 			page 32


 690:Generated_Source\PSoC6\pdl\middleware\ble/cy_ble_gap.h **** ******************************************************************************/
 691:Generated_Source\PSoC6\pdl\middleware\ble/cy_ble_gap.h **** #define Cy_BLE_GetState()    (cy_ble_state)
 692:Generated_Source\PSoC6\pdl\middleware\ble/cy_ble_gap.h **** 
 693:Generated_Source\PSoC6\pdl\middleware\ble/cy_ble_gap.h **** /** \cond IGNORE */
 694:Generated_Source\PSoC6\pdl\middleware\ble/cy_ble_gap.h **** /******************************************************************************
 695:Generated_Source\PSoC6\pdl\middleware\ble/cy_ble_gap.h **** * Function Name: Cy_BLE_SetState
 696:Generated_Source\PSoC6\pdl\middleware\ble/cy_ble_gap.h **** ***************************************************************************//**
 697:Generated_Source\PSoC6\pdl\middleware\ble/cy_ble_gap.h **** *
 698:Generated_Source\PSoC6\pdl\middleware\ble/cy_ble_gap.h **** *  Used to set the BLE Middleware state machine's state.
 699:Generated_Source\PSoC6\pdl\middleware\ble/cy_ble_gap.h **** *
 700:Generated_Source\PSoC6\pdl\middleware\ble/cy_ble_gap.h **** *  \param state: The desired state to which the event handler's
 701:Generated_Source\PSoC6\pdl\middleware\ble/cy_ble_gap.h **** *   state machine should be set. The parameter state is a variable
 702:Generated_Source\PSoC6\pdl\middleware\ble/cy_ble_gap.h **** *   of type cy_en_ble_state_t.
 703:Generated_Source\PSoC6\pdl\middleware\ble/cy_ble_gap.h **** *
 704:Generated_Source\PSoC6\pdl\middleware\ble/cy_ble_gap.h **** * \return
 705:Generated_Source\PSoC6\pdl\middleware\ble/cy_ble_gap.h **** *  None
 706:Generated_Source\PSoC6\pdl\middleware\ble/cy_ble_gap.h **** *
 707:Generated_Source\PSoC6\pdl\middleware\ble/cy_ble_gap.h **** ******************************************************************************/
 708:Generated_Source\PSoC6\pdl\middleware\ble/cy_ble_gap.h **** #define Cy_BLE_SetState(state)    (cy_ble_state = (state))
 709:Generated_Source\PSoC6\pdl\middleware\ble/cy_ble_gap.h **** /** \endcond */
 710:Generated_Source\PSoC6\pdl\middleware\ble/cy_ble_gap.h **** 
 711:Generated_Source\PSoC6\pdl\middleware\ble/cy_ble_gap.h **** #if (CY_BLE_GAP_ROLE_PERIPHERAL || CY_BLE_GAP_ROLE_BROADCASTER)
 712:Generated_Source\PSoC6\pdl\middleware\ble/cy_ble_gap.h **** 
 713:Generated_Source\PSoC6\pdl\middleware\ble/cy_ble_gap.h **** 
 714:Generated_Source\PSoC6\pdl\middleware\ble/cy_ble_gap.h **** /******************************************************************************
 715:Generated_Source\PSoC6\pdl\middleware\ble/cy_ble_gap.h **** * Function Name: Cy_BLE_GetAdvertisementState
 716:Generated_Source\PSoC6\pdl\middleware\ble/cy_ble_gap.h **** ***************************************************************************//**
 717:Generated_Source\PSoC6\pdl\middleware\ble/cy_ble_gap.h **** *
 718:Generated_Source\PSoC6\pdl\middleware\ble/cy_ble_gap.h **** *  This function returns the state of the link layer hardware advertisement
 719:Generated_Source\PSoC6\pdl\middleware\ble/cy_ble_gap.h **** *  engine.
 720:Generated_Source\PSoC6\pdl\middleware\ble/cy_ble_gap.h **** *
 721:Generated_Source\PSoC6\pdl\middleware\ble/cy_ble_gap.h **** *  \image html ble_advertisement_state_machine.png
 722:Generated_Source\PSoC6\pdl\middleware\ble/cy_ble_gap.h **** *
 723:Generated_Source\PSoC6\pdl\middleware\ble/cy_ble_gap.h **** *  When Cy_BLE_GAPP_StartAdvertisement() is called, the state is set to
 724:Generated_Source\PSoC6\pdl\middleware\ble/cy_ble_gap.h **** *  #CY_BLE_ADV_STATE_ADV_INITIATED. It automatically changes to
 725:Generated_Source\PSoC6\pdl\middleware\ble/cy_ble_gap.h **** *  #CY_BLE_ADV_STATE_ADVERTISING when #CY_BLE_EVT_GAPP_ADVERTISEMENT_START_STOP
 726:Generated_Source\PSoC6\pdl\middleware\ble/cy_ble_gap.h **** *  event is received. When Cy_BLE_GAPP_StopAdvertisement() is called, the
 727:Generated_Source\PSoC6\pdl\middleware\ble/cy_ble_gap.h **** *  state is set to #CY_BLE_ADV_STATE_STOP_INITIATED. It automatically changes
 728:Generated_Source\PSoC6\pdl\middleware\ble/cy_ble_gap.h **** *  to #CY_BLE_ADV_STATE_STOPPED when the #CY_BLE_EVT_GAPP_ADVERTISEMENT_START_STOP
 729:Generated_Source\PSoC6\pdl\middleware\ble/cy_ble_gap.h **** *  event is received.
 730:Generated_Source\PSoC6\pdl\middleware\ble/cy_ble_gap.h **** *
 731:Generated_Source\PSoC6\pdl\middleware\ble/cy_ble_gap.h **** * \return
 732:Generated_Source\PSoC6\pdl\middleware\ble/cy_ble_gap.h **** * \ref cy_en_ble_adv_state_t :The current advertising state. The following are
 733:Generated_Source\PSoC6\pdl\middleware\ble/cy_ble_gap.h **** *                              possible states.
 734:Generated_Source\PSoC6\pdl\middleware\ble/cy_ble_gap.h **** *
 735:Generated_Source\PSoC6\pdl\middleware\ble/cy_ble_gap.h **** *               State                |         Description
 736:Generated_Source\PSoC6\pdl\middleware\ble/cy_ble_gap.h **** *   -------------------------------- | -----------------------------
 737:Generated_Source\PSoC6\pdl\middleware\ble/cy_ble_gap.h **** *   CY_BLE_ADV_STATE_STOPPED         | Advertising is stopped.
 738:Generated_Source\PSoC6\pdl\middleware\ble/cy_ble_gap.h **** *   CY_BLE_ADV_STATE_ADV_INITIATED   | Advertising is initiated.
 739:Generated_Source\PSoC6\pdl\middleware\ble/cy_ble_gap.h **** *   CY_BLE_ADV_STATE_ADVERTISING     | Advertising is initiated.
 740:Generated_Source\PSoC6\pdl\middleware\ble/cy_ble_gap.h **** *   CY_BLE_ADV_STATE_STOP_INITIATED  | Stop advertising is initiated.
 741:Generated_Source\PSoC6\pdl\middleware\ble/cy_ble_gap.h **** *
 742:Generated_Source\PSoC6\pdl\middleware\ble/cy_ble_gap.h **** ******************************************************************************/
 743:Generated_Source\PSoC6\pdl\middleware\ble/cy_ble_gap.h **** __STATIC_INLINE cy_en_ble_adv_state_t Cy_BLE_GetAdvertisementState(void)
 744:Generated_Source\PSoC6\pdl\middleware\ble/cy_ble_gap.h **** {
 745:Generated_Source\PSoC6\pdl\middleware\ble/cy_ble_gap.h ****     return(cy_ble_advState);
 746:Generated_Source\PSoC6\pdl\middleware\ble/cy_ble_gap.h **** }
ARM GAS  C:\Users\Smaug\AppData\Local\Temp\ccVZzAJS.s 			page 33


 747:Generated_Source\PSoC6\pdl\middleware\ble/cy_ble_gap.h **** 
 748:Generated_Source\PSoC6\pdl\middleware\ble/cy_ble_gap.h **** /** \cond IGNORE */
 749:Generated_Source\PSoC6\pdl\middleware\ble/cy_ble_gap.h **** /******************************************************************************
 750:Generated_Source\PSoC6\pdl\middleware\ble/cy_ble_gap.h **** * Function Name: Cy_BLE_SetAdvertisementState
 751:Generated_Source\PSoC6\pdl\middleware\ble/cy_ble_gap.h **** ***************************************************************************//**
 752:Generated_Source\PSoC6\pdl\middleware\ble/cy_ble_gap.h **** *
 753:Generated_Source\PSoC6\pdl\middleware\ble/cy_ble_gap.h **** *  Used to set the state of the link layer hardware advertisement engine.
 754:Generated_Source\PSoC6\pdl\middleware\ble/cy_ble_gap.h **** *
 755:Generated_Source\PSoC6\pdl\middleware\ble/cy_ble_gap.h **** *  \param state: The desired state.
 756:Generated_Source\PSoC6\pdl\middleware\ble/cy_ble_gap.h **** *
 757:Generated_Source\PSoC6\pdl\middleware\ble/cy_ble_gap.h **** * \return
 758:Generated_Source\PSoC6\pdl\middleware\ble/cy_ble_gap.h **** *  None
 759:Generated_Source\PSoC6\pdl\middleware\ble/cy_ble_gap.h **** *
 760:Generated_Source\PSoC6\pdl\middleware\ble/cy_ble_gap.h **** ******************************************************************************/
 761:Generated_Source\PSoC6\pdl\middleware\ble/cy_ble_gap.h **** __STATIC_INLINE void Cy_BLE_SetAdvertisementState(cy_en_ble_adv_state_t state)
 762:Generated_Source\PSoC6\pdl\middleware\ble/cy_ble_gap.h **** {
 763:Generated_Source\PSoC6\pdl\middleware\ble/cy_ble_gap.h ****     cy_ble_advState = state;
 655              		.loc 2 763 0
 656 01c6 784A     		ldr	r2, .L99+124
 657 01c8 1370     		strb	r3, [r2]
 658              	.LVL60:
 659              	.LBE86:
 660              	.LBE85:
 391:Generated_Source\PSoC6\pdl\middleware\ble/cy_ble_event_handler.c **** 
 392:Generated_Source\PSoC6\pdl\middleware\ble/cy_ble_event_handler.c ****             #if (CY_BLE_GAP_ROLE_PERIPHERAL || CY_BLE_GAP_ROLE_BROADCASTER)
 393:Generated_Source\PSoC6\pdl\middleware\ble/cy_ble_event_handler.c ****             Cy_BLE_SetAdvertisementState(CY_BLE_ADV_STATE_STOPPED);
 394:Generated_Source\PSoC6\pdl\middleware\ble/cy_ble_event_handler.c ****             #endif  /* (CY_BLE_GAP_ROLE_PERIPHERAL || CY_BLE_GAP_ROLE_BROADCASTER) */
 395:Generated_Source\PSoC6\pdl\middleware\ble/cy_ble_event_handler.c **** 
 396:Generated_Source\PSoC6\pdl\middleware\ble/cy_ble_event_handler.c ****             #if (CY_BLE_GAP_ROLE_CENTRAL || CY_BLE_GAP_ROLE_OBSERVER)
 397:Generated_Source\PSoC6\pdl\middleware\ble/cy_ble_event_handler.c ****             Cy_BLE_SetScanState(CY_BLE_SCAN_STATE_STOPPED);
 398:Generated_Source\PSoC6\pdl\middleware\ble/cy_ble_event_handler.c ****             #endif /* (CY_BLE_GAP_ROLE_CENTRAL || CY_BLE_GAP_ROLE_OBSERVER) */
 399:Generated_Source\PSoC6\pdl\middleware\ble/cy_ble_event_handler.c **** 
 400:Generated_Source\PSoC6\pdl\middleware\ble/cy_ble_event_handler.c ****             /* Clean pair status */
 401:Generated_Source\PSoC6\pdl\middleware\ble/cy_ble_event_handler.c ****             #if ((CY_BLE_GAP_ROLE_PERIPHERAL || CY_BLE_GAP_ROLE_CENTRAL))
 402:Generated_Source\PSoC6\pdl\middleware\ble/cy_ble_event_handler.c ****             (void)memset((uint8_t*)cy_ble_pairStatus, 0, sizeof(cy_ble_pairStatus));
 661              		.loc 1 402 0
 662 01ca 784A     		ldr	r2, .L99+128
 663 01cc 1370     		strb	r3, [r2]
 403:Generated_Source\PSoC6\pdl\middleware\ble/cy_ble_event_handler.c ****             #endif /*((CY_BLE_GAP_ROLE_PERIPHERAL || CY_BLE_GAP_ROLE_CENTRAL))*/
 404:Generated_Source\PSoC6\pdl\middleware\ble/cy_ble_event_handler.c **** 
 405:Generated_Source\PSoC6\pdl\middleware\ble/cy_ble_event_handler.c ****             /* Adding a delay of 10ms to ensure that the controller is completely
 406:Generated_Source\PSoC6\pdl\middleware\ble/cy_ble_event_handler.c ****              * shut-down before generating the event to the application.
 407:Generated_Source\PSoC6\pdl\middleware\ble/cy_ble_event_handler.c ****              * Refer to CY_BLE_EVT_STACK_SHUTDOWN_COMPLETE event documentation. */
 408:Generated_Source\PSoC6\pdl\middleware\ble/cy_ble_event_handler.c ****             #if(CY_BLE_STACK_MODE_HOST_IPC)
 409:Generated_Source\PSoC6\pdl\middleware\ble/cy_ble_event_handler.c ****                 Cy_SysLib_Delay(10u);
 410:Generated_Source\PSoC6\pdl\middleware\ble/cy_ble_event_handler.c ****             #endif /* CY_BLE_STACK_MODE_HOST_IPC */
 411:Generated_Source\PSoC6\pdl\middleware\ble/cy_ble_event_handler.c **** 
 412:Generated_Source\PSoC6\pdl\middleware\ble/cy_ble_event_handler.c ****             if ( event == CY_BLE_EVT_STACK_SHUTDOWN_COMPLETE)
 664              		.loc 1 412 0
 665 01ce 5F4B     		ldr	r3, .L99+32
 666 01d0 9C42     		cmp	r4, r3
 667 01d2 00D0     		beq	.LCB637
 668 01d4 34E2     		b	.L31	@long jump
 669              	.LCB637:
 413:Generated_Source\PSoC6\pdl\middleware\ble/cy_ble_event_handler.c ****             {
 414:Generated_Source\PSoC6\pdl\middleware\ble/cy_ble_event_handler.c ****                 /* Unregister BLE callback for Deepsleep/Sleep */
 415:Generated_Source\PSoC6\pdl\middleware\ble/cy_ble_event_handler.c ****                 Cy_BLE_UnregisterHostPMCallbacks();
ARM GAS  C:\Users\Smaug\AppData\Local\Temp\ccVZzAJS.s 			page 34


 670              		.loc 1 415 0
 671 01d6 FFF7FEFF 		bl	Cy_BLE_UnregisterHostPMCallbacks
 672              	.LVL61:
 673 01da 31E2     		b	.L31
 674              	.LVL62:
 675              	.L41:
 416:Generated_Source\PSoC6\pdl\middleware\ble/cy_ble_event_handler.c ****             }
 417:Generated_Source\PSoC6\pdl\middleware\ble/cy_ble_event_handler.c ****             break;
 418:Generated_Source\PSoC6\pdl\middleware\ble/cy_ble_event_handler.c **** 
 419:Generated_Source\PSoC6\pdl\middleware\ble/cy_ble_event_handler.c ****         case CY_BLE_EVT_LE_SET_EVENT_MASK_COMPLETE:
 420:Generated_Source\PSoC6\pdl\middleware\ble/cy_ble_event_handler.c ****         #if (CY_BLE_MODE_PROFILE)
 421:Generated_Source\PSoC6\pdl\middleware\ble/cy_ble_event_handler.c ****             {
 422:Generated_Source\PSoC6\pdl\middleware\ble/cy_ble_event_handler.c ****                 if((cy_ble_cmdStatus & CY_BLE_STATUS_SET_TX_PWR_LVL) == 0u)
 676              		.loc 1 422 0
 677 01dc 744B     		ldr	r3, .L99+132
 678 01de 1B68     		ldr	r3, [r3]
 679 01e0 DB07     		lsls	r3, r3, #31
 680 01e2 00D5     		bpl	.LCB651
 681 01e4 2CE2     		b	.L31	@long jump
 682              	.LCB651:
 683              	.LBB87:
 423:Generated_Source\PSoC6\pdl\middleware\ble/cy_ble_event_handler.c ****                 {
 424:Generated_Source\PSoC6\pdl\middleware\ble/cy_ble_event_handler.c ****                     cy_stc_ble_tx_pwr_lvl_info_t bleSsPowerLevel = { .pwrConfigParam.bdHandle = 0x0
 684              		.loc 1 424 0
 685 01e6 04AE     		add	r6, sp, #16
 686 01e8 0322     		movs	r2, #3
 687 01ea 0021     		movs	r1, #0
 688 01ec 3000     		movs	r0, r6
 689              	.LVL63:
 690 01ee FFF7FEFF 		bl	memset
 691              	.LVL64:
 425:Generated_Source\PSoC6\pdl\middleware\ble/cy_ble_event_handler.c **** 
 426:Generated_Source\PSoC6\pdl\middleware\ble/cy_ble_event_handler.c ****                     /* Set the Tx Power Level for advertising and connection channels */
 427:Generated_Source\PSoC6\pdl\middleware\ble/cy_ble_event_handler.c ****                     bleSsPowerLevel.blePwrLevel = cy_ble_configPtr->params->txPowerLevelAdv;
 692              		.loc 1 427 0
 693 01f2 674F     		ldr	r7, .L99+100
 694 01f4 3B68     		ldr	r3, [r7]
 695 01f6 9B6A     		ldr	r3, [r3, #40]
 696 01f8 1B78     		ldrb	r3, [r3]
 697 01fa 5BB2     		sxtb	r3, r3
 698 01fc 3370     		strb	r3, [r6]
 428:Generated_Source\PSoC6\pdl\middleware\ble/cy_ble_event_handler.c ****                     bleSsPowerLevel.pwrConfigParam.bleSsChId = CY_BLE_LL_ADV_CH_TYPE;
 429:Generated_Source\PSoC6\pdl\middleware\ble/cy_ble_event_handler.c ****                     (void)Cy_BLE_SetTxPowerLevel(&bleSsPowerLevel);
 699              		.loc 1 429 0
 700 01fe 3000     		movs	r0, r6
 701 0200 FFF7FEFF 		bl	Cy_BLE_SetTxPowerLevel
 702              	.LVL65:
 430:Generated_Source\PSoC6\pdl\middleware\ble/cy_ble_event_handler.c **** 
 431:Generated_Source\PSoC6\pdl\middleware\ble/cy_ble_event_handler.c ****                     bleSsPowerLevel.blePwrLevel = cy_ble_configPtr->params->txPowerLevelConn;
 703              		.loc 1 431 0
 704 0204 3B68     		ldr	r3, [r7]
 705 0206 9B6A     		ldr	r3, [r3, #40]
 706 0208 5B78     		ldrb	r3, [r3, #1]
 707 020a 5BB2     		sxtb	r3, r3
 708 020c 3370     		strb	r3, [r6]
 432:Generated_Source\PSoC6\pdl\middleware\ble/cy_ble_event_handler.c ****                     bleSsPowerLevel.pwrConfigParam.bleSsChId = CY_BLE_LL_CONN_CH_TYPE;
 709              		.loc 1 432 0
ARM GAS  C:\Users\Smaug\AppData\Local\Temp\ccVZzAJS.s 			page 35


 710 020e 0127     		movs	r7, #1
 711 0210 7770     		strb	r7, [r6, #1]
 433:Generated_Source\PSoC6\pdl\middleware\ble/cy_ble_event_handler.c ****                     bleSsPowerLevel.pwrConfigParam.bdHandle = 0xFFu; /* Set the tx power level valu
 712              		.loc 1 433 0
 713 0212 FF23     		movs	r3, #255
 714 0214 B370     		strb	r3, [r6, #2]
 434:Generated_Source\PSoC6\pdl\middleware\ble/cy_ble_event_handler.c ****                     (void)Cy_BLE_SetTxPowerLevel(&bleSsPowerLevel);
 715              		.loc 1 434 0
 716 0216 3000     		movs	r0, r6
 717 0218 FFF7FEFF 		bl	Cy_BLE_SetTxPowerLevel
 718              	.LVL66:
 435:Generated_Source\PSoC6\pdl\middleware\ble/cy_ble_event_handler.c **** 
 436:Generated_Source\PSoC6\pdl\middleware\ble/cy_ble_event_handler.c ****                     /* Set flag that executed Cy_BLE_SetTxPowerLevel during BLE start-up  */
 437:Generated_Source\PSoC6\pdl\middleware\ble/cy_ble_event_handler.c ****                     cy_ble_cmdStatus |= CY_BLE_STATUS_SET_TX_PWR_LVL;
 719              		.loc 1 437 0
 720 021c 644B     		ldr	r3, .L99+132
 721 021e 1A68     		ldr	r2, [r3]
 722 0220 1743     		orrs	r7, r2
 723 0222 1F60     		str	r7, [r3]
 724 0224 0CE2     		b	.L31
 725              	.LVL67:
 726              	.L39:
 727              	.LBE87:
 438:Generated_Source\PSoC6\pdl\middleware\ble/cy_ble_event_handler.c ****                 }
 439:Generated_Source\PSoC6\pdl\middleware\ble/cy_ble_event_handler.c ****             }
 440:Generated_Source\PSoC6\pdl\middleware\ble/cy_ble_event_handler.c ****         #endif /* CY_BLE_MODE_PROFILE */
 441:Generated_Source\PSoC6\pdl\middleware\ble/cy_ble_event_handler.c ****             break;
 442:Generated_Source\PSoC6\pdl\middleware\ble/cy_ble_event_handler.c **** 
 443:Generated_Source\PSoC6\pdl\middleware\ble/cy_ble_event_handler.c ****         case CY_BLE_EVT_TIMEOUT:
 444:Generated_Source\PSoC6\pdl\middleware\ble/cy_ble_event_handler.c ****             Cy_BLE_TimeOutEventHandler((cy_stc_ble_timeout_param_t*)evParam);
 445:Generated_Source\PSoC6\pdl\middleware\ble/cy_ble_event_handler.c ****         #if (CY_BLE_GAP_ROLE_PERIPHERAL || CY_BLE_GAP_ROLE_CENTRAL)
 446:Generated_Source\PSoC6\pdl\middleware\ble/cy_ble_event_handler.c ****             (void)Cy_BLE_InvokeServiceEventHandler((uint32_t)event, (void*)evParam);
 728              		.loc 1 446 0
 729 0226 2900     		movs	r1, r5
 730 0228 FFF7FEFF 		bl	Cy_BLE_InvokeServiceEventHandler
 731              	.LVL68:
 447:Generated_Source\PSoC6\pdl\middleware\ble/cy_ble_event_handler.c ****         #endif /*(CY_BLE_GAP_ROLE_PERIPHERAL || CY_BLE_GAP_ROLE_CENTRAL)*/
 448:Generated_Source\PSoC6\pdl\middleware\ble/cy_ble_event_handler.c ****             break;
 732              		.loc 1 448 0
 733 022c 08E2     		b	.L31
 734              	.LVL69:
 735              	.L36:
 449:Generated_Source\PSoC6\pdl\middleware\ble/cy_ble_event_handler.c **** 
 450:Generated_Source\PSoC6\pdl\middleware\ble/cy_ble_event_handler.c ****         case CY_BLE_EVT_STACK_BUSY_STATUS:
 451:Generated_Source\PSoC6\pdl\middleware\ble/cy_ble_event_handler.c ****         #if (CY_BLE_GAP_ROLE_PERIPHERAL || CY_BLE_GAP_ROLE_CENTRAL)
 452:Generated_Source\PSoC6\pdl\middleware\ble/cy_ble_event_handler.c ****             cy_ble_busyStatus[Cy_BLE_GetConnHandleByBdHandle(((cy_stc_ble_l2cap_state_info_t*)evPar
 736              		.loc 1 452 0
 737 022e 6B78     		ldrb	r3, [r5, #1]
 738 0230 9846     		mov	r8, r3
 739              	.LVL70:
 740              	.LBB88:
 741              	.LBB89:
 764:Generated_Source\PSoC6\pdl\middleware\ble/cy_ble_gap.h **** }
 765:Generated_Source\PSoC6\pdl\middleware\ble/cy_ble_gap.h **** /** \endcond */
 766:Generated_Source\PSoC6\pdl\middleware\ble/cy_ble_gap.h **** 
 767:Generated_Source\PSoC6\pdl\middleware\ble/cy_ble_gap.h **** #endif /* (CY_BLE_GAP_ROLE_PERIPHERAL || CY_BLE_GAP_ROLE_BROADCASTER) */
 768:Generated_Source\PSoC6\pdl\middleware\ble/cy_ble_gap.h **** 
ARM GAS  C:\Users\Smaug\AppData\Local\Temp\ccVZzAJS.s 			page 36


 769:Generated_Source\PSoC6\pdl\middleware\ble/cy_ble_gap.h **** #if (CY_BLE_GAP_ROLE_CENTRAL || CY_BLE_GAP_ROLE_OBSERVER)
 770:Generated_Source\PSoC6\pdl\middleware\ble/cy_ble_gap.h **** 
 771:Generated_Source\PSoC6\pdl\middleware\ble/cy_ble_gap.h **** /******************************************************************************
 772:Generated_Source\PSoC6\pdl\middleware\ble/cy_ble_gap.h **** * Function Name: Cy_BLE_GetScanState
 773:Generated_Source\PSoC6\pdl\middleware\ble/cy_ble_gap.h **** ***************************************************************************//**
 774:Generated_Source\PSoC6\pdl\middleware\ble/cy_ble_gap.h **** *
 775:Generated_Source\PSoC6\pdl\middleware\ble/cy_ble_gap.h **** *  This returns the state of the link layer hardware scan engine.
 776:Generated_Source\PSoC6\pdl\middleware\ble/cy_ble_gap.h **** *
 777:Generated_Source\PSoC6\pdl\middleware\ble/cy_ble_gap.h **** *  \image html ble_scanning_state_machine.png
 778:Generated_Source\PSoC6\pdl\middleware\ble/cy_ble_gap.h **** *
 779:Generated_Source\PSoC6\pdl\middleware\ble/cy_ble_gap.h **** *  When Cy_BLE_GAPC_StartScan() is called the state is set to
 780:Generated_Source\PSoC6\pdl\middleware\ble/cy_ble_gap.h **** *  #CY_BLE_SCAN_STATE_SCAN_INITIATED. It automatically changes to
 781:Generated_Source\PSoC6\pdl\middleware\ble/cy_ble_gap.h **** *  #CY_BLE_SCAN_STATE_SCANNING when the #CY_BLE_EVT_GAPC_SCAN_START_STOP event is
 782:Generated_Source\PSoC6\pdl\middleware\ble/cy_ble_gap.h **** *  received.
 783:Generated_Source\PSoC6\pdl\middleware\ble/cy_ble_gap.h **** *  When Cy_BLE_GAPC_StopScan() is called, the state is set to
 784:Generated_Source\PSoC6\pdl\middleware\ble/cy_ble_gap.h **** *  #CY_BLE_SCAN_STATE_STOP_INITIATED. It automatically changes to
 785:Generated_Source\PSoC6\pdl\middleware\ble/cy_ble_gap.h **** *  #CY_BLE_SCAN_STATE_STOPPED when the #CY_BLE_EVT_GAPC_SCAN_START_STOP event is
 786:Generated_Source\PSoC6\pdl\middleware\ble/cy_ble_gap.h **** *  received.
 787:Generated_Source\PSoC6\pdl\middleware\ble/cy_ble_gap.h **** *
 788:Generated_Source\PSoC6\pdl\middleware\ble/cy_ble_gap.h **** *  \return
 789:Generated_Source\PSoC6\pdl\middleware\ble/cy_ble_gap.h **** *  \ref cy_en_ble_scan_state_t : The current scan state. The following are
 790:Generated_Source\PSoC6\pdl\middleware\ble/cy_ble_gap.h **** *                                possible states.
 791:Generated_Source\PSoC6\pdl\middleware\ble/cy_ble_gap.h **** *
 792:Generated_Source\PSoC6\pdl\middleware\ble/cy_ble_gap.h **** *               State                |         Description
 793:Generated_Source\PSoC6\pdl\middleware\ble/cy_ble_gap.h **** *   -------------------------------- | -----------------------------
 794:Generated_Source\PSoC6\pdl\middleware\ble/cy_ble_gap.h **** *   CY_BLE_SCAN_STATE_STOPPED        | Scanning is stopped.
 795:Generated_Source\PSoC6\pdl\middleware\ble/cy_ble_gap.h **** *   CY_BLE_SCAN_STATE_SCAN_INITIATED | Scanning is initiated.
 796:Generated_Source\PSoC6\pdl\middleware\ble/cy_ble_gap.h **** *   CY_BLE_SCAN_STATE_SCANNING       | Scanning process.
 797:Generated_Source\PSoC6\pdl\middleware\ble/cy_ble_gap.h **** *   CY_BLE_SCAN_STATE_STOP_INITIATED | Stop scanning is initiated.
 798:Generated_Source\PSoC6\pdl\middleware\ble/cy_ble_gap.h **** *
 799:Generated_Source\PSoC6\pdl\middleware\ble/cy_ble_gap.h **** ******************************************************************************/
 800:Generated_Source\PSoC6\pdl\middleware\ble/cy_ble_gap.h **** __STATIC_INLINE cy_en_ble_scan_state_t Cy_BLE_GetScanState(void)
 801:Generated_Source\PSoC6\pdl\middleware\ble/cy_ble_gap.h **** {
 802:Generated_Source\PSoC6\pdl\middleware\ble/cy_ble_gap.h ****     return(cy_ble_scanState);
 803:Generated_Source\PSoC6\pdl\middleware\ble/cy_ble_gap.h **** }
 804:Generated_Source\PSoC6\pdl\middleware\ble/cy_ble_gap.h **** 
 805:Generated_Source\PSoC6\pdl\middleware\ble/cy_ble_gap.h **** /** \cond IGNORE */
 806:Generated_Source\PSoC6\pdl\middleware\ble/cy_ble_gap.h **** /******************************************************************************
 807:Generated_Source\PSoC6\pdl\middleware\ble/cy_ble_gap.h **** * Function Name: Cy_BLE_SetScanState
 808:Generated_Source\PSoC6\pdl\middleware\ble/cy_ble_gap.h **** ***************************************************************************//**
 809:Generated_Source\PSoC6\pdl\middleware\ble/cy_ble_gap.h **** *
 810:Generated_Source\PSoC6\pdl\middleware\ble/cy_ble_gap.h **** *  Used to set the state of the link layer hardware scan engine.
 811:Generated_Source\PSoC6\pdl\middleware\ble/cy_ble_gap.h **** *
 812:Generated_Source\PSoC6\pdl\middleware\ble/cy_ble_gap.h **** *  \param state: The desired state.
 813:Generated_Source\PSoC6\pdl\middleware\ble/cy_ble_gap.h **** *
 814:Generated_Source\PSoC6\pdl\middleware\ble/cy_ble_gap.h **** *  \return
 815:Generated_Source\PSoC6\pdl\middleware\ble/cy_ble_gap.h **** *  None
 816:Generated_Source\PSoC6\pdl\middleware\ble/cy_ble_gap.h **** *
 817:Generated_Source\PSoC6\pdl\middleware\ble/cy_ble_gap.h **** ******************************************************************************/
 818:Generated_Source\PSoC6\pdl\middleware\ble/cy_ble_gap.h **** __STATIC_INLINE void Cy_BLE_SetScanState(cy_en_ble_scan_state_t state)
 819:Generated_Source\PSoC6\pdl\middleware\ble/cy_ble_gap.h **** {
 820:Generated_Source\PSoC6\pdl\middleware\ble/cy_ble_gap.h ****     cy_ble_scanState = state;
 821:Generated_Source\PSoC6\pdl\middleware\ble/cy_ble_gap.h **** }
 822:Generated_Source\PSoC6\pdl\middleware\ble/cy_ble_gap.h **** /** \endcond */
 823:Generated_Source\PSoC6\pdl\middleware\ble/cy_ble_gap.h **** 
 824:Generated_Source\PSoC6\pdl\middleware\ble/cy_ble_gap.h **** #endif  /* (CY_BLE_GAP_ROLE_CENTRAL || CY_BLE_GAP_ROLE_OBSERVER) */
 825:Generated_Source\PSoC6\pdl\middleware\ble/cy_ble_gap.h **** 
ARM GAS  C:\Users\Smaug\AppData\Local\Temp\ccVZzAJS.s 			page 37


 826:Generated_Source\PSoC6\pdl\middleware\ble/cy_ble_gap.h **** 
 827:Generated_Source\PSoC6\pdl\middleware\ble/cy_ble_gap.h **** #if ((CY_BLE_GAP_ROLE_PERIPHERAL || CY_BLE_GAP_ROLE_CENTRAL))
 828:Generated_Source\PSoC6\pdl\middleware\ble/cy_ble_gap.h **** 
 829:Generated_Source\PSoC6\pdl\middleware\ble/cy_ble_gap.h **** /******************************************************************************
 830:Generated_Source\PSoC6\pdl\middleware\ble/cy_ble_gap.h **** * Function Name: Cy_BLE_GetConnectionState
 831:Generated_Source\PSoC6\pdl\middleware\ble/cy_ble_gap.h **** ***************************************************************************//**
 832:Generated_Source\PSoC6\pdl\middleware\ble/cy_ble_gap.h **** *  This function returns the state of the BLE link for the specified connection
 833:Generated_Source\PSoC6\pdl\middleware\ble/cy_ble_gap.h **** *  handle.
 834:Generated_Source\PSoC6\pdl\middleware\ble/cy_ble_gap.h **** *
 835:Generated_Source\PSoC6\pdl\middleware\ble/cy_ble_gap.h **** *  The state is set to #CY_BLE_CONN_STATE_CONNECTED when #CY_BLE_EVT_GATT_CONNECT_IND
 836:Generated_Source\PSoC6\pdl\middleware\ble/cy_ble_gap.h **** *  event is received with the corresponding connection handle.
 837:Generated_Source\PSoC6\pdl\middleware\ble/cy_ble_gap.h **** *  The state is set to #CY_BLE_CONN_STATE_DISCONNECTED when the
 838:Generated_Source\PSoC6\pdl\middleware\ble/cy_ble_gap.h **** *  #CY_BLE_EVT_GATT_DISCONNECT_IND event is received.
 839:Generated_Source\PSoC6\pdl\middleware\ble/cy_ble_gap.h **** *
 840:Generated_Source\PSoC6\pdl\middleware\ble/cy_ble_gap.h **** *  For GATT Client role when Cy_BLE_GATTC_StartDiscovery() is called, the state
 841:Generated_Source\PSoC6\pdl\middleware\ble/cy_ble_gap.h **** *  indicates the current flow of the discovery procedure by
 842:Generated_Source\PSoC6\pdl\middleware\ble/cy_ble_gap.h **** *  #CY_BLE_CONN_STATE_CLIENT_SRVC_DISCOVERING,
 843:Generated_Source\PSoC6\pdl\middleware\ble/cy_ble_gap.h **** *  #CY_BLE_CONN_STATE_CLIENT_INCL_DISCOVERING,
 844:Generated_Source\PSoC6\pdl\middleware\ble/cy_ble_gap.h **** *  #CY_BLE_CONN_STATE_CLIENT_CHAR_DISCOVERING,
 845:Generated_Source\PSoC6\pdl\middleware\ble/cy_ble_gap.h **** *  #CY_BLE_CONN_STATE_CLIENT_DESCR_DISCOVERING and changes to
 846:Generated_Source\PSoC6\pdl\middleware\ble/cy_ble_gap.h **** *  #CY_BLE_CONN_STATE_CLIENT_DISCOVERED when the procedure successfully completes.
 847:Generated_Source\PSoC6\pdl\middleware\ble/cy_ble_gap.h **** *
 848:Generated_Source\PSoC6\pdl\middleware\ble/cy_ble_gap.h **** *  The state changes from #CY_BLE_CONN_STATE_CLIENT_DISCOVERED to
 849:Generated_Source\PSoC6\pdl\middleware\ble/cy_ble_gap.h **** *  #CY_BLE_CONN_STATE_CLIENT_DISCONNECTED_DISCOVERED when
 850:Generated_Source\PSoC6\pdl\middleware\ble/cy_ble_gap.h **** *  the #CY_BLE_EVT_GATT_DISCONNECT_IND event is received.
 851:Generated_Source\PSoC6\pdl\middleware\ble/cy_ble_gap.h **** *  The state comes backs to #CY_BLE_CONN_STATE_CLIENT_DISCOVERED when
 852:Generated_Source\PSoC6\pdl\middleware\ble/cy_ble_gap.h **** *  #CY_BLE_EVT_GATT_CONNECT_IND event is received and resolvable device
 853:Generated_Source\PSoC6\pdl\middleware\ble/cy_ble_gap.h **** *  address is not changed.
 854:Generated_Source\PSoC6\pdl\middleware\ble/cy_ble_gap.h **** *
 855:Generated_Source\PSoC6\pdl\middleware\ble/cy_ble_gap.h **** *  \param connHandle: The connection handle.
 856:Generated_Source\PSoC6\pdl\middleware\ble/cy_ble_gap.h **** *
 857:Generated_Source\PSoC6\pdl\middleware\ble/cy_ble_gap.h **** * \return
 858:Generated_Source\PSoC6\pdl\middleware\ble/cy_ble_gap.h **** * \ref cy_en_ble_conn_state_t : The current client state. The following are
 859:Generated_Source\PSoC6\pdl\middleware\ble/cy_ble_gap.h **** *                               possible states.
 860:Generated_Source\PSoC6\pdl\middleware\ble/cy_ble_gap.h **** *
 861:Generated_Source\PSoC6\pdl\middleware\ble/cy_ble_gap.h **** *               State                                |         Description
 862:Generated_Source\PSoC6\pdl\middleware\ble/cy_ble_gap.h **** *   ------------------------------------------------ | -----------------------------
 863:Generated_Source\PSoC6\pdl\middleware\ble/cy_ble_gap.h **** *   CY_BLE_CONN_STATE_DISCONNECTED                   | Essentially idle state
 864:Generated_Source\PSoC6\pdl\middleware\ble/cy_ble_gap.h **** *   CY_BLE_CONN_STATE_CLIENT_DISCONNECTED_DISCOVERED | Server is disconnected but discovered.
 865:Generated_Source\PSoC6\pdl\middleware\ble/cy_ble_gap.h **** *   CY_BLE_CONN_STATE_CONNECTED                      | Peer device is connected for this and follow
 866:Generated_Source\PSoC6\pdl\middleware\ble/cy_ble_gap.h **** *   CY_BLE_CONN_STATE_CLIENT_SRVC_DISCOVERING        | Server services are being discovered.
 867:Generated_Source\PSoC6\pdl\middleware\ble/cy_ble_gap.h **** *   CY_BLE_CONN_STATE_CLIENT_INCL_DISCOVERING        | Server included services are being discovere
 868:Generated_Source\PSoC6\pdl\middleware\ble/cy_ble_gap.h **** *   CY_BLE_CONN_STATE_CLIENT_CHAR_DISCOVERING        | Server characteristics are being discovered
 869:Generated_Source\PSoC6\pdl\middleware\ble/cy_ble_gap.h **** *   CY_BLE_CONN_STATE_CLIENT_DESCR_DISCOVERING       | Server char. descriptors are being discovere
 870:Generated_Source\PSoC6\pdl\middleware\ble/cy_ble_gap.h **** *   CY_BLE_CONN_STATE_CLIENT_DISCOVERED              | Server is discovered
 871:Generated_Source\PSoC6\pdl\middleware\ble/cy_ble_gap.h **** *
 872:Generated_Source\PSoC6\pdl\middleware\ble/cy_ble_gap.h **** *  \funcusage
 873:Generated_Source\PSoC6\pdl\middleware\ble/cy_ble_gap.h **** *  \snippet ble\3.0\snippet\main.c BLE Common API: Cy_BLE_GetConnectionState()
 874:Generated_Source\PSoC6\pdl\middleware\ble/cy_ble_gap.h **** *
 875:Generated_Source\PSoC6\pdl\middleware\ble/cy_ble_gap.h **** ******************************************************************************/
 876:Generated_Source\PSoC6\pdl\middleware\ble/cy_ble_gap.h **** __STATIC_INLINE cy_en_ble_conn_state_t Cy_BLE_GetConnectionState(cy_stc_ble_conn_handle_t connHandl
 877:Generated_Source\PSoC6\pdl\middleware\ble/cy_ble_gap.h **** {
 878:Generated_Source\PSoC6\pdl\middleware\ble/cy_ble_gap.h ****     return((connHandle.attId < CY_BLE_CONN_COUNT) ? cy_ble_connState[connHandle.attId] : CY_BLE_CON
 879:Generated_Source\PSoC6\pdl\middleware\ble/cy_ble_gap.h **** }
 880:Generated_Source\PSoC6\pdl\middleware\ble/cy_ble_gap.h **** 
 881:Generated_Source\PSoC6\pdl\middleware\ble/cy_ble_gap.h **** /** \cond IGNORE */
 882:Generated_Source\PSoC6\pdl\middleware\ble/cy_ble_gap.h **** /******************************************************************************
ARM GAS  C:\Users\Smaug\AppData\Local\Temp\ccVZzAJS.s 			page 38


 883:Generated_Source\PSoC6\pdl\middleware\ble/cy_ble_gap.h **** * Function Name: Cy_BLE_SetConnectionState
 884:Generated_Source\PSoC6\pdl\middleware\ble/cy_ble_gap.h **** ***************************************************************************//**
 885:Generated_Source\PSoC6\pdl\middleware\ble/cy_ble_gap.h **** *
 886:Generated_Source\PSoC6\pdl\middleware\ble/cy_ble_gap.h **** *  Used to set BLE link state for the specified connection handle.
 887:Generated_Source\PSoC6\pdl\middleware\ble/cy_ble_gap.h **** *
 888:Generated_Source\PSoC6\pdl\middleware\ble/cy_ble_gap.h **** *  \param connHandle: Peer device handle
 889:Generated_Source\PSoC6\pdl\middleware\ble/cy_ble_gap.h **** *  \param state:  The state that is desired to be set
 890:Generated_Source\PSoC6\pdl\middleware\ble/cy_ble_gap.h **** *
 891:Generated_Source\PSoC6\pdl\middleware\ble/cy_ble_gap.h **** ******************************************************************************/
 892:Generated_Source\PSoC6\pdl\middleware\ble/cy_ble_gap.h **** __STATIC_INLINE void Cy_BLE_SetConnectionState(cy_stc_ble_conn_handle_t connHandle,
 893:Generated_Source\PSoC6\pdl\middleware\ble/cy_ble_gap.h ****                                                cy_en_ble_conn_state_t state)
 894:Generated_Source\PSoC6\pdl\middleware\ble/cy_ble_gap.h **** {
 895:Generated_Source\PSoC6\pdl\middleware\ble/cy_ble_gap.h ****     if(connHandle.attId < CY_BLE_CONN_COUNT)
 896:Generated_Source\PSoC6\pdl\middleware\ble/cy_ble_gap.h ****     {
 897:Generated_Source\PSoC6\pdl\middleware\ble/cy_ble_gap.h ****         cy_ble_connState[connHandle.attId] = state;
 898:Generated_Source\PSoC6\pdl\middleware\ble/cy_ble_gap.h ****     }
 899:Generated_Source\PSoC6\pdl\middleware\ble/cy_ble_gap.h ****     else
 900:Generated_Source\PSoC6\pdl\middleware\ble/cy_ble_gap.h ****     {
 901:Generated_Source\PSoC6\pdl\middleware\ble/cy_ble_gap.h ****         /* Halt in debug mode*/
 902:Generated_Source\PSoC6\pdl\middleware\ble/cy_ble_gap.h ****         CY_ASSERT(connHandle.attId >= CY_BLE_CONN_COUNT);
 903:Generated_Source\PSoC6\pdl\middleware\ble/cy_ble_gap.h ****     }
 904:Generated_Source\PSoC6\pdl\middleware\ble/cy_ble_gap.h **** }
 905:Generated_Source\PSoC6\pdl\middleware\ble/cy_ble_gap.h **** /** \endcond */
 906:Generated_Source\PSoC6\pdl\middleware\ble/cy_ble_gap.h **** 
 907:Generated_Source\PSoC6\pdl\middleware\ble/cy_ble_gap.h **** /******************************************************************************
 908:Generated_Source\PSoC6\pdl\middleware\ble/cy_ble_gap.h **** * Function Name: Cy_BLE_GetNumOfActiveConn
 909:Generated_Source\PSoC6\pdl\middleware\ble/cy_ble_gap.h **** ***************************************************************************//**
 910:Generated_Source\PSoC6\pdl\middleware\ble/cy_ble_gap.h **** *
 911:Generated_Source\PSoC6\pdl\middleware\ble/cy_ble_gap.h **** *  Used to get active number of connections.
 912:Generated_Source\PSoC6\pdl\middleware\ble/cy_ble_gap.h **** *
 913:Generated_Source\PSoC6\pdl\middleware\ble/cy_ble_gap.h **** *  \return
 914:Generated_Source\PSoC6\pdl\middleware\ble/cy_ble_gap.h **** *  connNum - number of active connections
 915:Generated_Source\PSoC6\pdl\middleware\ble/cy_ble_gap.h **** *
 916:Generated_Source\PSoC6\pdl\middleware\ble/cy_ble_gap.h **** ******************************************************************************/
 917:Generated_Source\PSoC6\pdl\middleware\ble/cy_ble_gap.h **** __STATIC_INLINE uint8_t Cy_BLE_GetNumOfActiveConn(void)
 918:Generated_Source\PSoC6\pdl\middleware\ble/cy_ble_gap.h **** {
 919:Generated_Source\PSoC6\pdl\middleware\ble/cy_ble_gap.h ****     uint32_t i;
 920:Generated_Source\PSoC6\pdl\middleware\ble/cy_ble_gap.h ****     uint8_t connNum = 0u;
 921:Generated_Source\PSoC6\pdl\middleware\ble/cy_ble_gap.h **** 
 922:Generated_Source\PSoC6\pdl\middleware\ble/cy_ble_gap.h ****     for(i = 0u; i < CY_BLE_CONN_COUNT; i++)
 923:Generated_Source\PSoC6\pdl\middleware\ble/cy_ble_gap.h ****     {
 924:Generated_Source\PSoC6\pdl\middleware\ble/cy_ble_gap.h ****         if(cy_ble_connState[i] >= CY_BLE_CONN_STATE_CONNECTED)
 925:Generated_Source\PSoC6\pdl\middleware\ble/cy_ble_gap.h ****         {
 926:Generated_Source\PSoC6\pdl\middleware\ble/cy_ble_gap.h ****             connNum++;
 927:Generated_Source\PSoC6\pdl\middleware\ble/cy_ble_gap.h ****         }
 928:Generated_Source\PSoC6\pdl\middleware\ble/cy_ble_gap.h ****     }
 929:Generated_Source\PSoC6\pdl\middleware\ble/cy_ble_gap.h **** 
 930:Generated_Source\PSoC6\pdl\middleware\ble/cy_ble_gap.h ****     return(connNum);
 931:Generated_Source\PSoC6\pdl\middleware\ble/cy_ble_gap.h **** }
 932:Generated_Source\PSoC6\pdl\middleware\ble/cy_ble_gap.h **** 
 933:Generated_Source\PSoC6\pdl\middleware\ble/cy_ble_gap.h **** 
 934:Generated_Source\PSoC6\pdl\middleware\ble/cy_ble_gap.h **** /******************************************************************************
 935:Generated_Source\PSoC6\pdl\middleware\ble/cy_ble_gap.h **** * Function Name: Cy_BLE_GetConnHandleByBdHandle
 936:Generated_Source\PSoC6\pdl\middleware\ble/cy_ble_gap.h **** ***************************************************************************//**
 937:Generated_Source\PSoC6\pdl\middleware\ble/cy_ble_gap.h **** *
 938:Generated_Source\PSoC6\pdl\middleware\ble/cy_ble_gap.h **** *  Used to get connection handle by bdHandle
 939:Generated_Source\PSoC6\pdl\middleware\ble/cy_ble_gap.h **** *  This function halts in debug mode if bdHandle does not exist in the connected device
ARM GAS  C:\Users\Smaug\AppData\Local\Temp\ccVZzAJS.s 			page 39


 940:Generated_Source\PSoC6\pdl\middleware\ble/cy_ble_gap.h **** *  list
 941:Generated_Source\PSoC6\pdl\middleware\ble/cy_ble_gap.h **** *
 942:Generated_Source\PSoC6\pdl\middleware\ble/cy_ble_gap.h **** *  \param bdHandle: Peer device handle
 943:Generated_Source\PSoC6\pdl\middleware\ble/cy_ble_gap.h **** *
 944:Generated_Source\PSoC6\pdl\middleware\ble/cy_ble_gap.h **** *  \return
 945:Generated_Source\PSoC6\pdl\middleware\ble/cy_ble_gap.h **** *  * connHandle: Full connection handle.
 946:Generated_Source\PSoC6\pdl\middleware\ble/cy_ble_gap.h **** *  * connHandle.attId = CY_BLE_INVALID_CONN_HANDLE_VALUE: invalid bdHandle
 947:Generated_Source\PSoC6\pdl\middleware\ble/cy_ble_gap.h **** *
 948:Generated_Source\PSoC6\pdl\middleware\ble/cy_ble_gap.h **** ******************************************************************************/
 949:Generated_Source\PSoC6\pdl\middleware\ble/cy_ble_gap.h **** __STATIC_INLINE cy_stc_ble_conn_handle_t Cy_BLE_GetConnHandleByBdHandle(uint8_t bdHandle)
 950:Generated_Source\PSoC6\pdl\middleware\ble/cy_ble_gap.h **** {
 951:Generated_Source\PSoC6\pdl\middleware\ble/cy_ble_gap.h ****     uint32_t i;
 952:Generated_Source\PSoC6\pdl\middleware\ble/cy_ble_gap.h ****     cy_stc_ble_conn_handle_t cHandle =
 742              		.loc 2 952 0
 743 0232 0222     		movs	r2, #2
 744 0234 5A49     		ldr	r1, .L99+116
 745 0236 0831     		adds	r1, r1, #8
 746 0238 04A8     		add	r0, sp, #16
 747              	.LVL71:
 748 023a FFF7FEFF 		bl	memcpy
 749              	.LVL72:
 953:Generated_Source\PSoC6\pdl\middleware\ble/cy_ble_gap.h ****     {
 954:Generated_Source\PSoC6\pdl\middleware\ble/cy_ble_gap.h ****         .attId    = CY_BLE_INVALID_CONN_HANDLE_VALUE,
 955:Generated_Source\PSoC6\pdl\middleware\ble/cy_ble_gap.h ****         .bdHandle = CY_BLE_INVALID_CONN_HANDLE_VALUE
 956:Generated_Source\PSoC6\pdl\middleware\ble/cy_ble_gap.h ****     };
 957:Generated_Source\PSoC6\pdl\middleware\ble/cy_ble_gap.h **** 
 958:Generated_Source\PSoC6\pdl\middleware\ble/cy_ble_gap.h ****     for(i = 0u; i < CY_BLE_CONN_COUNT; i++)
 750              		.loc 2 958 0
 751 023e 0026     		movs	r6, #0
 752 0240 1DE0     		b	.L64
 753              	.LVL73:
 754              	.L68:
 755 0242 02AF     		add	r7, sp, #8
 756 0244 7300     		lsls	r3, r6, #1
 757 0246 5B49     		ldr	r1, .L99+136
 758 0248 C918     		adds	r1, r1, r3
 759 024a 0222     		movs	r2, #2
 760 024c 3800     		movs	r0, r7
 761 024e FFF7FEFF 		bl	memcpy
 762              	.LVL74:
 763              	.LBB90:
 764              	.LBB91:
 878:Generated_Source\PSoC6\pdl\middleware\ble/cy_ble_gap.h **** }
 765              		.loc 2 878 0
 766 0252 7B78     		ldrb	r3, [r7, #1]
 767 0254 002B     		cmp	r3, #0
 768 0256 02D1     		bne	.L96
 769 0258 574A     		ldr	r2, .L99+140
 770 025a D35C     		ldrb	r3, [r2, r3]
 771 025c 00E0     		b	.L65
 772              	.L96:
 773 025e 0023     		movs	r3, #0
 774              	.L65:
 775              	.LBE91:
 776              	.LBE90:
 959:Generated_Source\PSoC6\pdl\middleware\ble/cy_ble_gap.h ****     {
 960:Generated_Source\PSoC6\pdl\middleware\ble/cy_ble_gap.h ****         if((Cy_BLE_GetConnectionState(cy_ble_connHandle[i]) >= CY_BLE_CONN_STATE_CONNECTED) &&
ARM GAS  C:\Users\Smaug\AppData\Local\Temp\ccVZzAJS.s 			page 40


 777              		.loc 2 960 0
 778 0260 012B     		cmp	r3, #1
 779 0262 0BD9     		bls	.L66
 961:Generated_Source\PSoC6\pdl\middleware\ble/cy_ble_gap.h ****                 (cy_ble_connHandle[i].bdHandle == bdHandle))
 780              		.loc 2 961 0
 781 0264 7300     		lsls	r3, r6, #1
 782 0266 534A     		ldr	r2, .L99+136
 783 0268 9B5C     		ldrb	r3, [r3, r2]
 960:Generated_Source\PSoC6\pdl\middleware\ble/cy_ble_gap.h ****                 (cy_ble_connHandle[i].bdHandle == bdHandle))
 784              		.loc 2 960 0
 785 026a 9845     		cmp	r8, r3
 786 026c 06D1     		bne	.L66
 962:Generated_Source\PSoC6\pdl\middleware\ble/cy_ble_gap.h ****         {
 963:Generated_Source\PSoC6\pdl\middleware\ble/cy_ble_gap.h ****             cHandle = cy_ble_connHandle[i];
 787              		.loc 2 963 0
 788 026e 7600     		lsls	r6, r6, #1
 789              	.LVL75:
 790 0270 9119     		adds	r1, r2, r6
 791 0272 0222     		movs	r2, #2
 792 0274 04A8     		add	r0, sp, #16
 793 0276 FFF7FEFF 		bl	memcpy
 794              	.LVL76:
 795 027a 02E0     		b	.L67
 796              	.LVL77:
 797              	.L66:
 958:Generated_Source\PSoC6\pdl\middleware\ble/cy_ble_gap.h ****     {
 798              		.loc 2 958 0
 799 027c 0136     		adds	r6, r6, #1
 800              	.LVL78:
 801              	.L64:
 802 027e 002E     		cmp	r6, #0
 803 0280 DFD0     		beq	.L68
 804              	.LVL79:
 805              	.L67:
 964:Generated_Source\PSoC6\pdl\middleware\ble/cy_ble_gap.h ****             break;
 965:Generated_Source\PSoC6\pdl\middleware\ble/cy_ble_gap.h ****         }
 966:Generated_Source\PSoC6\pdl\middleware\ble/cy_ble_gap.h ****     }
 967:Generated_Source\PSoC6\pdl\middleware\ble/cy_ble_gap.h ****     if(cHandle.attId == CY_BLE_INVALID_CONN_HANDLE_VALUE)
 806              		.loc 2 967 0
 807 0282 04AB     		add	r3, sp, #16
 808 0284 5B78     		ldrb	r3, [r3, #1]
 809 0286 FF2B     		cmp	r3, #255
 810 0288 04D1     		bne	.L69
 968:Generated_Source\PSoC6\pdl\middleware\ble/cy_ble_gap.h ****     {
 969:Generated_Source\PSoC6\pdl\middleware\ble/cy_ble_gap.h ****         /* HALT in debug mode */
 970:Generated_Source\PSoC6\pdl\middleware\ble/cy_ble_gap.h ****         CY_ASSERT(cHandle.attId != CY_BLE_INVALID_CONN_HANDLE_VALUE);
 811              		.loc 2 970 0
 812 028a 03D1     		bne	.L69
 813 028c 4B49     		ldr	r1, .L99+144
 814 028e 4C48     		ldr	r0, .L99+148
 815 0290 FFF7FEFF 		bl	Cy_SysLib_AssertFailed
 816              	.LVL80:
 817              	.L69:
 971:Generated_Source\PSoC6\pdl\middleware\ble/cy_ble_gap.h ****     }
 972:Generated_Source\PSoC6\pdl\middleware\ble/cy_ble_gap.h **** 
 973:Generated_Source\PSoC6\pdl\middleware\ble/cy_ble_gap.h ****     return cHandle;
 818              		.loc 2 973 0
ARM GAS  C:\Users\Smaug\AppData\Local\Temp\ccVZzAJS.s 			page 41


 819 0294 04AB     		add	r3, sp, #16
 820 0296 1B88     		ldrh	r3, [r3]
 821 0298 07AA     		add	r2, sp, #28
 822 029a 1380     		strh	r3, [r2]
 823 029c 06AA     		add	r2, sp, #24
 824 029e 1380     		strh	r3, [r2]
 825              	.LVL81:
 826              	.LBE89:
 827              	.LBE88:
 828              		.loc 1 452 0
 829 02a0 1B0A     		lsrs	r3, r3, #8
 453:Generated_Source\PSoC6\pdl\middleware\ble/cy_ble_event_handler.c ****                 ((cy_stc_ble_l2cap_state_info_t*)evParam)->flowState;
 830              		.loc 1 453 0
 831 02a2 2978     		ldrb	r1, [r5]
 452:Generated_Source\PSoC6\pdl\middleware\ble/cy_ble_event_handler.c ****                 ((cy_stc_ble_l2cap_state_info_t*)evParam)->flowState;
 832              		.loc 1 452 0
 833 02a4 474A     		ldr	r2, .L99+152
 834 02a6 D154     		strb	r1, [r2, r3]
 454:Generated_Source\PSoC6\pdl\middleware\ble/cy_ble_event_handler.c ****         #endif /*(CY_BLE_GAP_ROLE_PERIPHERAL || CY_BLE_GAP_ROLE_CENTRAL)*/
 455:Generated_Source\PSoC6\pdl\middleware\ble/cy_ble_event_handler.c ****             break;
 835              		.loc 1 455 0
 836 02a8 CAE1     		b	.L31
 837              	.LVL82:
 838              	.L40:
 839              	.LBB92:
 456:Generated_Source\PSoC6\pdl\middleware\ble/cy_ble_event_handler.c **** 
 457:Generated_Source\PSoC6\pdl\middleware\ble/cy_ble_event_handler.c ****         case CY_BLE_EVT_MEMORY_REQUEST:
 458:Generated_Source\PSoC6\pdl\middleware\ble/cy_ble_event_handler.c ****         #if (CY_BLE_MODE_PROFILE)
 459:Generated_Source\PSoC6\pdl\middleware\ble/cy_ble_event_handler.c ****             {
 460:Generated_Source\PSoC6\pdl\middleware\ble/cy_ble_event_handler.c ****                 cy_stc_ble_memory_request_t *memReq = (cy_stc_ble_memory_request_t*)evParam;
 461:Generated_Source\PSoC6\pdl\middleware\ble/cy_ble_event_handler.c ****                 if(memReq->request == CY_BLE_PREPARED_WRITE_REQUEST)
 840              		.loc 1 461 0
 841 02aa 2B78     		ldrb	r3, [r5]
 842 02ac 002B     		cmp	r3, #0
 843 02ae 00D0     		beq	.LCB817
 844 02b0 C6E1     		b	.L31	@long jump
 845              	.LCB817:
 462:Generated_Source\PSoC6\pdl\middleware\ble/cy_ble_event_handler.c ****                 {
 463:Generated_Source\PSoC6\pdl\middleware\ble/cy_ble_event_handler.c ****             #if (CY_BLE_GATT_ENABLE_EXTERNAL_PREP_WRITE_BUFF == 0u)
 464:Generated_Source\PSoC6\pdl\middleware\ble/cy_ble_event_handler.c ****                     /* Stack requests to provide memory to process a remote request */
 465:Generated_Source\PSoC6\pdl\middleware\ble/cy_ble_event_handler.c ****                     if(memReq->allocFree == CY_BLE_ALLOC_MEMORY)
 846              		.loc 1 465 0
 847 02b2 2B7A     		ldrb	r3, [r5, #8]
 848 02b4 002B     		cmp	r3, #0
 849 02b6 07D1     		bne	.L70
 850              	.LBB93:
 466:Generated_Source\PSoC6\pdl\middleware\ble/cy_ble_event_handler.c ****                     {
 467:Generated_Source\PSoC6\pdl\middleware\ble/cy_ble_event_handler.c ****                         static cy_stc_ble_prepare_write_request_memory_t gPrepWriteReqMem;
 468:Generated_Source\PSoC6\pdl\middleware\ble/cy_ble_event_handler.c **** 
 469:Generated_Source\PSoC6\pdl\middleware\ble/cy_ble_event_handler.c ****                         /* Configure and return a statically allocated buffer at the end of the cy_
 470:Generated_Source\PSoC6\pdl\middleware\ble/cy_ble_event_handler.c ****                         gPrepWriteReqMem.prepareWriteQueueSize = CY_BLE_GATT_MAX_PREPARE_BUFF_COUNT
 851              		.loc 1 470 0
 852 02b8 434B     		ldr	r3, .L99+156
 853 02ba 0C22     		movs	r2, #12
 854 02bc DA80     		strh	r2, [r3, #6]
 471:Generated_Source\PSoC6\pdl\middleware\ble/cy_ble_event_handler.c ****                         gPrepWriteReqMem.totalAttrValueLength = CY_BLE_GATT_PREPARE_LENGTH_ALIGN;
 855              		.loc 1 471 0
ARM GAS  C:\Users\Smaug\AppData\Local\Temp\ccVZzAJS.s 			page 42


 856 02be BC32     		adds	r2, r2, #188
 857 02c0 9A80     		strh	r2, [r3, #4]
 472:Generated_Source\PSoC6\pdl\middleware\ble/cy_ble_event_handler.c ****                         gPrepWriteReqMem.queueBuffer = &cy_ble_stackMemoryRam[(CY_BLE_STACK_RAM_SIZ
 858              		.loc 1 472 0
 859 02c2 424A     		ldr	r2, .L99+160
 860 02c4 1A60     		str	r2, [r3]
 473:Generated_Source\PSoC6\pdl\middleware\ble/cy_ble_event_handler.c ****                                                                               CY_BLE_GATT_PREPARE_W
 474:Generated_Source\PSoC6\pdl\middleware\ble/cy_ble_event_handler.c ****                         memReq->configMemory = &gPrepWriteReqMem;
 861              		.loc 1 474 0
 862 02c6 6B60     		str	r3, [r5, #4]
 863              	.L70:
 864              	.LBE93:
 475:Generated_Source\PSoC6\pdl\middleware\ble/cy_ble_event_handler.c ****                     }
 476:Generated_Source\PSoC6\pdl\middleware\ble/cy_ble_event_handler.c ****                     /* Clear the CY_BLE_CALLBACK flag not to provide a handled event to the applica
 477:Generated_Source\PSoC6\pdl\middleware\ble/cy_ble_event_handler.c ****                     cy_ble_eventHandlerFlag &= (uint8_t) ~CY_BLE_CALLBACK;
 865              		.loc 1 477 0
 866 02c8 184A     		ldr	r2, .L99
 867 02ca 1378     		ldrb	r3, [r2]
 868 02cc 0121     		movs	r1, #1
 869 02ce 8B43     		bics	r3, r1
 870 02d0 1370     		strb	r3, [r2]
 871 02d2 B5E1     		b	.L31
 872              	.LVL83:
 873              	.L42:
 874              	.LBE92:
 478:Generated_Source\PSoC6\pdl\middleware\ble/cy_ble_event_handler.c ****             #endif  /* CY_BLE_GATT_ENABLE_EXTERNAL_PREP_WRITE_BUFF == 0u */
 479:Generated_Source\PSoC6\pdl\middleware\ble/cy_ble_event_handler.c ****                 }
 480:Generated_Source\PSoC6\pdl\middleware\ble/cy_ble_event_handler.c ****             }
 481:Generated_Source\PSoC6\pdl\middleware\ble/cy_ble_event_handler.c ****         #endif /* CY_BLE_MODE_PROFILE */
 482:Generated_Source\PSoC6\pdl\middleware\ble/cy_ble_event_handler.c ****             break;
 483:Generated_Source\PSoC6\pdl\middleware\ble/cy_ble_event_handler.c **** 
 484:Generated_Source\PSoC6\pdl\middleware\ble/cy_ble_event_handler.c ****         /**********************************************************
 485:Generated_Source\PSoC6\pdl\middleware\ble/cy_ble_event_handler.c ****          * GAP events
 486:Generated_Source\PSoC6\pdl\middleware\ble/cy_ble_event_handler.c ****          ************************************************************/
 487:Generated_Source\PSoC6\pdl\middleware\ble/cy_ble_event_handler.c ****         case CY_BLE_EVT_GAP_AUTH_REQ:
 488:Generated_Source\PSoC6\pdl\middleware\ble/cy_ble_event_handler.c ****             break;
 489:Generated_Source\PSoC6\pdl\middleware\ble/cy_ble_event_handler.c **** 
 490:Generated_Source\PSoC6\pdl\middleware\ble/cy_ble_event_handler.c ****         case CY_BLE_EVT_GAP_AUTH_COMPLETE:
 491:Generated_Source\PSoC6\pdl\middleware\ble/cy_ble_event_handler.c ****         #if ((CY_BLE_GAP_ROLE_PERIPHERAL || CY_BLE_GAP_ROLE_CENTRAL) && (CY_BLE_BONDING_REQUIREMENT
 492:Generated_Source\PSoC6\pdl\middleware\ble/cy_ble_event_handler.c ****             {
 493:Generated_Source\PSoC6\pdl\middleware\ble/cy_ble_event_handler.c ****                 cy_stc_ble_conn_handle_t connectedHandle;
 494:Generated_Source\PSoC6\pdl\middleware\ble/cy_ble_event_handler.c ****                 connectedHandle = Cy_BLE_GetConnHandleByBdHandle(((cy_stc_ble_gap_auth_info_t*)evPa
 495:Generated_Source\PSoC6\pdl\middleware\ble/cy_ble_event_handler.c ****                 cy_ble_peerBonding[connectedHandle.attId] = ((cy_stc_ble_gap_auth_info_t*)evParam)-
 496:Generated_Source\PSoC6\pdl\middleware\ble/cy_ble_event_handler.c ****             }
 497:Generated_Source\PSoC6\pdl\middleware\ble/cy_ble_event_handler.c ****         #endif  /* CY_BLE_BONDING_REQUIREMENT == CY_BLE_BONDING_YES */
 498:Generated_Source\PSoC6\pdl\middleware\ble/cy_ble_event_handler.c **** 
 499:Generated_Source\PSoC6\pdl\middleware\ble/cy_ble_event_handler.c ****         #if ((CY_BLE_GAP_ROLE_PERIPHERAL || CY_BLE_GAP_ROLE_CENTRAL))
 500:Generated_Source\PSoC6\pdl\middleware\ble/cy_ble_event_handler.c ****             if(((cy_stc_ble_gap_auth_info_t *)evParam)->authErr == CY_BLE_GAP_AUTH_ERROR_NONE)
 875              		.loc 1 500 0
 876 02d4 EB78     		ldrb	r3, [r5, #3]
 877 02d6 002B     		cmp	r3, #0
 878 02d8 00D0     		beq	.LCB850
 879 02da B1E1     		b	.L31	@long jump
 880              	.LCB850:
 881              	.LBB94:
 501:Generated_Source\PSoC6\pdl\middleware\ble/cy_ble_event_handler.c ****             {
 502:Generated_Source\PSoC6\pdl\middleware\ble/cy_ble_event_handler.c ****                 cy_stc_ble_conn_handle_t connectedHandle;
ARM GAS  C:\Users\Smaug\AppData\Local\Temp\ccVZzAJS.s 			page 43


 503:Generated_Source\PSoC6\pdl\middleware\ble/cy_ble_event_handler.c ****                 connectedHandle = Cy_BLE_GetConnHandleByBdHandle(((cy_stc_ble_gap_auth_info_t *)evP
 882              		.loc 1 503 0
 883 02dc 6B79     		ldrb	r3, [r5, #5]
 884 02de 9846     		mov	r8, r3
 885              	.LVL84:
 886              	.LBB95:
 887              	.LBB96:
 952:Generated_Source\PSoC6\pdl\middleware\ble/cy_ble_gap.h ****     {
 888              		.loc 2 952 0
 889 02e0 0222     		movs	r2, #2
 890 02e2 2F49     		ldr	r1, .L99+116
 891 02e4 0831     		adds	r1, r1, #8
 892 02e6 04A8     		add	r0, sp, #16
 893              	.LVL85:
 894 02e8 FFF7FEFF 		bl	memcpy
 895              	.LVL86:
 958:Generated_Source\PSoC6\pdl\middleware\ble/cy_ble_gap.h ****     {
 896              		.loc 2 958 0
 897 02ec 0026     		movs	r6, #0
 898 02ee 70E0     		b	.L71
 899              	.LVL87:
 900              	.L75:
 901 02f0 03AF     		add	r7, sp, #12
 902 02f2 7300     		lsls	r3, r6, #1
 903 02f4 2F49     		ldr	r1, .L99+136
 904 02f6 C918     		adds	r1, r1, r3
 905 02f8 0222     		movs	r2, #2
 906 02fa 3800     		movs	r0, r7
 907 02fc FFF7FEFF 		bl	memcpy
 908              	.LVL88:
 909              	.LBB97:
 910              	.LBB98:
 878:Generated_Source\PSoC6\pdl\middleware\ble/cy_ble_gap.h **** }
 911              		.loc 2 878 0
 912 0300 7B78     		ldrb	r3, [r7, #1]
 913 0302 002B     		cmp	r3, #0
 914 0304 02D1     		bne	.L97
 915 0306 2C4A     		ldr	r2, .L99+140
 916 0308 D35C     		ldrb	r3, [r2, r3]
 917 030a 00E0     		b	.L72
 918              	.L97:
 919 030c 0023     		movs	r3, #0
 920              	.L72:
 921              	.LBE98:
 922              	.LBE97:
 960:Generated_Source\PSoC6\pdl\middleware\ble/cy_ble_gap.h ****                 (cy_ble_connHandle[i].bdHandle == bdHandle))
 923              		.loc 2 960 0
 924 030e 012B     		cmp	r3, #1
 925 0310 5ED9     		bls	.L73
 961:Generated_Source\PSoC6\pdl\middleware\ble/cy_ble_gap.h ****         {
 926              		.loc 2 961 0
 927 0312 7300     		lsls	r3, r6, #1
 928 0314 274A     		ldr	r2, .L99+136
 929 0316 9B5C     		ldrb	r3, [r3, r2]
 960:Generated_Source\PSoC6\pdl\middleware\ble/cy_ble_gap.h ****                 (cy_ble_connHandle[i].bdHandle == bdHandle))
 930              		.loc 2 960 0
 931 0318 9845     		cmp	r8, r3
ARM GAS  C:\Users\Smaug\AppData\Local\Temp\ccVZzAJS.s 			page 44


 932 031a 59D1     		bne	.L73
 963:Generated_Source\PSoC6\pdl\middleware\ble/cy_ble_gap.h ****             break;
 933              		.loc 2 963 0
 934 031c 7600     		lsls	r6, r6, #1
 935              	.LVL89:
 936 031e 9119     		adds	r1, r2, r6
 937 0320 0222     		movs	r2, #2
 938 0322 04A8     		add	r0, sp, #16
 939 0324 FFF7FEFF 		bl	memcpy
 940              	.LVL90:
 941 0328 55E0     		b	.L74
 942              	.L100:
 943 032a C046     		.align	2
 944              	.L99:
 945 032c 00000000 		.word	cy_ble_eventHandlerFlag
 946 0330 08400000 		.word	16392
 947 0334 01300000 		.word	12289
 948 0338 02100000 		.word	4098
 949 033c 01100000 		.word	4097
 950 0340 03100000 		.word	4099
 951 0344 04200000 		.word	8196
 952 0348 04400000 		.word	16388
 953 034c 12300000 		.word	12306
 954 0350 19300000 		.word	12313
 955 0354 06400000 		.word	16390
 956 0358 07400000 		.word	16391
 957 035c 0C500000 		.word	20492
 958 0360 01500000 		.word	20481
 959 0364 0A400000 		.word	16394
 960 0368 10400000 		.word	16400
 961 036c 02500000 		.word	20482
 962 0370 03500000 		.word	20483
 963 0374 10500000 		.word	20496
 964 0378 0E500000 		.word	20494
 965 037c 0F500000 		.word	20495
 966 0380 17500000 		.word	20503
 967 0384 01600000 		.word	24577
 968 0388 14500000 		.word	20500
 969 038c 00000000 		.word	cy_ble_sflashDeviceAddress
 970 0390 00000000 		.word	cy_ble_configPtr
 971 0394 04060000 		.word	1540
 972 0398 05060000 		.word	1541
 973 039c 03060000 		.word	1539
 974 03a0 00000000 		.word	.LANCHOR0
 975 03a4 00000000 		.word	cy_ble_state
 976 03a8 00000000 		.word	cy_ble_advState
 977 03ac 00000000 		.word	cy_ble_pairStatus
 978 03b0 00000000 		.word	cy_ble_cmdStatus
 979 03b4 00000000 		.word	cy_ble_connHandle
 980 03b8 00000000 		.word	cy_ble_connState
 981 03bc CA030000 		.word	970
 982 03c0 00000000 		.word	.LC16
 983 03c4 00000000 		.word	cy_ble_busyStatus
 984 03c8 00000000 		.word	.LANCHOR1
 985 03cc E4240000 		.word	cy_ble_stackMemoryRam+9444
 986              	.LVL91:
 987              	.L73:
ARM GAS  C:\Users\Smaug\AppData\Local\Temp\ccVZzAJS.s 			page 45


 958:Generated_Source\PSoC6\pdl\middleware\ble/cy_ble_gap.h ****     {
 988              		.loc 2 958 0
 989 03d0 0136     		adds	r6, r6, #1
 990              	.LVL92:
 991              	.L71:
 992 03d2 002E     		cmp	r6, #0
 993 03d4 8CD0     		beq	.L75
 994              	.LVL93:
 995              	.L74:
 967:Generated_Source\PSoC6\pdl\middleware\ble/cy_ble_gap.h ****     {
 996              		.loc 2 967 0
 997 03d6 04AB     		add	r3, sp, #16
 998 03d8 5B78     		ldrb	r3, [r3, #1]
 999 03da FF2B     		cmp	r3, #255
 1000 03dc 04D1     		bne	.L76
 970:Generated_Source\PSoC6\pdl\middleware\ble/cy_ble_gap.h ****     }
 1001              		.loc 2 970 0
 1002 03de 03D1     		bne	.L76
 1003 03e0 A149     		ldr	r1, .L101
 1004 03e2 A248     		ldr	r0, .L101+4
 1005 03e4 FFF7FEFF 		bl	Cy_SysLib_AssertFailed
 1006              	.LVL94:
 1007              	.L76:
 1008              		.loc 2 973 0
 1009 03e8 04AA     		add	r2, sp, #16
 1010 03ea 1388     		ldrh	r3, [r2]
 1011 03ec 08A9     		add	r1, sp, #32
 1012 03ee 0B80     		strh	r3, [r1]
 1013 03f0 1380     		strh	r3, [r2]
 1014              	.LVL95:
 1015              	.LBE96:
 1016              	.LBE95:
 504:Generated_Source\PSoC6\pdl\middleware\ble/cy_ble_event_handler.c ****                 cy_ble_pairStatus[connectedHandle.attId] = true;
 1017              		.loc 1 504 0
 1018 03f2 1B0A     		lsrs	r3, r3, #8
 1019 03f4 0121     		movs	r1, #1
 1020 03f6 9E4A     		ldr	r2, .L101+8
 1021 03f8 D154     		strb	r1, [r2, r3]
 1022 03fa 21E1     		b	.L31
 1023              	.LVL96:
 1024              	.L51:
 1025              	.LBE94:
 505:Generated_Source\PSoC6\pdl\middleware\ble/cy_ble_event_handler.c ****             }
 506:Generated_Source\PSoC6\pdl\middleware\ble/cy_ble_event_handler.c ****         #endif /* ((CY_BLE_GAP_ROLE_PERIPHERAL || CY_BLE_GAP_ROLE_CENTRAL)) */
 507:Generated_Source\PSoC6\pdl\middleware\ble/cy_ble_event_handler.c ****             break;
 508:Generated_Source\PSoC6\pdl\middleware\ble/cy_ble_event_handler.c **** 
 509:Generated_Source\PSoC6\pdl\middleware\ble/cy_ble_event_handler.c ****         case CY_BLE_EVT_GAP_CONNECTION_UPDATE_COMPLETE:
 510:Generated_Source\PSoC6\pdl\middleware\ble/cy_ble_event_handler.c ****         #if (CY_BLE_GAP_ROLE_PERIPHERAL || CY_BLE_GAP_ROLE_CENTRAL)
 511:Generated_Source\PSoC6\pdl\middleware\ble/cy_ble_event_handler.c ****             (void)Cy_BLE_InvokeServiceEventHandler((uint32_t)event, (void*)evParam);
 1026              		.loc 1 511 0
 1027 03fc 2900     		movs	r1, r5
 1028 03fe FFF7FEFF 		bl	Cy_BLE_InvokeServiceEventHandler
 1029              	.LVL97:
 512:Generated_Source\PSoC6\pdl\middleware\ble/cy_ble_event_handler.c ****         #endif /*(CY_BLE_GAP_ROLE_PERIPHERAL || CY_BLE_GAP_ROLE_CENTRAL) */
 513:Generated_Source\PSoC6\pdl\middleware\ble/cy_ble_event_handler.c ****             break;
 1030              		.loc 1 513 0
 1031 0402 1DE1     		b	.L31
ARM GAS  C:\Users\Smaug\AppData\Local\Temp\ccVZzAJS.s 			page 46


 1032              	.LVL98:
 1033              	.L46:
 1034              	.LBB99:
 514:Generated_Source\PSoC6\pdl\middleware\ble/cy_ble_event_handler.c **** 
 515:Generated_Source\PSoC6\pdl\middleware\ble/cy_ble_event_handler.c ****         case CY_BLE_EVT_GAP_ENHANCE_CONN_COMPLETE:
 516:Generated_Source\PSoC6\pdl\middleware\ble/cy_ble_event_handler.c ****         case CY_BLE_EVT_GAP_DEVICE_CONNECTED:
 517:Generated_Source\PSoC6\pdl\middleware\ble/cy_ble_event_handler.c ****             {
 518:Generated_Source\PSoC6\pdl\middleware\ble/cy_ble_event_handler.c ****             #if (CY_BLE_LL_PRIVACY_FEATURE != 0u)
 519:Generated_Source\PSoC6\pdl\middleware\ble/cy_ble_event_handler.c ****                 cy_stc_ble_gap_enhance_conn_complete_param_t *tEvParam =
 520:Generated_Source\PSoC6\pdl\middleware\ble/cy_ble_event_handler.c ****                     (cy_stc_ble_gap_enhance_conn_complete_param_t *)evParam;
 521:Generated_Source\PSoC6\pdl\middleware\ble/cy_ble_event_handler.c ****             #else
 522:Generated_Source\PSoC6\pdl\middleware\ble/cy_ble_event_handler.c ****                 cy_stc_ble_gap_connected_param_t *tEvParam = (cy_stc_ble_gap_connected_param_t *)ev
 523:Generated_Source\PSoC6\pdl\middleware\ble/cy_ble_event_handler.c ****             #endif /* (CY_BLE_LL_PRIVACY_FEATURE != 0u) */
 524:Generated_Source\PSoC6\pdl\middleware\ble/cy_ble_event_handler.c ****                 if(tEvParam->status == CY_BLE_HCI_SUCCESS)
 1035              		.loc 1 524 0
 1036 0404 2B78     		ldrb	r3, [r5]
 1037 0406 002B     		cmp	r3, #0
 1038 0408 43D1     		bne	.L77
 525:Generated_Source\PSoC6\pdl\middleware\ble/cy_ble_event_handler.c ****                 {
 526:Generated_Source\PSoC6\pdl\middleware\ble/cy_ble_event_handler.c ****                     /* Advertising is automatically stopped if a Slave is connected,
 527:Generated_Source\PSoC6\pdl\middleware\ble/cy_ble_event_handler.c ****                        so update the adv state to CY_BLE_ADV_STATE_STOPPED  */
 528:Generated_Source\PSoC6\pdl\middleware\ble/cy_ble_event_handler.c ****                     #if (CY_BLE_GAP_ROLE_PERIPHERAL || CY_BLE_GAP_ROLE_BROADCASTER)
 529:Generated_Source\PSoC6\pdl\middleware\ble/cy_ble_event_handler.c ****                         if(tEvParam->role == CY_BLE_GAP_LL_ROLE_SLAVE)
 1039              		.loc 1 529 0
 1040 040a AB78     		ldrb	r3, [r5, #2]
 1041 040c 012B     		cmp	r3, #1
 1042 040e 02D1     		bne	.L78
 1043              	.LVL99:
 1044              	.LBB100:
 1045              	.LBB101:
 763:Generated_Source\PSoC6\pdl\middleware\ble/cy_ble_gap.h **** }
 1046              		.loc 2 763 0
 1047 0410 0022     		movs	r2, #0
 1048 0412 984B     		ldr	r3, .L101+12
 1049 0414 1A70     		strb	r2, [r3]
 1050              	.LVL100:
 1051              	.L78:
 1052              	.LBE101:
 1053              	.LBE100:
 1054              	.LBB102:
 530:Generated_Source\PSoC6\pdl\middleware\ble/cy_ble_event_handler.c ****                         {
 531:Generated_Source\PSoC6\pdl\middleware\ble/cy_ble_event_handler.c ****                             Cy_BLE_SetAdvertisementState(CY_BLE_ADV_STATE_STOPPED);
 532:Generated_Source\PSoC6\pdl\middleware\ble/cy_ble_event_handler.c ****                         }
 533:Generated_Source\PSoC6\pdl\middleware\ble/cy_ble_event_handler.c ****                     #endif /* (CY_BLE_GAP_ROLE_PERIPHERAL || CY_BLE_GAP_ROLE_BROADCASTER) */
 534:Generated_Source\PSoC6\pdl\middleware\ble/cy_ble_event_handler.c **** 
 535:Generated_Source\PSoC6\pdl\middleware\ble/cy_ble_event_handler.c ****                     /* Stop Timer in central mode (if timer was started) */
 536:Generated_Source\PSoC6\pdl\middleware\ble/cy_ble_event_handler.c ****                     #if (CY_BLE_GAP_ROLE_CENTRAL)
 537:Generated_Source\PSoC6\pdl\middleware\ble/cy_ble_event_handler.c ****                         if(cy_ble_connectingTimeout.timeout != 0u)
 538:Generated_Source\PSoC6\pdl\middleware\ble/cy_ble_event_handler.c ****                         {
 539:Generated_Source\PSoC6\pdl\middleware\ble/cy_ble_event_handler.c ****                             (void)Cy_BLE_StopTimer(&cy_ble_connectingTimeout);
 540:Generated_Source\PSoC6\pdl\middleware\ble/cy_ble_event_handler.c ****                         }
 541:Generated_Source\PSoC6\pdl\middleware\ble/cy_ble_event_handler.c ****                     #endif /* CY_BLE_GAP_ROLE_CENTRAL */
 542:Generated_Source\PSoC6\pdl\middleware\ble/cy_ble_event_handler.c **** 
 543:Generated_Source\PSoC6\pdl\middleware\ble/cy_ble_event_handler.c ****                     /* Store information about role of device connected (Master/Slave)*/
 544:Generated_Source\PSoC6\pdl\middleware\ble/cy_ble_event_handler.c ****                     #if ((CY_BLE_GAP_ROLE_PERIPHERAL || CY_BLE_GAP_ROLE_CENTRAL))
 545:Generated_Source\PSoC6\pdl\middleware\ble/cy_ble_event_handler.c ****                     {
 546:Generated_Source\PSoC6\pdl\middleware\ble/cy_ble_event_handler.c ****                         cy_stc_ble_conn_handle_t tconnHandle = Cy_BLE_GetConnHandleByBdHandle(tEvPa
ARM GAS  C:\Users\Smaug\AppData\Local\Temp\ccVZzAJS.s 			page 47


 1055              		.loc 1 546 0
 1056 0416 6B78     		ldrb	r3, [r5, #1]
 1057 0418 9846     		mov	r8, r3
 1058              	.LVL101:
 1059              	.LBB103:
 1060              	.LBB104:
 952:Generated_Source\PSoC6\pdl\middleware\ble/cy_ble_gap.h ****     {
 1061              		.loc 2 952 0
 1062 041a 0222     		movs	r2, #2
 1063 041c 9649     		ldr	r1, .L101+16
 1064 041e 0831     		adds	r1, r1, #8
 1065 0420 03A8     		add	r0, sp, #12
 1066              	.LVL102:
 1067 0422 FFF7FEFF 		bl	memcpy
 1068              	.LVL103:
 958:Generated_Source\PSoC6\pdl\middleware\ble/cy_ble_gap.h ****     {
 1069              		.loc 2 958 0
 1070 0426 0026     		movs	r6, #0
 1071 0428 1DE0     		b	.L79
 1072              	.LVL104:
 1073              	.L83:
 1074 042a 04AF     		add	r7, sp, #16
 1075 042c 7300     		lsls	r3, r6, #1
 1076 042e 9349     		ldr	r1, .L101+20
 1077 0430 C918     		adds	r1, r1, r3
 1078 0432 0222     		movs	r2, #2
 1079 0434 3800     		movs	r0, r7
 1080 0436 FFF7FEFF 		bl	memcpy
 1081              	.LVL105:
 1082              	.LBB105:
 1083              	.LBB106:
 878:Generated_Source\PSoC6\pdl\middleware\ble/cy_ble_gap.h **** }
 1084              		.loc 2 878 0
 1085 043a 7B78     		ldrb	r3, [r7, #1]
 1086 043c 002B     		cmp	r3, #0
 1087 043e 02D1     		bne	.L98
 1088 0440 8F4A     		ldr	r2, .L101+24
 1089 0442 D35C     		ldrb	r3, [r2, r3]
 1090 0444 00E0     		b	.L80
 1091              	.L98:
 1092 0446 0023     		movs	r3, #0
 1093              	.L80:
 1094              	.LBE106:
 1095              	.LBE105:
 960:Generated_Source\PSoC6\pdl\middleware\ble/cy_ble_gap.h ****                 (cy_ble_connHandle[i].bdHandle == bdHandle))
 1096              		.loc 2 960 0
 1097 0448 012B     		cmp	r3, #1
 1098 044a 0BD9     		bls	.L81
 961:Generated_Source\PSoC6\pdl\middleware\ble/cy_ble_gap.h ****         {
 1099              		.loc 2 961 0
 1100 044c 7300     		lsls	r3, r6, #1
 1101 044e 8B4A     		ldr	r2, .L101+20
 1102 0450 9B5C     		ldrb	r3, [r3, r2]
 960:Generated_Source\PSoC6\pdl\middleware\ble/cy_ble_gap.h ****                 (cy_ble_connHandle[i].bdHandle == bdHandle))
 1103              		.loc 2 960 0
 1104 0452 9845     		cmp	r8, r3
 1105 0454 06D1     		bne	.L81
ARM GAS  C:\Users\Smaug\AppData\Local\Temp\ccVZzAJS.s 			page 48


 963:Generated_Source\PSoC6\pdl\middleware\ble/cy_ble_gap.h ****             break;
 1106              		.loc 2 963 0
 1107 0456 7600     		lsls	r6, r6, #1
 1108              	.LVL106:
 1109 0458 9119     		adds	r1, r2, r6
 1110 045a 0222     		movs	r2, #2
 1111 045c 03A8     		add	r0, sp, #12
 1112 045e FFF7FEFF 		bl	memcpy
 1113              	.LVL107:
 1114 0462 02E0     		b	.L82
 1115              	.LVL108:
 1116              	.L81:
 958:Generated_Source\PSoC6\pdl\middleware\ble/cy_ble_gap.h ****     {
 1117              		.loc 2 958 0
 1118 0464 0136     		adds	r6, r6, #1
 1119              	.LVL109:
 1120              	.L79:
 1121 0466 002E     		cmp	r6, #0
 1122 0468 DFD0     		beq	.L83
 1123              	.LVL110:
 1124              	.L82:
 967:Generated_Source\PSoC6\pdl\middleware\ble/cy_ble_gap.h ****     {
 1125              		.loc 2 967 0
 1126 046a 03AB     		add	r3, sp, #12
 1127 046c 5B78     		ldrb	r3, [r3, #1]
 1128 046e FF2B     		cmp	r3, #255
 1129 0470 04D1     		bne	.L84
 970:Generated_Source\PSoC6\pdl\middleware\ble/cy_ble_gap.h ****     }
 1130              		.loc 2 970 0
 1131 0472 03D1     		bne	.L84
 1132 0474 7C49     		ldr	r1, .L101
 1133 0476 7D48     		ldr	r0, .L101+4
 1134 0478 FFF7FEFF 		bl	Cy_SysLib_AssertFailed
 1135              	.LVL111:
 1136              	.L84:
 1137              		.loc 2 973 0
 1138 047c 03AA     		add	r2, sp, #12
 1139 047e 1388     		ldrh	r3, [r2]
 1140 0480 09A9     		add	r1, sp, #36
 1141 0482 0B80     		strh	r3, [r1]
 1142 0484 1380     		strh	r3, [r2]
 1143              	.LVL112:
 1144              	.LBE104:
 1145              	.LBE103:
 547:Generated_Source\PSoC6\pdl\middleware\ble/cy_ble_event_handler.c ****                         if( tconnHandle.attId != CY_BLE_INVALID_CONN_HANDLE_VALUE)
 1146              		.loc 1 547 0
 1147 0486 1B0A     		lsrs	r3, r3, #8
 1148 0488 FF2B     		cmp	r3, #255
 1149 048a 02D0     		beq	.L77
 548:Generated_Source\PSoC6\pdl\middleware\ble/cy_ble_event_handler.c ****                         {
 549:Generated_Source\PSoC6\pdl\middleware\ble/cy_ble_event_handler.c ****                             cy_ble_devConnRole[tconnHandle.attId] = tEvParam->role;
 1150              		.loc 1 549 0
 1151 048c A978     		ldrb	r1, [r5, #2]
 1152 048e 7D4A     		ldr	r2, .L101+28
 1153 0490 D154     		strb	r1, [r2, r3]
 1154              	.L77:
 1155              	.LBE102:
ARM GAS  C:\Users\Smaug\AppData\Local\Temp\ccVZzAJS.s 			page 49


 550:Generated_Source\PSoC6\pdl\middleware\ble/cy_ble_event_handler.c ****                         }
 551:Generated_Source\PSoC6\pdl\middleware\ble/cy_ble_event_handler.c ****                     }
 552:Generated_Source\PSoC6\pdl\middleware\ble/cy_ble_event_handler.c ****                     #endif /*((CY_BLE_GAP_ROLE_PERIPHERAL || CY_BLE_GAP_ROLE_CENTRAL))*/
 553:Generated_Source\PSoC6\pdl\middleware\ble/cy_ble_event_handler.c ****                 }
 554:Generated_Source\PSoC6\pdl\middleware\ble/cy_ble_event_handler.c ****                 Cy_BLE_SetState(CY_BLE_STATE_ON);
 1156              		.loc 1 554 0
 1157 0492 0222     		movs	r2, #2
 1158 0494 7C4B     		ldr	r3, .L101+32
 1159 0496 1A70     		strb	r2, [r3]
 1160              	.LBE99:
 555:Generated_Source\PSoC6\pdl\middleware\ble/cy_ble_event_handler.c ****             }
 556:Generated_Source\PSoC6\pdl\middleware\ble/cy_ble_event_handler.c ****             break;
 1161              		.loc 1 556 0
 1162 0498 D2E0     		b	.L31
 1163              	.LVL113:
 1164              	.L32:
 557:Generated_Source\PSoC6\pdl\middleware\ble/cy_ble_event_handler.c **** 
 558:Generated_Source\PSoC6\pdl\middleware\ble/cy_ble_event_handler.c ****         case CY_BLE_EVT_GAP_DEVICE_DISCONNECTED:
 559:Generated_Source\PSoC6\pdl\middleware\ble/cy_ble_event_handler.c ****             Cy_BLE_SetState(CY_BLE_STATE_ON);
 1165              		.loc 1 559 0
 1166 049a 0222     		movs	r2, #2
 1167 049c 7A4B     		ldr	r3, .L101+32
 1168 049e 1A70     		strb	r2, [r3]
 560:Generated_Source\PSoC6\pdl\middleware\ble/cy_ble_event_handler.c ****             break;
 1169              		.loc 1 560 0
 1170 04a0 CEE0     		b	.L31
 1171              	.L45:
 561:Generated_Source\PSoC6\pdl\middleware\ble/cy_ble_event_handler.c **** 
 562:Generated_Source\PSoC6\pdl\middleware\ble/cy_ble_event_handler.c ****         #if (CY_BLE_GAP_ROLE_PERIPHERAL || CY_BLE_GAP_ROLE_BROADCASTER)
 563:Generated_Source\PSoC6\pdl\middleware\ble/cy_ble_event_handler.c ****         case CY_BLE_EVT_GAPP_ADVERTISEMENT_START_STOP:
 564:Generated_Source\PSoC6\pdl\middleware\ble/cy_ble_event_handler.c ****         #if (CY_BLE_GAP_ROLE_PERIPHERAL || CY_BLE_GAP_ROLE_CENTRAL)
 565:Generated_Source\PSoC6\pdl\middleware\ble/cy_ble_event_handler.c ****             (void)Cy_BLE_InvokeServiceEventHandler((uint32_t)event, (void*)evParam);
 1172              		.loc 1 565 0
 1173 04a2 2900     		movs	r1, r5
 1174 04a4 FFF7FEFF 		bl	Cy_BLE_InvokeServiceEventHandler
 1175              	.LVL114:
 566:Generated_Source\PSoC6\pdl\middleware\ble/cy_ble_event_handler.c ****         #endif /* (CY_BLE_GAP_ROLE_PERIPHERAL || CY_BLE_GAP_ROLE_CENTRAL) */
 567:Generated_Source\PSoC6\pdl\middleware\ble/cy_ble_event_handler.c **** 
 568:Generated_Source\PSoC6\pdl\middleware\ble/cy_ble_event_handler.c ****             if((cy_ble_eventHandlerFlag & CY_BLE_CALLBACK) != 0u)
 1176              		.loc 1 568 0
 1177 04a8 784B     		ldr	r3, .L101+36
 1178 04aa 1B78     		ldrb	r3, [r3]
 1179 04ac DB07     		lsls	r3, r3, #31
 1180 04ae 00D4     		bmi	.LCB1182
 1181 04b0 C6E0     		b	.L31	@long jump
 1182              	.LCB1182:
 1183              	.LBB107:
 1184              	.LBB108:
 745:Generated_Source\PSoC6\pdl\middleware\ble/cy_ble_gap.h **** }
 1185              		.loc 2 745 0
 1186 04b2 704B     		ldr	r3, .L101+12
 1187 04b4 1B78     		ldrb	r3, [r3]
 1188              	.LBE108:
 1189              	.LBE107:
 569:Generated_Source\PSoC6\pdl\middleware\ble/cy_ble_event_handler.c ****             {
 570:Generated_Source\PSoC6\pdl\middleware\ble/cy_ble_event_handler.c ****                 /* After Cy_BLE_GAPP_StartAdvertisement, the first event indicates that advertising
 571:Generated_Source\PSoC6\pdl\middleware\ble/cy_ble_event_handler.c ****                 if(Cy_BLE_GetAdvertisementState() == CY_BLE_ADV_STATE_ADV_INITIATED)
ARM GAS  C:\Users\Smaug\AppData\Local\Temp\ccVZzAJS.s 			page 50


 1190              		.loc 1 571 0
 1191 04b6 012B     		cmp	r3, #1
 1192 04b8 03D1     		bne	.L86
 1193              	.LVL115:
 1194              	.LBB109:
 1195              	.LBB110:
 763:Generated_Source\PSoC6\pdl\middleware\ble/cy_ble_gap.h **** }
 1196              		.loc 2 763 0
 1197 04ba 0222     		movs	r2, #2
 1198 04bc 6D4B     		ldr	r3, .L101+12
 1199 04be 1A70     		strb	r2, [r3]
 1200 04c0 BEE0     		b	.L31
 1201              	.LVL116:
 1202              	.L86:
 1203              	.LBE110:
 1204              	.LBE109:
 572:Generated_Source\PSoC6\pdl\middleware\ble/cy_ble_event_handler.c ****                 {
 573:Generated_Source\PSoC6\pdl\middleware\ble/cy_ble_event_handler.c ****                     Cy_BLE_SetAdvertisementState(CY_BLE_ADV_STATE_ADVERTISING);
 574:Generated_Source\PSoC6\pdl\middleware\ble/cy_ble_event_handler.c ****                 }
 575:Generated_Source\PSoC6\pdl\middleware\ble/cy_ble_event_handler.c ****                 /* When the application initiated a stop advertisement */
 576:Generated_Source\PSoC6\pdl\middleware\ble/cy_ble_event_handler.c ****                 else if(Cy_BLE_GetAdvertisementState() == CY_BLE_ADV_STATE_STOP_INITIATED)
 1205              		.loc 1 576 0
 1206 04c2 032B     		cmp	r3, #3
 1207 04c4 03D1     		bne	.L87
 1208              	.LVL117:
 1209              	.LBB111:
 1210              	.LBB112:
 763:Generated_Source\PSoC6\pdl\middleware\ble/cy_ble_gap.h **** }
 1211              		.loc 2 763 0
 1212 04c6 0022     		movs	r2, #0
 1213 04c8 6A4B     		ldr	r3, .L101+12
 1214 04ca 1A70     		strb	r2, [r3]
 1215 04cc B8E0     		b	.L31
 1216              	.LVL118:
 1217              	.L87:
 1218              	.LBE112:
 1219              	.LBE111:
 577:Generated_Source\PSoC6\pdl\middleware\ble/cy_ble_event_handler.c ****                 {
 578:Generated_Source\PSoC6\pdl\middleware\ble/cy_ble_event_handler.c ****                     Cy_BLE_SetAdvertisementState(CY_BLE_ADV_STATE_STOPPED);
 579:Generated_Source\PSoC6\pdl\middleware\ble/cy_ble_event_handler.c ****                 }
 580:Generated_Source\PSoC6\pdl\middleware\ble/cy_ble_event_handler.c ****                 else /* The following event indicates that advertising has been stopped */
 581:Generated_Source\PSoC6\pdl\middleware\ble/cy_ble_event_handler.c ****                 {
 582:Generated_Source\PSoC6\pdl\middleware\ble/cy_ble_event_handler.c ****                     if(Cy_BLE_GetAdvertisementState() == CY_BLE_ADV_STATE_ADVERTISING)
 1220              		.loc 1 582 0
 1221 04ce 022B     		cmp	r3, #2
 1222 04d0 00D0     		beq	.LCB1220
 1223 04d2 B5E0     		b	.L31	@long jump
 1224              	.LCB1220:
 1225              	.LVL119:
 1226              	.LBB113:
 1227              	.LBB114:
 763:Generated_Source\PSoC6\pdl\middleware\ble/cy_ble_gap.h **** }
 1228              		.loc 2 763 0
 1229 04d4 0022     		movs	r2, #0
 1230 04d6 674B     		ldr	r3, .L101+12
 1231 04d8 1A70     		strb	r2, [r3]
 1232              	.LVL120:
ARM GAS  C:\Users\Smaug\AppData\Local\Temp\ccVZzAJS.s 			page 51


 1233              	.LBE114:
 1234              	.LBE113:
 583:Generated_Source\PSoC6\pdl\middleware\ble/cy_ble_event_handler.c ****                     {
 584:Generated_Source\PSoC6\pdl\middleware\ble/cy_ble_event_handler.c ****                         Cy_BLE_SetAdvertisementState(CY_BLE_ADV_STATE_STOPPED);
 585:Generated_Source\PSoC6\pdl\middleware\ble/cy_ble_event_handler.c ****                         if((cy_ble_configPtr->gappAdvParams[cy_ble_advIndex].slowAdvEnable != 0u) &
 1235              		.loc 1 585 0
 1236 04da 6D4B     		ldr	r3, .L101+40
 1237 04dc 1B68     		ldr	r3, [r3]
 1238 04de 5868     		ldr	r0, [r3, #4]
 1239 04e0 6C4B     		ldr	r3, .L101+44
 1240 04e2 1978     		ldrb	r1, [r3]
 1241 04e4 CA00     		lsls	r2, r1, #3
 1242 04e6 531A     		subs	r3, r2, r1
 1243 04e8 5B00     		lsls	r3, r3, #1
 1244 04ea C318     		adds	r3, r0, r3
 1245 04ec 9A79     		ldrb	r2, [r3, #6]
 1246 04ee 002A     		cmp	r2, #0
 1247 04f0 00D1     		bne	.LCB1241
 1248 04f2 A5E0     		b	.L31	@long jump
 1249              	.LCB1241:
 586:Generated_Source\PSoC6\pdl\middleware\ble/cy_ble_event_handler.c ****                            (cy_ble_configPtr->gappAdvParams[cy_ble_advIndex].fastAdvTimeOut != 0u))
 1250              		.loc 1 586 0 discriminator 1
 1251 04f4 9B88     		ldrh	r3, [r3, #4]
 585:Generated_Source\PSoC6\pdl\middleware\ble/cy_ble_event_handler.c ****                            (cy_ble_configPtr->gappAdvParams[cy_ble_advIndex].fastAdvTimeOut != 0u))
 1252              		.loc 1 585 0 discriminator 1
 1253 04f6 002B     		cmp	r3, #0
 1254 04f8 00D1     		bne	.LCB1244
 1255 04fa A1E0     		b	.L31	@long jump
 1256              	.LCB1244:
 587:Generated_Source\PSoC6\pdl\middleware\ble/cy_ble_event_handler.c ****                         {
 588:Generated_Source\PSoC6\pdl\middleware\ble/cy_ble_event_handler.c ****                             if(cy_ble_advertisingIntervalType == CY_BLE_ADVERTISING_FAST)
 1257              		.loc 1 588 0
 1258 04fc 664B     		ldr	r3, .L101+48
 1259 04fe 1B78     		ldrb	r3, [r3]
 1260 0500 002B     		cmp	r3, #0
 1261 0502 00D0     		beq	.LCB1248
 1262 0504 9CE0     		b	.L31	@long jump
 1263              	.LCB1248:
 589:Generated_Source\PSoC6\pdl\middleware\ble/cy_ble_event_handler.c ****                             {
 590:Generated_Source\PSoC6\pdl\middleware\ble/cy_ble_event_handler.c ****                                 /* When fast advertising time out occur: Start slow advertising */
 591:Generated_Source\PSoC6\pdl\middleware\ble/cy_ble_event_handler.c ****                                 if(Cy_BLE_GAPP_StartAdvertisement(CY_BLE_ADVERTISING_SLOW, cy_ble_a
 1264              		.loc 1 591 0
 1265 0506 0120     		movs	r0, #1
 1266 0508 FFF7FEFF 		bl	Cy_BLE_GAPP_StartAdvertisement
 1267              	.LVL121:
 1268 050c 0028     		cmp	r0, #0
 1269 050e 00D0     		beq	.LCB1253
 1270 0510 96E0     		b	.L31	@long jump
 1271              	.LCB1253:
 1272              	.LVL122:
 1273              	.LBB115:
 1274              	.LBB116:
 763:Generated_Source\PSoC6\pdl\middleware\ble/cy_ble_gap.h **** }
 1275              		.loc 2 763 0
 1276 0512 0122     		movs	r2, #1
 1277 0514 574B     		ldr	r3, .L101+12
 1278 0516 1A70     		strb	r2, [r3]
ARM GAS  C:\Users\Smaug\AppData\Local\Temp\ccVZzAJS.s 			page 52


 1279 0518 92E0     		b	.L31
 1280              	.LVL123:
 1281              	.L59:
 1282              	.LBE116:
 1283              	.LBE115:
 592:Generated_Source\PSoC6\pdl\middleware\ble/cy_ble_event_handler.c ****                                    CY_BLE_SUCCESS)
 593:Generated_Source\PSoC6\pdl\middleware\ble/cy_ble_event_handler.c ****                                 {
 594:Generated_Source\PSoC6\pdl\middleware\ble/cy_ble_event_handler.c ****                                     Cy_BLE_SetAdvertisementState(CY_BLE_ADV_STATE_ADV_INITIATED);
 595:Generated_Source\PSoC6\pdl\middleware\ble/cy_ble_event_handler.c ****                                 }
 596:Generated_Source\PSoC6\pdl\middleware\ble/cy_ble_event_handler.c ****                             }
 597:Generated_Source\PSoC6\pdl\middleware\ble/cy_ble_event_handler.c ****                         }
 598:Generated_Source\PSoC6\pdl\middleware\ble/cy_ble_event_handler.c ****                     }
 599:Generated_Source\PSoC6\pdl\middleware\ble/cy_ble_event_handler.c ****                 }
 600:Generated_Source\PSoC6\pdl\middleware\ble/cy_ble_event_handler.c ****             }
 601:Generated_Source\PSoC6\pdl\middleware\ble/cy_ble_event_handler.c ****             break;
 602:Generated_Source\PSoC6\pdl\middleware\ble/cy_ble_event_handler.c ****         #endif /* CY_BLE_GAP_ROLE_PERIPHERAL || CY_BLE_GAP_ROLE_BROADCASTER */
 603:Generated_Source\PSoC6\pdl\middleware\ble/cy_ble_event_handler.c **** 
 604:Generated_Source\PSoC6\pdl\middleware\ble/cy_ble_event_handler.c ****         #if (CY_BLE_GAP_ROLE_CENTRAL || CY_BLE_GAP_ROLE_OBSERVER)
 605:Generated_Source\PSoC6\pdl\middleware\ble/cy_ble_event_handler.c ****         case CY_BLE_EVT_GAPC_SCAN_START_STOP:
 606:Generated_Source\PSoC6\pdl\middleware\ble/cy_ble_event_handler.c ****         #if (CY_BLE_GAP_ROLE_CENTRAL)
 607:Generated_Source\PSoC6\pdl\middleware\ble/cy_ble_event_handler.c ****             (void)Cy_BLE_InvokeServiceEventHandler((uint32_t)event, (void*)evParam);
 608:Generated_Source\PSoC6\pdl\middleware\ble/cy_ble_event_handler.c ****         #endif /* (CY_BLE_GAP_ROLE_CENTRAL) */
 609:Generated_Source\PSoC6\pdl\middleware\ble/cy_ble_event_handler.c **** 
 610:Generated_Source\PSoC6\pdl\middleware\ble/cy_ble_event_handler.c ****             if((cy_ble_eventHandlerFlag & CY_BLE_CALLBACK) != 0u)
 611:Generated_Source\PSoC6\pdl\middleware\ble/cy_ble_event_handler.c ****             {
 612:Generated_Source\PSoC6\pdl\middleware\ble/cy_ble_event_handler.c ****                 /* After Cy_BLE_GAPC_StartScan, the first event indicates that scanning has been st
 613:Generated_Source\PSoC6\pdl\middleware\ble/cy_ble_event_handler.c ****                 if(Cy_BLE_GetScanState() == CY_BLE_SCAN_STATE_SCAN_INITIATED)
 614:Generated_Source\PSoC6\pdl\middleware\ble/cy_ble_event_handler.c ****                 {
 615:Generated_Source\PSoC6\pdl\middleware\ble/cy_ble_event_handler.c ****                     Cy_BLE_SetScanState(CY_BLE_SCAN_STATE_SCANNING);
 616:Generated_Source\PSoC6\pdl\middleware\ble/cy_ble_event_handler.c ****                 }
 617:Generated_Source\PSoC6\pdl\middleware\ble/cy_ble_event_handler.c ****                 /* When the application initiated stop scanning */
 618:Generated_Source\PSoC6\pdl\middleware\ble/cy_ble_event_handler.c ****                 else if(Cy_BLE_GetScanState() == CY_BLE_SCAN_STATE_STOP_INITIATED)
 619:Generated_Source\PSoC6\pdl\middleware\ble/cy_ble_event_handler.c ****                 {
 620:Generated_Source\PSoC6\pdl\middleware\ble/cy_ble_event_handler.c ****                     Cy_BLE_SetScanState(CY_BLE_SCAN_STATE_STOPPED);
 621:Generated_Source\PSoC6\pdl\middleware\ble/cy_ble_event_handler.c ****                 }
 622:Generated_Source\PSoC6\pdl\middleware\ble/cy_ble_event_handler.c ****                 else /* The following event indicates that scanning has been stopped by BLE Stack *
 623:Generated_Source\PSoC6\pdl\middleware\ble/cy_ble_event_handler.c ****                 {
 624:Generated_Source\PSoC6\pdl\middleware\ble/cy_ble_event_handler.c ****                     if(Cy_BLE_GetScanState() == CY_BLE_SCAN_STATE_SCANNING)
 625:Generated_Source\PSoC6\pdl\middleware\ble/cy_ble_event_handler.c ****                     {
 626:Generated_Source\PSoC6\pdl\middleware\ble/cy_ble_event_handler.c ****                         Cy_BLE_SetScanState(CY_BLE_SCAN_STATE_STOPPED);
 627:Generated_Source\PSoC6\pdl\middleware\ble/cy_ble_event_handler.c ****                         if((cy_ble_configPtr->gapcScanParams[cy_ble_scanIndex].slowScanEnabled != 0
 628:Generated_Source\PSoC6\pdl\middleware\ble/cy_ble_event_handler.c ****                            (cy_ble_configPtr->gapcScanParams[cy_ble_scanIndex].fastScanTimeOut != 0
 629:Generated_Source\PSoC6\pdl\middleware\ble/cy_ble_event_handler.c ****                         {
 630:Generated_Source\PSoC6\pdl\middleware\ble/cy_ble_event_handler.c ****                             if(cy_ble_scanningIntervalType == CY_BLE_SCANNING_FAST)
 631:Generated_Source\PSoC6\pdl\middleware\ble/cy_ble_event_handler.c ****                             {
 632:Generated_Source\PSoC6\pdl\middleware\ble/cy_ble_event_handler.c ****                                 /* When a fast scanning timeout occurs: Start slow scanning */
 633:Generated_Source\PSoC6\pdl\middleware\ble/cy_ble_event_handler.c ****                                 if(Cy_BLE_GAPC_StartScan(CY_BLE_SCANNING_SLOW, cy_ble_scanIndex) ==
 634:Generated_Source\PSoC6\pdl\middleware\ble/cy_ble_event_handler.c ****                                 {
 635:Generated_Source\PSoC6\pdl\middleware\ble/cy_ble_event_handler.c ****                                     Cy_BLE_SetScanState(CY_BLE_SCAN_STATE_SCAN_INITIATED);
 636:Generated_Source\PSoC6\pdl\middleware\ble/cy_ble_event_handler.c ****                                 }
 637:Generated_Source\PSoC6\pdl\middleware\ble/cy_ble_event_handler.c ****                             }
 638:Generated_Source\PSoC6\pdl\middleware\ble/cy_ble_event_handler.c ****                         }
 639:Generated_Source\PSoC6\pdl\middleware\ble/cy_ble_event_handler.c ****                     }
 640:Generated_Source\PSoC6\pdl\middleware\ble/cy_ble_event_handler.c ****                 }
 641:Generated_Source\PSoC6\pdl\middleware\ble/cy_ble_event_handler.c ****             }
 642:Generated_Source\PSoC6\pdl\middleware\ble/cy_ble_event_handler.c ****             break;
 643:Generated_Source\PSoC6\pdl\middleware\ble/cy_ble_event_handler.c ****         #endif /* CY_BLE_GAP_ROLE_CENTRAL || CY_BLE_GAP_ROLE_OBSERVER */
ARM GAS  C:\Users\Smaug\AppData\Local\Temp\ccVZzAJS.s 			page 53


 644:Generated_Source\PSoC6\pdl\middleware\ble/cy_ble_event_handler.c **** 
 645:Generated_Source\PSoC6\pdl\middleware\ble/cy_ble_event_handler.c ****         /**********************************************************
 646:Generated_Source\PSoC6\pdl\middleware\ble/cy_ble_event_handler.c ****          * L2AP events
 647:Generated_Source\PSoC6\pdl\middleware\ble/cy_ble_event_handler.c ****          ************************************************************/
 648:Generated_Source\PSoC6\pdl\middleware\ble/cy_ble_event_handler.c ****         case CY_BLE_EVT_L2CAP_CONN_PARAM_UPDATE_RSP:
 649:Generated_Source\PSoC6\pdl\middleware\ble/cy_ble_event_handler.c ****         #if (CY_BLE_GAP_ROLE_PERIPHERAL || CY_BLE_GAP_ROLE_CENTRAL)
 650:Generated_Source\PSoC6\pdl\middleware\ble/cy_ble_event_handler.c ****             (void)Cy_BLE_InvokeServiceEventHandler((uint32_t)event, (void*)evParam);
 1284              		.loc 1 650 0
 1285 051a 2900     		movs	r1, r5
 1286 051c FFF7FEFF 		bl	Cy_BLE_InvokeServiceEventHandler
 1287              	.LVL124:
 651:Generated_Source\PSoC6\pdl\middleware\ble/cy_ble_event_handler.c ****         #endif /* (CY_BLE_GAP_ROLE_PERIPHERAL || CY_BLE_GAP_ROLE_CENTRAL) */
 652:Generated_Source\PSoC6\pdl\middleware\ble/cy_ble_event_handler.c ****             break;
 1288              		.loc 1 652 0
 1289 0520 8EE0     		b	.L31
 1290              	.LVL125:
 1291              	.L49:
 1292 0522 0222     		movs	r2, #2
 1293 0524 2900     		movs	r1, r5
 1294 0526 6846     		mov	r0, sp
 1295              	.LVL126:
 1296 0528 FFF7FEFF 		bl	memcpy
 1297              	.LVL127:
 1298              	.LBB117:
 1299              	.LBB118:
 895:Generated_Source\PSoC6\pdl\middleware\ble/cy_ble_gap.h ****     {
 1300              		.loc 2 895 0
 1301 052c 6B46     		mov	r3, sp
 1302 052e 5B78     		ldrb	r3, [r3, #1]
 1303 0530 002B     		cmp	r3, #0
 1304 0532 03D1     		bne	.L88
 897:Generated_Source\PSoC6\pdl\middleware\ble/cy_ble_gap.h ****     }
 1305              		.loc 2 897 0
 1306 0534 0221     		movs	r1, #2
 1307 0536 524A     		ldr	r2, .L101+24
 1308 0538 D154     		strb	r1, [r2, r3]
 1309 053a 05E0     		b	.L89
 1310              	.L88:
 902:Generated_Source\PSoC6\pdl\middleware\ble/cy_ble_gap.h ****     }
 1311              		.loc 2 902 0
 1312 053c 002B     		cmp	r3, #0
 1313 053e 03D1     		bne	.L89
 1314 0540 5649     		ldr	r1, .L101+52
 1315 0542 4A48     		ldr	r0, .L101+4
 1316 0544 FFF7FEFF 		bl	Cy_SysLib_AssertFailed
 1317              	.LVL128:
 1318              	.L89:
 1319              	.LBE118:
 1320              	.LBE117:
 653:Generated_Source\PSoC6\pdl\middleware\ble/cy_ble_event_handler.c **** 
 654:Generated_Source\PSoC6\pdl\middleware\ble/cy_ble_event_handler.c ****             /**********************************************************
 655:Generated_Source\PSoC6\pdl\middleware\ble/cy_ble_event_handler.c ****              * GATT events
 656:Generated_Source\PSoC6\pdl\middleware\ble/cy_ble_event_handler.c ****              ************************************************************/
 657:Generated_Source\PSoC6\pdl\middleware\ble/cy_ble_event_handler.c ****         #if ((CY_BLE_GATT_ROLE_SERVER) || (CY_BLE_GATT_ROLE_CLIENT))
 658:Generated_Source\PSoC6\pdl\middleware\ble/cy_ble_event_handler.c ****         case CY_BLE_EVT_GATT_CONNECT_IND:
 659:Generated_Source\PSoC6\pdl\middleware\ble/cy_ble_event_handler.c ****         #if (CY_BLE_GATT_ROLE_CLIENT)
 660:Generated_Source\PSoC6\pdl\middleware\ble/cy_ble_event_handler.c ****             /* If connected to the same device which is already discovered */
ARM GAS  C:\Users\Smaug\AppData\Local\Temp\ccVZzAJS.s 			page 54


 661:Generated_Source\PSoC6\pdl\middleware\ble/cy_ble_event_handler.c ****             if((Cy_BLE_GetConnectionState(*(cy_stc_ble_conn_handle_t*)evParam) ==
 662:Generated_Source\PSoC6\pdl\middleware\ble/cy_ble_event_handler.c ****                 CY_BLE_CONN_STATE_CLIENT_DISCONNECTED_DISCOVERED) &&
 663:Generated_Source\PSoC6\pdl\middleware\ble/cy_ble_event_handler.c ****                (((cy_stc_ble_conn_handle_t*)evParam)->bdHandle ==
 664:Generated_Source\PSoC6\pdl\middleware\ble/cy_ble_event_handler.c ****                 cy_ble_connHandle[((cy_stc_ble_conn_handle_t*)evParam)->attId].bdHandle))
 665:Generated_Source\PSoC6\pdl\middleware\ble/cy_ble_event_handler.c ****             {   /* Set a discovered state */
 666:Generated_Source\PSoC6\pdl\middleware\ble/cy_ble_event_handler.c ****                 Cy_BLE_SetConnectionState(*(cy_stc_ble_conn_handle_t*)evParam, CY_BLE_CONN_STATE_CL
 667:Generated_Source\PSoC6\pdl\middleware\ble/cy_ble_event_handler.c ****             }
 668:Generated_Source\PSoC6\pdl\middleware\ble/cy_ble_event_handler.c ****             else    /* Connected to a new device */
 669:Generated_Source\PSoC6\pdl\middleware\ble/cy_ble_event_handler.c ****         #endif /* CY_BLE_GATT_ROLE_CLIENT */
 670:Generated_Source\PSoC6\pdl\middleware\ble/cy_ble_event_handler.c ****             {
 671:Generated_Source\PSoC6\pdl\middleware\ble/cy_ble_event_handler.c ****                 /* Clear the discovery index for the Client role */
 672:Generated_Source\PSoC6\pdl\middleware\ble/cy_ble_event_handler.c ****             #if (CY_BLE_GATT_ROLE_CLIENT)
 673:Generated_Source\PSoC6\pdl\middleware\ble/cy_ble_event_handler.c ****                 (void)Cy_BLE_GATTC_RemoveConnHandle(*(cy_stc_ble_conn_handle_t*)evParam);
 674:Generated_Source\PSoC6\pdl\middleware\ble/cy_ble_event_handler.c ****             #endif /* CY_BLE_GATT_ROLE_CLIENT */
 675:Generated_Source\PSoC6\pdl\middleware\ble/cy_ble_event_handler.c ****                 Cy_BLE_SetConnectionState(*(cy_stc_ble_conn_handle_t*)evParam, CY_BLE_CONN_STATE_CO
 676:Generated_Source\PSoC6\pdl\middleware\ble/cy_ble_event_handler.c ****                 cy_ble_connHandle[((cy_stc_ble_conn_handle_t*)evParam)->attId] = *(cy_stc_ble_conn_
 1321              		.loc 1 676 0
 1322 0548 6878     		ldrb	r0, [r5, #1]
 1323 054a 4000     		lsls	r0, r0, #1
 1324 054c 4B4B     		ldr	r3, .L101+20
 1325 054e 1818     		adds	r0, r3, r0
 1326 0550 0222     		movs	r2, #2
 1327 0552 2900     		movs	r1, r5
 1328 0554 FFF7FEFF 		bl	memcpy
 1329              	.LVL129:
 677:Generated_Source\PSoC6\pdl\middleware\ble/cy_ble_event_handler.c ****             }
 678:Generated_Source\PSoC6\pdl\middleware\ble/cy_ble_event_handler.c **** 
 679:Generated_Source\PSoC6\pdl\middleware\ble/cy_ble_event_handler.c ****             cy_ble_busyStatus[((cy_stc_ble_conn_handle_t*)evParam)->attId] = CY_BLE_STACK_STATE_FRE
 1330              		.loc 1 679 0
 1331 0558 6B78     		ldrb	r3, [r5, #1]
 1332 055a 0021     		movs	r1, #0
 1333 055c 504A     		ldr	r2, .L101+56
 1334 055e D154     		strb	r1, [r2, r3]
 680:Generated_Source\PSoC6\pdl\middleware\ble/cy_ble_event_handler.c **** 
 681:Generated_Source\PSoC6\pdl\middleware\ble/cy_ble_event_handler.c ****         #if ((CY_BLE_GATT_ROLE_SERVER) && (CY_BLE_GATT_DB_CCCD_COUNT != 0u) && \
 682:Generated_Source\PSoC6\pdl\middleware\ble/cy_ble_event_handler.c ****             (CY_BLE_BONDING_REQUIREMENT == CY_BLE_BONDING_YES))
 683:Generated_Source\PSoC6\pdl\middleware\ble/cy_ble_event_handler.c **** 
 684:Generated_Source\PSoC6\pdl\middleware\ble/cy_ble_event_handler.c ****             /* Initialize the CCCD values in the RAM when bonding is enabled */
 685:Generated_Source\PSoC6\pdl\middleware\ble/cy_ble_event_handler.c ****             (void)memcpy((uint8_t*)cy_ble_attValuesCccdMultiple[((cy_stc_ble_conn_handle_t*)evParam
 686:Generated_Source\PSoC6\pdl\middleware\ble/cy_ble_event_handler.c ****                          cy_ble_configPtr->flashStorage->attValuesCCCDFlashMemory[((cy_stc_ble_conn
 687:Generated_Source\PSoC6\pdl\middleware\ble/cy_ble_event_handler.c ****                                                                                    bdHandle],
 688:Generated_Source\PSoC6\pdl\middleware\ble/cy_ble_event_handler.c ****                          CY_BLE_GATT_DB_CCCD_COUNT + CY_BLE_CCCD_CRC_BYTE);
 689:Generated_Source\PSoC6\pdl\middleware\ble/cy_ble_event_handler.c **** 
 690:Generated_Source\PSoC6\pdl\middleware\ble/cy_ble_event_handler.c ****             /* Check CRC for CCCD data */
 691:Generated_Source\PSoC6\pdl\middleware\ble/cy_ble_event_handler.c ****             {
 692:Generated_Source\PSoC6\pdl\middleware\ble/cy_ble_event_handler.c ****                 uint8_t cccdCrc = Cy_BLE_HAL_CalcCRC8(cy_ble_attValuesCccdMultiple[((cy_stc_ble_con
 693:Generated_Source\PSoC6\pdl\middleware\ble/cy_ble_event_handler.c ****                                                       CY_BLE_GATT_DB_CCCD_COUNT);
 694:Generated_Source\PSoC6\pdl\middleware\ble/cy_ble_event_handler.c **** 
 695:Generated_Source\PSoC6\pdl\middleware\ble/cy_ble_event_handler.c ****                 if(cy_ble_attValuesCccdMultiple[((cy_stc_ble_conn_handle_t*)evParam)->attId][CY_BLE
 696:Generated_Source\PSoC6\pdl\middleware\ble/cy_ble_event_handler.c ****                 {
 697:Generated_Source\PSoC6\pdl\middleware\ble/cy_ble_event_handler.c ****                     /* Inform that the CRC for CCCD is wrong */
 698:Generated_Source\PSoC6\pdl\middleware\ble/cy_ble_event_handler.c ****                     Cy_BLE_ApplCallback((uint32_t)CY_BLE_EVT_GATTS_EVT_CCCD_CORRUPT, NULL);
 699:Generated_Source\PSoC6\pdl\middleware\ble/cy_ble_event_handler.c **** 
 700:Generated_Source\PSoC6\pdl\middleware\ble/cy_ble_event_handler.c ****                     /* Clean the CCCD buffer in the RAM */
 701:Generated_Source\PSoC6\pdl\middleware\ble/cy_ble_event_handler.c ****                     (void)memset((uint8_t*)cy_ble_attValuesCccdMultiple[((cy_stc_ble_conn_handle_t*
 702:Generated_Source\PSoC6\pdl\middleware\ble/cy_ble_event_handler.c ****                                   0, CY_BLE_GATT_DB_CCCD_COUNT + CY_BLE_CCCD_CRC_BYTE);
 703:Generated_Source\PSoC6\pdl\middleware\ble/cy_ble_event_handler.c ****                 }
ARM GAS  C:\Users\Smaug\AppData\Local\Temp\ccVZzAJS.s 			page 55


 704:Generated_Source\PSoC6\pdl\middleware\ble/cy_ble_event_handler.c ****             }
 705:Generated_Source\PSoC6\pdl\middleware\ble/cy_ble_event_handler.c ****         #endif /* CY_BLE_GATT_ROLE_SERVER && (CY_BLE_BONDING_REQUIREMENT == CY_BLE_BONDING_YES) */
 706:Generated_Source\PSoC6\pdl\middleware\ble/cy_ble_event_handler.c **** 
 707:Generated_Source\PSoC6\pdl\middleware\ble/cy_ble_event_handler.c ****             (void)Cy_BLE_InvokeServiceEventHandler((uint32_t)event, (void*)evParam);
 1335              		.loc 1 707 0
 1336 0560 2900     		movs	r1, r5
 1337 0562 2000     		movs	r0, r4
 1338 0564 FFF7FEFF 		bl	Cy_BLE_InvokeServiceEventHandler
 1339              	.LVL130:
 708:Generated_Source\PSoC6\pdl\middleware\ble/cy_ble_event_handler.c ****             break;
 1340              		.loc 1 708 0
 1341 0568 6AE0     		b	.L31
 1342              	.LVL131:
 1343              	.L52:
 1344 056a 01AE     		add	r6, sp, #4
 1345 056c 0222     		movs	r2, #2
 1346 056e 2900     		movs	r1, r5
 1347 0570 3000     		movs	r0, r6
 1348              	.LVL132:
 1349 0572 FFF7FEFF 		bl	memcpy
 1350              	.LVL133:
 1351              	.LBB119:
 1352              	.LBB120:
 895:Generated_Source\PSoC6\pdl\middleware\ble/cy_ble_gap.h ****     {
 1353              		.loc 2 895 0
 1354 0576 7378     		ldrb	r3, [r6, #1]
 1355 0578 002B     		cmp	r3, #0
 1356 057a 03D1     		bne	.L90
 897:Generated_Source\PSoC6\pdl\middleware\ble/cy_ble_gap.h ****     }
 1357              		.loc 2 897 0
 1358 057c 0021     		movs	r1, #0
 1359 057e 404A     		ldr	r2, .L101+24
 1360 0580 D154     		strb	r1, [r2, r3]
 1361 0582 05E0     		b	.L91
 1362              	.L90:
 902:Generated_Source\PSoC6\pdl\middleware\ble/cy_ble_gap.h ****     }
 1363              		.loc 2 902 0
 1364 0584 002B     		cmp	r3, #0
 1365 0586 03D1     		bne	.L91
 1366 0588 4449     		ldr	r1, .L101+52
 1367 058a 3848     		ldr	r0, .L101+4
 1368 058c FFF7FEFF 		bl	Cy_SysLib_AssertFailed
 1369              	.LVL134:
 1370              	.L91:
 1371              	.LBE120:
 1372              	.LBE119:
 709:Generated_Source\PSoC6\pdl\middleware\ble/cy_ble_event_handler.c **** 
 710:Generated_Source\PSoC6\pdl\middleware\ble/cy_ble_event_handler.c ****         case CY_BLE_EVT_GATT_DISCONNECT_IND:
 711:Generated_Source\PSoC6\pdl\middleware\ble/cy_ble_event_handler.c ****         #if (CY_BLE_GATT_ROLE_CLIENT)
 712:Generated_Source\PSoC6\pdl\middleware\ble/cy_ble_event_handler.c ****             if((Cy_BLE_GetConnectionState(*(cy_stc_ble_conn_handle_t*)evParam) == CY_BLE_CONN_STATE
 713:Generated_Source\PSoC6\pdl\middleware\ble/cy_ble_event_handler.c ****                (CY_BLE_BONDING_REQUIREMENT == CY_BLE_BONDING_YES))
 714:Generated_Source\PSoC6\pdl\middleware\ble/cy_ble_event_handler.c ****             {
 715:Generated_Source\PSoC6\pdl\middleware\ble/cy_ble_event_handler.c ****                 Cy_BLE_SetConnectionState(*(cy_stc_ble_conn_handle_t*)evParam,
 716:Generated_Source\PSoC6\pdl\middleware\ble/cy_ble_event_handler.c ****                                           CY_BLE_CONN_STATE_CLIENT_DISCONNECTED_DISCOVERED);
 717:Generated_Source\PSoC6\pdl\middleware\ble/cy_ble_event_handler.c ****             }
 718:Generated_Source\PSoC6\pdl\middleware\ble/cy_ble_event_handler.c ****             else
 719:Generated_Source\PSoC6\pdl\middleware\ble/cy_ble_event_handler.c ****         #endif /* CY_BLE_GATT_ROLE_CLIENT */
ARM GAS  C:\Users\Smaug\AppData\Local\Temp\ccVZzAJS.s 			page 56


 720:Generated_Source\PSoC6\pdl\middleware\ble/cy_ble_event_handler.c ****             {
 721:Generated_Source\PSoC6\pdl\middleware\ble/cy_ble_event_handler.c ****                 Cy_BLE_SetConnectionState(*(cy_stc_ble_conn_handle_t*)evParam, CY_BLE_CONN_STATE_DI
 722:Generated_Source\PSoC6\pdl\middleware\ble/cy_ble_event_handler.c ****             #if (CY_BLE_GATT_ROLE_CLIENT)
 723:Generated_Source\PSoC6\pdl\middleware\ble/cy_ble_event_handler.c ****                 (void)Cy_BLE_GATTC_RemoveConnHandle(*(cy_stc_ble_conn_handle_t*)evParam);
 724:Generated_Source\PSoC6\pdl\middleware\ble/cy_ble_event_handler.c ****             #endif /* CY_BLE_GATT_ROLE_CLIENT */
 725:Generated_Source\PSoC6\pdl\middleware\ble/cy_ble_event_handler.c ****             }
 726:Generated_Source\PSoC6\pdl\middleware\ble/cy_ble_event_handler.c **** 
 727:Generated_Source\PSoC6\pdl\middleware\ble/cy_ble_event_handler.c ****             #if ((CY_BLE_GAP_ROLE_PERIPHERAL || CY_BLE_GAP_ROLE_CENTRAL))
 728:Generated_Source\PSoC6\pdl\middleware\ble/cy_ble_event_handler.c ****                 cy_ble_pairStatus[(*(cy_stc_ble_conn_handle_t *)evParam).attId] = false;
 1373              		.loc 1 728 0
 1374 0590 6B78     		ldrb	r3, [r5, #1]
 1375 0592 0021     		movs	r1, #0
 1376 0594 364A     		ldr	r2, .L101+8
 1377 0596 D154     		strb	r1, [r2, r3]
 729:Generated_Source\PSoC6\pdl\middleware\ble/cy_ble_event_handler.c ****             #endif /*((CY_BLE_GAP_ROLE_PERIPHERAL || CY_BLE_GAP_ROLE_CENTRAL))*/
 730:Generated_Source\PSoC6\pdl\middleware\ble/cy_ble_event_handler.c **** 
 731:Generated_Source\PSoC6\pdl\middleware\ble/cy_ble_event_handler.c ****             (void)Cy_BLE_InvokeServiceEventHandler((uint32_t)event, (void*)evParam);
 1378              		.loc 1 731 0
 1379 0598 2900     		movs	r1, r5
 1380 059a 2000     		movs	r0, r4
 1381 059c FFF7FEFF 		bl	Cy_BLE_InvokeServiceEventHandler
 1382              	.LVL135:
 732:Generated_Source\PSoC6\pdl\middleware\ble/cy_ble_event_handler.c ****             break;
 1383              		.loc 1 732 0
 1384 05a0 4EE0     		b	.L31
 1385              	.LVL136:
 1386              	.L53:
 1387              	.LBB121:
 733:Generated_Source\PSoC6\pdl\middleware\ble/cy_ble_event_handler.c **** 
 734:Generated_Source\PSoC6\pdl\middleware\ble/cy_ble_event_handler.c ****         case CY_BLE_EVT_GATTS_XCNHG_MTU_REQ:
 735:Generated_Source\PSoC6\pdl\middleware\ble/cy_ble_event_handler.c ****         {
 736:Generated_Source\PSoC6\pdl\middleware\ble/cy_ble_event_handler.c ****             cy_stc_ble_gatt_xchg_mtu_param_t mtuParam;
 737:Generated_Source\PSoC6\pdl\middleware\ble/cy_ble_event_handler.c ****             mtuParam.connHandle = ((cy_stc_ble_gatt_xchg_mtu_param_t*)evParam)->connHandle;
 1388              		.loc 1 737 0
 1389 05a2 04A8     		add	r0, sp, #16
 1390              	.LVL137:
 1391 05a4 2B88     		ldrh	r3, [r5]
 1392 05a6 0380     		strh	r3, [r0]
 738:Generated_Source\PSoC6\pdl\middleware\ble/cy_ble_event_handler.c ****             mtuParam.mtu = CY_BLE_GATT_MTU;
 1393              		.loc 1 738 0
 1394 05a8 FF23     		movs	r3, #255
 1395 05aa 4380     		strh	r3, [r0, #2]
 739:Generated_Source\PSoC6\pdl\middleware\ble/cy_ble_event_handler.c **** 
 740:Generated_Source\PSoC6\pdl\middleware\ble/cy_ble_event_handler.c ****             (void)Cy_BLE_GATTS_ExchangeMtuRsp(&mtuParam);
 1396              		.loc 1 740 0
 1397 05ac FFF7FEFF 		bl	Cy_BLE_GATTS_ExchangeMtuRsp
 1398              	.LVL138:
 1399              	.LBE121:
 741:Generated_Source\PSoC6\pdl\middleware\ble/cy_ble_event_handler.c ****         }
 742:Generated_Source\PSoC6\pdl\middleware\ble/cy_ble_event_handler.c ****         break;
 1400              		.loc 1 742 0
 1401 05b0 46E0     		b	.L31
 1402              	.LVL139:
 1403              	.L47:
 1404              	.LBB122:
 743:Generated_Source\PSoC6\pdl\middleware\ble/cy_ble_event_handler.c ****     #endif /* CY_BLE_GATT_ROLE_SERVER || CY_BLE_GATT_ROLE_CLIENT */
 744:Generated_Source\PSoC6\pdl\middleware\ble/cy_ble_event_handler.c **** 
ARM GAS  C:\Users\Smaug\AppData\Local\Temp\ccVZzAJS.s 			page 57


 745:Generated_Source\PSoC6\pdl\middleware\ble/cy_ble_event_handler.c ****     #if (CY_BLE_GATT_ROLE_CLIENT)
 746:Generated_Source\PSoC6\pdl\middleware\ble/cy_ble_event_handler.c ****         case CY_BLE_EVT_GAPC_SCAN_PROGRESS_RESULT:
 747:Generated_Source\PSoC6\pdl\middleware\ble/cy_ble_event_handler.c ****             (void)Cy_BLE_InvokeServiceEventHandler((uint32_t)event, (void*)evParam);
 748:Generated_Source\PSoC6\pdl\middleware\ble/cy_ble_event_handler.c ****             break;
 749:Generated_Source\PSoC6\pdl\middleware\ble/cy_ble_event_handler.c ****     #endif /* CY_BLE_GATT_ROLE_CLIENT */
 750:Generated_Source\PSoC6\pdl\middleware\ble/cy_ble_event_handler.c **** 
 751:Generated_Source\PSoC6\pdl\middleware\ble/cy_ble_event_handler.c ****     #if (CY_BLE_GATT_ROLE_SERVER)
 752:Generated_Source\PSoC6\pdl\middleware\ble/cy_ble_event_handler.c ****         case CY_BLE_EVT_GATTS_WRITE_REQ:
 753:Generated_Source\PSoC6\pdl\middleware\ble/cy_ble_event_handler.c ****         {
 754:Generated_Source\PSoC6\pdl\middleware\ble/cy_ble_event_handler.c ****             cy_en_ble_gatt_err_code_t gattErr;
 755:Generated_Source\PSoC6\pdl\middleware\ble/cy_ble_event_handler.c ****             cy_ble_gatt_db_attr_handle_t attrHandle;
 756:Generated_Source\PSoC6\pdl\middleware\ble/cy_ble_event_handler.c **** 
 757:Generated_Source\PSoC6\pdl\middleware\ble/cy_ble_event_handler.c ****             /* Process GATT service */
 758:Generated_Source\PSoC6\pdl\middleware\ble/cy_ble_event_handler.c ****             gattErr = Cy_BLE_GATTS_WriteEventHandler((cy_stc_ble_gatts_write_cmd_req_param_t*)evPar
 1405              		.loc 1 758 0
 1406 05b2 2800     		movs	r0, r5
 1407              	.LVL140:
