ARM GAS  C:\Users\Smaug\AppData\Local\Temp\ccVZzAJS.s 			page 1


   1              		.syntax unified
   2              		.cpu cortex-m0plus
   3              		.fpu softvfp
   4              		.eabi_attribute 20, 1
   5              		.eabi_attribute 21, 1
   6              		.eabi_attribute 23, 3
   7              		.eabi_attribute 24, 1
   8              		.eabi_attribute 25, 1
   9              		.eabi_attribute 26, 1
  10              		.eabi_attribute 30, 1
  11              		.eabi_attribute 34, 0
  12              		.eabi_attribute 18, 4
  13              		.thumb
  14              		.syntax unified
  15              		.file	"cy_ble_event_handler.c"
  16              		.text
  17              	.Ltext0:
  18              		.cfi_sections	.debug_frame
  19              		.section	.text.Cy_BLE_SendWriteResponse,"ax",%progbits
  20              		.align	2
  21              		.code	16
  22              		.thumb_func
  23              		.type	Cy_BLE_SendWriteResponse, %function
  24              	Cy_BLE_SendWriteResponse:
  25              	.LFB169:
  26              		.file 1 "Generated_Source\\PSoC6\\pdl\\middleware\\ble\\cy_ble_event_handler.c"
   1:Generated_Source\PSoC6\pdl\middleware\ble/cy_ble_event_handler.c **** /***************************************************************************//**
   2:Generated_Source\PSoC6\pdl\middleware\ble/cy_ble_event_handler.c **** * \file cy_ble_event_handler.c
   3:Generated_Source\PSoC6\pdl\middleware\ble/cy_ble_event_handler.c **** * \version 2.90
   4:Generated_Source\PSoC6\pdl\middleware\ble/cy_ble_event_handler.c **** *
   5:Generated_Source\PSoC6\pdl\middleware\ble/cy_ble_event_handler.c **** * \brief
   6:Generated_Source\PSoC6\pdl\middleware\ble/cy_ble_event_handler.c **** *  This file contains the source code for the Event Handler State Machine
   7:Generated_Source\PSoC6\pdl\middleware\ble/cy_ble_event_handler.c **** *  of the BLE Middleware.
   8:Generated_Source\PSoC6\pdl\middleware\ble/cy_ble_event_handler.c **** *
   9:Generated_Source\PSoC6\pdl\middleware\ble/cy_ble_event_handler.c **** ********************************************************************************
  10:Generated_Source\PSoC6\pdl\middleware\ble/cy_ble_event_handler.c **** * \copyright
  11:Generated_Source\PSoC6\pdl\middleware\ble/cy_ble_event_handler.c **** * Copyright 2017-2023, Cypress Semiconductor Corporation.  All rights reserved.
  12:Generated_Source\PSoC6\pdl\middleware\ble/cy_ble_event_handler.c **** * You may use this file only in accordance with the license, terms, conditions,
  13:Generated_Source\PSoC6\pdl\middleware\ble/cy_ble_event_handler.c **** * disclaimers, and limitations in the end user license agreement accompanying
  14:Generated_Source\PSoC6\pdl\middleware\ble/cy_ble_event_handler.c **** * the software package with which this file was provided.
  15:Generated_Source\PSoC6\pdl\middleware\ble/cy_ble_event_handler.c **** *******************************************************************************/
  16:Generated_Source\PSoC6\pdl\middleware\ble/cy_ble_event_handler.c **** 
  17:Generated_Source\PSoC6\pdl\middleware\ble/cy_ble_event_handler.c **** #include "cy_ble_event_handler.h"
  18:Generated_Source\PSoC6\pdl\middleware\ble/cy_ble_event_handler.c **** 
  19:Generated_Source\PSoC6\pdl\middleware\ble/cy_ble_event_handler.c **** /* C binding of definitions if building with C++ compiler */
  20:Generated_Source\PSoC6\pdl\middleware\ble/cy_ble_event_handler.c **** #ifdef __cplusplus
  21:Generated_Source\PSoC6\pdl\middleware\ble/cy_ble_event_handler.c **** extern "C" {
  22:Generated_Source\PSoC6\pdl\middleware\ble/cy_ble_event_handler.c **** #endif /* __cplusplus */
  23:Generated_Source\PSoC6\pdl\middleware\ble/cy_ble_event_handler.c **** 
  24:Generated_Source\PSoC6\pdl\middleware\ble/cy_ble_event_handler.c **** #if (CY_BLE_MODE_PROFILE)
  25:Generated_Source\PSoC6\pdl\middleware\ble/cy_ble_event_handler.c **** 
  26:Generated_Source\PSoC6\pdl\middleware\ble/cy_ble_event_handler.c **** /***************************************
  27:Generated_Source\PSoC6\pdl\middleware\ble/cy_ble_event_handler.c **** * Private Function Prototypes
  28:Generated_Source\PSoC6\pdl\middleware\ble/cy_ble_event_handler.c **** ***************************************/
  29:Generated_Source\PSoC6\pdl\middleware\ble/cy_ble_event_handler.c **** 
  30:Generated_Source\PSoC6\pdl\middleware\ble/cy_ble_event_handler.c **** static void Cy_BLE_TimeOutEventHandler(const cy_stc_ble_timeout_param_t *eventParam);
  31:Generated_Source\PSoC6\pdl\middleware\ble/cy_ble_event_handler.c **** 
ARM GAS  C:\Users\Smaug\AppData\Local\Temp\ccVZzAJS.s 			page 2


  32:Generated_Source\PSoC6\pdl\middleware\ble/cy_ble_event_handler.c **** #if (CY_BLE_GATT_ROLE_SERVER)
  33:Generated_Source\PSoC6\pdl\middleware\ble/cy_ble_event_handler.c **** static void Cy_BLE_SendWriteResponse(const cy_stc_ble_gatts_write_cmd_req_param_t *eventParam,
  34:Generated_Source\PSoC6\pdl\middleware\ble/cy_ble_event_handler.c ****                                      cy_en_ble_gatt_err_code_t gattErr);
  35:Generated_Source\PSoC6\pdl\middleware\ble/cy_ble_event_handler.c **** #endif /* CY_BLE_GATT_ROLE_SERVER */
  36:Generated_Source\PSoC6\pdl\middleware\ble/cy_ble_event_handler.c **** 
  37:Generated_Source\PSoC6\pdl\middleware\ble/cy_ble_event_handler.c **** #if (CY_BLE_GATT_ROLE_CLIENT)
  38:Generated_Source\PSoC6\pdl\middleware\ble/cy_ble_event_handler.c **** static void Cy_BLE_GAPC_DiscoverCharacteristicsEventHandler(cy_stc_ble_disc_char_info_t *discCharIn
  39:Generated_Source\PSoC6\pdl\middleware\ble/cy_ble_event_handler.c **** #endif /* CY_BLE_GATT_ROLE_CLIENT */
  40:Generated_Source\PSoC6\pdl\middleware\ble/cy_ble_event_handler.c **** 
  41:Generated_Source\PSoC6\pdl\middleware\ble/cy_ble_event_handler.c **** 
  42:Generated_Source\PSoC6\pdl\middleware\ble/cy_ble_event_handler.c **** /***************************************
  43:Generated_Source\PSoC6\pdl\middleware\ble/cy_ble_event_handler.c **** * Global Variables
  44:Generated_Source\PSoC6\pdl\middleware\ble/cy_ble_event_handler.c **** ***************************************/
  45:Generated_Source\PSoC6\pdl\middleware\ble/cy_ble_event_handler.c **** volatile uint8_t cy_ble_busyStatus[CY_BLE_CONN_COUNT];
  46:Generated_Source\PSoC6\pdl\middleware\ble/cy_ble_event_handler.c **** volatile uint8_t cy_ble_eventHandlerFlag;
  47:Generated_Source\PSoC6\pdl\middleware\ble/cy_ble_event_handler.c **** volatile uint32_t cy_ble_cmdStatus;
  48:Generated_Source\PSoC6\pdl\middleware\ble/cy_ble_event_handler.c **** 
  49:Generated_Source\PSoC6\pdl\middleware\ble/cy_ble_event_handler.c **** #if (CY_BLE_GAP_ROLE_PERIPHERAL || CY_BLE_GAP_ROLE_BROADCASTER)
  50:Generated_Source\PSoC6\pdl\middleware\ble/cy_ble_event_handler.c **** uint8_t cy_ble_advertisingIntervalType;
  51:Generated_Source\PSoC6\pdl\middleware\ble/cy_ble_event_handler.c **** #endif /* CY_BLE_GAP_ROLE_PERIPHERAL || CY_BLE_GAP_ROLE_BROADCASTER) */
  52:Generated_Source\PSoC6\pdl\middleware\ble/cy_ble_event_handler.c **** 
  53:Generated_Source\PSoC6\pdl\middleware\ble/cy_ble_event_handler.c **** #if (CY_BLE_GAP_ROLE_CENTRAL || CY_BLE_GAP_ROLE_OBSERVER)
  54:Generated_Source\PSoC6\pdl\middleware\ble/cy_ble_event_handler.c **** uint8_t cy_ble_scanningIntervalType;
  55:Generated_Source\PSoC6\pdl\middleware\ble/cy_ble_event_handler.c **** #endif /* CY_BLE_GAP_ROLE_CENTRAL || CY_BLE_GAP_ROLE_OBSERVER */
  56:Generated_Source\PSoC6\pdl\middleware\ble/cy_ble_event_handler.c **** 
  57:Generated_Source\PSoC6\pdl\middleware\ble/cy_ble_event_handler.c **** #if (CY_BLE_GATT_ROLE_CLIENT)
  58:Generated_Source\PSoC6\pdl\middleware\ble/cy_ble_event_handler.c **** cy_stc_ble_discovery_t cy_ble_discovery[CY_BLE_GATTC_COUNT];
  59:Generated_Source\PSoC6\pdl\middleware\ble/cy_ble_event_handler.c **** cy_stc_ble_disc_srvc_info_t cy_ble_serverInfo[CY_BLE_GATTC_COUNT][CY_BLE_SRVI_COUNT];
  60:Generated_Source\PSoC6\pdl\middleware\ble/cy_ble_event_handler.c **** #endif /* CY_BLE_GATT_ROLE_CLIENT */
  61:Generated_Source\PSoC6\pdl\middleware\ble/cy_ble_event_handler.c **** 
  62:Generated_Source\PSoC6\pdl\middleware\ble/cy_ble_event_handler.c **** #if (CY_BLE_GAP_ROLE_PERIPHERAL || CY_BLE_GAP_ROLE_CENTRAL)
  63:Generated_Source\PSoC6\pdl\middleware\ble/cy_ble_event_handler.c **** cy_stc_ble_event_handler_t cy_ble_eventHandler;
  64:Generated_Source\PSoC6\pdl\middleware\ble/cy_ble_event_handler.c **** 
  65:Generated_Source\PSoC6\pdl\middleware\ble/cy_ble_event_handler.c **** 
  66:Generated_Source\PSoC6\pdl\middleware\ble/cy_ble_event_handler.c **** /******************************************************************************
  67:Generated_Source\PSoC6\pdl\middleware\ble/cy_ble_event_handler.c **** * Function Name: Cy_BLE_RegisterServiceEventHandler
  68:Generated_Source\PSoC6\pdl\middleware\ble/cy_ble_event_handler.c **** ***************************************************************************//**
  69:Generated_Source\PSoC6\pdl\middleware\ble/cy_ble_event_handler.c **** *
  70:Generated_Source\PSoC6\pdl\middleware\ble/cy_ble_event_handler.c **** *  Registration Service Event Handler
  71:Generated_Source\PSoC6\pdl\middleware\ble/cy_ble_event_handler.c **** *
  72:Generated_Source\PSoC6\pdl\middleware\ble/cy_ble_event_handler.c **** *  \param  eventHandlerFunc: The pointer to the callback procedure.
  73:Generated_Source\PSoC6\pdl\middleware\ble/cy_ble_event_handler.c **** *
  74:Generated_Source\PSoC6\pdl\middleware\ble/cy_ble_event_handler.c **** *  \return
  75:Generated_Source\PSoC6\pdl\middleware\ble/cy_ble_event_handler.c **** *  cy_en_ble_api_result_t : Return value indicates if the function succeeded or
  76:Generated_Source\PSoC6\pdl\middleware\ble/cy_ble_event_handler.c **** *  failed. The following are possible error codes.
  77:Generated_Source\PSoC6\pdl\middleware\ble/cy_ble_event_handler.c **** *
  78:Generated_Source\PSoC6\pdl\middleware\ble/cy_ble_event_handler.c **** *   Error Codes                           | Description
  79:Generated_Source\PSoC6\pdl\middleware\ble/cy_ble_event_handler.c **** *   ------------                          | -----------
  80:Generated_Source\PSoC6\pdl\middleware\ble/cy_ble_event_handler.c **** *   CY_BLE_SUCCESS                        | The function completed successfully.
  81:Generated_Source\PSoC6\pdl\middleware\ble/cy_ble_event_handler.c **** *   CY_BLE_ERROR_INVALID_PARAMETER        | On specifying NULL as input parameter.
  82:Generated_Source\PSoC6\pdl\middleware\ble/cy_ble_event_handler.c **** *   CY_BLE_ERROR_MEMORY_ALLOCATION_FAILED | Buffer overflow in the registration callback.
  83:Generated_Source\PSoC6\pdl\middleware\ble/cy_ble_event_handler.c **** *
  84:Generated_Source\PSoC6\pdl\middleware\ble/cy_ble_event_handler.c **** ******************************************************************************/
  85:Generated_Source\PSoC6\pdl\middleware\ble/cy_ble_event_handler.c **** cy_en_ble_api_result_t Cy_BLE_RegisterServiceEventHandler(cy_ble_event_handle_t eventHandlerFunc)
  86:Generated_Source\PSoC6\pdl\middleware\ble/cy_ble_event_handler.c **** {
  87:Generated_Source\PSoC6\pdl\middleware\ble/cy_ble_event_handler.c ****     cy_en_ble_api_result_t apiResult = CY_BLE_SUCCESS;
  88:Generated_Source\PSoC6\pdl\middleware\ble/cy_ble_event_handler.c ****     uint8_t existFlag = 0u;
ARM GAS  C:\Users\Smaug\AppData\Local\Temp\ccVZzAJS.s 			page 3


  89:Generated_Source\PSoC6\pdl\middleware\ble/cy_ble_event_handler.c **** 
  90:Generated_Source\PSoC6\pdl\middleware\ble/cy_ble_event_handler.c ****     if(eventHandlerFunc == NULL)
  91:Generated_Source\PSoC6\pdl\middleware\ble/cy_ble_event_handler.c ****     {
  92:Generated_Source\PSoC6\pdl\middleware\ble/cy_ble_event_handler.c ****         apiResult = CY_BLE_ERROR_INVALID_PARAMETER;
  93:Generated_Source\PSoC6\pdl\middleware\ble/cy_ble_event_handler.c ****     }
  94:Generated_Source\PSoC6\pdl\middleware\ble/cy_ble_event_handler.c ****     else
  95:Generated_Source\PSoC6\pdl\middleware\ble/cy_ble_event_handler.c ****     {
  96:Generated_Source\PSoC6\pdl\middleware\ble/cy_ble_event_handler.c ****         /* Check if eventHandlerFunc has been already registered */
  97:Generated_Source\PSoC6\pdl\middleware\ble/cy_ble_event_handler.c ****         uint32_t idx;
  98:Generated_Source\PSoC6\pdl\middleware\ble/cy_ble_event_handler.c ****         for(idx = 0u; (idx < cy_ble_eventHandler.count) && (existFlag == 0u); idx++)
  99:Generated_Source\PSoC6\pdl\middleware\ble/cy_ble_event_handler.c ****         {
 100:Generated_Source\PSoC6\pdl\middleware\ble/cy_ble_event_handler.c ****             if(cy_ble_eventHandler.serviceEventHandler[idx] == eventHandlerFunc)
 101:Generated_Source\PSoC6\pdl\middleware\ble/cy_ble_event_handler.c ****             {
 102:Generated_Source\PSoC6\pdl\middleware\ble/cy_ble_event_handler.c ****                 existFlag = 1u;
 103:Generated_Source\PSoC6\pdl\middleware\ble/cy_ble_event_handler.c ****             }
 104:Generated_Source\PSoC6\pdl\middleware\ble/cy_ble_event_handler.c ****         }
 105:Generated_Source\PSoC6\pdl\middleware\ble/cy_ble_event_handler.c ****     }
 106:Generated_Source\PSoC6\pdl\middleware\ble/cy_ble_event_handler.c ****     /* Register eventHandlerFunc callback */
 107:Generated_Source\PSoC6\pdl\middleware\ble/cy_ble_event_handler.c ****     if((apiResult == CY_BLE_SUCCESS) && (existFlag == 0u))
 108:Generated_Source\PSoC6\pdl\middleware\ble/cy_ble_event_handler.c ****     {
 109:Generated_Source\PSoC6\pdl\middleware\ble/cy_ble_event_handler.c ****         if(cy_ble_eventHandler.count < CY_BLE_MAX_SRVI)
 110:Generated_Source\PSoC6\pdl\middleware\ble/cy_ble_event_handler.c ****         {
 111:Generated_Source\PSoC6\pdl\middleware\ble/cy_ble_event_handler.c ****             cy_ble_eventHandler.serviceEventHandler[cy_ble_eventHandler.count] = eventHandlerFunc;
 112:Generated_Source\PSoC6\pdl\middleware\ble/cy_ble_event_handler.c ****             cy_ble_eventHandler.count += 1u;
 113:Generated_Source\PSoC6\pdl\middleware\ble/cy_ble_event_handler.c ****         }
 114:Generated_Source\PSoC6\pdl\middleware\ble/cy_ble_event_handler.c ****         else
 115:Generated_Source\PSoC6\pdl\middleware\ble/cy_ble_event_handler.c ****         {
 116:Generated_Source\PSoC6\pdl\middleware\ble/cy_ble_event_handler.c ****             apiResult = CY_BLE_ERROR_MEMORY_ALLOCATION_FAILED;
 117:Generated_Source\PSoC6\pdl\middleware\ble/cy_ble_event_handler.c ****         }
 118:Generated_Source\PSoC6\pdl\middleware\ble/cy_ble_event_handler.c ****     }
 119:Generated_Source\PSoC6\pdl\middleware\ble/cy_ble_event_handler.c **** 
 120:Generated_Source\PSoC6\pdl\middleware\ble/cy_ble_event_handler.c ****     return(apiResult);
 121:Generated_Source\PSoC6\pdl\middleware\ble/cy_ble_event_handler.c **** }
 122:Generated_Source\PSoC6\pdl\middleware\ble/cy_ble_event_handler.c **** 
 123:Generated_Source\PSoC6\pdl\middleware\ble/cy_ble_event_handler.c **** /******************************************************************************
 124:Generated_Source\PSoC6\pdl\middleware\ble/cy_ble_event_handler.c **** * Function Name: Cy_BLE_InvokeServiceEventHandler
 125:Generated_Source\PSoC6\pdl\middleware\ble/cy_ble_event_handler.c **** ***************************************************************************//**
 126:Generated_Source\PSoC6\pdl\middleware\ble/cy_ble_event_handler.c **** *
 127:Generated_Source\PSoC6\pdl\middleware\ble/cy_ble_event_handler.c **** *  Invoke registered service event handlers.
 128:Generated_Source\PSoC6\pdl\middleware\ble/cy_ble_event_handler.c **** *
 129:Generated_Source\PSoC6\pdl\middleware\ble/cy_ble_event_handler.c **** *  \param eventCode:   The event code.
 130:Generated_Source\PSoC6\pdl\middleware\ble/cy_ble_event_handler.c **** *  \param eventParam:  The event parameters.
 131:Generated_Source\PSoC6\pdl\middleware\ble/cy_ble_event_handler.c **** *
 132:Generated_Source\PSoC6\pdl\middleware\ble/cy_ble_event_handler.c **** * \return
 133:Generated_Source\PSoC6\pdl\middleware\ble/cy_ble_event_handler.c **** *  A return value of type cy_en_ble_gatt_err_code_t.
 134:Generated_Source\PSoC6\pdl\middleware\ble/cy_ble_event_handler.c **** *
 135:Generated_Source\PSoC6\pdl\middleware\ble/cy_ble_event_handler.c **** ******************************************************************************/
 136:Generated_Source\PSoC6\pdl\middleware\ble/cy_ble_event_handler.c **** cy_en_ble_gatt_err_code_t Cy_BLE_InvokeServiceEventHandler(uint32_t eventCode,
 137:Generated_Source\PSoC6\pdl\middleware\ble/cy_ble_event_handler.c ****                                                            void *eventParam)
 138:Generated_Source\PSoC6\pdl\middleware\ble/cy_ble_event_handler.c **** {
 139:Generated_Source\PSoC6\pdl\middleware\ble/cy_ble_event_handler.c ****     uint32_t idx;
 140:Generated_Source\PSoC6\pdl\middleware\ble/cy_ble_event_handler.c ****     cy_en_ble_gatt_err_code_t gattErr = CY_BLE_GATT_ERR_NONE;
 141:Generated_Source\PSoC6\pdl\middleware\ble/cy_ble_event_handler.c **** 
 142:Generated_Source\PSoC6\pdl\middleware\ble/cy_ble_event_handler.c ****     for(idx = 0u; (idx < cy_ble_eventHandler.count) && ((cy_ble_eventHandlerFlag & CY_BLE_CALLBACK)
 143:Generated_Source\PSoC6\pdl\middleware\ble/cy_ble_event_handler.c ****     {
 144:Generated_Source\PSoC6\pdl\middleware\ble/cy_ble_event_handler.c ****         gattErr = cy_ble_eventHandler.serviceEventHandler[idx](eventCode, eventParam);
 145:Generated_Source\PSoC6\pdl\middleware\ble/cy_ble_event_handler.c ****     }
ARM GAS  C:\Users\Smaug\AppData\Local\Temp\ccVZzAJS.s 			page 4


 146:Generated_Source\PSoC6\pdl\middleware\ble/cy_ble_event_handler.c **** 
 147:Generated_Source\PSoC6\pdl\middleware\ble/cy_ble_event_handler.c ****     return(gattErr);
 148:Generated_Source\PSoC6\pdl\middleware\ble/cy_ble_event_handler.c **** }
 149:Generated_Source\PSoC6\pdl\middleware\ble/cy_ble_event_handler.c **** #endif /* CY_BLE_GAP_ROLE_PERIPHERAL || CY_BLE_GAP_ROLE_CENTRAL */
 150:Generated_Source\PSoC6\pdl\middleware\ble/cy_ble_event_handler.c **** 
 151:Generated_Source\PSoC6\pdl\middleware\ble/cy_ble_event_handler.c **** #if (CY_BLE_GATT_ROLE_SERVER)
 152:Generated_Source\PSoC6\pdl\middleware\ble/cy_ble_event_handler.c **** 
 153:Generated_Source\PSoC6\pdl\middleware\ble/cy_ble_event_handler.c **** 
 154:Generated_Source\PSoC6\pdl\middleware\ble/cy_ble_event_handler.c **** /******************************************************************************
 155:Generated_Source\PSoC6\pdl\middleware\ble/cy_ble_event_handler.c **** * Function Name: Cy_BLE_SendWriteResponse
 156:Generated_Source\PSoC6\pdl\middleware\ble/cy_ble_event_handler.c **** ***************************************************************************//**
 157:Generated_Source\PSoC6\pdl\middleware\ble/cy_ble_event_handler.c **** *
 158:Generated_Source\PSoC6\pdl\middleware\ble/cy_ble_event_handler.c **** *  Sends the Write Response to Write Request when event was handled by service.
 159:Generated_Source\PSoC6\pdl\middleware\ble/cy_ble_event_handler.c **** *
 160:Generated_Source\PSoC6\pdl\middleware\ble/cy_ble_event_handler.c **** *  \param eventParam - The event parameter.
 161:Generated_Source\PSoC6\pdl\middleware\ble/cy_ble_event_handler.c **** *  \param gattErr - The error code.
 162:Generated_Source\PSoC6\pdl\middleware\ble/cy_ble_event_handler.c **** *
 163:Generated_Source\PSoC6\pdl\middleware\ble/cy_ble_event_handler.c **** * \return
 164:Generated_Source\PSoC6\pdl\middleware\ble/cy_ble_event_handler.c **** *  None.
 165:Generated_Source\PSoC6\pdl\middleware\ble/cy_ble_event_handler.c **** *
 166:Generated_Source\PSoC6\pdl\middleware\ble/cy_ble_event_handler.c **** ******************************************************************************/
 167:Generated_Source\PSoC6\pdl\middleware\ble/cy_ble_event_handler.c **** static void Cy_BLE_SendWriteResponse(const cy_stc_ble_gatts_write_cmd_req_param_t *eventParam,
 168:Generated_Source\PSoC6\pdl\middleware\ble/cy_ble_event_handler.c ****                                      cy_en_ble_gatt_err_code_t gattErr)
 169:Generated_Source\PSoC6\pdl\middleware\ble/cy_ble_event_handler.c **** {
  27              		.loc 1 169 0
  28              		.cfi_startproc
  29              		@ args = 0, pretend = 0, frame = 8
  30              		@ frame_needed = 0, uses_anonymous_args = 0
  31              	.LVL0:
  32 0000 30B5     		push	{r4, r5, lr}
  33              		.cfi_def_cfa_offset 12
  34              		.cfi_offset 4, -12
  35              		.cfi_offset 5, -8
  36              		.cfi_offset 14, -4
  37 0002 83B0     		sub	sp, sp, #12
  38              		.cfi_def_cfa_offset 24
  39 0004 0400     		movs	r4, r0
  40 0006 0D00     		movs	r5, r1
 170:Generated_Source\PSoC6\pdl\middleware\ble/cy_ble_event_handler.c ****     cy_stc_ble_gatt_err_param_t err_param =
  41              		.loc 1 170 0
  42 0008 0622     		movs	r2, #6
  43 000a 0021     		movs	r1, #0
  44              	.LVL1:
  45 000c 6846     		mov	r0, sp
  46              	.LVL2:
  47 000e FFF7FEFF 		bl	memset
  48              	.LVL3:
  49 0012 A389     		ldrh	r3, [r4, #12]
  50 0014 6A46     		mov	r2, sp
  51 0016 1380     		strh	r3, [r2]
 171:Generated_Source\PSoC6\pdl\middleware\ble/cy_ble_event_handler.c ****     {
 172:Generated_Source\PSoC6\pdl\middleware\ble/cy_ble_event_handler.c ****         .errInfo.opCode     = CY_BLE_GATT_WRITE_REQ,
 173:Generated_Source\PSoC6\pdl\middleware\ble/cy_ble_event_handler.c ****         .errInfo.attrHandle = eventParam->handleValPair.attrHandle,
  52              		.loc 1 173 0
  53 0018 2389     		ldrh	r3, [r4, #8]
 170:Generated_Source\PSoC6\pdl\middleware\ble/cy_ble_event_handler.c ****     cy_stc_ble_gatt_err_param_t err_param =
  54              		.loc 1 170 0
ARM GAS  C:\Users\Smaug\AppData\Local\Temp\ccVZzAJS.s 			page 5


  55 001a 5380     		strh	r3, [r2, #2]
  56 001c 1223     		movs	r3, #18
  57 001e 1371     		strb	r3, [r2, #4]
 174:Generated_Source\PSoC6\pdl\middleware\ble/cy_ble_event_handler.c ****         .connHandle         = eventParam->connHandle
 175:Generated_Source\PSoC6\pdl\middleware\ble/cy_ble_event_handler.c ****     };
 176:Generated_Source\PSoC6\pdl\middleware\ble/cy_ble_event_handler.c **** 
 177:Generated_Source\PSoC6\pdl\middleware\ble/cy_ble_event_handler.c ****     /* Send response when event was handled by the service */
 178:Generated_Source\PSoC6\pdl\middleware\ble/cy_ble_event_handler.c ****     if((cy_ble_eventHandlerFlag & CY_BLE_CALLBACK) == 0u)
  58              		.loc 1 178 0
  59 0020 074B     		ldr	r3, .L4
  60 0022 1B78     		ldrb	r3, [r3]
  61 0024 DB07     		lsls	r3, r3, #31
  62 0026 09D4     		bmi	.L1
 179:Generated_Source\PSoC6\pdl\middleware\ble/cy_ble_event_handler.c ****     {
 180:Generated_Source\PSoC6\pdl\middleware\ble/cy_ble_event_handler.c ****         if(gattErr != CY_BLE_GATT_ERR_NONE)
  63              		.loc 1 180 0
  64 0028 002D     		cmp	r5, #0
  65 002a 04D0     		beq	.L3
 181:Generated_Source\PSoC6\pdl\middleware\ble/cy_ble_event_handler.c ****         {
 182:Generated_Source\PSoC6\pdl\middleware\ble/cy_ble_event_handler.c ****             /* Send an Error Response */
 183:Generated_Source\PSoC6\pdl\middleware\ble/cy_ble_event_handler.c ****             err_param.errInfo.errorCode  = gattErr;
  66              		.loc 1 183 0
  67 002c 5571     		strb	r5, [r2, #5]
 184:Generated_Source\PSoC6\pdl\middleware\ble/cy_ble_event_handler.c ****             (void)Cy_BLE_GATTS_ErrorRsp(&err_param);
  68              		.loc 1 184 0
  69 002e 6846     		mov	r0, sp
  70 0030 FFF7FEFF 		bl	Cy_BLE_GATTS_ErrorRsp
  71              	.LVL4:
  72 0034 02E0     		b	.L1
  73              	.L3:
 185:Generated_Source\PSoC6\pdl\middleware\ble/cy_ble_event_handler.c ****         }
 186:Generated_Source\PSoC6\pdl\middleware\ble/cy_ble_event_handler.c ****         else
 187:Generated_Source\PSoC6\pdl\middleware\ble/cy_ble_event_handler.c ****         {
 188:Generated_Source\PSoC6\pdl\middleware\ble/cy_ble_event_handler.c ****             /* Send an Write Response */
 189:Generated_Source\PSoC6\pdl\middleware\ble/cy_ble_event_handler.c ****             (void)Cy_BLE_GATTS_WriteRsp(eventParam->connHandle);
  74              		.loc 1 189 0
  75 0036 E068     		ldr	r0, [r4, #12]
  76 0038 FFF7FEFF 		bl	Cy_BLE_GATTS_WriteRsp
  77              	.LVL5:
  78              	.L1:
 190:Generated_Source\PSoC6\pdl\middleware\ble/cy_ble_event_handler.c ****         }
 191:Generated_Source\PSoC6\pdl\middleware\ble/cy_ble_event_handler.c ****     }
 192:Generated_Source\PSoC6\pdl\middleware\ble/cy_ble_event_handler.c **** }
  79              		.loc 1 192 0
  80 003c 03B0     		add	sp, sp, #12
  81              		@ sp needed
  82              	.LVL6:
  83 003e 30BD     		pop	{r4, r5, pc}
  84              	.L5:
  85              		.align	2
  86              	.L4:
  87 0040 00000000 		.word	cy_ble_eventHandlerFlag
  88              		.cfi_endproc
  89              	.LFE169:
  90              		.size	Cy_BLE_SendWriteResponse, .-Cy_BLE_SendWriteResponse
  91              		.section	.text.Cy_BLE_RegisterServiceEventHandler,"ax",%progbits
  92              		.align	2
ARM GAS  C:\Users\Smaug\AppData\Local\Temp\ccVZzAJS.s 			page 6


  93              		.global	Cy_BLE_RegisterServiceEventHandler
  94              		.code	16
  95              		.thumb_func
  96              		.type	Cy_BLE_RegisterServiceEventHandler, %function
  97              	Cy_BLE_RegisterServiceEventHandler:
  98              	.LFB167:
  86:Generated_Source\PSoC6\pdl\middleware\ble/cy_ble_event_handler.c ****     cy_en_ble_api_result_t apiResult = CY_BLE_SUCCESS;
  99              		.loc 1 86 0
 100              		.cfi_startproc
 101              		@ args = 0, pretend = 0, frame = 0
 102              		@ frame_needed = 0, uses_anonymous_args = 0
 103              	.LVL7:
 104 0000 10B5     		push	{r4, lr}
 105              		.cfi_def_cfa_offset 8
 106              		.cfi_offset 4, -8
 107              		.cfi_offset 14, -4
 108              	.LVL8:
  90:Generated_Source\PSoC6\pdl\middleware\ble/cy_ble_event_handler.c ****     {
 109              		.loc 1 90 0
 110 0002 0028     		cmp	r0, #0
 111 0004 11D0     		beq	.L12
 112 0006 0023     		movs	r3, #0
 113 0008 0024     		movs	r4, #0
 114 000a 06E0     		b	.L8
 115              	.LVL9:
 116              	.L10:
 117              	.LBB38:
 100:Generated_Source\PSoC6\pdl\middleware\ble/cy_ble_event_handler.c ****             {
 118              		.loc 1 100 0
 119 000c 9A00     		lsls	r2, r3, #2
 120 000e 1149     		ldr	r1, .L16
 121 0010 5258     		ldr	r2, [r2, r1]
 122 0012 9042     		cmp	r0, r2
 123 0014 00D1     		bne	.L9
 102:Generated_Source\PSoC6\pdl\middleware\ble/cy_ble_event_handler.c ****             }
 124              		.loc 1 102 0
 125 0016 0124     		movs	r4, #1
 126              	.LVL10:
 127              	.L9:
  98:Generated_Source\PSoC6\pdl\middleware\ble/cy_ble_event_handler.c ****         {
 128              		.loc 1 98 0 discriminator 2
 129 0018 0133     		adds	r3, r3, #1
 130              	.LVL11:
 131              	.L8:
  98:Generated_Source\PSoC6\pdl\middleware\ble/cy_ble_event_handler.c ****         {
 132              		.loc 1 98 0 is_stmt 0 discriminator 1
 133 001a 0E4A     		ldr	r2, .L16
 134 001c 1279     		ldrb	r2, [r2, #4]
 135 001e 9342     		cmp	r3, r2
 136 0020 06D2     		bcs	.L14
  98:Generated_Source\PSoC6\pdl\middleware\ble/cy_ble_event_handler.c ****         {
 137              		.loc 1 98 0 discriminator 3
 138 0022 002C     		cmp	r4, #0
 139 0024 F2D0     		beq	.L10
 140              	.LBE38:
  87:Generated_Source\PSoC6\pdl\middleware\ble/cy_ble_event_handler.c ****     uint8_t existFlag = 0u;
 141              		.loc 1 87 0 is_stmt 1
ARM GAS  C:\Users\Smaug\AppData\Local\Temp\ccVZzAJS.s 			page 7


 142 0026 0023     		movs	r3, #0
 143              	.LVL12:
 144              	.LBB39:
 145 0028 03E0     		b	.L7
 146              	.LVL13:
 147              	.L12:
 148              	.LBE39:
  88:Generated_Source\PSoC6\pdl\middleware\ble/cy_ble_event_handler.c **** 
 149              		.loc 1 88 0
 150 002a 0024     		movs	r4, #0
  92:Generated_Source\PSoC6\pdl\middleware\ble/cy_ble_event_handler.c ****     }
 151              		.loc 1 92 0
 152 002c 0A4B     		ldr	r3, .L16+4
 153 002e 00E0     		b	.L7
 154              	.LVL14:
 155              	.L14:
  87:Generated_Source\PSoC6\pdl\middleware\ble/cy_ble_event_handler.c ****     uint8_t existFlag = 0u;
 156              		.loc 1 87 0
 157 0030 0023     		movs	r3, #0
 158              	.LVL15:
 159              	.L7:
 107:Generated_Source\PSoC6\pdl\middleware\ble/cy_ble_event_handler.c ****     {
 160              		.loc 1 107 0
 161 0032 002B     		cmp	r3, #0
 162 0034 0CD1     		bne	.L11
 107:Generated_Source\PSoC6\pdl\middleware\ble/cy_ble_event_handler.c ****     {
 163              		.loc 1 107 0 is_stmt 0 discriminator 1
 164 0036 002C     		cmp	r4, #0
 165 0038 0AD1     		bne	.L11
 109:Generated_Source\PSoC6\pdl\middleware\ble/cy_ble_event_handler.c ****         {
 166              		.loc 1 109 0 is_stmt 1
 167 003a 064A     		ldr	r2, .L16
 168 003c 1279     		ldrb	r2, [r2, #4]
 169 003e 002A     		cmp	r2, #0
 170 0040 05D1     		bne	.L15
 111:Generated_Source\PSoC6\pdl\middleware\ble/cy_ble_event_handler.c ****             cy_ble_eventHandler.count += 1u;
 171              		.loc 1 111 0
 172 0042 0449     		ldr	r1, .L16
 173 0044 9400     		lsls	r4, r2, #2
 174              	.LVL16:
 175 0046 6050     		str	r0, [r4, r1]
 112:Generated_Source\PSoC6\pdl\middleware\ble/cy_ble_event_handler.c ****         }
 176              		.loc 1 112 0
 177 0048 0132     		adds	r2, r2, #1
 178 004a 0A71     		strb	r2, [r1, #4]
 179 004c 00E0     		b	.L11
 180              	.LVL17:
 181              	.L15:
 116:Generated_Source\PSoC6\pdl\middleware\ble/cy_ble_event_handler.c ****         }
 182              		.loc 1 116 0
 183 004e 034B     		ldr	r3, .L16+8
 184              	.LVL18:
 185              	.L11:
 121:Generated_Source\PSoC6\pdl\middleware\ble/cy_ble_event_handler.c **** 
 186              		.loc 1 121 0
 187 0050 1800     		movs	r0, r3
 188              	.LVL19:
ARM GAS  C:\Users\Smaug\AppData\Local\Temp\ccVZzAJS.s 			page 8


 189              		@ sp needed
 190 0052 10BD     		pop	{r4, pc}
 191              	.L17:
 192              		.align	2
 193              	.L16:
 194 0054 00000000 		.word	cy_ble_eventHandler
 195 0058 01001600 		.word	1441793
 196 005c 03001600 		.word	1441795
 197              		.cfi_endproc
 198              	.LFE167:
 199              		.size	Cy_BLE_RegisterServiceEventHandler, .-Cy_BLE_RegisterServiceEventHandler
 200              		.section	.text.Cy_BLE_InvokeServiceEventHandler,"ax",%progbits
 201              		.align	2
 202              		.global	Cy_BLE_InvokeServiceEventHandler
 203              		.code	16
 204              		.thumb_func
 205              		.type	Cy_BLE_InvokeServiceEventHandler, %function
 206              	Cy_BLE_InvokeServiceEventHandler:
 207              	.LFB168:
 138:Generated_Source\PSoC6\pdl\middleware\ble/cy_ble_event_handler.c ****     uint32_t idx;
 208              		.loc 1 138 0
 209              		.cfi_startproc
 210              		@ args = 0, pretend = 0, frame = 0
 211              		@ frame_needed = 0, uses_anonymous_args = 0
 212              	.LVL20:
 213 0000 70B5     		push	{r4, r5, r6, lr}
 214              		.cfi_def_cfa_offset 16
 215              		.cfi_offset 4, -16
 216              		.cfi_offset 5, -12
 217              		.cfi_offset 6, -8
 218              		.cfi_offset 14, -4
 219 0002 0600     		movs	r6, r0
 220 0004 0D00     		movs	r5, r1
 221              	.LVL21:
 140:Generated_Source\PSoC6\pdl\middleware\ble/cy_ble_event_handler.c **** 
 222              		.loc 1 140 0
 223 0006 0020     		movs	r0, #0
 224              	.LVL22:
 142:Generated_Source\PSoC6\pdl\middleware\ble/cy_ble_event_handler.c ****     {
 225              		.loc 1 142 0
 226 0008 0024     		movs	r4, #0
 227 000a 06E0     		b	.L19
 228              	.LVL23:
 229              	.L21:
 144:Generated_Source\PSoC6\pdl\middleware\ble/cy_ble_event_handler.c ****     }
 230              		.loc 1 144 0 discriminator 4
 231 000c A200     		lsls	r2, r4, #2
 232 000e 074B     		ldr	r3, .L22
 233 0010 D358     		ldr	r3, [r2, r3]
 234 0012 2900     		movs	r1, r5
 235 0014 3000     		movs	r0, r6
 236              	.LVL24:
 237 0016 9847     		blx	r3
 238              	.LVL25:
 142:Generated_Source\PSoC6\pdl\middleware\ble/cy_ble_event_handler.c ****     {
 239              		.loc 1 142 0 discriminator 4
 240 0018 0134     		adds	r4, r4, #1
ARM GAS  C:\Users\Smaug\AppData\Local\Temp\ccVZzAJS.s 			page 9


 241              	.LVL26:
 242              	.L19:
 142:Generated_Source\PSoC6\pdl\middleware\ble/cy_ble_event_handler.c ****     {
 243              		.loc 1 142 0 is_stmt 0 discriminator 1
 244 001a 044B     		ldr	r3, .L22
 245 001c 1B79     		ldrb	r3, [r3, #4]
 246 001e 9C42     		cmp	r4, r3
 247 0020 03D2     		bcs	.L20
 142:Generated_Source\PSoC6\pdl\middleware\ble/cy_ble_event_handler.c ****     {
 248              		.loc 1 142 0 discriminator 3
 249 0022 034B     		ldr	r3, .L22+4
 250 0024 1B78     		ldrb	r3, [r3]
 251 0026 DB07     		lsls	r3, r3, #31
 252 0028 F0D4     		bmi	.L21
 253              	.L20:
 148:Generated_Source\PSoC6\pdl\middleware\ble/cy_ble_event_handler.c **** #endif /* CY_BLE_GAP_ROLE_PERIPHERAL || CY_BLE_GAP_ROLE_CENTRAL */
 254              		.loc 1 148 0 is_stmt 1
 255              		@ sp needed
 256              	.LVL27:
 257              	.LVL28:
 258              	.LVL29:
 259 002a 70BD     		pop	{r4, r5, r6, pc}
 260              	.L23:
 261              		.align	2
 262              	.L22:
 263 002c 00000000 		.word	cy_ble_eventHandler
 264 0030 00000000 		.word	cy_ble_eventHandlerFlag
 265              		.cfi_endproc
 266              	.LFE168:
 267              		.size	Cy_BLE_InvokeServiceEventHandler, .-Cy_BLE_InvokeServiceEventHandler
 268              		.section	.text.Cy_BLE_IsDeviceAddressValid,"ax",%progbits
 269              		.align	2
 270              		.global	Cy_BLE_IsDeviceAddressValid
 271              		.code	16
 272              		.thumb_func
 273              		.type	Cy_BLE_IsDeviceAddressValid, %function
 274              	Cy_BLE_IsDeviceAddressValid:
 275              	.LFB171:
 193:Generated_Source\PSoC6\pdl\middleware\ble/cy_ble_event_handler.c **** #endif /* CY_BLE_GATT_ROLE_SERVER */
 194:Generated_Source\PSoC6\pdl\middleware\ble/cy_ble_event_handler.c **** 
 195:Generated_Source\PSoC6\pdl\middleware\ble/cy_ble_event_handler.c **** 
 196:Generated_Source\PSoC6\pdl\middleware\ble/cy_ble_event_handler.c **** /******************************************************************************
 197:Generated_Source\PSoC6\pdl\middleware\ble/cy_ble_event_handler.c **** * Function Name: Cy_BLE_TimeOutEventHandler
 198:Generated_Source\PSoC6\pdl\middleware\ble/cy_ble_event_handler.c **** ***************************************************************************//**
 199:Generated_Source\PSoC6\pdl\middleware\ble/cy_ble_event_handler.c **** *
 200:Generated_Source\PSoC6\pdl\middleware\ble/cy_ble_event_handler.c **** *  Handles a CY_BLE_EVT_TIMEOUT event from the BLE Stack.
 201:Generated_Source\PSoC6\pdl\middleware\ble/cy_ble_event_handler.c **** *
 202:Generated_Source\PSoC6\pdl\middleware\ble/cy_ble_event_handler.c **** *  \param eventParam: The pointer to a structure of type cy_stc_ble_timeout_param_t.
 203:Generated_Source\PSoC6\pdl\middleware\ble/cy_ble_event_handler.c **** *
 204:Generated_Source\PSoC6\pdl\middleware\ble/cy_ble_event_handler.c **** * \return
 205:Generated_Source\PSoC6\pdl\middleware\ble/cy_ble_event_handler.c **** *  None
 206:Generated_Source\PSoC6\pdl\middleware\ble/cy_ble_event_handler.c **** *
 207:Generated_Source\PSoC6\pdl\middleware\ble/cy_ble_event_handler.c **** ******************************************************************************/
 208:Generated_Source\PSoC6\pdl\middleware\ble/cy_ble_event_handler.c **** static void Cy_BLE_TimeOutEventHandler(const cy_stc_ble_timeout_param_t *eventParam)
 209:Generated_Source\PSoC6\pdl\middleware\ble/cy_ble_event_handler.c **** {
 210:Generated_Source\PSoC6\pdl\middleware\ble/cy_ble_event_handler.c ****     if(eventParam->reasonCode == CY_BLE_GATT_RSP_TO)
 211:Generated_Source\PSoC6\pdl\middleware\ble/cy_ble_event_handler.c ****     {
ARM GAS  C:\Users\Smaug\AppData\Local\Temp\ccVZzAJS.s 			page 10


 212:Generated_Source\PSoC6\pdl\middleware\ble/cy_ble_event_handler.c ****     #if (CY_BLE_GATT_ROLE_CLIENT)
 213:Generated_Source\PSoC6\pdl\middleware\ble/cy_ble_event_handler.c ****         {
 214:Generated_Source\PSoC6\pdl\middleware\ble/cy_ble_event_handler.c ****             uint32_t discIdx = Cy_BLE_GetDiscoveryIdx(eventParam->CY_BLE_HANDLE.connHandle);
 215:Generated_Source\PSoC6\pdl\middleware\ble/cy_ble_event_handler.c ****             if((discIdx < CY_BLE_GATTC_COUNT) && (cy_ble_discovery[discIdx].autoDiscoveryFlag != 0u
 216:Generated_Source\PSoC6\pdl\middleware\ble/cy_ble_event_handler.c ****             {
 217:Generated_Source\PSoC6\pdl\middleware\ble/cy_ble_event_handler.c ****                 switch(Cy_BLE_GetConnectionState(eventParam->CY_BLE_HANDLE.connHandle))
 218:Generated_Source\PSoC6\pdl\middleware\ble/cy_ble_event_handler.c ****                 {
 219:Generated_Source\PSoC6\pdl\middleware\ble/cy_ble_event_handler.c ****                     case CY_BLE_CONN_STATE_CLIENT_SRVC_DISCOVERING:
 220:Generated_Source\PSoC6\pdl\middleware\ble/cy_ble_event_handler.c ****                         Cy_BLE_ApplCallback((uint32_t)CY_BLE_EVT_GATTC_SRVC_DISCOVERY_FAILED,
 221:Generated_Source\PSoC6\pdl\middleware\ble/cy_ble_event_handler.c ****                                             (cy_stc_ble_conn_handle_t*)&eventParam->CY_BLE_HANDLE.c
 222:Generated_Source\PSoC6\pdl\middleware\ble/cy_ble_event_handler.c ****                         break;
 223:Generated_Source\PSoC6\pdl\middleware\ble/cy_ble_event_handler.c **** 
 224:Generated_Source\PSoC6\pdl\middleware\ble/cy_ble_event_handler.c ****                     case CY_BLE_CONN_STATE_CLIENT_INCL_DISCOVERING:
 225:Generated_Source\PSoC6\pdl\middleware\ble/cy_ble_event_handler.c ****                         Cy_BLE_ApplCallback((uint32_t)CY_BLE_EVT_GATTC_INCL_DISCOVERY_FAILED,
 226:Generated_Source\PSoC6\pdl\middleware\ble/cy_ble_event_handler.c ****                                             (cy_stc_ble_conn_handle_t*)&eventParam->CY_BLE_HANDLE.c
 227:Generated_Source\PSoC6\pdl\middleware\ble/cy_ble_event_handler.c ****                         break;
 228:Generated_Source\PSoC6\pdl\middleware\ble/cy_ble_event_handler.c **** 
 229:Generated_Source\PSoC6\pdl\middleware\ble/cy_ble_event_handler.c ****                     case CY_BLE_CONN_STATE_CLIENT_CHAR_DISCOVERING:
 230:Generated_Source\PSoC6\pdl\middleware\ble/cy_ble_event_handler.c ****                         Cy_BLE_ApplCallback((uint32_t)CY_BLE_EVT_GATTC_CHAR_DISCOVERY_FAILED,
 231:Generated_Source\PSoC6\pdl\middleware\ble/cy_ble_event_handler.c ****                                             (cy_stc_ble_conn_handle_t*)&eventParam->CY_BLE_HANDLE.c
 232:Generated_Source\PSoC6\pdl\middleware\ble/cy_ble_event_handler.c ****                         break;
 233:Generated_Source\PSoC6\pdl\middleware\ble/cy_ble_event_handler.c **** 
 234:Generated_Source\PSoC6\pdl\middleware\ble/cy_ble_event_handler.c ****                     case CY_BLE_CONN_STATE_CLIENT_DESCR_DISCOVERING:
 235:Generated_Source\PSoC6\pdl\middleware\ble/cy_ble_event_handler.c ****                         Cy_BLE_ApplCallback((uint32_t)CY_BLE_EVT_GATTC_DESCR_DISCOVERY_FAILED,
 236:Generated_Source\PSoC6\pdl\middleware\ble/cy_ble_event_handler.c ****                                             (cy_stc_ble_conn_handle_t*)&eventParam->CY_BLE_HANDLE.c
 237:Generated_Source\PSoC6\pdl\middleware\ble/cy_ble_event_handler.c ****                         break;
 238:Generated_Source\PSoC6\pdl\middleware\ble/cy_ble_event_handler.c **** 
 239:Generated_Source\PSoC6\pdl\middleware\ble/cy_ble_event_handler.c ****                     default:        /* Other states should not be set in Auto discovery mode */
 240:Generated_Source\PSoC6\pdl\middleware\ble/cy_ble_event_handler.c ****                         break;
 241:Generated_Source\PSoC6\pdl\middleware\ble/cy_ble_event_handler.c ****                 }
 242:Generated_Source\PSoC6\pdl\middleware\ble/cy_ble_event_handler.c ****                 cy_ble_discovery[discIdx].autoDiscoveryFlag = 0u;
 243:Generated_Source\PSoC6\pdl\middleware\ble/cy_ble_event_handler.c ****                 Cy_BLE_SetConnectionState(eventParam->CY_BLE_HANDLE.connHandle, CY_BLE_CONN_STATE_C
 244:Generated_Source\PSoC6\pdl\middleware\ble/cy_ble_event_handler.c ****             }
 245:Generated_Source\PSoC6\pdl\middleware\ble/cy_ble_event_handler.c ****         }
 246:Generated_Source\PSoC6\pdl\middleware\ble/cy_ble_event_handler.c ****     #endif /* CY_BLE_GATT_ROLE_CLIENT */
 247:Generated_Source\PSoC6\pdl\middleware\ble/cy_ble_event_handler.c ****     }
 248:Generated_Source\PSoC6\pdl\middleware\ble/cy_ble_event_handler.c **** 
 249:Generated_Source\PSoC6\pdl\middleware\ble/cy_ble_event_handler.c ****     #if (CY_BLE_GAP_ROLE_CENTRAL)
 250:Generated_Source\PSoC6\pdl\middleware\ble/cy_ble_event_handler.c ****     /* Connection procedure timeout */
 251:Generated_Source\PSoC6\pdl\middleware\ble/cy_ble_event_handler.c ****     if((eventParam->reasonCode == CY_BLE_GENERIC_APP_TO) &&
 252:Generated_Source\PSoC6\pdl\middleware\ble/cy_ble_event_handler.c ****        (cy_ble_connectingTimeout.timerHandle == eventParam->timerHandle))
 253:Generated_Source\PSoC6\pdl\middleware\ble/cy_ble_event_handler.c ****     {
 254:Generated_Source\PSoC6\pdl\middleware\ble/cy_ble_event_handler.c ****         if(Cy_BLE_GetState() == CY_BLE_STATE_CONNECTING)
 255:Generated_Source\PSoC6\pdl\middleware\ble/cy_ble_event_handler.c ****         {
 256:Generated_Source\PSoC6\pdl\middleware\ble/cy_ble_event_handler.c ****             (void)Cy_BLE_GAPC_CancelDeviceConnection();
 257:Generated_Source\PSoC6\pdl\middleware\ble/cy_ble_event_handler.c ****         }
 258:Generated_Source\PSoC6\pdl\middleware\ble/cy_ble_event_handler.c ****     }
 259:Generated_Source\PSoC6\pdl\middleware\ble/cy_ble_event_handler.c ****     #endif /* CY_BLE_GAP_ROLE_CENTRAL */
 260:Generated_Source\PSoC6\pdl\middleware\ble/cy_ble_event_handler.c **** }
 261:Generated_Source\PSoC6\pdl\middleware\ble/cy_ble_event_handler.c **** 
 262:Generated_Source\PSoC6\pdl\middleware\ble/cy_ble_event_handler.c **** 
 263:Generated_Source\PSoC6\pdl\middleware\ble/cy_ble_event_handler.c **** /******************************************************************************
 264:Generated_Source\PSoC6\pdl\middleware\ble/cy_ble_event_handler.c **** * Function Name: Cy_BLE_IsDeviceAddressValid
 265:Generated_Source\PSoC6\pdl\middleware\ble/cy_ble_event_handler.c **** ***************************************************************************//**
 266:Generated_Source\PSoC6\pdl\middleware\ble/cy_ble_event_handler.c **** *
 267:Generated_Source\PSoC6\pdl\middleware\ble/cy_ble_event_handler.c **** *  This function verifies that the device address is valid (not equal zero)
 268:Generated_Source\PSoC6\pdl\middleware\ble/cy_ble_event_handler.c **** *
ARM GAS  C:\Users\Smaug\AppData\Local\Temp\ccVZzAJS.s 			page 11


 269:Generated_Source\PSoC6\pdl\middleware\ble/cy_ble_event_handler.c **** *  \param deviceAddress: The pointer to the BD address of
 270:Generated_Source\PSoC6\pdl\middleware\ble/cy_ble_event_handler.c **** *                        type #cy_stc_ble_gap_bd_addr_t.
 271:Generated_Source\PSoC6\pdl\middleware\ble/cy_ble_event_handler.c **** *
 272:Generated_Source\PSoC6\pdl\middleware\ble/cy_ble_event_handler.c **** *  \return
 273:Generated_Source\PSoC6\pdl\middleware\ble/cy_ble_event_handler.c **** *   A non-zero value when a device address is valid
 274:Generated_Source\PSoC6\pdl\middleware\ble/cy_ble_event_handler.c **** *
 275:Generated_Source\PSoC6\pdl\middleware\ble/cy_ble_event_handler.c **** ******************************************************************************/
 276:Generated_Source\PSoC6\pdl\middleware\ble/cy_ble_event_handler.c **** uint8_t Cy_BLE_IsDeviceAddressValid(const cy_stc_ble_gap_bd_addr_t *deviceAddress)
 277:Generated_Source\PSoC6\pdl\middleware\ble/cy_ble_event_handler.c **** {
 276              		.loc 1 277 0
 277              		.cfi_startproc
 278              		@ args = 0, pretend = 0, frame = 0
 279              		@ frame_needed = 0, uses_anonymous_args = 0
 280              		@ link register save eliminated.
 281              	.LVL30:
 278:Generated_Source\PSoC6\pdl\middleware\ble/cy_ble_event_handler.c ****     uint8_t addressValid = 0u;
 279:Generated_Source\PSoC6\pdl\middleware\ble/cy_ble_event_handler.c ****     uint32_t i;
 280:Generated_Source\PSoC6\pdl\middleware\ble/cy_ble_event_handler.c **** 
 281:Generated_Source\PSoC6\pdl\middleware\ble/cy_ble_event_handler.c ****     if(deviceAddress->type == CY_BLE_GAP_ADDR_TYPE_PUBLIC)
 282              		.loc 1 281 0
 283 0000 8379     		ldrb	r3, [r0, #6]
 284 0002 002B     		cmp	r3, #0
 285 0004 06D0     		beq	.L28
 278:Generated_Source\PSoC6\pdl\middleware\ble/cy_ble_event_handler.c ****     uint8_t addressValid = 0u;
 286              		.loc 1 278 0
 287 0006 0020     		movs	r0, #0
 288              	.LVL31:
 289 0008 0AE0     		b	.L26
 290              	.LVL32:
 291              	.L27:
 282:Generated_Source\PSoC6\pdl\middleware\ble/cy_ble_event_handler.c ****     {
 283:Generated_Source\PSoC6\pdl\middleware\ble/cy_ble_event_handler.c ****         for(i = 0u; i < CY_BLE_GAP_BD_ADDR_SIZE; i++)
 284:Generated_Source\PSoC6\pdl\middleware\ble/cy_ble_event_handler.c ****         {
 285:Generated_Source\PSoC6\pdl\middleware\ble/cy_ble_event_handler.c ****             if(deviceAddress->bdAddr[i] != 0u)
 292              		.loc 1 285 0
 293 000a C25C     		ldrb	r2, [r0, r3]
 294 000c 002A     		cmp	r2, #0
 295 000e 06D1     		bne	.L29
 283:Generated_Source\PSoC6\pdl\middleware\ble/cy_ble_event_handler.c ****         {
 296              		.loc 1 283 0 discriminator 2
 297 0010 0133     		adds	r3, r3, #1
 298              	.LVL33:
 299 0012 00E0     		b	.L25
 300              	.LVL34:
 301              	.L28:
 302 0014 0023     		movs	r3, #0
 303              	.L25:
 304              	.LVL35:
 283:Generated_Source\PSoC6\pdl\middleware\ble/cy_ble_event_handler.c ****         {
 305              		.loc 1 283 0 is_stmt 0 discriminator 1
 306 0016 052B     		cmp	r3, #5
 307 0018 F7D9     		bls	.L27
 278:Generated_Source\PSoC6\pdl\middleware\ble/cy_ble_event_handler.c ****     uint8_t addressValid = 0u;
 308              		.loc 1 278 0 is_stmt 1
 309 001a 0020     		movs	r0, #0
 310              	.LVL36:
 311 001c 00E0     		b	.L26
ARM GAS  C:\Users\Smaug\AppData\Local\Temp\ccVZzAJS.s 			page 12


 312              	.LVL37:
 313              	.L29:
 286:Generated_Source\PSoC6\pdl\middleware\ble/cy_ble_event_handler.c ****             {
 287:Generated_Source\PSoC6\pdl\middleware\ble/cy_ble_event_handler.c ****                 addressValid = 1u;
 314              		.loc 1 287 0
 315 001e 0120     		movs	r0, #1
 316              	.LVL38:
 317              	.L26:
 288:Generated_Source\PSoC6\pdl\middleware\ble/cy_ble_event_handler.c ****                 break;
 289:Generated_Source\PSoC6\pdl\middleware\ble/cy_ble_event_handler.c ****             }
 290:Generated_Source\PSoC6\pdl\middleware\ble/cy_ble_event_handler.c ****         }
 291:Generated_Source\PSoC6\pdl\middleware\ble/cy_ble_event_handler.c ****     }
 292:Generated_Source\PSoC6\pdl\middleware\ble/cy_ble_event_handler.c **** 
 293:Generated_Source\PSoC6\pdl\middleware\ble/cy_ble_event_handler.c ****     return(addressValid);
 294:Generated_Source\PSoC6\pdl\middleware\ble/cy_ble_event_handler.c **** }
 318              		.loc 1 294 0
 319              		@ sp needed
 320 0020 7047     		bx	lr
 321              		.cfi_endproc
 322              	.LFE171:
 323              		.size	Cy_BLE_IsDeviceAddressValid, .-Cy_BLE_IsDeviceAddressValid
 324 0022 C046     		.section	.text.Cy_BLE_EventHandler,"ax",%progbits
 325              		.align	2
 326              		.global	Cy_BLE_EventHandler
 327              		.code	16
 328              		.thumb_func
 329              		.type	Cy_BLE_EventHandler, %function
 330              	Cy_BLE_EventHandler:
 331              	.LFB172:
 295:Generated_Source\PSoC6\pdl\middleware\ble/cy_ble_event_handler.c **** 
 296:Generated_Source\PSoC6\pdl\middleware\ble/cy_ble_event_handler.c **** 
 297:Generated_Source\PSoC6\pdl\middleware\ble/cy_ble_event_handler.c **** /******************************************************************************
 298:Generated_Source\PSoC6\pdl\middleware\ble/cy_ble_event_handler.c **** * Function Name: Cy_BLE_EventHandler
 299:Generated_Source\PSoC6\pdl\middleware\ble/cy_ble_event_handler.c **** ***************************************************************************//**
 300:Generated_Source\PSoC6\pdl\middleware\ble/cy_ble_event_handler.c **** *
 301:Generated_Source\PSoC6\pdl\middleware\ble/cy_ble_event_handler.c **** *  Handles events from the BLE Stack.
 302:Generated_Source\PSoC6\pdl\middleware\ble/cy_ble_event_handler.c **** *
 303:Generated_Source\PSoC6\pdl\middleware\ble/cy_ble_event_handler.c **** *  \param event:   The event code.
 304:Generated_Source\PSoC6\pdl\middleware\ble/cy_ble_event_handler.c **** *  \param evParam: The event parameters.
 305:Generated_Source\PSoC6\pdl\middleware\ble/cy_ble_event_handler.c **** *
 306:Generated_Source\PSoC6\pdl\middleware\ble/cy_ble_event_handler.c **** * \return
 307:Generated_Source\PSoC6\pdl\middleware\ble/cy_ble_event_handler.c **** *  None.
 308:Generated_Source\PSoC6\pdl\middleware\ble/cy_ble_event_handler.c **** *
 309:Generated_Source\PSoC6\pdl\middleware\ble/cy_ble_event_handler.c **** ******************************************************************************/
 310:Generated_Source\PSoC6\pdl\middleware\ble/cy_ble_event_handler.c **** void Cy_BLE_EventHandler(cy_en_ble_event_t event,
 311:Generated_Source\PSoC6\pdl\middleware\ble/cy_ble_event_handler.c ****                          void *evParam)
 312:Generated_Source\PSoC6\pdl\middleware\ble/cy_ble_event_handler.c **** {
 332              		.loc 1 312 0
 333              		.cfi_startproc
 334              		@ args = 0, pretend = 0, frame = 40
 335              		@ frame_needed = 0, uses_anonymous_args = 0
 336              	.LVL39:
 337 0000 F0B5     		push	{r4, r5, r6, r7, lr}
 338              		.cfi_def_cfa_offset 20
 339              		.cfi_offset 4, -20
 340              		.cfi_offset 5, -16
 341              		.cfi_offset 6, -12
ARM GAS  C:\Users\Smaug\AppData\Local\Temp\ccVZzAJS.s 			page 13


 342              		.cfi_offset 7, -8
 343              		.cfi_offset 14, -4
 344 0002 4746     		mov	r7, r8
 345 0004 80B4     		push	{r7}
 346              		.cfi_def_cfa_offset 24
 347              		.cfi_offset 8, -24
 348 0006 8AB0     		sub	sp, sp, #40
 349              		.cfi_def_cfa_offset 64
 350 0008 0400     		movs	r4, r0
 351 000a 0D00     		movs	r5, r1
 313:Generated_Source\PSoC6\pdl\middleware\ble/cy_ble_event_handler.c ****     cy_ble_eventHandlerFlag |= CY_BLE_CALLBACK;
 352              		.loc 1 313 0
 353 000c C74A     		ldr	r2, .L99
 354 000e 1178     		ldrb	r1, [r2]
 355              	.LVL40:
 356 0010 0123     		movs	r3, #1
 357 0012 0B43     		orrs	r3, r1
 358 0014 DBB2     		uxtb	r3, r3
 359 0016 1370     		strb	r3, [r2]
 314:Generated_Source\PSoC6\pdl\middleware\ble/cy_ble_event_handler.c **** 
 315:Generated_Source\PSoC6\pdl\middleware\ble/cy_ble_event_handler.c ****     /* Common Profile event handling */
 316:Generated_Source\PSoC6\pdl\middleware\ble/cy_ble_event_handler.c ****     switch(event)
 360              		.loc 1 316 0
 361 0018 C54B     		ldr	r3, .L99+4
 362 001a 9842     		cmp	r0, r3
 363 001c 00D1     		bne	.LCB358
 364 001e 3CE2     		b	.L32	@long jump
 365              	.LCB358:
 366 0020 30D8     		bhi	.L33
 367 0022 C44B     		ldr	r3, .L99+8
 368 0024 9842     		cmp	r0, r3
 369 0026 00D1     		bne	.LCB363
 370 0028 CAE0     		b	.L34	@long jump
 371              	.LCB363:
 372 002a 15D8     		bhi	.L35
 373 002c C24B     		ldr	r3, .L99+12
 374 002e 9842     		cmp	r0, r3
 375 0030 00D1     		bne	.LCB368
 376 0032 FCE0     		b	.L36	@long jump
 377              	.LCB368:
 378 0034 07D8     		bhi	.L37
 379 0036 023B     		subs	r3, r3, #2
 380 0038 9842     		cmp	r0, r3
 381 003a 63D0     		beq	.L38
 382 003c BF4B     		ldr	r3, .L99+16
 383 003e 9842     		cmp	r0, r3
 384 0040 00D1     		bne	.LCB376
 385 0042 F0E0     		b	.L39	@long jump
 386              	.LCB376:
 387 0044 FCE2     		b	.L31
 388              	.L37:
 389 0046 BE4B     		ldr	r3, .L99+20
 390 0048 9842     		cmp	r0, r3
 391 004a 00D1     		bne	.LCB383
 392 004c 2DE1     		b	.L40	@long jump
 393              	.LCB383:
 394 004e BD4B     		ldr	r3, .L99+24
ARM GAS  C:\Users\Smaug\AppData\Local\Temp\ccVZzAJS.s 			page 14


 395 0050 9842     		cmp	r0, r3
 396 0052 00D1     		bne	.LCB386
 397 0054 C2E0     		b	.L41	@long jump
 398              	.LCB386:
 399 0056 F3E2     		b	.L31
 400              	.L35:
 401 0058 BB4B     		ldr	r3, .L99+28
 402 005a 9842     		cmp	r0, r3
 403 005c 00D1     		bne	.LCB393
 404 005e 39E1     		b	.L42	@long jump
 405              	.LCB393:
 406 0060 07D8     		bhi	.L43
 407 0062 BA4B     		ldr	r3, .L99+32
 408 0064 9842     		cmp	r0, r3
 409 0066 00D1     		bne	.LCB398
 410 0068 AAE0     		b	.L34	@long jump
 411              	.LCB398:
 412 006a B94B     		ldr	r3, .L99+36
 413 006c 9842     		cmp	r0, r3
 414 006e 40D0     		beq	.L44
 415 0070 E6E2     		b	.L31
 416              	.L43:
 417 0072 B84B     		ldr	r3, .L99+40
 418 0074 9842     		cmp	r0, r3
 419 0076 00D1     		bne	.LCB408
 420 0078 13E2     		b	.L45	@long jump
 421              	.LCB408:
 422 007a B74B     		ldr	r3, .L99+44
 423 007c 9842     		cmp	r0, r3
 424 007e 00D1     		bne	.LCB411
 425 0080 C0E1     		b	.L46	@long jump
 426              	.LCB411:
 427 0082 DDE2     		b	.L31
 428              	.L33:
 429 0084 B54B     		ldr	r3, .L99+48
 430 0086 9842     		cmp	r0, r3
 431 0088 00D1     		bne	.LCB418
 432 008a 92E2     		b	.L47	@long jump
 433              	.LCB418:
 434 008c 16D8     		bhi	.L48
 435 008e B44B     		ldr	r3, .L99+52
 436 0090 9842     		cmp	r0, r3
 437 0092 00D1     		bne	.LCB423
 438 0094 45E2     		b	.L49	@long jump
 439              	.LCB423:
 440 0096 08D8     		bhi	.L50
 441 0098 B24B     		ldr	r3, .L99+56
 442 009a 9842     		cmp	r0, r3
 443 009c 00D1     		bne	.LCB428
 444 009e ADE1     		b	.L51	@long jump
 445              	.LCB428:
 446 00a0 B14B     		ldr	r3, .L99+60
 447 00a2 9842     		cmp	r0, r3
 448 00a4 00D1     		bne	.LCB431
 449 00a6 ADE1     		b	.L46	@long jump
 450              	.LCB431:
 451 00a8 CAE2     		b	.L31
ARM GAS  C:\Users\Smaug\AppData\Local\Temp\ccVZzAJS.s 			page 15


 452              	.L50:
 453 00aa B04B     		ldr	r3, .L99+64
 454 00ac 9842     		cmp	r0, r3
 455 00ae 00D1     		bne	.LCB438
 456 00b0 5BE2     		b	.L52	@long jump
 457              	.LCB438:
 458 00b2 AF4B     		ldr	r3, .L99+68
 459 00b4 9842     		cmp	r0, r3
 460 00b6 00D1     		bne	.LCB441
 461 00b8 73E2     		b	.L53	@long jump
 462              	.LCB441:
 463 00ba C1E2     		b	.L31
 464              	.L48:
 465 00bc AD4B     		ldr	r3, .L99+72
 466 00be 9842     		cmp	r0, r3
 467 00c0 00D1     		bne	.LCB448
 468 00c2 AEE2     		b	.L54	@long jump
 469              	.LCB448:
 470 00c4 08D8     		bhi	.L55
 471 00c6 AC4B     		ldr	r3, .L99+76
 472 00c8 9842     		cmp	r0, r3
 473 00ca 00D1     		bne	.LCB453
 474 00cc A1E2     		b	.L56	@long jump
 475              	.LCB453:
 476 00ce AB4B     		ldr	r3, .L99+80
 477 00d0 9842     		cmp	r0, r3
 478 00d2 00D1     		bne	.LCB456
 479 00d4 A1E2     		b	.L57	@long jump
 480              	.LCB456:
 481 00d6 B3E2     		b	.L31
 482              	.L55:
 483 00d8 A94B     		ldr	r3, .L99+84
 484 00da 9842     		cmp	r0, r3
 485 00dc 00D1     		bne	.LCB463
 486 00de A8E2     		b	.L58	@long jump
 487              	.LCB463:
 488 00e0 A84B     		ldr	r3, .L99+88
 489 00e2 9842     		cmp	r0, r3
 490 00e4 00D1     		bne	.LCB466
 491 00e6 18E2     		b	.L59	@long jump
 492              	.LCB466:
 493 00e8 A74B     		ldr	r3, .L99+92
 494 00ea 9842     		cmp	r0, r3
 495 00ec 00D0     		beq	.LCB469
 496 00ee A7E2     		b	.L31	@long jump
 497              	.LCB469:
 498 00f0 9BE2     		b	.L60
 499              	.L44:
 500              	.LVL41:
 501              	.LBB82:
 317:Generated_Source\PSoC6\pdl\middleware\ble/cy_ble_event_handler.c ****     {
 318:Generated_Source\PSoC6\pdl\middleware\ble/cy_ble_event_handler.c ****         /**********************************************************
 319:Generated_Source\PSoC6\pdl\middleware\ble/cy_ble_event_handler.c ****          * General events
 320:Generated_Source\PSoC6\pdl\middleware\ble/cy_ble_event_handler.c ****          ************************************************************/
 321:Generated_Source\PSoC6\pdl\middleware\ble/cy_ble_event_handler.c ****         case CY_BLE_EVT_HCI_PKT_RCVD:
 322:Generated_Source\PSoC6\pdl\middleware\ble/cy_ble_event_handler.c ****         {
 323:Generated_Source\PSoC6\pdl\middleware\ble/cy_ble_event_handler.c ****             #if (CY_BLE_MODE_PROFILE) && (!CY_BLE_STACK_MODE_IPC)
ARM GAS  C:\Users\Smaug\AppData\Local\Temp\ccVZzAJS.s 			page 16


 324:Generated_Source\PSoC6\pdl\middleware\ble/cy_ble_event_handler.c ****             cy_stc_ble_hci_tx_packet_info_t *HciPktParams = (cy_stc_ble_hci_tx_packet_info_t*)evPar
 325:Generated_Source\PSoC6\pdl\middleware\ble/cy_ble_event_handler.c **** 
 326:Generated_Source\PSoC6\pdl\middleware\ble/cy_ble_event_handler.c ****             Cy_BLE_HAL_SoftHciHostReceiveControllerPkt(HciPktParams);
 502              		.loc 1 326 0
 503 00f2 2800     		movs	r0, r5
 504              	.LVL42:
 505 00f4 FFF7FEFF 		bl	Cy_BLE_HAL_SoftHciHostReceiveControllerPkt
 506              	.LVL43:
 327:Generated_Source\PSoC6\pdl\middleware\ble/cy_ble_event_handler.c ****             #endif /* (CY_BLE_MODE_PROFILE) && (!CY_BLE_STACK_MODE_IPC) */
 328:Generated_Source\PSoC6\pdl\middleware\ble/cy_ble_event_handler.c **** 
 329:Generated_Source\PSoC6\pdl\middleware\ble/cy_ble_event_handler.c ****             /* Clear the CY_BLE_CALLBACK flag not to provide a handled event to the application */
 330:Generated_Source\PSoC6\pdl\middleware\ble/cy_ble_event_handler.c ****             cy_ble_eventHandlerFlag &= (uint8_t) ~CY_BLE_CALLBACK;
 507              		.loc 1 330 0
 508 00f8 8C4A     		ldr	r2, .L99
 509 00fa 1378     		ldrb	r3, [r2]
 510 00fc 0121     		movs	r1, #1
 511 00fe 8B43     		bics	r3, r1
 512 0100 1370     		strb	r3, [r2]
 513              	.LBE82:
 331:Generated_Source\PSoC6\pdl\middleware\ble/cy_ble_event_handler.c ****         }
 332:Generated_Source\PSoC6\pdl\middleware\ble/cy_ble_event_handler.c ****         break;
 514              		.loc 1 332 0
 515 0102 9DE2     		b	.L31
 516              	.LVL44:
 517              	.L38:
 333:Generated_Source\PSoC6\pdl\middleware\ble/cy_ble_event_handler.c **** 
 334:Generated_Source\PSoC6\pdl\middleware\ble/cy_ble_event_handler.c ****         case CY_BLE_EVT_STACK_ON:
 335:Generated_Source\PSoC6\pdl\middleware\ble/cy_ble_event_handler.c **** 
 336:Generated_Source\PSoC6\pdl\middleware\ble/cy_ble_event_handler.c ****             /* Set a device address  */
 337:Generated_Source\PSoC6\pdl\middleware\ble/cy_ble_event_handler.c ****             if(Cy_BLE_IsDeviceAddressValid(cy_ble_sflashDeviceAddress) != 0u)
 518              		.loc 1 337 0
 519 0104 A14B     		ldr	r3, .L99+96
 520 0106 1E68     		ldr	r6, [r3]
 521 0108 3000     		movs	r0, r6
 522              	.LVL45:
 523 010a FFF7FEFF 		bl	Cy_BLE_IsDeviceAddressValid
 524              	.LVL46:
 525 010e 0028     		cmp	r0, #0
 526 0110 0CD0     		beq	.L61
 338:Generated_Source\PSoC6\pdl\middleware\ble/cy_ble_event_handler.c ****             {
 339:Generated_Source\PSoC6\pdl\middleware\ble/cy_ble_event_handler.c ****                 (void)Cy_BLE_GAP_SetBdAddress(cy_ble_sflashDeviceAddress);
 527              		.loc 1 339 0
 528 0112 3000     		movs	r0, r6
 529 0114 FFF7FEFF 		bl	Cy_BLE_GAP_SetBdAddress
 530              	.LVL47:
 340:Generated_Source\PSoC6\pdl\middleware\ble/cy_ble_event_handler.c **** 
 341:Generated_Source\PSoC6\pdl\middleware\ble/cy_ble_event_handler.c ****                 #if (CY_BLE_GAP_ROLE_PERIPHERAL || CY_BLE_GAP_ROLE_BROADCASTER)
 342:Generated_Source\PSoC6\pdl\middleware\ble/cy_ble_event_handler.c ****                 Cy_BLE_ChangeAdDeviceAddress(cy_ble_sflashDeviceAddress, 0u);
 531              		.loc 1 342 0
 532 0118 9C4E     		ldr	r6, .L99+96
 533 011a 0021     		movs	r1, #0
 534 011c 3068     		ldr	r0, [r6]
 535 011e FFF7FEFF 		bl	Cy_BLE_ChangeAdDeviceAddress
 536              	.LVL48:
 343:Generated_Source\PSoC6\pdl\middleware\ble/cy_ble_event_handler.c ****                 Cy_BLE_ChangeAdDeviceAddress(cy_ble_sflashDeviceAddress, 1u);
 537              		.loc 1 343 0
 538 0122 3068     		ldr	r0, [r6]
ARM GAS  C:\Users\Smaug\AppData\Local\Temp\ccVZzAJS.s 			page 17


 539 0124 0121     		movs	r1, #1
 540 0126 FFF7FEFF 		bl	Cy_BLE_ChangeAdDeviceAddress
 541              	.LVL49:
 542 012a 37E0     		b	.L62
 543              	.L61:
 344:Generated_Source\PSoC6\pdl\middleware\ble/cy_ble_event_handler.c ****                 #endif /* CY_BLE_GAP_ROLE_PERIPHERAL || CY_BLE_GAP_ROLE_BROADCASTER */
 345:Generated_Source\PSoC6\pdl\middleware\ble/cy_ble_event_handler.c ****             }
 346:Generated_Source\PSoC6\pdl\middleware\ble/cy_ble_event_handler.c ****             else
 347:Generated_Source\PSoC6\pdl\middleware\ble/cy_ble_event_handler.c ****             {
 348:Generated_Source\PSoC6\pdl\middleware\ble/cy_ble_event_handler.c ****                 if(cy_ble_configPtr->params->siliconDeviceAddressEnabled != 0u)
 544              		.loc 1 348 0
 545 012c 984B     		ldr	r3, .L99+100
 546 012e 1968     		ldr	r1, [r3]
 547 0130 8B6A     		ldr	r3, [r1, #40]
 548 0132 1B79     		ldrb	r3, [r3, #4]
 549 0134 002B     		cmp	r3, #0
 550 0136 22D0     		beq	.L63
 551              	.LBB83:
 349:Generated_Source\PSoC6\pdl\middleware\ble/cy_ble_event_handler.c ****                 {
 350:Generated_Source\PSoC6\pdl\middleware\ble/cy_ble_event_handler.c ****                     uint32_t bdAddrLoc;
 351:Generated_Source\PSoC6\pdl\middleware\ble/cy_ble_event_handler.c ****                     bdAddrLoc = ((uint32_t)SFLASH->DIE_X & (uint32_t)CY_BLE_SFLASH_DIE_X_MASK) |
 552              		.loc 1 351 0
 553 0138 B020     		movs	r0, #176
 554 013a 4005     		lsls	r0, r0, #21
 555 013c 954B     		ldr	r3, .L99+104
 556 013e C35C     		ldrb	r3, [r0, r3]
 557 0140 3F22     		movs	r2, #63
 558 0142 1340     		ands	r3, r2
 352:Generated_Source\PSoC6\pdl\middleware\ble/cy_ble_event_handler.c ****                                 ((uint32_t)(((uint32_t)SFLASH->DIE_Y) & ((uint32_t)CY_BLE_SFLASH_DI
 559              		.loc 1 352 0
 560 0144 944E     		ldr	r6, .L99+108
 561 0146 865D     		ldrb	r6, [r0, r6]
 562 0148 3240     		ands	r2, r6
 563 014a 9201     		lsls	r2, r2, #6
 351:Generated_Source\PSoC6\pdl\middleware\ble/cy_ble_event_handler.c ****                                 ((uint32_t)(((uint32_t)SFLASH->DIE_Y) & ((uint32_t)CY_BLE_SFLASH_DI
 564              		.loc 1 351 0
 565 014c 1A43     		orrs	r2, r3
 353:Generated_Source\PSoC6\pdl\middleware\ble/cy_ble_event_handler.c ****                                  CY_BLE_SFLASH_DIE_X_BITS) |
 354:Generated_Source\PSoC6\pdl\middleware\ble/cy_ble_event_handler.c ****                                 ((uint32_t)(((uint32_t)SFLASH->DIE_WAFER) & ((uint32_t)CY_BLE_SFLAS
 566              		.loc 1 354 0
 567 014e 934B     		ldr	r3, .L99+112
 568 0150 C65C     		ldrb	r6, [r0, r3]
 569 0152 1F23     		movs	r3, #31
 570 0154 3340     		ands	r3, r6
 571 0156 1B03     		lsls	r3, r3, #12
 353:Generated_Source\PSoC6\pdl\middleware\ble/cy_ble_event_handler.c ****                                  CY_BLE_SFLASH_DIE_X_BITS) |
 572              		.loc 1 353 0
 573 0158 1343     		orrs	r3, r2
 355:Generated_Source\PSoC6\pdl\middleware\ble/cy_ble_event_handler.c ****                                  CY_BLE_SFLASH_DIE_XY_BITS) |
 356:Generated_Source\PSoC6\pdl\middleware\ble/cy_ble_event_handler.c ****                                 ((uint32_t)(((uint32_t)SFLASH->DIE_LOT[0]) & ((uint32_t)CY_BLE_SFLA
 574              		.loc 1 356 0
 575 015a C022     		movs	r2, #192
 576 015c D200     		lsls	r2, r2, #3
 577 015e 805C     		ldrb	r0, [r0, r2]
 578 0160 7F22     		movs	r2, #127
 579 0162 0240     		ands	r2, r0
 580 0164 5204     		lsls	r2, r2, #17
ARM GAS  C:\Users\Smaug\AppData\Local\Temp\ccVZzAJS.s 			page 18


 351:Generated_Source\PSoC6\pdl\middleware\ble/cy_ble_event_handler.c ****                                 ((uint32_t)(((uint32_t)SFLASH->DIE_Y) & ((uint32_t)CY_BLE_SFLASH_DI
 581              		.loc 1 351 0
 582 0166 1343     		orrs	r3, r2
 583              	.LVL50:
 357:Generated_Source\PSoC6\pdl\middleware\ble/cy_ble_event_handler.c ****                                  CY_BLE_SFLASH_DIE_XYWAFER_BITS);
 358:Generated_Source\PSoC6\pdl\middleware\ble/cy_ble_event_handler.c **** 
 359:Generated_Source\PSoC6\pdl\middleware\ble/cy_ble_event_handler.c ****                     cy_ble_configPtr->deviceAddress->bdAddr[0] = (uint8_t)bdAddrLoc;
 584              		.loc 1 359 0
 585 0168 0A6B     		ldr	r2, [r1, #48]
 586 016a 1370     		strb	r3, [r2]
 360:Generated_Source\PSoC6\pdl\middleware\ble/cy_ble_event_handler.c ****                     cy_ble_configPtr->deviceAddress->bdAddr[1] = (uint8_t)(bdAddrLoc >> 8u);
 587              		.loc 1 360 0
 588 016c 884A     		ldr	r2, .L99+100
 589 016e 1168     		ldr	r1, [r2]
 590 0170 096B     		ldr	r1, [r1, #48]
 591 0172 180A     		lsrs	r0, r3, #8
 592 0174 4870     		strb	r0, [r1, #1]
 361:Generated_Source\PSoC6\pdl\middleware\ble/cy_ble_event_handler.c ****                     cy_ble_configPtr->deviceAddress->bdAddr[2] = (uint8_t)(bdAddrLoc >> 16u);
 593              		.loc 1 361 0
 594 0176 1268     		ldr	r2, [r2]
 595 0178 126B     		ldr	r2, [r2, #48]
 596 017a 1B0C     		lsrs	r3, r3, #16
 597              	.LVL51:
 598 017c 9370     		strb	r3, [r2, #2]
 599              	.L63:
 600              	.LBE83:
 362:Generated_Source\PSoC6\pdl\middleware\ble/cy_ble_event_handler.c ****                 }
 363:Generated_Source\PSoC6\pdl\middleware\ble/cy_ble_event_handler.c ****                 (void)Cy_BLE_GAP_SetBdAddress(cy_ble_configPtr->deviceAddress);
 601              		.loc 1 363 0
 602 017e 844E     		ldr	r6, .L99+100
 603 0180 3368     		ldr	r3, [r6]
 604 0182 186B     		ldr	r0, [r3, #48]
 605 0184 FFF7FEFF 		bl	Cy_BLE_GAP_SetBdAddress
 606              	.LVL52:
 364:Generated_Source\PSoC6\pdl\middleware\ble/cy_ble_event_handler.c **** 
 365:Generated_Source\PSoC6\pdl\middleware\ble/cy_ble_event_handler.c ****                 #if (CY_BLE_GAP_ROLE_PERIPHERAL || CY_BLE_GAP_ROLE_BROADCASTER)
 366:Generated_Source\PSoC6\pdl\middleware\ble/cy_ble_event_handler.c ****                 Cy_BLE_ChangeAdDeviceAddress(cy_ble_configPtr->deviceAddress, 0u);
 607              		.loc 1 366 0
 608 0188 3368     		ldr	r3, [r6]
 609 018a 186B     		ldr	r0, [r3, #48]
 610 018c 0021     		movs	r1, #0
 611 018e FFF7FEFF 		bl	Cy_BLE_ChangeAdDeviceAddress
 612              	.LVL53:
 367:Generated_Source\PSoC6\pdl\middleware\ble/cy_ble_event_handler.c ****                 Cy_BLE_ChangeAdDeviceAddress(cy_ble_configPtr->deviceAddress, 1u);
 613              		.loc 1 367 0
 614 0192 3368     		ldr	r3, [r6]
 615 0194 186B     		ldr	r0, [r3, #48]
 616 0196 0121     		movs	r1, #1
 617 0198 FFF7FEFF 		bl	Cy_BLE_ChangeAdDeviceAddress
 618              	.LVL54:
 619              	.L62:
 368:Generated_Source\PSoC6\pdl\middleware\ble/cy_ble_event_handler.c ****                 #endif /* CY_BLE_GAP_ROLE_PERIPHERAL || CY_BLE_GAP_ROLE_BROADCASTER */
 369:Generated_Source\PSoC6\pdl\middleware\ble/cy_ble_event_handler.c ****             }
 370:Generated_Source\PSoC6\pdl\middleware\ble/cy_ble_event_handler.c **** 
 371:Generated_Source\PSoC6\pdl\middleware\ble/cy_ble_event_handler.c ****             /* Set the device IO Capability  */
 372:Generated_Source\PSoC6\pdl\middleware\ble/cy_ble_event_handler.c ****             (void)Cy_BLE_GAP_SetIoCap((cy_en_ble_gap_iocap_t*)&cy_ble_configPtr->params->securityIo
 620              		.loc 1 372 0
ARM GAS  C:\Users\Smaug\AppData\Local\Temp\ccVZzAJS.s 			page 19


 621 019c 7C4B     		ldr	r3, .L99+100
 622 019e 1B68     		ldr	r3, [r3]
 623 01a0 986A     		ldr	r0, [r3, #40]
 624 01a2 0230     		adds	r0, r0, #2
 625 01a4 FFF7FEFF 		bl	Cy_BLE_GAP_SetIoCap
 626              	.LVL55:
 627              	.LBB84:
 373:Generated_Source\PSoC6\pdl\middleware\ble/cy_ble_event_handler.c **** 
 374:Generated_Source\PSoC6\pdl\middleware\ble/cy_ble_event_handler.c ****             /* Enable all 4.1 events and configured 4.2 events */
 375:Generated_Source\PSoC6\pdl\middleware\ble/cy_ble_event_handler.c ****             {
 376:Generated_Source\PSoC6\pdl\middleware\ble/cy_ble_event_handler.c ****                 uint8_t leMask[CY_BLE_LE_MASK_LENGTH] = { CY_LO8(CY_BLE_LE_MASK),
 628              		.loc 1 376 0
 629 01a8 0822     		movs	r2, #8
 630 01aa 7D49     		ldr	r1, .L99+116
 631 01ac 04A8     		add	r0, sp, #16
 632 01ae FFF7FEFF 		bl	memcpy
 633              	.LVL56:
 377:Generated_Source\PSoC6\pdl\middleware\ble/cy_ble_event_handler.c ****                                                           CY_HI8(CY_BLE_LE_MASK),0u,  0u, 0u, 0u, 0
 378:Generated_Source\PSoC6\pdl\middleware\ble/cy_ble_event_handler.c ****                 (void)Cy_BLE_SetLeEventMask(leMask);
 634              		.loc 1 378 0
 635 01b2 04A8     		add	r0, sp, #16
 636 01b4 FFF7FEFF 		bl	Cy_BLE_SetLeEventMask
 637              	.LVL57:
 638              	.LBE84:
 379:Generated_Source\PSoC6\pdl\middleware\ble/cy_ble_event_handler.c ****             }
 380:Generated_Source\PSoC6\pdl\middleware\ble/cy_ble_event_handler.c **** 
 381:Generated_Source\PSoC6\pdl\middleware\ble/cy_ble_event_handler.c ****             /* Update BLE state  */
 382:Generated_Source\PSoC6\pdl\middleware\ble/cy_ble_event_handler.c ****             Cy_BLE_SetState(CY_BLE_STATE_ON);
 639              		.loc 1 382 0
 640 01b8 0222     		movs	r2, #2
 641 01ba 7A4B     		ldr	r3, .L99+120
 642 01bc 1A70     		strb	r2, [r3]
 383:Generated_Source\PSoC6\pdl\middleware\ble/cy_ble_event_handler.c ****             break;
 643              		.loc 1 383 0
 644 01be 3FE2     		b	.L31
 645              	.LVL58:
 646              	.L34:
 384:Generated_Source\PSoC6\pdl\middleware\ble/cy_ble_event_handler.c **** 
 385:Generated_Source\PSoC6\pdl\middleware\ble/cy_ble_event_handler.c **** 
 386:Generated_Source\PSoC6\pdl\middleware\ble/cy_ble_event_handler.c ****         case CY_BLE_EVT_SOFT_RESET_COMPLETE:
 387:Generated_Source\PSoC6\pdl\middleware\ble/cy_ble_event_handler.c ****         case CY_BLE_EVT_STACK_SHUTDOWN_COMPLETE:
 388:Generated_Source\PSoC6\pdl\middleware\ble/cy_ble_event_handler.c **** 
 389:Generated_Source\PSoC6\pdl\middleware\ble/cy_ble_event_handler.c ****             /* Update BLE / Adv. / Scan states  */
 390:Generated_Source\PSoC6\pdl\middleware\ble/cy_ble_event_handler.c ****             Cy_BLE_SetState(CY_BLE_STATE_STOPPED);
 647              		.loc 1 390 0
 648 01c0 0023     		movs	r3, #0
 649 01c2 784A     		ldr	r2, .L99+120
 650 01c4 1370     		strb	r3, [r2]
 651              	.LVL59:
 652              	.LBB85:
 653              	.LBB86:
 654              		.file 2 "Generated_Source\\PSoC6\\pdl\\middleware\\ble\\cy_ble_gap.h"
   1:Generated_Source\PSoC6\pdl\middleware\ble/cy_ble_gap.h **** /***************************************************************************//**
   2:Generated_Source\PSoC6\pdl\middleware\ble/cy_ble_gap.h **** * \file cy_ble_gap.h
   3:Generated_Source\PSoC6\pdl\middleware\ble/cy_ble_gap.h **** * \version 2.90
   4:Generated_Source\PSoC6\pdl\middleware\ble/cy_ble_gap.h **** *
   5:Generated_Source\PSoC6\pdl\middleware\ble/cy_ble_gap.h **** * \brief
ARM GAS  C:\Users\Smaug\AppData\Local\Temp\ccVZzAJS.s 			page 20


   6:Generated_Source\PSoC6\pdl\middleware\ble/cy_ble_gap.h **** *  Contains the prototypes and constants used in the BLE GAP profile.
   7:Generated_Source\PSoC6\pdl\middleware\ble/cy_ble_gap.h **** *
   8:Generated_Source\PSoC6\pdl\middleware\ble/cy_ble_gap.h **** ********************************************************************************
   9:Generated_Source\PSoC6\pdl\middleware\ble/cy_ble_gap.h **** * \copyright
  10:Generated_Source\PSoC6\pdl\middleware\ble/cy_ble_gap.h **** * Copyright 2017-2023, Cypress Semiconductor Corporation.  All rights reserved.
  11:Generated_Source\PSoC6\pdl\middleware\ble/cy_ble_gap.h **** * You may use this file only in accordance with the license, terms, conditions,
  12:Generated_Source\PSoC6\pdl\middleware\ble/cy_ble_gap.h **** * disclaimers, and limitations in the end user license agreement accompanying
  13:Generated_Source\PSoC6\pdl\middleware\ble/cy_ble_gap.h **** * the software package with which this file was provided.
  14:Generated_Source\PSoC6\pdl\middleware\ble/cy_ble_gap.h **** *******************************************************************************/
  15:Generated_Source\PSoC6\pdl\middleware\ble/cy_ble_gap.h **** 
  16:Generated_Source\PSoC6\pdl\middleware\ble/cy_ble_gap.h **** 
  17:Generated_Source\PSoC6\pdl\middleware\ble/cy_ble_gap.h **** #ifndef CY_BLE_GAP_H
  18:Generated_Source\PSoC6\pdl\middleware\ble/cy_ble_gap.h **** #define CY_BLE_GAP_H
  19:Generated_Source\PSoC6\pdl\middleware\ble/cy_ble_gap.h **** 
  20:Generated_Source\PSoC6\pdl\middleware\ble/cy_ble_gap.h **** #include "cy_ble_config.h"
  21:Generated_Source\PSoC6\pdl\middleware\ble/cy_ble_gap.h **** 
  22:Generated_Source\PSoC6\pdl\middleware\ble/cy_ble_gap.h **** /***************************************
  23:Generated_Source\PSoC6\pdl\middleware\ble/cy_ble_gap.h **** * BLE Stack includes
  24:Generated_Source\PSoC6\pdl\middleware\ble/cy_ble_gap.h **** ***************************************/
  25:Generated_Source\PSoC6\pdl\middleware\ble/cy_ble_gap.h **** #include "cy_ble_stack_gatt.h"
  26:Generated_Source\PSoC6\pdl\middleware\ble/cy_ble_gap.h **** #include "cy_ble_stack_gap.h"
  27:Generated_Source\PSoC6\pdl\middleware\ble/cy_ble_gap.h **** #include "cy_ble_stack_gap_central.h"
  28:Generated_Source\PSoC6\pdl\middleware\ble/cy_ble_gap.h **** #include "cy_ble_stack_gap_peripheral.h"
  29:Generated_Source\PSoC6\pdl\middleware\ble/cy_ble_gap.h **** 
  30:Generated_Source\PSoC6\pdl\middleware\ble/cy_ble_gap.h **** /* C binding of definitions if building with C++ compiler */
  31:Generated_Source\PSoC6\pdl\middleware\ble/cy_ble_gap.h **** #ifdef __cplusplus
  32:Generated_Source\PSoC6\pdl\middleware\ble/cy_ble_gap.h **** extern "C" {
  33:Generated_Source\PSoC6\pdl\middleware\ble/cy_ble_gap.h **** #endif /* __cplusplus */
  34:Generated_Source\PSoC6\pdl\middleware\ble/cy_ble_gap.h **** 
  35:Generated_Source\PSoC6\pdl\middleware\ble/cy_ble_gap.h **** /***************************************
  36:Generated_Source\PSoC6\pdl\middleware\ble/cy_ble_gap.h **** * Conditional Compilation Parameters
  37:Generated_Source\PSoC6\pdl\middleware\ble/cy_ble_gap.h **** ***************************************/
  38:Generated_Source\PSoC6\pdl\middleware\ble/cy_ble_gap.h **** /**
  39:Generated_Source\PSoC6\pdl\middleware\ble/cy_ble_gap.h ****  * The BLE operation mode.
  40:Generated_Source\PSoC6\pdl\middleware\ble/cy_ble_gap.h ****  */
  41:Generated_Source\PSoC6\pdl\middleware\ble/cy_ble_gap.h **** #define CY_BLE_MODE                          (CY_BLE_CONFIG_MODE)
  42:Generated_Source\PSoC6\pdl\middleware\ble/cy_ble_gap.h **** 
  43:Generated_Source\PSoC6\pdl\middleware\ble/cy_ble_gap.h **** /**
  44:Generated_Source\PSoC6\pdl\middleware\ble/cy_ble_gap.h ****  * Maximum number of BLE connections
  45:Generated_Source\PSoC6\pdl\middleware\ble/cy_ble_gap.h ****  * This parameter displays how many BLE connections (both Central and
  46:Generated_Source\PSoC6\pdl\middleware\ble/cy_ble_gap.h ****  * Peripheral) are allowed. Valid range is from 1 to 4.
  47:Generated_Source\PSoC6\pdl\middleware\ble/cy_ble_gap.h ****  */
  48:Generated_Source\PSoC6\pdl\middleware\ble/cy_ble_gap.h **** #define CY_BLE_CONN_COUNT                    (CY_BLE_CONFIG_CONN_COUNT)
  49:Generated_Source\PSoC6\pdl\middleware\ble/cy_ble_gap.h **** 
  50:Generated_Source\PSoC6\pdl\middleware\ble/cy_ble_gap.h **** /**
  51:Generated_Source\PSoC6\pdl\middleware\ble/cy_ble_gap.h ****  * The GAP Role
  52:Generated_Source\PSoC6\pdl\middleware\ble/cy_ble_gap.h ****  * The following defined mask can be used:
  53:Generated_Source\PSoC6\pdl\middleware\ble/cy_ble_gap.h ****  * CY_BLE_GAP_PERIPHERAL  (0x01u) - device operates as peripheral.
  54:Generated_Source\PSoC6\pdl\middleware\ble/cy_ble_gap.h ****  * CY_BLE_GAP_CENTRAL     (0x02u) - device operates as central.
  55:Generated_Source\PSoC6\pdl\middleware\ble/cy_ble_gap.h ****  * CY_BLE_GAP_BROADCASTER (0x04u) - device operates as broadcaster.
  56:Generated_Source\PSoC6\pdl\middleware\ble/cy_ble_gap.h ****  * CY_BLE_GAP_OBSERVER    (0x08u) - device operates as observer.
  57:Generated_Source\PSoC6\pdl\middleware\ble/cy_ble_gap.h ****  * CY_BLE_GAP_HCI         (0x00u) - used when BLE operates in HCI mode.
  58:Generated_Source\PSoC6\pdl\middleware\ble/cy_ble_gap.h ****  */
  59:Generated_Source\PSoC6\pdl\middleware\ble/cy_ble_gap.h **** #define CY_BLE_GAP_ROLE                       (CY_BLE_CONFIG_GAP_ROLE)
  60:Generated_Source\PSoC6\pdl\middleware\ble/cy_ble_gap.h **** 
  61:Generated_Source\PSoC6\pdl\middleware\ble/cy_ble_gap.h **** /** The number of GAP Peripheral configurations structures */
  62:Generated_Source\PSoC6\pdl\middleware\ble/cy_ble_gap.h **** #define CY_BLE_GAP_PERIPHERAL_COUNT           (CY_BLE_CONFIG_GAP_PERIPHERAL_COUNT)
ARM GAS  C:\Users\Smaug\AppData\Local\Temp\ccVZzAJS.s 			page 21


  63:Generated_Source\PSoC6\pdl\middleware\ble/cy_ble_gap.h **** 
  64:Generated_Source\PSoC6\pdl\middleware\ble/cy_ble_gap.h **** /** The number of GAP Broadcaster configurations structures */
  65:Generated_Source\PSoC6\pdl\middleware\ble/cy_ble_gap.h **** #define CY_BLE_GAP_BROADCASTER_COUNT          (CY_BLE_CONFIG_GAP_BROADCASTER_COUNT)
  66:Generated_Source\PSoC6\pdl\middleware\ble/cy_ble_gap.h **** 
  67:Generated_Source\PSoC6\pdl\middleware\ble/cy_ble_gap.h **** /** The number of GAP Central configurations structures */
  68:Generated_Source\PSoC6\pdl\middleware\ble/cy_ble_gap.h **** #define CY_BLE_GAP_CENTRAL_COUNT              (CY_BLE_CONFIG_GAP_CENTRAL_COUNT)
  69:Generated_Source\PSoC6\pdl\middleware\ble/cy_ble_gap.h **** 
  70:Generated_Source\PSoC6\pdl\middleware\ble/cy_ble_gap.h **** /** The number of GAP Observer configurations structures */
  71:Generated_Source\PSoC6\pdl\middleware\ble/cy_ble_gap.h **** #define CY_BLE_GAP_OBSERVER_COUNT             (CY_BLE_CONFIG_GAP_OBSERVER_COUNT)
  72:Generated_Source\PSoC6\pdl\middleware\ble/cy_ble_gap.h **** 
  73:Generated_Source\PSoC6\pdl\middleware\ble/cy_ble_gap.h **** /** The number of Security configurations structures */
  74:Generated_Source\PSoC6\pdl\middleware\ble/cy_ble_gap.h **** #define CY_BLE_AUTH_INFO_COUNT                (CY_BLE_CONFIG_AUTH_INFO_COUNT)
  75:Generated_Source\PSoC6\pdl\middleware\ble/cy_ble_gap.h **** 
  76:Generated_Source\PSoC6\pdl\middleware\ble/cy_ble_gap.h **** /** The Bonding Requirement structures */
  77:Generated_Source\PSoC6\pdl\middleware\ble/cy_ble_gap.h **** #define CY_BLE_BONDING_REQUIREMENT            (CY_BLE_CONFIG_BONDING_REQUIREMENT)
  78:Generated_Source\PSoC6\pdl\middleware\ble/cy_ble_gap.h **** 
  79:Generated_Source\PSoC6\pdl\middleware\ble/cy_ble_gap.h **** /** The GAP Role defines */
  80:Generated_Source\PSoC6\pdl\middleware\ble/cy_ble_gap.h **** #define CY_BLE_GAP_ROLE_PERIPHERAL            (0u != (CY_BLE_GAP_ROLE & CY_BLE_GAP_PERIPHERAL))
  81:Generated_Source\PSoC6\pdl\middleware\ble/cy_ble_gap.h **** #define CY_BLE_GAP_ROLE_CENTRAL               (0u != (CY_BLE_GAP_ROLE & CY_BLE_GAP_CENTRAL))
  82:Generated_Source\PSoC6\pdl\middleware\ble/cy_ble_gap.h **** #define CY_BLE_GAP_ROLE_OBSERVER              (0u != (CY_BLE_GAP_ROLE & CY_BLE_GAP_OBSERVER))
  83:Generated_Source\PSoC6\pdl\middleware\ble/cy_ble_gap.h **** #define CY_BLE_GAP_ROLE_BROADCASTER           (0u != (CY_BLE_GAP_ROLE & CY_BLE_GAP_BROADCASTER))
  84:Generated_Source\PSoC6\pdl\middleware\ble/cy_ble_gap.h **** 
  85:Generated_Source\PSoC6\pdl\middleware\ble/cy_ble_gap.h **** #define CY_BLE_GAPP_CONF_COUNT                (CY_BLE_GAP_PERIPHERAL_COUNT + CY_BLE_GAP_BROADCASTER
  86:Generated_Source\PSoC6\pdl\middleware\ble/cy_ble_gap.h **** #define CY_BLE_GAPC_CONF_COUNT                (CY_BLE_GAP_CENTRAL_COUNT + CY_BLE_GAP_OBSERVER_COUNT
  87:Generated_Source\PSoC6\pdl\middleware\ble/cy_ble_gap.h **** 
  88:Generated_Source\PSoC6\pdl\middleware\ble/cy_ble_gap.h **** /***************************************
  89:Generated_Source\PSoC6\pdl\middleware\ble/cy_ble_gap.h **** * Type Definitions
  90:Generated_Source\PSoC6\pdl\middleware\ble/cy_ble_gap.h **** ***************************************/
  91:Generated_Source\PSoC6\pdl\middleware\ble/cy_ble_gap.h **** 
  92:Generated_Source\PSoC6\pdl\middleware\ble/cy_ble_gap.h **** #if (CY_BLE_MODE_PROFILE)
  93:Generated_Source\PSoC6\pdl\middleware\ble/cy_ble_gap.h **** 
  94:Generated_Source\PSoC6\pdl\middleware\ble/cy_ble_gap.h **** /***************************************
  95:Generated_Source\PSoC6\pdl\middleware\ble/cy_ble_gap.h **** * Enumerated Types and Structures
  96:Generated_Source\PSoC6\pdl\middleware\ble/cy_ble_gap.h **** ***************************************/
  97:Generated_Source\PSoC6\pdl\middleware\ble/cy_ble_gap.h **** 
  98:Generated_Source\PSoC6\pdl\middleware\ble/cy_ble_gap.h **** /**
  99:Generated_Source\PSoC6\pdl\middleware\ble/cy_ble_gap.h ****  * \addtogroup group_ble_common_api_gap_definitions
 100:Generated_Source\PSoC6\pdl\middleware\ble/cy_ble_gap.h ****  * @{
 101:Generated_Source\PSoC6\pdl\middleware\ble/cy_ble_gap.h ****  */
 102:Generated_Source\PSoC6\pdl\middleware\ble/cy_ble_gap.h **** 
 103:Generated_Source\PSoC6\pdl\middleware\ble/cy_ble_gap.h **** /** BLE state machine type */
 104:Generated_Source\PSoC6\pdl\middleware\ble/cy_ble_gap.h **** typedef enum
 105:Generated_Source\PSoC6\pdl\middleware\ble/cy_ble_gap.h **** {
 106:Generated_Source\PSoC6\pdl\middleware\ble/cy_ble_gap.h ****     CY_BLE_STATE_STOPPED,                             /**< BLE is turned off */
 107:Generated_Source\PSoC6\pdl\middleware\ble/cy_ble_gap.h ****     CY_BLE_STATE_INITIALIZING,                        /**< Initializing state */
 108:Generated_Source\PSoC6\pdl\middleware\ble/cy_ble_gap.h ****     CY_BLE_STATE_ON,                                  /**< BLE is turned on */
 109:Generated_Source\PSoC6\pdl\middleware\ble/cy_ble_gap.h **** #if (CY_BLE_GAP_ROLE_CENTRAL)
 110:Generated_Source\PSoC6\pdl\middleware\ble/cy_ble_gap.h ****     CY_BLE_STATE_CONNECTING,                          /**< Connecting */
 111:Generated_Source\PSoC6\pdl\middleware\ble/cy_ble_gap.h **** #endif /* CY_BLE_GAP_ROLE_CENTRAL */
 112:Generated_Source\PSoC6\pdl\middleware\ble/cy_ble_gap.h **** } cy_en_ble_state_t;
 113:Generated_Source\PSoC6\pdl\middleware\ble/cy_ble_gap.h **** 
 114:Generated_Source\PSoC6\pdl\middleware\ble/cy_ble_gap.h **** 
 115:Generated_Source\PSoC6\pdl\middleware\ble/cy_ble_gap.h **** /** Scanning state machine type */
 116:Generated_Source\PSoC6\pdl\middleware\ble/cy_ble_gap.h **** typedef enum
 117:Generated_Source\PSoC6\pdl\middleware\ble/cy_ble_gap.h **** {
 118:Generated_Source\PSoC6\pdl\middleware\ble/cy_ble_gap.h ****     CY_BLE_SCAN_STATE_STOPPED,                        /**< Scanning is stopped */
 119:Generated_Source\PSoC6\pdl\middleware\ble/cy_ble_gap.h ****     CY_BLE_SCAN_STATE_SCAN_INITIATED,                 /**< Scanning is initiated */
ARM GAS  C:\Users\Smaug\AppData\Local\Temp\ccVZzAJS.s 			page 22


 120:Generated_Source\PSoC6\pdl\middleware\ble/cy_ble_gap.h ****     CY_BLE_SCAN_STATE_SCANNING,                       /**< Scanning process */
 121:Generated_Source\PSoC6\pdl\middleware\ble/cy_ble_gap.h ****     CY_BLE_SCAN_STATE_STOP_INITIATED                  /**< Stop scanning is initiated */
 122:Generated_Source\PSoC6\pdl\middleware\ble/cy_ble_gap.h **** } cy_en_ble_scan_state_t;
 123:Generated_Source\PSoC6\pdl\middleware\ble/cy_ble_gap.h **** 
 124:Generated_Source\PSoC6\pdl\middleware\ble/cy_ble_gap.h **** /** Advertising state machine type */
 125:Generated_Source\PSoC6\pdl\middleware\ble/cy_ble_gap.h **** typedef enum
 126:Generated_Source\PSoC6\pdl\middleware\ble/cy_ble_gap.h **** {
 127:Generated_Source\PSoC6\pdl\middleware\ble/cy_ble_gap.h ****     CY_BLE_ADV_STATE_STOPPED,                         /**< Advertising is stopped */
 128:Generated_Source\PSoC6\pdl\middleware\ble/cy_ble_gap.h ****     CY_BLE_ADV_STATE_ADV_INITIATED,                   /**< Advertising is initiated */
 129:Generated_Source\PSoC6\pdl\middleware\ble/cy_ble_gap.h ****     CY_BLE_ADV_STATE_ADVERTISING,                     /**< Advertising process */
 130:Generated_Source\PSoC6\pdl\middleware\ble/cy_ble_gap.h ****     CY_BLE_ADV_STATE_STOP_INITIATED                   /**< Stop advertising is initiated */
 131:Generated_Source\PSoC6\pdl\middleware\ble/cy_ble_gap.h **** } cy_en_ble_adv_state_t;
 132:Generated_Source\PSoC6\pdl\middleware\ble/cy_ble_gap.h **** 
 133:Generated_Source\PSoC6\pdl\middleware\ble/cy_ble_gap.h **** /** Connection state machine type */
 134:Generated_Source\PSoC6\pdl\middleware\ble/cy_ble_gap.h **** typedef enum
 135:Generated_Source\PSoC6\pdl\middleware\ble/cy_ble_gap.h **** {
 136:Generated_Source\PSoC6\pdl\middleware\ble/cy_ble_gap.h ****     CY_BLE_CONN_STATE_DISCONNECTED,                   /**< Essentially idle state */
 137:Generated_Source\PSoC6\pdl\middleware\ble/cy_ble_gap.h ****     CY_BLE_CONN_STATE_CLIENT_DISCONNECTED_DISCOVERED, /**< Server is disconnected but discovered */
 138:Generated_Source\PSoC6\pdl\middleware\ble/cy_ble_gap.h ****     CY_BLE_CONN_STATE_CONNECTED,                      /**< Peer device is connected for this and fo
 139:Generated_Source\PSoC6\pdl\middleware\ble/cy_ble_gap.h ****     CY_BLE_CONN_STATE_CLIENT_SRVC_DISCOVERING,        /**< Server services are being discovered */
 140:Generated_Source\PSoC6\pdl\middleware\ble/cy_ble_gap.h ****     CY_BLE_CONN_STATE_CLIENT_INCL_DISCOVERING,        /**< Server included services are being disco
 141:Generated_Source\PSoC6\pdl\middleware\ble/cy_ble_gap.h ****     CY_BLE_CONN_STATE_CLIENT_CHAR_DISCOVERING,        /**< Server characteristics are being discove
 142:Generated_Source\PSoC6\pdl\middleware\ble/cy_ble_gap.h ****     CY_BLE_CONN_STATE_CLIENT_DESCR_DISCOVERING,       /**< Server char. descriptors are being disco
 143:Generated_Source\PSoC6\pdl\middleware\ble/cy_ble_gap.h ****     CY_BLE_CONN_STATE_CLIENT_DISCOVERED               /**< Server is discovered */
 144:Generated_Source\PSoC6\pdl\middleware\ble/cy_ble_gap.h **** } cy_en_ble_conn_state_t;
 145:Generated_Source\PSoC6\pdl\middleware\ble/cy_ble_gap.h **** 
 146:Generated_Source\PSoC6\pdl\middleware\ble/cy_ble_gap.h **** /** Structure with Generic Access Profile Service (GAPS) attribute handles */
 147:Generated_Source\PSoC6\pdl\middleware\ble/cy_ble_gap.h **** typedef struct
 148:Generated_Source\PSoC6\pdl\middleware\ble/cy_ble_gap.h **** {
 149:Generated_Source\PSoC6\pdl\middleware\ble/cy_ble_gap.h ****     /** Service handle*/
 150:Generated_Source\PSoC6\pdl\middleware\ble/cy_ble_gap.h ****     cy_ble_gatt_db_attr_handle_t serviceHandle;
 151:Generated_Source\PSoC6\pdl\middleware\ble/cy_ble_gap.h **** 
 152:Generated_Source\PSoC6\pdl\middleware\ble/cy_ble_gap.h ****     /** Handle of the GAPS Device Name Characteristic */
 153:Generated_Source\PSoC6\pdl\middleware\ble/cy_ble_gap.h ****     cy_ble_gatt_db_attr_handle_t deviceNameCharHandle;
 154:Generated_Source\PSoC6\pdl\middleware\ble/cy_ble_gap.h **** 
 155:Generated_Source\PSoC6\pdl\middleware\ble/cy_ble_gap.h ****     /** Handle of the GAPS Appearance Characteristic */
 156:Generated_Source\PSoC6\pdl\middleware\ble/cy_ble_gap.h ****     cy_ble_gatt_db_attr_handle_t appearanceCharHandle;
 157:Generated_Source\PSoC6\pdl\middleware\ble/cy_ble_gap.h **** 
 158:Generated_Source\PSoC6\pdl\middleware\ble/cy_ble_gap.h ****     /** Handle of the GAPS Peripheral Preferred Connection Parameters Characteristic */
 159:Generated_Source\PSoC6\pdl\middleware\ble/cy_ble_gap.h ****     cy_ble_gatt_db_attr_handle_t prefConnParamCharHandle;
 160:Generated_Source\PSoC6\pdl\middleware\ble/cy_ble_gap.h **** 
 161:Generated_Source\PSoC6\pdl\middleware\ble/cy_ble_gap.h ****     /** Handle of the GAPS Central Address Resolution characteristic */
 162:Generated_Source\PSoC6\pdl\middleware\ble/cy_ble_gap.h ****     cy_ble_gatt_db_attr_handle_t centralAddrResolutionCharHandle;
 163:Generated_Source\PSoC6\pdl\middleware\ble/cy_ble_gap.h **** 
 164:Generated_Source\PSoC6\pdl\middleware\ble/cy_ble_gap.h ****     /** Handle of the GAPS Resolvable Private Address Only characteristic */
 165:Generated_Source\PSoC6\pdl\middleware\ble/cy_ble_gap.h ****     cy_ble_gatt_db_attr_handle_t resolvablePrivateAddressOnly;
 166:Generated_Source\PSoC6\pdl\middleware\ble/cy_ble_gap.h **** } cy_stc_ble_gaps_t;
 167:Generated_Source\PSoC6\pdl\middleware\ble/cy_ble_gap.h **** 
 168:Generated_Source\PSoC6\pdl\middleware\ble/cy_ble_gap.h **** /** GAP Service characteristics server's GATT DB handles structure type */
 169:Generated_Source\PSoC6\pdl\middleware\ble/cy_ble_gap.h **** typedef struct
 170:Generated_Source\PSoC6\pdl\middleware\ble/cy_ble_gap.h **** {
 171:Generated_Source\PSoC6\pdl\middleware\ble/cy_ble_gap.h ****     /** Handle of the GAPS Device Name Characteristic */
 172:Generated_Source\PSoC6\pdl\middleware\ble/cy_ble_gap.h ****     cy_ble_gatt_db_attr_handle_t deviceNameCharHandle;
 173:Generated_Source\PSoC6\pdl\middleware\ble/cy_ble_gap.h **** 
 174:Generated_Source\PSoC6\pdl\middleware\ble/cy_ble_gap.h ****     /** Handle of the GAPS Appearance Characteristic */
 175:Generated_Source\PSoC6\pdl\middleware\ble/cy_ble_gap.h ****     cy_ble_gatt_db_attr_handle_t appearanceCharHandle;
 176:Generated_Source\PSoC6\pdl\middleware\ble/cy_ble_gap.h **** 
ARM GAS  C:\Users\Smaug\AppData\Local\Temp\ccVZzAJS.s 			page 23


 177:Generated_Source\PSoC6\pdl\middleware\ble/cy_ble_gap.h ****     /** Handle of the GAPS Peripheral Privacy Flag Parameters Characteristic */
 178:Generated_Source\PSoC6\pdl\middleware\ble/cy_ble_gap.h ****     cy_ble_gatt_db_attr_handle_t periphPrivacyCharHandle;
 179:Generated_Source\PSoC6\pdl\middleware\ble/cy_ble_gap.h **** 
 180:Generated_Source\PSoC6\pdl\middleware\ble/cy_ble_gap.h ****     /** Handle of the GAPS Reconnection Address Characteristic */
 181:Generated_Source\PSoC6\pdl\middleware\ble/cy_ble_gap.h ****     cy_ble_gatt_db_attr_handle_t reconnAddrCharHandle;
 182:Generated_Source\PSoC6\pdl\middleware\ble/cy_ble_gap.h **** 
 183:Generated_Source\PSoC6\pdl\middleware\ble/cy_ble_gap.h ****     /** Handle of the GAPS Peripheral Preferred Connection Parameters Characteristic */
 184:Generated_Source\PSoC6\pdl\middleware\ble/cy_ble_gap.h ****     cy_ble_gatt_db_attr_handle_t prefConnParamCharHandle;
 185:Generated_Source\PSoC6\pdl\middleware\ble/cy_ble_gap.h **** 
 186:Generated_Source\PSoC6\pdl\middleware\ble/cy_ble_gap.h ****     /** Handle of the GAPS Central Address Resolution characteristic */
 187:Generated_Source\PSoC6\pdl\middleware\ble/cy_ble_gap.h ****     cy_ble_gatt_db_attr_handle_t centralAddrResolutionCharHandle;
 188:Generated_Source\PSoC6\pdl\middleware\ble/cy_ble_gap.h **** 
 189:Generated_Source\PSoC6\pdl\middleware\ble/cy_ble_gap.h ****     /** Handle of the GAPS Resolvable Private Address Only characteristic */
 190:Generated_Source\PSoC6\pdl\middleware\ble/cy_ble_gap.h ****     cy_ble_gatt_db_attr_handle_t resolvablePrivateAddressOnly;
 191:Generated_Source\PSoC6\pdl\middleware\ble/cy_ble_gap.h **** }cy_stc_ble_gapc_t;
 192:Generated_Source\PSoC6\pdl\middleware\ble/cy_ble_gap.h **** 
 193:Generated_Source\PSoC6\pdl\middleware\ble/cy_ble_gap.h **** /* Stack mode defines */
 194:Generated_Source\PSoC6\pdl\middleware\ble/cy_ble_gap.h **** 
 195:Generated_Source\PSoC6\pdl\middleware\ble/cy_ble_gap.h **** /** Advertisement SIG assigned numbers */
 196:Generated_Source\PSoC6\pdl\middleware\ble/cy_ble_gap.h **** typedef enum
 197:Generated_Source\PSoC6\pdl\middleware\ble/cy_ble_gap.h **** {
 198:Generated_Source\PSoC6\pdl\middleware\ble/cy_ble_gap.h ****     /** Flags */
 199:Generated_Source\PSoC6\pdl\middleware\ble/cy_ble_gap.h ****     CY_BLE_GAP_ADV_FLAGS = 0x01u,
 200:Generated_Source\PSoC6\pdl\middleware\ble/cy_ble_gap.h **** 
 201:Generated_Source\PSoC6\pdl\middleware\ble/cy_ble_gap.h ****     /** Incomplete List of 16-bit Service Class UUIDs */
 202:Generated_Source\PSoC6\pdl\middleware\ble/cy_ble_gap.h ****     CY_BLE_GAP_ADV_INCOMPL_16UUID,
 203:Generated_Source\PSoC6\pdl\middleware\ble/cy_ble_gap.h **** 
 204:Generated_Source\PSoC6\pdl\middleware\ble/cy_ble_gap.h ****     /** Complete List of 16-bit Service Class UUIDs */
 205:Generated_Source\PSoC6\pdl\middleware\ble/cy_ble_gap.h ****     CY_BLE_GAP_ADV_COMPL_16UUID,
 206:Generated_Source\PSoC6\pdl\middleware\ble/cy_ble_gap.h **** 
 207:Generated_Source\PSoC6\pdl\middleware\ble/cy_ble_gap.h ****     /** Incomplete List of 32-bit Service Class UUIDs */
 208:Generated_Source\PSoC6\pdl\middleware\ble/cy_ble_gap.h ****     CY_BLE_GAP_ADV_INCOMPL_32_UUID,
 209:Generated_Source\PSoC6\pdl\middleware\ble/cy_ble_gap.h **** 
 210:Generated_Source\PSoC6\pdl\middleware\ble/cy_ble_gap.h ****     /** Complete List of 32-bit Service Class UUIDs */
 211:Generated_Source\PSoC6\pdl\middleware\ble/cy_ble_gap.h ****     CY_BLE_GAP_ADV_COMPL_32_UUID,
 212:Generated_Source\PSoC6\pdl\middleware\ble/cy_ble_gap.h **** 
 213:Generated_Source\PSoC6\pdl\middleware\ble/cy_ble_gap.h ****     /** Incomplete List of 128-bit Service Class UUIDs */
 214:Generated_Source\PSoC6\pdl\middleware\ble/cy_ble_gap.h ****     CY_BLE_GAP_ADV_INCOMPL_128_UUID,
 215:Generated_Source\PSoC6\pdl\middleware\ble/cy_ble_gap.h **** 
 216:Generated_Source\PSoC6\pdl\middleware\ble/cy_ble_gap.h ****     /** Complete List of 128-bit Service Class UUIDs */
 217:Generated_Source\PSoC6\pdl\middleware\ble/cy_ble_gap.h ****     CY_BLE_GAP_ADV_COMPL_128_UUID,
 218:Generated_Source\PSoC6\pdl\middleware\ble/cy_ble_gap.h **** 
 219:Generated_Source\PSoC6\pdl\middleware\ble/cy_ble_gap.h ****     /** Shortened Local Name */
 220:Generated_Source\PSoC6\pdl\middleware\ble/cy_ble_gap.h ****     CY_BLE_GAP_ADV_SHORT_NAME,
 221:Generated_Source\PSoC6\pdl\middleware\ble/cy_ble_gap.h **** 
 222:Generated_Source\PSoC6\pdl\middleware\ble/cy_ble_gap.h ****     /** Complete Local Name */
 223:Generated_Source\PSoC6\pdl\middleware\ble/cy_ble_gap.h ****     CY_BLE_GAP_ADV_COMPL_NAME,
 224:Generated_Source\PSoC6\pdl\middleware\ble/cy_ble_gap.h **** 
 225:Generated_Source\PSoC6\pdl\middleware\ble/cy_ble_gap.h ****     /** Tx Power Level */
 226:Generated_Source\PSoC6\pdl\middleware\ble/cy_ble_gap.h ****     CY_BLE_GAP_ADV_TX_PWR_LVL,
 227:Generated_Source\PSoC6\pdl\middleware\ble/cy_ble_gap.h **** 
 228:Generated_Source\PSoC6\pdl\middleware\ble/cy_ble_gap.h ****     /** Class of Device */
 229:Generated_Source\PSoC6\pdl\middleware\ble/cy_ble_gap.h ****     CY_BLE_GAP_ADV_CLASS_OF_DEVICE = 0x0Du,
 230:Generated_Source\PSoC6\pdl\middleware\ble/cy_ble_gap.h **** 
 231:Generated_Source\PSoC6\pdl\middleware\ble/cy_ble_gap.h ****     /** Simple Pairing Hash C */
 232:Generated_Source\PSoC6\pdl\middleware\ble/cy_ble_gap.h ****     CY_BLE_GAP_ADV_SMPL_PAIR_HASH_C,
 233:Generated_Source\PSoC6\pdl\middleware\ble/cy_ble_gap.h **** 
ARM GAS  C:\Users\Smaug\AppData\Local\Temp\ccVZzAJS.s 			page 24


 234:Generated_Source\PSoC6\pdl\middleware\ble/cy_ble_gap.h ****     /** Simple Pairing Randomizer R */
 235:Generated_Source\PSoC6\pdl\middleware\ble/cy_ble_gap.h ****     CY_BLE_GAP_ADV_SMPL_PAIR_RANDOM_R,
 236:Generated_Source\PSoC6\pdl\middleware\ble/cy_ble_gap.h **** 
 237:Generated_Source\PSoC6\pdl\middleware\ble/cy_ble_gap.h ****     /** Device ID*/
 238:Generated_Source\PSoC6\pdl\middleware\ble/cy_ble_gap.h ****     CY_BLE_GAP_ADV_DEVICE_ID,
 239:Generated_Source\PSoC6\pdl\middleware\ble/cy_ble_gap.h **** 
 240:Generated_Source\PSoC6\pdl\middleware\ble/cy_ble_gap.h ****     /** Security Manager TK Value */
 241:Generated_Source\PSoC6\pdl\middleware\ble/cy_ble_gap.h ****     CY_BLE_GAP_ADV_SCRT_MNGR_TK_VAL = 0x10u,
 242:Generated_Source\PSoC6\pdl\middleware\ble/cy_ble_gap.h **** 
 243:Generated_Source\PSoC6\pdl\middleware\ble/cy_ble_gap.h ****     /** Security Manager Out of Band Flags */
 244:Generated_Source\PSoC6\pdl\middleware\ble/cy_ble_gap.h ****     CY_BLE_GAP_ADV_SCRT_MNGR_OOB_FLAGS,
 245:Generated_Source\PSoC6\pdl\middleware\ble/cy_ble_gap.h **** 
 246:Generated_Source\PSoC6\pdl\middleware\ble/cy_ble_gap.h ****     /** Slave Connection Interval Range */
 247:Generated_Source\PSoC6\pdl\middleware\ble/cy_ble_gap.h ****     CY_BLE_GAP_ADV_SLAVE_CONN_INTRV_RANGE,
 248:Generated_Source\PSoC6\pdl\middleware\ble/cy_ble_gap.h **** 
 249:Generated_Source\PSoC6\pdl\middleware\ble/cy_ble_gap.h ****     /** List of 16-bit Service Solicitation UUIDs */
 250:Generated_Source\PSoC6\pdl\middleware\ble/cy_ble_gap.h ****     CY_BLE_GAP_ADV_SOLICIT_16UUID = 0x14u,
 251:Generated_Source\PSoC6\pdl\middleware\ble/cy_ble_gap.h **** 
 252:Generated_Source\PSoC6\pdl\middleware\ble/cy_ble_gap.h ****     /** List of 128-bit Service Solicitation UUIDs */
 253:Generated_Source\PSoC6\pdl\middleware\ble/cy_ble_gap.h ****     CY_BLE_GAP_ADV_SOLICIT_128UUID,
 254:Generated_Source\PSoC6\pdl\middleware\ble/cy_ble_gap.h **** 
 255:Generated_Source\PSoC6\pdl\middleware\ble/cy_ble_gap.h ****     /** Service Data - 16-bit UUID */
 256:Generated_Source\PSoC6\pdl\middleware\ble/cy_ble_gap.h ****     CY_BLE_GAP_ADV_SRVC_DATA_16UUID,
 257:Generated_Source\PSoC6\pdl\middleware\ble/cy_ble_gap.h **** 
 258:Generated_Source\PSoC6\pdl\middleware\ble/cy_ble_gap.h ****     /** Public Target Address */
 259:Generated_Source\PSoC6\pdl\middleware\ble/cy_ble_gap.h ****     CY_BLE_GAP_ADV_PUBLIC_TARGET_ADDR,
 260:Generated_Source\PSoC6\pdl\middleware\ble/cy_ble_gap.h **** 
 261:Generated_Source\PSoC6\pdl\middleware\ble/cy_ble_gap.h ****     /** Random Target Address */
 262:Generated_Source\PSoC6\pdl\middleware\ble/cy_ble_gap.h ****     CY_BLE_GAP_ADV_RANDOM_TARGET_ADDR,
 263:Generated_Source\PSoC6\pdl\middleware\ble/cy_ble_gap.h **** 
 264:Generated_Source\PSoC6\pdl\middleware\ble/cy_ble_gap.h ****     /** Appearance */
 265:Generated_Source\PSoC6\pdl\middleware\ble/cy_ble_gap.h ****     CY_BLE_GAP_ADV_APPEARANCE,
 266:Generated_Source\PSoC6\pdl\middleware\ble/cy_ble_gap.h **** 
 267:Generated_Source\PSoC6\pdl\middleware\ble/cy_ble_gap.h ****     /** Advertising Interval */
 268:Generated_Source\PSoC6\pdl\middleware\ble/cy_ble_gap.h ****     CY_BLE_GAP_ADV_ADVERT_INTERVAL,
 269:Generated_Source\PSoC6\pdl\middleware\ble/cy_ble_gap.h **** 
 270:Generated_Source\PSoC6\pdl\middleware\ble/cy_ble_gap.h ****     /** LE Bluetooth Device Address */
 271:Generated_Source\PSoC6\pdl\middleware\ble/cy_ble_gap.h ****     CY_BLE_GAP_ADV_LE_BT_DEVICE_ADDR,
 272:Generated_Source\PSoC6\pdl\middleware\ble/cy_ble_gap.h **** 
 273:Generated_Source\PSoC6\pdl\middleware\ble/cy_ble_gap.h ****     /** LE Role */
 274:Generated_Source\PSoC6\pdl\middleware\ble/cy_ble_gap.h ****     CY_BLE_GAP_ADV_LE_ROLE,
 275:Generated_Source\PSoC6\pdl\middleware\ble/cy_ble_gap.h **** 
 276:Generated_Source\PSoC6\pdl\middleware\ble/cy_ble_gap.h ****     /** Simple Pairing Hash C-256 */
 277:Generated_Source\PSoC6\pdl\middleware\ble/cy_ble_gap.h ****     CY_BLE_GAP_ADV_SMPL_PAIR_HASH_C256,
 278:Generated_Source\PSoC6\pdl\middleware\ble/cy_ble_gap.h **** 
 279:Generated_Source\PSoC6\pdl\middleware\ble/cy_ble_gap.h ****     /** Simple Pairing Randomizer R-256 */
 280:Generated_Source\PSoC6\pdl\middleware\ble/cy_ble_gap.h ****     CY_BLE_GAP_ADV_SMPL_PAIR_RANDOM_R256,
 281:Generated_Source\PSoC6\pdl\middleware\ble/cy_ble_gap.h **** 
 282:Generated_Source\PSoC6\pdl\middleware\ble/cy_ble_gap.h ****     /** List of 32-bit Service Solicitation UUIDs */
 283:Generated_Source\PSoC6\pdl\middleware\ble/cy_ble_gap.h ****     CY_BLE_GAP_ADV_SOLICIT_32UUID,
 284:Generated_Source\PSoC6\pdl\middleware\ble/cy_ble_gap.h **** 
 285:Generated_Source\PSoC6\pdl\middleware\ble/cy_ble_gap.h ****     /** Service Data - 32-bit UUID */
 286:Generated_Source\PSoC6\pdl\middleware\ble/cy_ble_gap.h ****     CY_BLE_GAP_ADV_SRVC_DATA_32UUID,
 287:Generated_Source\PSoC6\pdl\middleware\ble/cy_ble_gap.h **** 
 288:Generated_Source\PSoC6\pdl\middleware\ble/cy_ble_gap.h ****     /** Service Data - 128-bit UUID */
 289:Generated_Source\PSoC6\pdl\middleware\ble/cy_ble_gap.h ****     CY_BLE_GAP_ADV_SRVC_DATA_128UUID,
 290:Generated_Source\PSoC6\pdl\middleware\ble/cy_ble_gap.h **** 
ARM GAS  C:\Users\Smaug\AppData\Local\Temp\ccVZzAJS.s 			page 25


 291:Generated_Source\PSoC6\pdl\middleware\ble/cy_ble_gap.h ****     /** 3D Information Data */
 292:Generated_Source\PSoC6\pdl\middleware\ble/cy_ble_gap.h ****     CY_BLE_GAP_ADV_3D_INFO_DATA = 0x3D,
 293:Generated_Source\PSoC6\pdl\middleware\ble/cy_ble_gap.h **** 
 294:Generated_Source\PSoC6\pdl\middleware\ble/cy_ble_gap.h ****     /** Manufacturer Specific Data */
 295:Generated_Source\PSoC6\pdl\middleware\ble/cy_ble_gap.h ****     CY_BLE_GAP_ADV_MANUFACTURER_SPECIFIC_DATA = 0xFF
 296:Generated_Source\PSoC6\pdl\middleware\ble/cy_ble_gap.h **** }cy_en_ble_gap_adv_assign_numbers_t;
 297:Generated_Source\PSoC6\pdl\middleware\ble/cy_ble_gap.h **** 
 298:Generated_Source\PSoC6\pdl\middleware\ble/cy_ble_gap.h **** /** GAPP advertising configuration parameters structure */
 299:Generated_Source\PSoC6\pdl\middleware\ble/cy_ble_gap.h **** typedef struct
 300:Generated_Source\PSoC6\pdl\middleware\ble/cy_ble_gap.h **** {
 301:Generated_Source\PSoC6\pdl\middleware\ble/cy_ble_gap.h ****     /** The minimum interval for fast advertising the data and establishing the LE Connection */
 302:Generated_Source\PSoC6\pdl\middleware\ble/cy_ble_gap.h ****     uint16_t fastAdvIntervalMin;
 303:Generated_Source\PSoC6\pdl\middleware\ble/cy_ble_gap.h **** 
 304:Generated_Source\PSoC6\pdl\middleware\ble/cy_ble_gap.h ****     /** The maximum interval for fast advertising the data and establishing the LE Connection */
 305:Generated_Source\PSoC6\pdl\middleware\ble/cy_ble_gap.h ****     uint16_t fastAdvIntervalMax;
 306:Generated_Source\PSoC6\pdl\middleware\ble/cy_ble_gap.h **** 
 307:Generated_Source\PSoC6\pdl\middleware\ble/cy_ble_gap.h ****     /** The timeout value of  fast advertising with fast advertising interval parameters */
 308:Generated_Source\PSoC6\pdl\middleware\ble/cy_ble_gap.h ****     uint16_t fastAdvTimeOut;
 309:Generated_Source\PSoC6\pdl\middleware\ble/cy_ble_gap.h **** 
 310:Generated_Source\PSoC6\pdl\middleware\ble/cy_ble_gap.h ****     /** Slow advertising enable */
 311:Generated_Source\PSoC6\pdl\middleware\ble/cy_ble_gap.h ****     uint8_t  slowAdvEnable;
 312:Generated_Source\PSoC6\pdl\middleware\ble/cy_ble_gap.h **** 
 313:Generated_Source\PSoC6\pdl\middleware\ble/cy_ble_gap.h ****     /** The minimum interval for slow advertising the data and establishing the LE Connection */
 314:Generated_Source\PSoC6\pdl\middleware\ble/cy_ble_gap.h ****     uint16_t slowAdvIntervalMin;
 315:Generated_Source\PSoC6\pdl\middleware\ble/cy_ble_gap.h **** 
 316:Generated_Source\PSoC6\pdl\middleware\ble/cy_ble_gap.h ****     /** The maximum interval for slow  advertising the data and establishing the LE Connection */
 317:Generated_Source\PSoC6\pdl\middleware\ble/cy_ble_gap.h ****     uint16_t slowAdvIntervalMax;
 318:Generated_Source\PSoC6\pdl\middleware\ble/cy_ble_gap.h **** 
 319:Generated_Source\PSoC6\pdl\middleware\ble/cy_ble_gap.h ****     /** The timeout value of slow advertising with slow advertising interval parameters */
 320:Generated_Source\PSoC6\pdl\middleware\ble/cy_ble_gap.h ****     uint16_t slowAdvTimeOut;
 321:Generated_Source\PSoC6\pdl\middleware\ble/cy_ble_gap.h **** }cy_stc_ble_gapp_adv_params_t;
 322:Generated_Source\PSoC6\pdl\middleware\ble/cy_ble_gap.h **** 
 323:Generated_Source\PSoC6\pdl\middleware\ble/cy_ble_gap.h **** /** GAPC advertising configuration parameters structure */
 324:Generated_Source\PSoC6\pdl\middleware\ble/cy_ble_gap.h **** typedef struct
 325:Generated_Source\PSoC6\pdl\middleware\ble/cy_ble_gap.h **** {
 326:Generated_Source\PSoC6\pdl\middleware\ble/cy_ble_gap.h ****     /** The scan interval when operating in Fast connection */
 327:Generated_Source\PSoC6\pdl\middleware\ble/cy_ble_gap.h ****     uint16_t fastScanInterval;
 328:Generated_Source\PSoC6\pdl\middleware\ble/cy_ble_gap.h **** 
 329:Generated_Source\PSoC6\pdl\middleware\ble/cy_ble_gap.h ****     /** Defines the scan window when operating in Fast connection */
 330:Generated_Source\PSoC6\pdl\middleware\ble/cy_ble_gap.h ****     uint16_t fastScanWindow;
 331:Generated_Source\PSoC6\pdl\middleware\ble/cy_ble_gap.h **** 
 332:Generated_Source\PSoC6\pdl\middleware\ble/cy_ble_gap.h ****     /** The timeout value of scanning with fast scan parameters */
 333:Generated_Source\PSoC6\pdl\middleware\ble/cy_ble_gap.h ****     uint16_t fastScanTimeOut;
 334:Generated_Source\PSoC6\pdl\middleware\ble/cy_ble_gap.h **** 
 335:Generated_Source\PSoC6\pdl\middleware\ble/cy_ble_gap.h ****     /** Slow scan enable/disable */
 336:Generated_Source\PSoC6\pdl\middleware\ble/cy_ble_gap.h ****     uint8_t  slowScanEnabled;
 337:Generated_Source\PSoC6\pdl\middleware\ble/cy_ble_gap.h **** 
 338:Generated_Source\PSoC6\pdl\middleware\ble/cy_ble_gap.h ****     /** The scan interval when operating in Slow connection */
 339:Generated_Source\PSoC6\pdl\middleware\ble/cy_ble_gap.h ****     uint16_t slowScanInterval;
 340:Generated_Source\PSoC6\pdl\middleware\ble/cy_ble_gap.h **** 
 341:Generated_Source\PSoC6\pdl\middleware\ble/cy_ble_gap.h ****     /** Defines the scan window when operating in Slow connection */
 342:Generated_Source\PSoC6\pdl\middleware\ble/cy_ble_gap.h ****     uint16_t slowScanWindow;
 343:Generated_Source\PSoC6\pdl\middleware\ble/cy_ble_gap.h **** 
 344:Generated_Source\PSoC6\pdl\middleware\ble/cy_ble_gap.h ****     /** The timeout value of scanning with Slow scan parameters */
 345:Generated_Source\PSoC6\pdl\middleware\ble/cy_ble_gap.h ****     uint16_t slowScanTimeOut;
 346:Generated_Source\PSoC6\pdl\middleware\ble/cy_ble_gap.h **** 
 347:Generated_Source\PSoC6\pdl\middleware\ble/cy_ble_gap.h ****     /** The minimum permissible connection time value to be used during a connection event */
ARM GAS  C:\Users\Smaug\AppData\Local\Temp\ccVZzAJS.s 			page 26


 348:Generated_Source\PSoC6\pdl\middleware\ble/cy_ble_gap.h ****     uint16_t gapcConnectionIntervalMin;
 349:Generated_Source\PSoC6\pdl\middleware\ble/cy_ble_gap.h **** 
 350:Generated_Source\PSoC6\pdl\middleware\ble/cy_ble_gap.h ****     /** The maximum permissible connection time value to be used during a connection event */
 351:Generated_Source\PSoC6\pdl\middleware\ble/cy_ble_gap.h ****     uint16_t gapcConnectionIntervalMax;
 352:Generated_Source\PSoC6\pdl\middleware\ble/cy_ble_gap.h **** 
 353:Generated_Source\PSoC6\pdl\middleware\ble/cy_ble_gap.h ****     /** Defines the maximum time between two received Data Packet PDUs before
 354:Generated_Source\PSoC6\pdl\middleware\ble/cy_ble_gap.h ****      *  the connection is considered lost */
 355:Generated_Source\PSoC6\pdl\middleware\ble/cy_ble_gap.h ****     uint16_t gapcConnectionSlaveLatency;
 356:Generated_Source\PSoC6\pdl\middleware\ble/cy_ble_gap.h **** 
 357:Generated_Source\PSoC6\pdl\middleware\ble/cy_ble_gap.h ****     /** Defines the LE link supervision timeout interval */
 358:Generated_Source\PSoC6\pdl\middleware\ble/cy_ble_gap.h ****     uint16_t gapcConnectionTimeOut;
 359:Generated_Source\PSoC6\pdl\middleware\ble/cy_ble_gap.h **** }cy_stc_ble_gapc_scan_params_t;
 360:Generated_Source\PSoC6\pdl\middleware\ble/cy_ble_gap.h **** 
 361:Generated_Source\PSoC6\pdl\middleware\ble/cy_ble_gap.h **** /** Store BLE Application Data parameter into flash */
 362:Generated_Source\PSoC6\pdl\middleware\ble/cy_ble_gap.h **** typedef struct
 363:Generated_Source\PSoC6\pdl\middleware\ble/cy_ble_gap.h **** {
 364:Generated_Source\PSoC6\pdl\middleware\ble/cy_ble_gap.h ****     /** Source buffer */
 365:Generated_Source\PSoC6\pdl\middleware\ble/cy_ble_gap.h ****     const uint8_t *srcBuff;
 366:Generated_Source\PSoC6\pdl\middleware\ble/cy_ble_gap.h **** 
 367:Generated_Source\PSoC6\pdl\middleware\ble/cy_ble_gap.h ****     /** Destination buffer */
 368:Generated_Source\PSoC6\pdl\middleware\ble/cy_ble_gap.h ****     const uint8_t *destAddr;
 369:Generated_Source\PSoC6\pdl\middleware\ble/cy_ble_gap.h **** 
 370:Generated_Source\PSoC6\pdl\middleware\ble/cy_ble_gap.h ****     /** Source buffer length */
 371:Generated_Source\PSoC6\pdl\middleware\ble/cy_ble_gap.h ****     uint32_t      buffLen;
 372:Generated_Source\PSoC6\pdl\middleware\ble/cy_ble_gap.h **** 
 373:Generated_Source\PSoC6\pdl\middleware\ble/cy_ble_gap.h ****     /** Write mode: blocking (default) / non-blocking */
 374:Generated_Source\PSoC6\pdl\middleware\ble/cy_ble_gap.h ****     uint32_t      writeMode;
 375:Generated_Source\PSoC6\pdl\middleware\ble/cy_ble_gap.h **** 
 376:Generated_Source\PSoC6\pdl\middleware\ble/cy_ble_gap.h **** } cy_stc_ble_app_flash_param_t;
 377:Generated_Source\PSoC6\pdl\middleware\ble/cy_ble_gap.h **** 
 378:Generated_Source\PSoC6\pdl\middleware\ble/cy_ble_gap.h **** /** @} group_ble_common_api_gap_definitions */
 379:Generated_Source\PSoC6\pdl\middleware\ble/cy_ble_gap.h **** 
 380:Generated_Source\PSoC6\pdl\middleware\ble/cy_ble_gap.h **** /***************************************
 381:Generated_Source\PSoC6\pdl\middleware\ble/cy_ble_gap.h **** * API Constants
 382:Generated_Source\PSoC6\pdl\middleware\ble/cy_ble_gap.h **** ***************************************/
 383:Generated_Source\PSoC6\pdl\middleware\ble/cy_ble_gap.h **** #define CY_BLE_AD_TYPE_MORE16UUID                  (0x02u)
 384:Generated_Source\PSoC6\pdl\middleware\ble/cy_ble_gap.h **** #define CY_BLE_AD_TYPE_CMPL16UUID                  (0x03u)
 385:Generated_Source\PSoC6\pdl\middleware\ble/cy_ble_gap.h **** #define CY_BLE_AD_TYPE_MORE32UUID                  (0x04u)
 386:Generated_Source\PSoC6\pdl\middleware\ble/cy_ble_gap.h **** #define CY_BLE_AD_TYPE_CMPL32UUID                  (0x05u)
 387:Generated_Source\PSoC6\pdl\middleware\ble/cy_ble_gap.h **** #define CY_BLE_AD_TYPE_MORE128UUID                 (0x06u)
 388:Generated_Source\PSoC6\pdl\middleware\ble/cy_ble_gap.h **** #define CY_BLE_AD_TYPE_CMPL128UUID                 (0x07u)
 389:Generated_Source\PSoC6\pdl\middleware\ble/cy_ble_gap.h **** 
 390:Generated_Source\PSoC6\pdl\middleware\ble/cy_ble_gap.h **** #define CY_BLE_AD_TYPE_SERVICE_DATA                (0x16u)
 391:Generated_Source\PSoC6\pdl\middleware\ble/cy_ble_gap.h **** #define CY_BLE_AD_SERVICE_DATA_OVERHEAD            (0x03u)
 392:Generated_Source\PSoC6\pdl\middleware\ble/cy_ble_gap.h **** 
 393:Generated_Source\PSoC6\pdl\middleware\ble/cy_ble_gap.h **** #define CY_BLE_DISCOVERY_IDLE                      (0x00u)
 394:Generated_Source\PSoC6\pdl\middleware\ble/cy_ble_gap.h **** #define CY_BLE_DISCOVERY_SERVICE                   (0x01u)
 395:Generated_Source\PSoC6\pdl\middleware\ble/cy_ble_gap.h **** #define CY_BLE_DISCOVERY_CHAR                      (0x02u)
 396:Generated_Source\PSoC6\pdl\middleware\ble/cy_ble_gap.h **** #define CY_BLE_DISCOVERY_DESCR                     (0x03u)
 397:Generated_Source\PSoC6\pdl\middleware\ble/cy_ble_gap.h **** #define CY_BLE_DISCOVERY_DONE                      (0x04u)
 398:Generated_Source\PSoC6\pdl\middleware\ble/cy_ble_gap.h **** 
 399:Generated_Source\PSoC6\pdl\middleware\ble/cy_ble_gap.h **** /* Cy_BLE_NextCharDscrDiscovery parameters */
 400:Generated_Source\PSoC6\pdl\middleware\ble/cy_ble_gap.h **** #define CY_BLE_DISCOVERY_INIT                      (0x00u)
 401:Generated_Source\PSoC6\pdl\middleware\ble/cy_ble_gap.h **** #define CY_BLE_DISCOVERY_CONTINUE                  (0x01u)
 402:Generated_Source\PSoC6\pdl\middleware\ble/cy_ble_gap.h **** 
 403:Generated_Source\PSoC6\pdl\middleware\ble/cy_ble_gap.h **** #define CY_BLE_SFLASH_DIE_X_MASK                   (0x3Fu)
 404:Generated_Source\PSoC6\pdl\middleware\ble/cy_ble_gap.h **** #define CY_BLE_SFLASH_DIE_X_BITS                   (6u)
ARM GAS  C:\Users\Smaug\AppData\Local\Temp\ccVZzAJS.s 			page 27


 405:Generated_Source\PSoC6\pdl\middleware\ble/cy_ble_gap.h **** #define CY_BLE_SFLASH_DIE_Y_MASK                   (0x3Fu)
 406:Generated_Source\PSoC6\pdl\middleware\ble/cy_ble_gap.h **** #define CY_BLE_SFLASH_DIE_Y_BITS                   (6u)
 407:Generated_Source\PSoC6\pdl\middleware\ble/cy_ble_gap.h **** #define CY_BLE_SFLASH_DIE_XY_BITS                  (CY_BLE_SFLASH_DIE_X_BITS + CY_BLE_SFLASH_DIE_Y_
 408:Generated_Source\PSoC6\pdl\middleware\ble/cy_ble_gap.h **** #define CY_BLE_SFLASH_DIE_WAFER_MASK               (0x1Fu)
 409:Generated_Source\PSoC6\pdl\middleware\ble/cy_ble_gap.h **** #define CY_BLE_SFLASH_DIE_WAFER_BITS               (5u)
 410:Generated_Source\PSoC6\pdl\middleware\ble/cy_ble_gap.h **** #define CY_BLE_SFLASH_DIE_XYWAFER_BITS             (CY_BLE_SFLASH_DIE_XY_BITS + CY_BLE_SFLASH_DIE_W
 411:Generated_Source\PSoC6\pdl\middleware\ble/cy_ble_gap.h **** #define CY_BLE_SFLASH_DIE_LOT_MASK                 (0x7Fu)
 412:Generated_Source\PSoC6\pdl\middleware\ble/cy_ble_gap.h **** #define CY_BLE_SFLASH_DIE_LOT_BITS                 (7u)
 413:Generated_Source\PSoC6\pdl\middleware\ble/cy_ble_gap.h **** 
 414:Generated_Source\PSoC6\pdl\middleware\ble/cy_ble_gap.h **** /* Device address stored by user in ROW4 of the SFLASH */
 415:Generated_Source\PSoC6\pdl\middleware\ble/cy_ble_gap.h **** #define CY_BLE_SFLASH_DEVICE_ADDRESS_PTR           ((cy_stc_ble_gap_bd_addr_t*)(SFLASH->BLE_DEVICE_
 416:Generated_Source\PSoC6\pdl\middleware\ble/cy_ble_gap.h **** #define CY_BLE_AD_STRUCTURE_MAX_LENGTH             (31u)
 417:Generated_Source\PSoC6\pdl\middleware\ble/cy_ble_gap.h **** 
 418:Generated_Source\PSoC6\pdl\middleware\ble/cy_ble_gap.h **** /* AD types for complete, shortened local name and device address */
 419:Generated_Source\PSoC6\pdl\middleware\ble/cy_ble_gap.h **** #define CY_BLE_SHORT_LOCAL_NAME                    (0x08u)  /**< Shortened Local Name */
 420:Generated_Source\PSoC6\pdl\middleware\ble/cy_ble_gap.h **** #define CY_BLE_COMPLETE_LOCAL_NAME                 (0x09u)  /**< Complete Local Name */
 421:Generated_Source\PSoC6\pdl\middleware\ble/cy_ble_gap.h **** #define CY_BLE_ADV_DEVICE_ADDR                     (0x1Bu)  /**< LE Bluetooth Device Address */
 422:Generated_Source\PSoC6\pdl\middleware\ble/cy_ble_gap.h **** 
 423:Generated_Source\PSoC6\pdl\middleware\ble/cy_ble_gap.h **** #define CY_BLE_ADVERTISING_FAST                    (0x00u)
 424:Generated_Source\PSoC6\pdl\middleware\ble/cy_ble_gap.h **** #define CY_BLE_ADVERTISING_SLOW                    (0x01u)
 425:Generated_Source\PSoC6\pdl\middleware\ble/cy_ble_gap.h **** #define CY_BLE_ADVERTISING_CUSTOM                  (0x02u)
 426:Generated_Source\PSoC6\pdl\middleware\ble/cy_ble_gap.h **** 
 427:Generated_Source\PSoC6\pdl\middleware\ble/cy_ble_gap.h **** #define CY_BLE_SCANNING_FAST                       (0x00u)
 428:Generated_Source\PSoC6\pdl\middleware\ble/cy_ble_gap.h **** #define CY_BLE_SCANNING_SLOW                       (0x01u)
 429:Generated_Source\PSoC6\pdl\middleware\ble/cy_ble_gap.h **** #define CY_BLE_SCANNING_CUSTOM                     (0x02u)
 430:Generated_Source\PSoC6\pdl\middleware\ble/cy_ble_gap.h **** 
 431:Generated_Source\PSoC6\pdl\middleware\ble/cy_ble_gap.h **** #define CY_BLE_PENDING_STACK_FLASH_WRITE_BIT       (0x01u)
 432:Generated_Source\PSoC6\pdl\middleware\ble/cy_ble_gap.h **** #define CY_BLE_PENDING_CCCD_FLASH_WRITE_BIT        (0x02u)
 433:Generated_Source\PSoC6\pdl\middleware\ble/cy_ble_gap.h **** #define CY_BLE_PENDING_CCCD_FLASH_CLEAR_BIT        (0x04u)
 434:Generated_Source\PSoC6\pdl\middleware\ble/cy_ble_gap.h **** #define CY_BLE_PENDING_CCCD_FLASH_CLEAR_ALL_BIT    (0x08u)
 435:Generated_Source\PSoC6\pdl\middleware\ble/cy_ble_gap.h **** #define CY_BLE_PENDING_CCCD_FLASH_CLEAR_MASK \
 436:Generated_Source\PSoC6\pdl\middleware\ble/cy_ble_gap.h ****     (CY_BLE_PENDING_CCCD_FLASH_CLEAR_BIT | CY_BLE_PENDING_CCCD_FLASH_CLEAR_ALL_BIT)
 437:Generated_Source\PSoC6\pdl\middleware\ble/cy_ble_gap.h **** 
 438:Generated_Source\PSoC6\pdl\middleware\ble/cy_ble_gap.h **** /**
 439:Generated_Source\PSoC6\pdl\middleware\ble/cy_ble_gap.h ****  * \addtogroup group_ble_common_api_macros
 440:Generated_Source\PSoC6\pdl\middleware\ble/cy_ble_gap.h ****  * @{
 441:Generated_Source\PSoC6\pdl\middleware\ble/cy_ble_gap.h ****  */
 442:Generated_Source\PSoC6\pdl\middleware\ble/cy_ble_gap.h **** 
 443:Generated_Source\PSoC6\pdl\middleware\ble/cy_ble_gap.h **** /* GAP Advertisement Flags */
 444:Generated_Source\PSoC6\pdl\middleware\ble/cy_ble_gap.h **** #define CY_BLE_GAP_ADV_FLAG_LE_LIMITED_DISC_MODE        (0x01u)     /**< LE Limited Discoverable Mo
 445:Generated_Source\PSoC6\pdl\middleware\ble/cy_ble_gap.h **** #define CY_BLE_GAP_ADV_FLAG_LE_GENERAL_DISC_MODE        (0x02u)     /**< LE General Discoverable Mo
 446:Generated_Source\PSoC6\pdl\middleware\ble/cy_ble_gap.h **** #define CY_BLE_GAP_ADV_FLAG_BR_EDR_NOT_SUPPORTED        (0x04u)     /**< BR/EDR not supported. */
 447:Generated_Source\PSoC6\pdl\middleware\ble/cy_ble_gap.h **** #define CY_BLE_GAP_ADV_FLAG_LE_BR_EDR_CONTROLLER        (0x08u)     /**< Simultaneous LE and BR/EDR
 448:Generated_Source\PSoC6\pdl\middleware\ble/cy_ble_gap.h **** #define CY_BLE_GAP_ADV_FLAG_LE_BR_EDR_HOST              (0x10u)     /**< Simultaneous LE and BR/EDR
 449:Generated_Source\PSoC6\pdl\middleware\ble/cy_ble_gap.h **** #define CY_BLE_GAP_ADV_FLAGS_PACKET_LENGTH              (0x02u)     /**< Length of flags in an adve
 450:Generated_Source\PSoC6\pdl\middleware\ble/cy_ble_gap.h **** 
 451:Generated_Source\PSoC6\pdl\middleware\ble/cy_ble_gap.h **** /* GAP Advertising interval min and max */
 452:Generated_Source\PSoC6\pdl\middleware\ble/cy_ble_gap.h **** #define CY_BLE_GAP_ADV_ADVERT_INTERVAL_MIN              (0x0020u)   /**< Minimum Advertising interv
 453:Generated_Source\PSoC6\pdl\middleware\ble/cy_ble_gap.h ****                                                                      *   i.e. 20 ms. */
 454:Generated_Source\PSoC6\pdl\middleware\ble/cy_ble_gap.h **** #define CY_BLE_GAP_ADV_ADVERT_INTERVAL_NONCON_MIN       (0x00A0u)   /**< Minimum Advertising interv
 455:Generated_Source\PSoC6\pdl\middleware\ble/cy_ble_gap.h ****                                                                      *   for non connectable mode, 
 456:Generated_Source\PSoC6\pdl\middleware\ble/cy_ble_gap.h **** #define CY_BLE_GAP_ADV_ADVERT_INTERVAL_MAX              (0x4000u)   /**< Maximum Advertising interv
 457:Generated_Source\PSoC6\pdl\middleware\ble/cy_ble_gap.h ****                                                                      *   i.e. 10.24 s. */
 458:Generated_Source\PSoC6\pdl\middleware\ble/cy_ble_gap.h **** #define CY_BLE_GAP_ADV_ADVERT_INTERVAL_PACKET_LENGTH    (0x03u)     /**< Length of the Advertising 
 459:Generated_Source\PSoC6\pdl\middleware\ble/cy_ble_gap.h ****                                                                      *   an advertisement packet */
 460:Generated_Source\PSoC6\pdl\middleware\ble/cy_ble_gap.h **** #define CY_BLE_GAPC_CONNECTING_TIMEOUT                  (30u)       /**< Seconds */
 461:Generated_Source\PSoC6\pdl\middleware\ble/cy_ble_gap.h **** #define CY_BLE_INVALID_CONN_HANDLE_VALUE                (0xFFu)     /**< Invalid Connection Handle 
ARM GAS  C:\Users\Smaug\AppData\Local\Temp\ccVZzAJS.s 			page 28


 462:Generated_Source\PSoC6\pdl\middleware\ble/cy_ble_gap.h **** 
 463:Generated_Source\PSoC6\pdl\middleware\ble/cy_ble_gap.h **** /* Write mode for Cy_BLE_StoreAppData */
 464:Generated_Source\PSoC6\pdl\middleware\ble/cy_ble_gap.h **** #define CY_BLE_STORE_DATA_MODE_BLOCKING                 (0x0u)      /**< Blocking write */
 465:Generated_Source\PSoC6\pdl\middleware\ble/cy_ble_gap.h **** #define CY_BLE_STORE_DATA_MODE_NON_BLOCKING             (0x1u)      /**< Non-blocking write */
 466:Generated_Source\PSoC6\pdl\middleware\ble/cy_ble_gap.h **** 
 467:Generated_Source\PSoC6\pdl\middleware\ble/cy_ble_gap.h **** /** @} group_ble_common_api_macros */
 468:Generated_Source\PSoC6\pdl\middleware\ble/cy_ble_gap.h **** 
 469:Generated_Source\PSoC6\pdl\middleware\ble/cy_ble_gap.h **** /***************************************
 470:Generated_Source\PSoC6\pdl\middleware\ble/cy_ble_gap.h **** * Private Function Prototypes
 471:Generated_Source\PSoC6\pdl\middleware\ble/cy_ble_gap.h **** ***************************************/
 472:Generated_Source\PSoC6\pdl\middleware\ble/cy_ble_gap.h **** void Cy_BLE_ServiceInit(void);
 473:Generated_Source\PSoC6\pdl\middleware\ble/cy_ble_gap.h **** uint32_t Cy_BLE_GetDiscoveryIdx(cy_stc_ble_conn_handle_t connHandle);
 474:Generated_Source\PSoC6\pdl\middleware\ble/cy_ble_gap.h **** 
 475:Generated_Source\PSoC6\pdl\middleware\ble/cy_ble_gap.h **** /***************************************
 476:Generated_Source\PSoC6\pdl\middleware\ble/cy_ble_gap.h **** * Function Prototypes
 477:Generated_Source\PSoC6\pdl\middleware\ble/cy_ble_gap.h **** ***************************************/
 478:Generated_Source\PSoC6\pdl\middleware\ble/cy_ble_gap.h **** /**
 479:Generated_Source\PSoC6\pdl\middleware\ble/cy_ble_gap.h ****  * \addtogroup group_ble_common_api_functions
 480:Generated_Source\PSoC6\pdl\middleware\ble/cy_ble_gap.h ****  * @{
 481:Generated_Source\PSoC6\pdl\middleware\ble/cy_ble_gap.h ****  */
 482:Generated_Source\PSoC6\pdl\middleware\ble/cy_ble_gap.h **** 
 483:Generated_Source\PSoC6\pdl\middleware\ble/cy_ble_gap.h **** cy_en_ble_api_result_t Cy_BLE_StoreAppData(const cy_stc_ble_app_flash_param_t *param);
 484:Generated_Source\PSoC6\pdl\middleware\ble/cy_ble_gap.h **** 
 485:Generated_Source\PSoC6\pdl\middleware\ble/cy_ble_gap.h **** #if ((CY_BLE_GAP_ROLE_PERIPHERAL || CY_BLE_GAP_ROLE_CENTRAL) && (CY_BLE_BONDING_REQUIREMENT == CY_B
 486:Generated_Source\PSoC6\pdl\middleware\ble/cy_ble_gap.h **** cy_en_ble_api_result_t Cy_BLE_StoreBondingData(void);
 487:Generated_Source\PSoC6\pdl\middleware\ble/cy_ble_gap.h **** cy_en_ble_api_result_t Cy_BLE_GAP_RemoveBondedDevice(cy_stc_ble_gap_bd_addr_t* bdAddr);
 488:Generated_Source\PSoC6\pdl\middleware\ble/cy_ble_gap.h **** #endif /* (CY_BLE_GAP_ROLE_PERIPHERAL || CY_BLE_GAP_ROLE_CENTRAL) && (CY_BLE_BONDING_REQUIREMENT ==
 489:Generated_Source\PSoC6\pdl\middleware\ble/cy_ble_gap.h **** 
 490:Generated_Source\PSoC6\pdl\middleware\ble/cy_ble_gap.h **** #if (CY_BLE_GAP_ROLE_PERIPHERAL || CY_BLE_GAP_ROLE_CENTRAL)
 491:Generated_Source\PSoC6\pdl\middleware\ble/cy_ble_gap.h **** bool Cy_BLE_IsPeerConnected(uint8_t *bdAddr);
 492:Generated_Source\PSoC6\pdl\middleware\ble/cy_ble_gap.h **** bool Cy_BLE_IsDevicePaired(cy_stc_ble_conn_handle_t *connHandle);
 493:Generated_Source\PSoC6\pdl\middleware\ble/cy_ble_gap.h **** uint8_t Cy_BLE_GetDeviceRole(cy_stc_ble_conn_handle_t *connHandle);
 494:Generated_Source\PSoC6\pdl\middleware\ble/cy_ble_gap.h **** 
 495:Generated_Source\PSoC6\pdl\middleware\ble/cy_ble_gap.h **** cy_en_ble_api_result_t Cy_BLE_GetRssiPeer(uint8_t  bdHandle);
 496:Generated_Source\PSoC6\pdl\middleware\ble/cy_ble_gap.h **** #endif /* (CY_BLE_GAP_ROLE_PERIPHERAL || CY_BLE_GAP_ROLE_CENTRAL) */
 497:Generated_Source\PSoC6\pdl\middleware\ble/cy_ble_gap.h **** /** @} group_ble_common_api_functions */
 498:Generated_Source\PSoC6\pdl\middleware\ble/cy_ble_gap.h **** 
 499:Generated_Source\PSoC6\pdl\middleware\ble/cy_ble_gap.h **** /**
 500:Generated_Source\PSoC6\pdl\middleware\ble/cy_ble_gap.h ****  * \addtogroup group_ble_common_api_gap_peripheral_functions
 501:Generated_Source\PSoC6\pdl\middleware\ble/cy_ble_gap.h ****  * @{
 502:Generated_Source\PSoC6\pdl\middleware\ble/cy_ble_gap.h ****  */
 503:Generated_Source\PSoC6\pdl\middleware\ble/cy_ble_gap.h **** 
 504:Generated_Source\PSoC6\pdl\middleware\ble/cy_ble_gap.h **** #if (CY_BLE_GAP_ROLE_PERIPHERAL || CY_BLE_GAP_ROLE_BROADCASTER)
 505:Generated_Source\PSoC6\pdl\middleware\ble/cy_ble_gap.h **** cy_en_ble_api_result_t Cy_BLE_GAPP_StartAdvertisement(uint8_t advertisingIntervalType, uint8_t adve
 506:Generated_Source\PSoC6\pdl\middleware\ble/cy_ble_gap.h **** cy_en_ble_api_result_t Cy_BLE_GAPP_StopAdvertisement(void);
 507:Generated_Source\PSoC6\pdl\middleware\ble/cy_ble_gap.h **** 
 508:Generated_Source\PSoC6\pdl\middleware\ble/cy_ble_gap.h **** /** \cond IGNORE */
 509:Generated_Source\PSoC6\pdl\middleware\ble/cy_ble_gap.h **** void Cy_BLE_ChangeAdDeviceAddress(const cy_stc_ble_gap_bd_addr_t* bdAddr, uint8_t dest);
 510:Generated_Source\PSoC6\pdl\middleware\ble/cy_ble_gap.h **** /** \endcond */
 511:Generated_Source\PSoC6\pdl\middleware\ble/cy_ble_gap.h **** 
 512:Generated_Source\PSoC6\pdl\middleware\ble/cy_ble_gap.h **** #endif /* CY_BLE_GAP_ROLE_PERIPHERAL */
 513:Generated_Source\PSoC6\pdl\middleware\ble/cy_ble_gap.h **** 
 514:Generated_Source\PSoC6\pdl\middleware\ble/cy_ble_gap.h **** /** @} group_ble_common_api_gap_peripheral_functions */
 515:Generated_Source\PSoC6\pdl\middleware\ble/cy_ble_gap.h **** 
 516:Generated_Source\PSoC6\pdl\middleware\ble/cy_ble_gap.h **** /**
 517:Generated_Source\PSoC6\pdl\middleware\ble/cy_ble_gap.h ****  * \addtogroup group_ble_common_api_gap_central_functions
 518:Generated_Source\PSoC6\pdl\middleware\ble/cy_ble_gap.h ****  * @{
ARM GAS  C:\Users\Smaug\AppData\Local\Temp\ccVZzAJS.s 			page 29


 519:Generated_Source\PSoC6\pdl\middleware\ble/cy_ble_gap.h ****  */
 520:Generated_Source\PSoC6\pdl\middleware\ble/cy_ble_gap.h **** 
 521:Generated_Source\PSoC6\pdl\middleware\ble/cy_ble_gap.h **** #if (CY_BLE_GAP_ROLE_CENTRAL || CY_BLE_GAP_ROLE_OBSERVER)
 522:Generated_Source\PSoC6\pdl\middleware\ble/cy_ble_gap.h **** cy_en_ble_api_result_t Cy_BLE_GAPC_StartScan(uint8_t scanningIntervalType, uint8_t scanParamIndex);
 523:Generated_Source\PSoC6\pdl\middleware\ble/cy_ble_gap.h **** cy_en_ble_api_result_t Cy_BLE_GAPC_StopScan(void);
 524:Generated_Source\PSoC6\pdl\middleware\ble/cy_ble_gap.h **** #endif /* CY_BLE_GAP_ROLE_CENTRAL || CY_BLE_GAP_ROLE_OBSERVER */
 525:Generated_Source\PSoC6\pdl\middleware\ble/cy_ble_gap.h **** 
 526:Generated_Source\PSoC6\pdl\middleware\ble/cy_ble_gap.h **** #if (CY_BLE_GAP_ROLE_CENTRAL)
 527:Generated_Source\PSoC6\pdl\middleware\ble/cy_ble_gap.h **** cy_en_ble_api_result_t Cy_BLE_GAPC_ConnectDevice(const cy_stc_ble_gap_bd_addr_t * address, uint8_t 
 528:Generated_Source\PSoC6\pdl\middleware\ble/cy_ble_gap.h **** cy_en_ble_api_result_t Cy_BLE_GAPC_CancelDeviceConnection(void);
 529:Generated_Source\PSoC6\pdl\middleware\ble/cy_ble_gap.h **** #endif /* CY_BLE_GAP_ROLE_CENTRAL */
 530:Generated_Source\PSoC6\pdl\middleware\ble/cy_ble_gap.h **** 
 531:Generated_Source\PSoC6\pdl\middleware\ble/cy_ble_gap.h **** /** @} group_ble_common_api_gap_central_functions */
 532:Generated_Source\PSoC6\pdl\middleware\ble/cy_ble_gap.h **** 
 533:Generated_Source\PSoC6\pdl\middleware\ble/cy_ble_gap.h **** /***************************************
 534:Generated_Source\PSoC6\pdl\middleware\ble/cy_ble_gap.h **** * External data references
 535:Generated_Source\PSoC6\pdl\middleware\ble/cy_ble_gap.h **** ***************************************/
 536:Generated_Source\PSoC6\pdl\middleware\ble/cy_ble_gap.h **** extern volatile uint8_t cy_ble_eventHandlerFlag;
 537:Generated_Source\PSoC6\pdl\middleware\ble/cy_ble_gap.h **** extern cy_stc_ble_gap_bd_addr_t *cy_ble_sflashDeviceAddress;
 538:Generated_Source\PSoC6\pdl\middleware\ble/cy_ble_gap.h **** extern cy_stc_ble_gap_bd_addr_t cy_ble_deviceAddress;
 539:Generated_Source\PSoC6\pdl\middleware\ble/cy_ble_gap.h **** extern cy_en_ble_state_t cy_ble_state;
 540:Generated_Source\PSoC6\pdl\middleware\ble/cy_ble_gap.h **** 
 541:Generated_Source\PSoC6\pdl\middleware\ble/cy_ble_gap.h **** #if ((CY_BLE_GAP_ROLE_PERIPHERAL || CY_BLE_GAP_ROLE_CENTRAL))
 542:Generated_Source\PSoC6\pdl\middleware\ble/cy_ble_gap.h **** extern cy_stc_ble_gap_auth_info_t cy_ble_authInfo[CY_BLE_AUTH_INFO_COUNT];
 543:Generated_Source\PSoC6\pdl\middleware\ble/cy_ble_gap.h **** #endif /* ((CY_BLE_GAP_ROLE_PERIPHERAL || CY_BLE_GAP_ROLE_CENTRAL)) */
 544:Generated_Source\PSoC6\pdl\middleware\ble/cy_ble_gap.h **** 
 545:Generated_Source\PSoC6\pdl\middleware\ble/cy_ble_gap.h **** #if (CY_BLE_GAP_ROLE_PERIPHERAL || CY_BLE_GAP_ROLE_BROADCASTER)
 546:Generated_Source\PSoC6\pdl\middleware\ble/cy_ble_gap.h **** extern cy_en_ble_adv_state_t cy_ble_advState;
 547:Generated_Source\PSoC6\pdl\middleware\ble/cy_ble_gap.h **** extern uint8_t cy_ble_advIndex;
 548:Generated_Source\PSoC6\pdl\middleware\ble/cy_ble_gap.h **** #endif  /* (CY_BLE_GAP_ROLE_PERIPHERAL || CY_BLE_GAP_ROLE_BROADCASTER) */
 549:Generated_Source\PSoC6\pdl\middleware\ble/cy_ble_gap.h **** 
 550:Generated_Source\PSoC6\pdl\middleware\ble/cy_ble_gap.h **** #if (CY_BLE_GAP_ROLE_CENTRAL || CY_BLE_GAP_ROLE_OBSERVER)
 551:Generated_Source\PSoC6\pdl\middleware\ble/cy_ble_gap.h **** extern cy_en_ble_scan_state_t cy_ble_scanState;
 552:Generated_Source\PSoC6\pdl\middleware\ble/cy_ble_gap.h **** extern uint8_t cy_ble_scanIndex;
 553:Generated_Source\PSoC6\pdl\middleware\ble/cy_ble_gap.h **** #endif /* (CY_BLE_GAP_ROLE_CENTRAL || CY_BLE_GAP_ROLE_OBSERVER) */
 554:Generated_Source\PSoC6\pdl\middleware\ble/cy_ble_gap.h **** 
 555:Generated_Source\PSoC6\pdl\middleware\ble/cy_ble_gap.h **** #if ((CY_BLE_GAP_ROLE_PERIPHERAL || CY_BLE_GAP_ROLE_CENTRAL))
 556:Generated_Source\PSoC6\pdl\middleware\ble/cy_ble_gap.h **** extern cy_stc_ble_conn_handle_t cy_ble_connHandle[CY_BLE_CONN_COUNT];
 557:Generated_Source\PSoC6\pdl\middleware\ble/cy_ble_gap.h **** extern cy_en_ble_conn_state_t cy_ble_connState[CY_BLE_CONN_COUNT];
 558:Generated_Source\PSoC6\pdl\middleware\ble/cy_ble_gap.h **** 
 559:Generated_Source\PSoC6\pdl\middleware\ble/cy_ble_gap.h **** extern volatile uint8_t cy_ble_devConnRole[CY_BLE_CONN_COUNT];
 560:Generated_Source\PSoC6\pdl\middleware\ble/cy_ble_gap.h **** extern volatile bool cy_ble_pairStatus[CY_BLE_CONN_COUNT];
 561:Generated_Source\PSoC6\pdl\middleware\ble/cy_ble_gap.h **** 
 562:Generated_Source\PSoC6\pdl\middleware\ble/cy_ble_gap.h **** #endif /* ((CY_BLE_GAP_ROLE_PERIPHERAL || CY_BLE_GAP_ROLE_CENTRAL)) */
 563:Generated_Source\PSoC6\pdl\middleware\ble/cy_ble_gap.h **** 
 564:Generated_Source\PSoC6\pdl\middleware\ble/cy_ble_gap.h **** #if (CY_BLE_GAP_ROLE_CENTRAL || CY_BLE_GAP_ROLE_OBSERVER)
 565:Generated_Source\PSoC6\pdl\middleware\ble/cy_ble_gap.h **** extern cy_stc_ble_gapc_disc_info_t cy_ble_discoveryInfo[CY_BLE_GAPC_CONF_COUNT];
 566:Generated_Source\PSoC6\pdl\middleware\ble/cy_ble_gap.h **** #endif /* CY_BLE_GAP_ROLE_CENTRAL || CY_BLE_GAP_ROLE_OBSERVER */
 567:Generated_Source\PSoC6\pdl\middleware\ble/cy_ble_gap.h **** 
 568:Generated_Source\PSoC6\pdl\middleware\ble/cy_ble_gap.h **** #if (CY_BLE_GAP_ROLE_CENTRAL)
 569:Generated_Source\PSoC6\pdl\middleware\ble/cy_ble_gap.h **** extern cy_stc_ble_gapc_conn_info_t cy_ble_connectionParameters;
 570:Generated_Source\PSoC6\pdl\middleware\ble/cy_ble_gap.h **** extern cy_stc_ble_timer_info_t cy_ble_connectingTimeout;
 571:Generated_Source\PSoC6\pdl\middleware\ble/cy_ble_gap.h **** #endif /* CY_BLE_GAP_ROLE_CENTRAL */
 572:Generated_Source\PSoC6\pdl\middleware\ble/cy_ble_gap.h **** 
 573:Generated_Source\PSoC6\pdl\middleware\ble/cy_ble_gap.h **** #if (CY_BLE_GAP_ROLE_PERIPHERAL || CY_BLE_GAP_ROLE_BROADCASTER)
 574:Generated_Source\PSoC6\pdl\middleware\ble/cy_ble_gap.h **** extern cy_stc_ble_gapp_disc_mode_info_t cy_ble_discoveryModeInfo[CY_BLE_GAPP_CONF_COUNT];
 575:Generated_Source\PSoC6\pdl\middleware\ble/cy_ble_gap.h **** extern cy_stc_ble_gapp_disc_param_t cy_ble_discoveryParam[CY_BLE_GAPP_CONF_COUNT];
ARM GAS  C:\Users\Smaug\AppData\Local\Temp\ccVZzAJS.s 			page 30


 576:Generated_Source\PSoC6\pdl\middleware\ble/cy_ble_gap.h **** extern cy_stc_ble_gapp_disc_data_t cy_ble_discoveryData[CY_BLE_GAPP_CONF_COUNT];
 577:Generated_Source\PSoC6\pdl\middleware\ble/cy_ble_gap.h **** extern cy_stc_ble_gapp_scan_rsp_data_t cy_ble_scanRspData[CY_BLE_GAPP_CONF_COUNT];
 578:Generated_Source\PSoC6\pdl\middleware\ble/cy_ble_gap.h **** #endif /* CY_BLE_GAP_ROLE_PERIPHERAL || CY_BLE_GAP_ROLE_BROADCASTER */
 579:Generated_Source\PSoC6\pdl\middleware\ble/cy_ble_gap.h **** 
 580:Generated_Source\PSoC6\pdl\middleware\ble/cy_ble_gap.h **** #if ((CY_BLE_GAP_ROLE_PERIPHERAL || CY_BLE_GAP_ROLE_CENTRAL) && (CY_BLE_BONDING_REQUIREMENT == CY_B
 581:Generated_Source\PSoC6\pdl\middleware\ble/cy_ble_gap.h **** 
 582:Generated_Source\PSoC6\pdl\middleware\ble/cy_ble_gap.h **** /**
 583:Generated_Source\PSoC6\pdl\middleware\ble/cy_ble_gap.h ****  * \addtogroup group_ble_common_api_global_variables
 584:Generated_Source\PSoC6\pdl\middleware\ble/cy_ble_gap.h ****  * @{
 585:Generated_Source\PSoC6\pdl\middleware\ble/cy_ble_gap.h ****  */
 586:Generated_Source\PSoC6\pdl\middleware\ble/cy_ble_gap.h **** /** This is a two-bit variable that contains status of pending write to flash operation.
 587:Generated_Source\PSoC6\pdl\middleware\ble/cy_ble_gap.h ****  * This variable is initialized to zero in Cy_BLE_Init().
 588:Generated_Source\PSoC6\pdl\middleware\ble/cy_ble_gap.h ****  * CY_BLE_PENDING_CCCD_FLASH_WRITE_BIT flag is set after write to CCCD event when a
 589:Generated_Source\PSoC6\pdl\middleware\ble/cy_ble_gap.h ****  * peer device supports bonding (cy_ble_peerBonding[eventParam->connHandle.attId] == CY_BLE_GAP_BON
 590:Generated_Source\PSoC6\pdl\middleware\ble/cy_ble_gap.h ****  * CY_BLE_PENDING_STACK_FLASH_WRITE_BIT flag is set after CY_BLE_EVT_PENDING_FLASH_WRITE event.
 591:Generated_Source\PSoC6\pdl\middleware\ble/cy_ble_gap.h ****  * Cy_BLE_StoreBondingData() should be called to store pending bonding data.
 592:Generated_Source\PSoC6\pdl\middleware\ble/cy_ble_gap.h ****  * This function automatically clears pending bits after write operation is complete.
 593:Generated_Source\PSoC6\pdl\middleware\ble/cy_ble_gap.h ****  */
 594:Generated_Source\PSoC6\pdl\middleware\ble/cy_ble_gap.h **** extern uint8_t cy_ble_pendingFlashWrite;
 595:Generated_Source\PSoC6\pdl\middleware\ble/cy_ble_gap.h **** /** @} group_ble_common_api_global_variables */
 596:Generated_Source\PSoC6\pdl\middleware\ble/cy_ble_gap.h **** 
 597:Generated_Source\PSoC6\pdl\middleware\ble/cy_ble_gap.h **** /** Bonding type setting of peer device, CY_BLE_GAP_BONDING_NONE or CY_BLE_GAP_BONDING.
 598:Generated_Source\PSoC6\pdl\middleware\ble/cy_ble_gap.h ****  * It is initialized after pairing with peer device and used for cy_ble_pendingFlashWrite variable
 599:Generated_Source\PSoC6\pdl\middleware\ble/cy_ble_gap.h ****  * setting.
 600:Generated_Source\PSoC6\pdl\middleware\ble/cy_ble_gap.h ****  */
 601:Generated_Source\PSoC6\pdl\middleware\ble/cy_ble_gap.h **** extern uint8_t cy_ble_peerBonding[CY_BLE_CONN_COUNT];
 602:Generated_Source\PSoC6\pdl\middleware\ble/cy_ble_gap.h **** 
 603:Generated_Source\PSoC6\pdl\middleware\ble/cy_ble_gap.h **** #endif  /* (CY_BLE_BONDING_REQUIREMENT == CY_BLE_BONDING_YES) */
 604:Generated_Source\PSoC6\pdl\middleware\ble/cy_ble_gap.h **** 
 605:Generated_Source\PSoC6\pdl\middleware\ble/cy_ble_gap.h **** 
 606:Generated_Source\PSoC6\pdl\middleware\ble/cy_ble_gap.h **** /***************************************
 607:Generated_Source\PSoC6\pdl\middleware\ble/cy_ble_gap.h **** * Exported Functions (MACROS)
 608:Generated_Source\PSoC6\pdl\middleware\ble/cy_ble_gap.h **** ***************************************/
 609:Generated_Source\PSoC6\pdl\middleware\ble/cy_ble_gap.h **** #if ((CY_BLE_GAP_ROLE_PERIPHERAL || CY_BLE_GAP_ROLE_CENTRAL))
 610:Generated_Source\PSoC6\pdl\middleware\ble/cy_ble_gap.h **** 
 611:Generated_Source\PSoC6\pdl\middleware\ble/cy_ble_gap.h **** /******************************************************************************
 612:Generated_Source\PSoC6\pdl\middleware\ble/cy_ble_gap.h **** * Function Name: Cy_BLE_GetConnHandleIdx
 613:Generated_Source\PSoC6\pdl\middleware\ble/cy_ble_gap.h **** ***************************************************************************//**
 614:Generated_Source\PSoC6\pdl\middleware\ble/cy_ble_gap.h **** *
 615:Generated_Source\PSoC6\pdl\middleware\ble/cy_ble_gap.h **** *  This function searches the array of connection handles (cy_ble_connHandle[])
 616:Generated_Source\PSoC6\pdl\middleware\ble/cy_ble_gap.h **** *  for the location (index) of a handle that corresponds to the input parameter
 617:Generated_Source\PSoC6\pdl\middleware\ble/cy_ble_gap.h **** *  connHandle. bdHandle.
 618:Generated_Source\PSoC6\pdl\middleware\ble/cy_ble_gap.h **** *
 619:Generated_Source\PSoC6\pdl\middleware\ble/cy_ble_gap.h **** *  This function is designated for internal usage.
 620:Generated_Source\PSoC6\pdl\middleware\ble/cy_ble_gap.h **** *
 621:Generated_Source\PSoC6\pdl\middleware\ble/cy_ble_gap.h **** *  \param connHandle: The connection handle.
 622:Generated_Source\PSoC6\pdl\middleware\ble/cy_ble_gap.h **** *
 623:Generated_Source\PSoC6\pdl\middleware\ble/cy_ble_gap.h **** *  \return
 624:Generated_Source\PSoC6\pdl\middleware\ble/cy_ble_gap.h **** *  retValue: the index of connHandle
 625:Generated_Source\PSoC6\pdl\middleware\ble/cy_ble_gap.h **** *
 626:Generated_Source\PSoC6\pdl\middleware\ble/cy_ble_gap.h **** ******************************************************************************/
 627:Generated_Source\PSoC6\pdl\middleware\ble/cy_ble_gap.h **** __STATIC_INLINE uint8_t Cy_BLE_GetConnHandleIdx(cy_stc_ble_conn_handle_t connHandle)
 628:Generated_Source\PSoC6\pdl\middleware\ble/cy_ble_gap.h **** {
 629:Generated_Source\PSoC6\pdl\middleware\ble/cy_ble_gap.h ****     uint8_t idx;
 630:Generated_Source\PSoC6\pdl\middleware\ble/cy_ble_gap.h ****     uint8_t retValue = CY_BLE_CONN_COUNT;
 631:Generated_Source\PSoC6\pdl\middleware\ble/cy_ble_gap.h **** 
 632:Generated_Source\PSoC6\pdl\middleware\ble/cy_ble_gap.h ****     for(idx = 0u; idx < CY_BLE_CONN_COUNT; idx++)
ARM GAS  C:\Users\Smaug\AppData\Local\Temp\ccVZzAJS.s 			page 31


 633:Generated_Source\PSoC6\pdl\middleware\ble/cy_ble_gap.h ****     {
 634:Generated_Source\PSoC6\pdl\middleware\ble/cy_ble_gap.h ****         if(cy_ble_connHandle[idx].bdHandle == connHandle.bdHandle)
 635:Generated_Source\PSoC6\pdl\middleware\ble/cy_ble_gap.h ****         {
 636:Generated_Source\PSoC6\pdl\middleware\ble/cy_ble_gap.h ****             retValue = idx;
 637:Generated_Source\PSoC6\pdl\middleware\ble/cy_ble_gap.h ****             break;
 638:Generated_Source\PSoC6\pdl\middleware\ble/cy_ble_gap.h ****         }
 639:Generated_Source\PSoC6\pdl\middleware\ble/cy_ble_gap.h ****     }
 640:Generated_Source\PSoC6\pdl\middleware\ble/cy_ble_gap.h ****     if(retValue == CY_BLE_CONN_COUNT)
 641:Generated_Source\PSoC6\pdl\middleware\ble/cy_ble_gap.h ****     {
 642:Generated_Source\PSoC6\pdl\middleware\ble/cy_ble_gap.h ****         /* HALT in debug mode */
 643:Generated_Source\PSoC6\pdl\middleware\ble/cy_ble_gap.h ****         CY_ASSERT(retValue != CY_BLE_CONN_COUNT);
 644:Generated_Source\PSoC6\pdl\middleware\ble/cy_ble_gap.h ****         retValue = 0u;
 645:Generated_Source\PSoC6\pdl\middleware\ble/cy_ble_gap.h ****     }
 646:Generated_Source\PSoC6\pdl\middleware\ble/cy_ble_gap.h **** 
 647:Generated_Source\PSoC6\pdl\middleware\ble/cy_ble_gap.h ****     return(retValue);
 648:Generated_Source\PSoC6\pdl\middleware\ble/cy_ble_gap.h **** }
 649:Generated_Source\PSoC6\pdl\middleware\ble/cy_ble_gap.h **** #endif  /* ((CY_BLE_GAP_ROLE_PERIPHERAL || CY_BLE_GAP_ROLE_CENTRAL)) */
 650:Generated_Source\PSoC6\pdl\middleware\ble/cy_ble_gap.h **** 
 651:Generated_Source\PSoC6\pdl\middleware\ble/cy_ble_gap.h **** /**
 652:Generated_Source\PSoC6\pdl\middleware\ble/cy_ble_gap.h ****  * \addtogroup group_ble_common_api_functions
 653:Generated_Source\PSoC6\pdl\middleware\ble/cy_ble_gap.h ****  * @{
 654:Generated_Source\PSoC6\pdl\middleware\ble/cy_ble_gap.h **** */
 655:Generated_Source\PSoC6\pdl\middleware\ble/cy_ble_gap.h **** /******************************************************************************
 656:Generated_Source\PSoC6\pdl\middleware\ble/cy_ble_gap.h **** * Function Name: Cy_BLE_GetState
 657:Generated_Source\PSoC6\pdl\middleware\ble/cy_ble_gap.h **** ***************************************************************************//**
 658:Generated_Source\PSoC6\pdl\middleware\ble/cy_ble_gap.h **** *
 659:Generated_Source\PSoC6\pdl\middleware\ble/cy_ble_gap.h **** *  This function is used to determine the current state of the BLE Middleware
 660:Generated_Source\PSoC6\pdl\middleware\ble/cy_ble_gap.h **** *  state machine :
 661:Generated_Source\PSoC6\pdl\middleware\ble/cy_ble_gap.h **** *
 662:Generated_Source\PSoC6\pdl\middleware\ble/cy_ble_gap.h **** *  \image html ble_middleware_state_machine.png
 663:Generated_Source\PSoC6\pdl\middleware\ble/cy_ble_gap.h **** *
 664:Generated_Source\PSoC6\pdl\middleware\ble/cy_ble_gap.h **** *  The BLE Middleware is in the state #CY_BLE_STATE_INITIALIZING after the
 665:Generated_Source\PSoC6\pdl\middleware\ble/cy_ble_gap.h **** *  Cy_BLE_Enable() is called and until the #CY_BLE_EVT_STACK_ON event is not
 666:Generated_Source\PSoC6\pdl\middleware\ble/cy_ble_gap.h **** *  received. After successful initialization the state is changed to
 667:Generated_Source\PSoC6\pdl\middleware\ble/cy_ble_gap.h **** *  #CY_BLE_STATE_ON.
 668:Generated_Source\PSoC6\pdl\middleware\ble/cy_ble_gap.h **** *
 669:Generated_Source\PSoC6\pdl\middleware\ble/cy_ble_gap.h **** *  The BLE Middleware is in the state #CY_BLE_STATE_STOPPED
 670:Generated_Source\PSoC6\pdl\middleware\ble/cy_ble_gap.h **** *  when the #CY_BLE_EVT_STACK_SHUTDOWN_COMPLETE event is received (after the
 671:Generated_Source\PSoC6\pdl\middleware\ble/cy_ble_gap.h **** *  Cy_BLE_Disable() is called).
 672:Generated_Source\PSoC6\pdl\middleware\ble/cy_ble_gap.h **** *
 673:Generated_Source\PSoC6\pdl\middleware\ble/cy_ble_gap.h **** *  For GAP Central role when the Cy_BLE_GAPC_ConnectDevice() is called, the state
 674:Generated_Source\PSoC6\pdl\middleware\ble/cy_ble_gap.h **** *  is changed to #CY_BLE_STATE_CONNECTING. After successful connection indicated
 675:Generated_Source\PSoC6\pdl\middleware\ble/cy_ble_gap.h **** *  by #CY_BLE_EVT_GAP_DEVICE_CONNECTED or #CY_BLE_EVT_GAP_ENHANCE_CONN_COMPLETE
 676:Generated_Source\PSoC6\pdl\middleware\ble/cy_ble_gap.h **** *  event or the timeout indicated by #CY_BLE_EVT_TIMEOUT event, the state is
 677:Generated_Source\PSoC6\pdl\middleware\ble/cy_ble_gap.h **** *  changed to #CY_BLE_STATE_ON.
 678:Generated_Source\PSoC6\pdl\middleware\ble/cy_ble_gap.h **** *
 679:Generated_Source\PSoC6\pdl\middleware\ble/cy_ble_gap.h **** * \return
 680:Generated_Source\PSoC6\pdl\middleware\ble/cy_ble_gap.h **** * \ref cy_en_ble_state_t : The current BLE Middleware state. The following are
 681:Generated_Source\PSoC6\pdl\middleware\ble/cy_ble_gap.h **** *                         possible states:
 682:Generated_Source\PSoC6\pdl\middleware\ble/cy_ble_gap.h **** *
 683:Generated_Source\PSoC6\pdl\middleware\ble/cy_ble_gap.h **** *   State                      | Description
 684:Generated_Source\PSoC6\pdl\middleware\ble/cy_ble_gap.h **** *   -------------------------- | -----------
 685:Generated_Source\PSoC6\pdl\middleware\ble/cy_ble_gap.h **** *   CY_BLE_STATE_STOPPED       | BLE is turned off.
 686:Generated_Source\PSoC6\pdl\middleware\ble/cy_ble_gap.h **** *   CY_BLE_STATE_INITIALIZING  | BLE is initializing (waiting for #CY_BLE_EVT_STACK_ON event).
 687:Generated_Source\PSoC6\pdl\middleware\ble/cy_ble_gap.h **** *   CY_BLE_STATE_ON            | BLE is turned on.
 688:Generated_Source\PSoC6\pdl\middleware\ble/cy_ble_gap.h **** *   CY_BLE_STATE_CONNECTING    | BLE is connecting.
 689:Generated_Source\PSoC6\pdl\middleware\ble/cy_ble_gap.h **** 
ARM GAS  C:\Users\Smaug\AppData\Local\Temp\ccVZzAJS.s 			page 32


 690:Generated_Source\PSoC6\pdl\middleware\ble/cy_ble_gap.h **** ******************************************************************************/
 691:Generated_Source\PSoC6\pdl\middleware\ble/cy_ble_gap.h **** #define Cy_BLE_GetState()    (cy_ble_state)
 692:Generated_Source\PSoC6\pdl\middleware\ble/cy_ble_gap.h **** 
 693:Generated_Source\PSoC6\pdl\middleware\ble/cy_ble_gap.h **** /** \cond IGNORE */
 694:Generated_Source\PSoC6\pdl\middleware\ble/cy_ble_gap.h **** /******************************************************************************
 695:Generated_Source\PSoC6\pdl\middleware\ble/cy_ble_gap.h **** * Function Name: Cy_BLE_SetState
 696:Generated_Source\PSoC6\pdl\middleware\ble/cy_ble_gap.h **** ***************************************************************************//**
 697:Generated_Source\PSoC6\pdl\middleware\ble/cy_ble_gap.h **** *
 698:Generated_Source\PSoC6\pdl\middleware\ble/cy_ble_gap.h **** *  Used to set the BLE Middleware state machine's state.
 699:Generated_Source\PSoC6\pdl\middleware\ble/cy_ble_gap.h **** *
 700:Generated_Source\PSoC6\pdl\middleware\ble/cy_ble_gap.h **** *  \param state: The desired state to which the event handler's
 701:Generated_Source\PSoC6\pdl\middleware\ble/cy_ble_gap.h **** *   state machine should be set. The parameter state is a variable
 702:Generated_Source\PSoC6\pdl\middleware\ble/cy_ble_gap.h **** *   of type cy_en_ble_state_t.
 703:Generated_Source\PSoC6\pdl\middleware\ble/cy_ble_gap.h **** *
 704:Generated_Source\PSoC6\pdl\middleware\ble/cy_ble_gap.h **** * \return
 705:Generated_Source\PSoC6\pdl\middleware\ble/cy_ble_gap.h **** *  None
 706:Generated_Source\PSoC6\pdl\middleware\ble/cy_ble_gap.h **** *
 707:Generated_Source\PSoC6\pdl\middleware\ble/cy_ble_gap.h **** ******************************************************************************/
 708:Generated_Source\PSoC6\pdl\middleware\ble/cy_ble_gap.h **** #define Cy_BLE_SetState(state)    (cy_ble_state = (state))
 709:Generated_Source\PSoC6\pdl\middleware\ble/cy_ble_gap.h **** /** \endcond */
 710:Generated_Source\PSoC6\pdl\middleware\ble/cy_ble_gap.h **** 
 711:Generated_Source\PSoC6\pdl\middleware\ble/cy_ble_gap.h **** #if (CY_BLE_GAP_ROLE_PERIPHERAL || CY_BLE_GAP_ROLE_BROADCASTER)
 712:Generated_Source\PSoC6\pdl\middleware\ble/cy_ble_gap.h **** 
 713:Generated_Source\PSoC6\pdl\middleware\ble/cy_ble_gap.h **** 
 714:Generated_Source\PSoC6\pdl\middleware\ble/cy_ble_gap.h **** /******************************************************************************
 715:Generated_Source\PSoC6\pdl\middleware\ble/cy_ble_gap.h **** * Function Name: Cy_BLE_GetAdvertisementState
 716:Generated_Source\PSoC6\pdl\middleware\ble/cy_ble_gap.h **** ***************************************************************************//**
 717:Generated_Source\PSoC6\pdl\middleware\ble/cy_ble_gap.h **** *
 718:Generated_Source\PSoC6\pdl\middleware\ble/cy_ble_gap.h **** *  This function returns the state of the link layer hardware advertisement
 719:Generated_Source\PSoC6\pdl\middleware\ble/cy_ble_gap.h **** *  engine.
 720:Generated_Source\PSoC6\pdl\middleware\ble/cy_ble_gap.h **** *
 721:Generated_Source\PSoC6\pdl\middleware\ble/cy_ble_gap.h **** *  \image html ble_advertisement_state_machine.png
 722:Generated_Source\PSoC6\pdl\middleware\ble/cy_ble_gap.h **** *
 723:Generated_Source\PSoC6\pdl\middleware\ble/cy_ble_gap.h **** *  When Cy_BLE_GAPP_StartAdvertisement() is called, the state is set to
 724:Generated_Source\PSoC6\pdl\middleware\ble/cy_ble_gap.h **** *  #CY_BLE_ADV_STATE_ADV_INITIATED. It automatically changes to
 725:Generated_Source\PSoC6\pdl\middleware\ble/cy_ble_gap.h **** *  #CY_BLE_ADV_STATE_ADVERTISING when #CY_BLE_EVT_GAPP_ADVERTISEMENT_START_STOP
 726:Generated_Source\PSoC6\pdl\middleware\ble/cy_ble_gap.h **** *  event is received. When Cy_BLE_GAPP_StopAdvertisement() is called, the
 727:Generated_Source\PSoC6\pdl\middleware\ble/cy_ble_gap.h **** *  state is set to #CY_BLE_ADV_STATE_STOP_INITIATED. It automatically changes
 728:Generated_Source\PSoC6\pdl\middleware\ble/cy_ble_gap.h **** *  to #CY_BLE_ADV_STATE_STOPPED when the #CY_BLE_EVT_GAPP_ADVERTISEMENT_START_STOP
 729:Generated_Source\PSoC6\pdl\middleware\ble/cy_ble_gap.h **** *  event is received.
 730:Generated_Source\PSoC6\pdl\middleware\ble/cy_ble_gap.h **** *
 731:Generated_Source\PSoC6\pdl\middleware\ble/cy_ble_gap.h **** * \return
 732:Generated_Source\PSoC6\pdl\middleware\ble/cy_ble_gap.h **** * \ref cy_en_ble_adv_state_t :The current advertising state. The following are
 733:Generated_Source\PSoC6\pdl\middleware\ble/cy_ble_gap.h **** *                              possible states.
 734:Generated_Source\PSoC6\pdl\middleware\ble/cy_ble_gap.h **** *
 735:Generated_Source\PSoC6\pdl\middleware\ble/cy_ble_gap.h **** *               State                |         Description
 736:Generated_Source\PSoC6\pdl\middleware\ble/cy_ble_gap.h **** *   -------------------------------- | -----------------------------
 737:Generated_Source\PSoC6\pdl\middleware\ble/cy_ble_gap.h **** *   CY_BLE_ADV_STATE_STOPPED         | Advertising is stopped.
 738:Generated_Source\PSoC6\pdl\middleware\ble/cy_ble_gap.h **** *   CY_BLE_ADV_STATE_ADV_INITIATED   | Advertising is initiated.
 739:Generated_Source\PSoC6\pdl\middleware\ble/cy_ble_gap.h **** *   CY_BLE_ADV_STATE_ADVERTISING     | Advertising is initiated.
 740:Generated_Source\PSoC6\pdl\middleware\ble/cy_ble_gap.h **** *   CY_BLE_ADV_STATE_STOP_INITIATED  | Stop advertising is initiated.
 741:Generated_Source\PSoC6\pdl\middleware\ble/cy_ble_gap.h **** *
 742:Generated_Source\PSoC6\pdl\middleware\ble/cy_ble_gap.h **** ******************************************************************************/
 743:Generated_Source\PSoC6\pdl\middleware\ble/cy_ble_gap.h **** __STATIC_INLINE cy_en_ble_adv_state_t Cy_BLE_GetAdvertisementState(void)
 744:Generated_Source\PSoC6\pdl\middleware\ble/cy_ble_gap.h **** {
 745:Generated_Source\PSoC6\pdl\middleware\ble/cy_ble_gap.h ****     return(cy_ble_advState);
 746:Generated_Source\PSoC6\pdl\middleware\ble/cy_ble_gap.h **** }
ARM GAS  C:\Users\Smaug\AppData\Local\Temp\ccVZzAJS.s 			page 33


 747:Generated_Source\PSoC6\pdl\middleware\ble/cy_ble_gap.h **** 
 748:Generated_Source\PSoC6\pdl\middleware\ble/cy_ble_gap.h **** /** \cond IGNORE */
 749:Generated_Source\PSoC6\pdl\middleware\ble/cy_ble_gap.h **** /******************************************************************************
 750:Generated_Source\PSoC6\pdl\middleware\ble/cy_ble_gap.h **** * Function Name: Cy_BLE_SetAdvertisementState
 751:Generated_Source\PSoC6\pdl\middleware\ble/cy_ble_gap.h **** ***************************************************************************//**
 752:Generated_Source\PSoC6\pdl\middleware\ble/cy_ble_gap.h **** *
 753:Generated_Source\PSoC6\pdl\middleware\ble/cy_ble_gap.h **** *  Used to set the state of the link layer hardware advertisement engine.
 754:Generated_Source\PSoC6\pdl\middleware\ble/cy_ble_gap.h **** *
 755:Generated_Source\PSoC6\pdl\middleware\ble/cy_ble_gap.h **** *  \param state: The desired state.
 756:Generated_Source\PSoC6\pdl\middleware\ble/cy_ble_gap.h **** *
 757:Generated_Source\PSoC6\pdl\middleware\ble/cy_ble_gap.h **** * \return
 758:Generated_Source\PSoC6\pdl\middleware\ble/cy_ble_gap.h **** *  None
 759:Generated_Source\PSoC6\pdl\middleware\ble/cy_ble_gap.h **** *
 760:Generated_Source\PSoC6\pdl\middleware\ble/cy_ble_gap.h **** ******************************************************************************/
 761:Generated_Source\PSoC6\pdl\middleware\ble/cy_ble_gap.h **** __STATIC_INLINE void Cy_BLE_SetAdvertisementState(cy_en_ble_adv_state_t state)
 762:Generated_Source\PSoC6\pdl\middleware\ble/cy_ble_gap.h **** {
 763:Generated_Source\PSoC6\pdl\middleware\ble/cy_ble_gap.h ****     cy_ble_advState = state;
 655              		.loc 2 763 0
 656 01c6 784A     		ldr	r2, .L99+124
 657 01c8 1370     		strb	r3, [r2]
 658              	.LVL60:
 659              	.LBE86:
 660              	.LBE85:
 391:Generated_Source\PSoC6\pdl\middleware\ble/cy_ble_event_handler.c **** 
 392:Generated_Source\PSoC6\pdl\middleware\ble/cy_ble_event_handler.c ****             #if (CY_BLE_GAP_ROLE_PERIPHERAL || CY_BLE_GAP_ROLE_BROADCASTER)
 393:Generated_Source\PSoC6\pdl\middleware\ble/cy_ble_event_handler.c ****             Cy_BLE_SetAdvertisementState(CY_BLE_ADV_STATE_STOPPED);
 394:Generated_Source\PSoC6\pdl\middleware\ble/cy_ble_event_handler.c ****             #endif  /* (CY_BLE_GAP_ROLE_PERIPHERAL || CY_BLE_GAP_ROLE_BROADCASTER) */
 395:Generated_Source\PSoC6\pdl\middleware\ble/cy_ble_event_handler.c **** 
 396:Generated_Source\PSoC6\pdl\middleware\ble/cy_ble_event_handler.c ****             #if (CY_BLE_GAP_ROLE_CENTRAL || CY_BLE_GAP_ROLE_OBSERVER)
 397:Generated_Source\PSoC6\pdl\middleware\ble/cy_ble_event_handler.c ****             Cy_BLE_SetScanState(CY_BLE_SCAN_STATE_STOPPED);
 398:Generated_Source\PSoC6\pdl\middleware\ble/cy_ble_event_handler.c ****             #endif /* (CY_BLE_GAP_ROLE_CENTRAL || CY_BLE_GAP_ROLE_OBSERVER) */
 399:Generated_Source\PSoC6\pdl\middleware\ble/cy_ble_event_handler.c **** 
 400:Generated_Source\PSoC6\pdl\middleware\ble/cy_ble_event_handler.c ****             /* Clean pair status */
 401:Generated_Source\PSoC6\pdl\middleware\ble/cy_ble_event_handler.c ****             #if ((CY_BLE_GAP_ROLE_PERIPHERAL || CY_BLE_GAP_ROLE_CENTRAL))
 402:Generated_Source\PSoC6\pdl\middleware\ble/cy_ble_event_handler.c ****             (void)memset((uint8_t*)cy_ble_pairStatus, 0, sizeof(cy_ble_pairStatus));
 661              		.loc 1 402 0
 662 01ca 784A     		ldr	r2, .L99+128
 663 01cc 1370     		strb	r3, [r2]
 403:Generated_Source\PSoC6\pdl\middleware\ble/cy_ble_event_handler.c ****             #endif /*((CY_BLE_GAP_ROLE_PERIPHERAL || CY_BLE_GAP_ROLE_CENTRAL))*/
 404:Generated_Source\PSoC6\pdl\middleware\ble/cy_ble_event_handler.c **** 
 405:Generated_Source\PSoC6\pdl\middleware\ble/cy_ble_event_handler.c ****             /* Adding a delay of 10ms to ensure that the controller is completely
 406:Generated_Source\PSoC6\pdl\middleware\ble/cy_ble_event_handler.c ****              * shut-down before generating the event to the application.
 407:Generated_Source\PSoC6\pdl\middleware\ble/cy_ble_event_handler.c ****              * Refer to CY_BLE_EVT_STACK_SHUTDOWN_COMPLETE event documentation. */
 408:Generated_Source\PSoC6\pdl\middleware\ble/cy_ble_event_handler.c ****             #if(CY_BLE_STACK_MODE_HOST_IPC)
 409:Generated_Source\PSoC6\pdl\middleware\ble/cy_ble_event_handler.c ****                 Cy_SysLib_Delay(10u);
 410:Generated_Source\PSoC6\pdl\middleware\ble/cy_ble_event_handler.c ****             #endif /* CY_BLE_STACK_MODE_HOST_IPC */
 411:Generated_Source\PSoC6\pdl\middleware\ble/cy_ble_event_handler.c **** 
 412:Generated_Source\PSoC6\pdl\middleware\ble/cy_ble_event_handler.c ****             if ( event == CY_BLE_EVT_STACK_SHUTDOWN_COMPLETE)
 664              		.loc 1 412 0
 665 01ce 5F4B     		ldr	r3, .L99+32
 666 01d0 9C42     		cmp	r4, r3
 667 01d2 00D0     		beq	.LCB637
 668 01d4 34E2     		b	.L31	@long jump
 669              	.LCB637:
 413:Generated_Source\PSoC6\pdl\middleware\ble/cy_ble_event_handler.c ****             {
 414:Generated_Source\PSoC6\pdl\middleware\ble/cy_ble_event_handler.c ****                 /* Unregister BLE callback for Deepsleep/Sleep */
 415:Generated_Source\PSoC6\pdl\middleware\ble/cy_ble_event_handler.c ****                 Cy_BLE_UnregisterHostPMCallbacks();
ARM GAS  C:\Users\Smaug\AppData\Local\Temp\ccVZzAJS.s 			page 34


 670              		.loc 1 415 0
 671 01d6 FFF7FEFF 		bl	Cy_BLE_UnregisterHostPMCallbacks
 672              	.LVL61:
 673 01da 31E2     		b	.L31
 674              	.LVL62:
 675              	.L41:
 416:Generated_Source\PSoC6\pdl\middleware\ble/cy_ble_event_handler.c ****             }
 417:Generated_Source\PSoC6\pdl\middleware\ble/cy_ble_event_handler.c ****             break;
 418:Generated_Source\PSoC6\pdl\middleware\ble/cy_ble_event_handler.c **** 
 419:Generated_Source\PSoC6\pdl\middleware\ble/cy_ble_event_handler.c ****         case CY_BLE_EVT_LE_SET_EVENT_MASK_COMPLETE:
 420:Generated_Source\PSoC6\pdl\middleware\ble/cy_ble_event_handler.c ****         #if (CY_BLE_MODE_PROFILE)
 421:Generated_Source\PSoC6\pdl\middleware\ble/cy_ble_event_handler.c ****             {
 422:Generated_Source\PSoC6\pdl\middleware\ble/cy_ble_event_handler.c ****                 if((cy_ble_cmdStatus & CY_BLE_STATUS_SET_TX_PWR_LVL) == 0u)
 676              		.loc 1 422 0
 677 01dc 744B     		ldr	r3, .L99+132
 678 01de 1B68     		ldr	r3, [r3]
 679 01e0 DB07     		lsls	r3, r3, #31
 680 01e2 00D5     		bpl	.LCB651
 681 01e4 2CE2     		b	.L31	@long jump
 682              	.LCB651:
 683              	.LBB87:
 423:Generated_Source\PSoC6\pdl\middleware\ble/cy_ble_event_handler.c ****                 {
 424:Generated_Source\PSoC6\pdl\middleware\ble/cy_ble_event_handler.c ****                     cy_stc_ble_tx_pwr_lvl_info_t bleSsPowerLevel = { .pwrConfigParam.bdHandle = 0x0
 684              		.loc 1 424 0
 685 01e6 04AE     		add	r6, sp, #16
 686 01e8 0322     		movs	r2, #3
 687 01ea 0021     		movs	r1, #0
 688 01ec 3000     		movs	r0, r6
 689              	.LVL63:
 690 01ee FFF7FEFF 		bl	memset
 691              	.LVL64:
 425:Generated_Source\PSoC6\pdl\middleware\ble/cy_ble_event_handler.c **** 
 426:Generated_Source\PSoC6\pdl\middleware\ble/cy_ble_event_handler.c ****                     /* Set the Tx Power Level for advertising and connection channels */
 427:Generated_Source\PSoC6\pdl\middleware\ble/cy_ble_event_handler.c ****                     bleSsPowerLevel.blePwrLevel = cy_ble_configPtr->params->txPowerLevelAdv;
 692              		.loc 1 427 0
 693 01f2 674F     		ldr	r7, .L99+100
 694 01f4 3B68     		ldr	r3, [r7]
 695 01f6 9B6A     		ldr	r3, [r3, #40]
 696 01f8 1B78     		ldrb	r3, [r3]
 697 01fa 5BB2     		sxtb	r3, r3
 698 01fc 3370     		strb	r3, [r6]
 428:Generated_Source\PSoC6\pdl\middleware\ble/cy_ble_event_handler.c ****                     bleSsPowerLevel.pwrConfigParam.bleSsChId = CY_BLE_LL_ADV_CH_TYPE;
 429:Generated_Source\PSoC6\pdl\middleware\ble/cy_ble_event_handler.c ****                     (void)Cy_BLE_SetTxPowerLevel(&bleSsPowerLevel);
 699              		.loc 1 429 0
 700 01fe 3000     		movs	r0, r6
 701 0200 FFF7FEFF 		bl	Cy_BLE_SetTxPowerLevel
 702              	.LVL65:
 430:Generated_Source\PSoC6\pdl\middleware\ble/cy_ble_event_handler.c **** 
 431:Generated_Source\PSoC6\pdl\middleware\ble/cy_ble_event_handler.c ****                     bleSsPowerLevel.blePwrLevel = cy_ble_configPtr->params->txPowerLevelConn;
 703              		.loc 1 431 0
 704 0204 3B68     		ldr	r3, [r7]
 705 0206 9B6A     		ldr	r3, [r3, #40]
 706 0208 5B78     		ldrb	r3, [r3, #1]
 707 020a 5BB2     		sxtb	r3, r3
 708 020c 3370     		strb	r3, [r6]
 432:Generated_Source\PSoC6\pdl\middleware\ble/cy_ble_event_handler.c ****                     bleSsPowerLevel.pwrConfigParam.bleSsChId = CY_BLE_LL_CONN_CH_TYPE;
 709              		.loc 1 432 0
ARM GAS  C:\Users\Smaug\AppData\Local\Temp\ccVZzAJS.s 			page 35


 710 020e 0127     		movs	r7, #1
 711 0210 7770     		strb	r7, [r6, #1]
 433:Generated_Source\PSoC6\pdl\middleware\ble/cy_ble_event_handler.c ****                     bleSsPowerLevel.pwrConfigParam.bdHandle = 0xFFu; /* Set the tx power level valu
 712              		.loc 1 433 0
 713 0212 FF23     		movs	r3, #255
 714 0214 B370     		strb	r3, [r6, #2]
 434:Generated_Source\PSoC6\pdl\middleware\ble/cy_ble_event_handler.c ****                     (void)Cy_BLE_SetTxPowerLevel(&bleSsPowerLevel);
 715              		.loc 1 434 0
 716 0216 3000     		movs	r0, r6
 717 0218 FFF7FEFF 		bl	Cy_BLE_SetTxPowerLevel
 718              	.LVL66:
 435:Generated_Source\PSoC6\pdl\middleware\ble/cy_ble_event_handler.c **** 
 436:Generated_Source\PSoC6\pdl\middleware\ble/cy_ble_event_handler.c ****                     /* Set flag that executed Cy_BLE_SetTxPowerLevel during BLE start-up  */
 437:Generated_Source\PSoC6\pdl\middleware\ble/cy_ble_event_handler.c ****                     cy_ble_cmdStatus |= CY_BLE_STATUS_SET_TX_PWR_LVL;
 719              		.loc 1 437 0
 720 021c 644B     		ldr	r3, .L99+132
 721 021e 1A68     		ldr	r2, [r3]
 722 0220 1743     		orrs	r7, r2
 723 0222 1F60     		str	r7, [r3]
 724 0224 0CE2     		b	.L31
 725              	.LVL67:
 726              	.L39:
 727              	.LBE87:
 438:Generated_Source\PSoC6\pdl\middleware\ble/cy_ble_event_handler.c ****                 }
 439:Generated_Source\PSoC6\pdl\middleware\ble/cy_ble_event_handler.c ****             }
 440:Generated_Source\PSoC6\pdl\middleware\ble/cy_ble_event_handler.c ****         #endif /* CY_BLE_MODE_PROFILE */
 441:Generated_Source\PSoC6\pdl\middleware\ble/cy_ble_event_handler.c ****             break;
 442:Generated_Source\PSoC6\pdl\middleware\ble/cy_ble_event_handler.c **** 
 443:Generated_Source\PSoC6\pdl\middleware\ble/cy_ble_event_handler.c ****         case CY_BLE_EVT_TIMEOUT:
 444:Generated_Source\PSoC6\pdl\middleware\ble/cy_ble_event_handler.c ****             Cy_BLE_TimeOutEventHandler((cy_stc_ble_timeout_param_t*)evParam);
 445:Generated_Source\PSoC6\pdl\middleware\ble/cy_ble_event_handler.c ****         #if (CY_BLE_GAP_ROLE_PERIPHERAL || CY_BLE_GAP_ROLE_CENTRAL)
 446:Generated_Source\PSoC6\pdl\middleware\ble/cy_ble_event_handler.c ****             (void)Cy_BLE_InvokeServiceEventHandler((uint32_t)event, (void*)evParam);
 728              		.loc 1 446 0
 729 0226 2900     		movs	r1, r5
 730 0228 FFF7FEFF 		bl	Cy_BLE_InvokeServiceEventHandler
 731              	.LVL68:
 447:Generated_Source\PSoC6\pdl\middleware\ble/cy_ble_event_handler.c ****         #endif /*(CY_BLE_GAP_ROLE_PERIPHERAL || CY_BLE_GAP_ROLE_CENTRAL)*/
 448:Generated_Source\PSoC6\pdl\middleware\ble/cy_ble_event_handler.c ****             break;
 732              		.loc 1 448 0
 733 022c 08E2     		b	.L31
 734              	.LVL69:
 735              	.L36:
 449:Generated_Source\PSoC6\pdl\middleware\ble/cy_ble_event_handler.c **** 
 450:Generated_Source\PSoC6\pdl\middleware\ble/cy_ble_event_handler.c ****         case CY_BLE_EVT_STACK_BUSY_STATUS:
 451:Generated_Source\PSoC6\pdl\middleware\ble/cy_ble_event_handler.c ****         #if (CY_BLE_GAP_ROLE_PERIPHERAL || CY_BLE_GAP_ROLE_CENTRAL)
 452:Generated_Source\PSoC6\pdl\middleware\ble/cy_ble_event_handler.c ****             cy_ble_busyStatus[Cy_BLE_GetConnHandleByBdHandle(((cy_stc_ble_l2cap_state_info_t*)evPar
 736              		.loc 1 452 0
 737 022e 6B78     		ldrb	r3, [r5, #1]
 738 0230 9846     		mov	r8, r3
 739              	.LVL70:
 740              	.LBB88:
 741              	.LBB89:
 764:Generated_Source\PSoC6\pdl\middleware\ble/cy_ble_gap.h **** }
 765:Generated_Source\PSoC6\pdl\middleware\ble/cy_ble_gap.h **** /** \endcond */
 766:Generated_Source\PSoC6\pdl\middleware\ble/cy_ble_gap.h **** 
 767:Generated_Source\PSoC6\pdl\middleware\ble/cy_ble_gap.h **** #endif /* (CY_BLE_GAP_ROLE_PERIPHERAL || CY_BLE_GAP_ROLE_BROADCASTER) */
 768:Generated_Source\PSoC6\pdl\middleware\ble/cy_ble_gap.h **** 
ARM GAS  C:\Users\Smaug\AppData\Local\Temp\ccVZzAJS.s 			page 36


 769:Generated_Source\PSoC6\pdl\middleware\ble/cy_ble_gap.h **** #if (CY_BLE_GAP_ROLE_CENTRAL || CY_BLE_GAP_ROLE_OBSERVER)
 770:Generated_Source\PSoC6\pdl\middleware\ble/cy_ble_gap.h **** 
 771:Generated_Source\PSoC6\pdl\middleware\ble/cy_ble_gap.h **** /******************************************************************************
 772:Generated_Source\PSoC6\pdl\middleware\ble/cy_ble_gap.h **** * Function Name: Cy_BLE_GetScanState
 773:Generated_Source\PSoC6\pdl\middleware\ble/cy_ble_gap.h **** ***************************************************************************//**
 774:Generated_Source\PSoC6\pdl\middleware\ble/cy_ble_gap.h **** *
 775:Generated_Source\PSoC6\pdl\middleware\ble/cy_ble_gap.h **** *  This returns the state of the link layer hardware scan engine.
 776:Generated_Source\PSoC6\pdl\middleware\ble/cy_ble_gap.h **** *
 777:Generated_Source\PSoC6\pdl\middleware\ble/cy_ble_gap.h **** *  \image html ble_scanning_state_machine.png
 778:Generated_Source\PSoC6\pdl\middleware\ble/cy_ble_gap.h **** *
 779:Generated_Source\PSoC6\pdl\middleware\ble/cy_ble_gap.h **** *  When Cy_BLE_GAPC_StartScan() is called the state is set to
 780:Generated_Source\PSoC6\pdl\middleware\ble/cy_ble_gap.h **** *  #CY_BLE_SCAN_STATE_SCAN_INITIATED. It automatically changes to
 781:Generated_Source\PSoC6\pdl\middleware\ble/cy_ble_gap.h **** *  #CY_BLE_SCAN_STATE_SCANNING when the #CY_BLE_EVT_GAPC_SCAN_START_STOP event is
 782:Generated_Source\PSoC6\pdl\middleware\ble/cy_ble_gap.h **** *  received.
 783:Generated_Source\PSoC6\pdl\middleware\ble/cy_ble_gap.h **** *  When Cy_BLE_GAPC_StopScan() is called, the state is set to
 784:Generated_Source\PSoC6\pdl\middleware\ble/cy_ble_gap.h **** *  #CY_BLE_SCAN_STATE_STOP_INITIATED. It automatically changes to
 785:Generated_Source\PSoC6\pdl\middleware\ble/cy_ble_gap.h **** *  #CY_BLE_SCAN_STATE_STOPPED when the #CY_BLE_EVT_GAPC_SCAN_START_STOP event is
 786:Generated_Source\PSoC6\pdl\middleware\ble/cy_ble_gap.h **** *  received.
 787:Generated_Source\PSoC6\pdl\middleware\ble/cy_ble_gap.h **** *
 788:Generated_Source\PSoC6\pdl\middleware\ble/cy_ble_gap.h **** *  \return
 789:Generated_Source\PSoC6\pdl\middleware\ble/cy_ble_gap.h **** *  \ref cy_en_ble_scan_state_t : The current scan state. The following are
 790:Generated_Source\PSoC6\pdl\middleware\ble/cy_ble_gap.h **** *                                possible states.
 791:Generated_Source\PSoC6\pdl\middleware\ble/cy_ble_gap.h **** *
 792:Generated_Source\PSoC6\pdl\middleware\ble/cy_ble_gap.h **** *               State                |         Description
 793:Generated_Source\PSoC6\pdl\middleware\ble/cy_ble_gap.h **** *   -------------------------------- | -----------------------------
 794:Generated_Source\PSoC6\pdl\middleware\ble/cy_ble_gap.h **** *   CY_BLE_SCAN_STATE_STOPPED        | Scanning is stopped.
 795:Generated_Source\PSoC6\pdl\middleware\ble/cy_ble_gap.h **** *   CY_BLE_SCAN_STATE_SCAN_INITIATED | Scanning is initiated.
 796:Generated_Source\PSoC6\pdl\middleware\ble/cy_ble_gap.h **** *   CY_BLE_SCAN_STATE_SCANNING       | Scanning process.
 797:Generated_Source\PSoC6\pdl\middleware\ble/cy_ble_gap.h **** *   CY_BLE_SCAN_STATE_STOP_INITIATED | Stop scanning is initiated.
 798:Generated_Source\PSoC6\pdl\middleware\ble/cy_ble_gap.h **** *
 799:Generated_Source\PSoC6\pdl\middleware\ble/cy_ble_gap.h **** ******************************************************************************/
 800:Generated_Source\PSoC6\pdl\middleware\ble/cy_ble_gap.h **** __STATIC_INLINE cy_en_ble_scan_state_t Cy_BLE_GetScanState(void)
 801:Generated_Source\PSoC6\pdl\middleware\ble/cy_ble_gap.h **** {
 802:Generated_Source\PSoC6\pdl\middleware\ble/cy_ble_gap.h ****     return(cy_ble_scanState);
 803:Generated_Source\PSoC6\pdl\middleware\ble/cy_ble_gap.h **** }
 804:Generated_Source\PSoC6\pdl\middleware\ble/cy_ble_gap.h **** 
 805:Generated_Source\PSoC6\pdl\middleware\ble/cy_ble_gap.h **** /** \cond IGNORE */
 806:Generated_Source\PSoC6\pdl\middleware\ble/cy_ble_gap.h **** /******************************************************************************
 807:Generated_Source\PSoC6\pdl\middleware\ble/cy_ble_gap.h **** * Function Name: Cy_BLE_SetScanState
 808:Generated_Source\PSoC6\pdl\middleware\ble/cy_ble_gap.h **** ***************************************************************************//**
 809:Generated_Source\PSoC6\pdl\middleware\ble/cy_ble_gap.h **** *
 810:Generated_Source\PSoC6\pdl\middleware\ble/cy_ble_gap.h **** *  Used to set the state of the link layer hardware scan engine.
 811:Generated_Source\PSoC6\pdl\middleware\ble/cy_ble_gap.h **** *
 812:Generated_Source\PSoC6\pdl\middleware\ble/cy_ble_gap.h **** *  \param state: The desired state.
 813:Generated_Source\PSoC6\pdl\middleware\ble/cy_ble_gap.h **** *
 814:Generated_Source\PSoC6\pdl\middleware\ble/cy_ble_gap.h **** *  \return
 815:Generated_Source\PSoC6\pdl\middleware\ble/cy_ble_gap.h **** *  None
 816:Generated_Source\PSoC6\pdl\middleware\ble/cy_ble_gap.h **** *
 817:Generated_Source\PSoC6\pdl\middleware\ble/cy_ble_gap.h **** ******************************************************************************/
 818:Generated_Source\PSoC6\pdl\middleware\ble/cy_ble_gap.h **** __STATIC_INLINE void Cy_BLE_SetScanState(cy_en_ble_scan_state_t state)
 819:Generated_Source\PSoC6\pdl\middleware\ble/cy_ble_gap.h **** {
 820:Generated_Source\PSoC6\pdl\middleware\ble/cy_ble_gap.h ****     cy_ble_scanState = state;
 821:Generated_Source\PSoC6\pdl\middleware\ble/cy_ble_gap.h **** }
 822:Generated_Source\PSoC6\pdl\middleware\ble/cy_ble_gap.h **** /** \endcond */
 823:Generated_Source\PSoC6\pdl\middleware\ble/cy_ble_gap.h **** 
 824:Generated_Source\PSoC6\pdl\middleware\ble/cy_ble_gap.h **** #endif  /* (CY_BLE_GAP_ROLE_CENTRAL || CY_BLE_GAP_ROLE_OBSERVER) */
 825:Generated_Source\PSoC6\pdl\middleware\ble/cy_ble_gap.h **** 
ARM GAS  C:\Users\Smaug\AppData\Local\Temp\ccVZzAJS.s 			page 37


 826:Generated_Source\PSoC6\pdl\middleware\ble/cy_ble_gap.h **** 
 827:Generated_Source\PSoC6\pdl\middleware\ble/cy_ble_gap.h **** #if ((CY_BLE_GAP_ROLE_PERIPHERAL || CY_BLE_GAP_ROLE_CENTRAL))
 828:Generated_Source\PSoC6\pdl\middleware\ble/cy_ble_gap.h **** 
 829:Generated_Source\PSoC6\pdl\middleware\ble/cy_ble_gap.h **** /******************************************************************************
 830:Generated_Source\PSoC6\pdl\middleware\ble/cy_ble_gap.h **** * Function Name: Cy_BLE_GetConnectionState
 831:Generated_Source\PSoC6\pdl\middleware\ble/cy_ble_gap.h **** ***************************************************************************//**
 832:Generated_Source\PSoC6\pdl\middleware\ble/cy_ble_gap.h **** *  This function returns the state of the BLE link for the specified connection
 833:Generated_Source\PSoC6\pdl\middleware\ble/cy_ble_gap.h **** *  handle.
 834:Generated_Source\PSoC6\pdl\middleware\ble/cy_ble_gap.h **** *
 835:Generated_Source\PSoC6\pdl\middleware\ble/cy_ble_gap.h **** *  The state is set to #CY_BLE_CONN_STATE_CONNECTED when #CY_BLE_EVT_GATT_CONNECT_IND
 836:Generated_Source\PSoC6\pdl\middleware\ble/cy_ble_gap.h **** *  event is received with the corresponding connection handle.
 837:Generated_Source\PSoC6\pdl\middleware\ble/cy_ble_gap.h **** *  The state is set to #CY_BLE_CONN_STATE_DISCONNECTED when the
 838:Generated_Source\PSoC6\pdl\middleware\ble/cy_ble_gap.h **** *  #CY_BLE_EVT_GATT_DISCONNECT_IND event is received.
 839:Generated_Source\PSoC6\pdl\middleware\ble/cy_ble_gap.h **** *
 840:Generated_Source\PSoC6\pdl\middleware\ble/cy_ble_gap.h **** *  For GATT Client role when Cy_BLE_GATTC_StartDiscovery() is called, the state
 841:Generated_Source\PSoC6\pdl\middleware\ble/cy_ble_gap.h **** *  indicates the current flow of the discovery procedure by
 842:Generated_Source\PSoC6\pdl\middleware\ble/cy_ble_gap.h **** *  #CY_BLE_CONN_STATE_CLIENT_SRVC_DISCOVERING,
 843:Generated_Source\PSoC6\pdl\middleware\ble/cy_ble_gap.h **** *  #CY_BLE_CONN_STATE_CLIENT_INCL_DISCOVERING,
 844:Generated_Source\PSoC6\pdl\middleware\ble/cy_ble_gap.h **** *  #CY_BLE_CONN_STATE_CLIENT_CHAR_DISCOVERING,
 845:Generated_Source\PSoC6\pdl\middleware\ble/cy_ble_gap.h **** *  #CY_BLE_CONN_STATE_CLIENT_DESCR_DISCOVERING and changes to
 846:Generated_Source\PSoC6\pdl\middleware\ble/cy_ble_gap.h **** *  #CY_BLE_CONN_STATE_CLIENT_DISCOVERED when the procedure successfully completes.
 847:Generated_Source\PSoC6\pdl\middleware\ble/cy_ble_gap.h **** *
 848:Generated_Source\PSoC6\pdl\middleware\ble/cy_ble_gap.h **** *  The state changes from #CY_BLE_CONN_STATE_CLIENT_DISCOVERED to
 849:Generated_Source\PSoC6\pdl\middleware\ble/cy_ble_gap.h **** *  #CY_BLE_CONN_STATE_CLIENT_DISCONNECTED_DISCOVERED when
 850:Generated_Source\PSoC6\pdl\middleware\ble/cy_ble_gap.h **** *  the #CY_BLE_EVT_GATT_DISCONNECT_IND event is received.
 851:Generated_Source\PSoC6\pdl\middleware\ble/cy_ble_gap.h **** *  The state comes backs to #CY_BLE_CONN_STATE_CLIENT_DISCOVERED when
 852:Generated_Source\PSoC6\pdl\middleware\ble/cy_ble_gap.h **** *  #CY_BLE_EVT_GATT_CONNECT_IND event is received and resolvable device
 853:Generated_Source\PSoC6\pdl\middleware\ble/cy_ble_gap.h **** *  address is not changed.
 854:Generated_Source\PSoC6\pdl\middleware\ble/cy_ble_gap.h **** *
 855:Generated_Source\PSoC6\pdl\middleware\ble/cy_ble_gap.h **** *  \param connHandle: The connection handle.
 856:Generated_Source\PSoC6\pdl\middleware\ble/cy_ble_gap.h **** *
 857:Generated_Source\PSoC6\pdl\middleware\ble/cy_ble_gap.h **** * \return
 858:Generated_Source\PSoC6\pdl\middleware\ble/cy_ble_gap.h **** * \ref cy_en_ble_conn_state_t : The current client state. The following are
 859:Generated_Source\PSoC6\pdl\middleware\ble/cy_ble_gap.h **** *                               possible states.
 860:Generated_Source\PSoC6\pdl\middleware\ble/cy_ble_gap.h **** *
 861:Generated_Source\PSoC6\pdl\middleware\ble/cy_ble_gap.h **** *               State                                |         Description
 862:Generated_Source\PSoC6\pdl\middleware\ble/cy_ble_gap.h **** *   ------------------------------------------------ | -----------------------------
 863:Generated_Source\PSoC6\pdl\middleware\ble/cy_ble_gap.h **** *   CY_BLE_CONN_STATE_DISCONNECTED                   | Essentially idle state
 864:Generated_Source\PSoC6\pdl\middleware\ble/cy_ble_gap.h **** *   CY_BLE_CONN_STATE_CLIENT_DISCONNECTED_DISCOVERED | Server is disconnected but discovered.
 865:Generated_Source\PSoC6\pdl\middleware\ble/cy_ble_gap.h **** *   CY_BLE_CONN_STATE_CONNECTED                      | Peer device is connected for this and follow
 866:Generated_Source\PSoC6\pdl\middleware\ble/cy_ble_gap.h **** *   CY_BLE_CONN_STATE_CLIENT_SRVC_DISCOVERING        | Server services are being discovered.
 867:Generated_Source\PSoC6\pdl\middleware\ble/cy_ble_gap.h **** *   CY_BLE_CONN_STATE_CLIENT_INCL_DISCOVERING        | Server included services are being discovere
 868:Generated_Source\PSoC6\pdl\middleware\ble/cy_ble_gap.h **** *   CY_BLE_CONN_STATE_CLIENT_CHAR_DISCOVERING        | Server characteristics are being discovered
 869:Generated_Source\PSoC6\pdl\middleware\ble/cy_ble_gap.h **** *   CY_BLE_CONN_STATE_CLIENT_DESCR_DISCOVERING       | Server char. descriptors are being discovere
 870:Generated_Source\PSoC6\pdl\middleware\ble/cy_ble_gap.h **** *   CY_BLE_CONN_STATE_CLIENT_DISCOVERED              | Server is discovered
 871:Generated_Source\PSoC6\pdl\middleware\ble/cy_ble_gap.h **** *
 872:Generated_Source\PSoC6\pdl\middleware\ble/cy_ble_gap.h **** *  \funcusage
 873:Generated_Source\PSoC6\pdl\middleware\ble/cy_ble_gap.h **** *  \snippet ble\3.0\snippet\main.c BLE Common API: Cy_BLE_GetConnectionState()
 874:Generated_Source\PSoC6\pdl\middleware\ble/cy_ble_gap.h **** *
 875:Generated_Source\PSoC6\pdl\middleware\ble/cy_ble_gap.h **** ******************************************************************************/
 876:Generated_Source\PSoC6\pdl\middleware\ble/cy_ble_gap.h **** __STATIC_INLINE cy_en_ble_conn_state_t Cy_BLE_GetConnectionState(cy_stc_ble_conn_handle_t connHandl
 877:Generated_Source\PSoC6\pdl\middleware\ble/cy_ble_gap.h **** {
 878:Generated_Source\PSoC6\pdl\middleware\ble/cy_ble_gap.h ****     return((connHandle.attId < CY_BLE_CONN_COUNT) ? cy_ble_connState[connHandle.attId] : CY_BLE_CON
 879:Generated_Source\PSoC6\pdl\middleware\ble/cy_ble_gap.h **** }
 880:Generated_Source\PSoC6\pdl\middleware\ble/cy_ble_gap.h **** 
 881:Generated_Source\PSoC6\pdl\middleware\ble/cy_ble_gap.h **** /** \cond IGNORE */
 882:Generated_Source\PSoC6\pdl\middleware\ble/cy_ble_gap.h **** /******************************************************************************
ARM GAS  C:\Users\Smaug\AppData\Local\Temp\ccVZzAJS.s 			page 38


 883:Generated_Source\PSoC6\pdl\middleware\ble/cy_ble_gap.h **** * Function Name: Cy_BLE_SetConnectionState
 884:Generated_Source\PSoC6\pdl\middleware\ble/cy_ble_gap.h **** ***************************************************************************//**
 885:Generated_Source\PSoC6\pdl\middleware\ble/cy_ble_gap.h **** *
 886:Generated_Source\PSoC6\pdl\middleware\ble/cy_ble_gap.h **** *  Used to set BLE link state for the specified connection handle.
 887:Generated_Source\PSoC6\pdl\middleware\ble/cy_ble_gap.h **** *
 888:Generated_Source\PSoC6\pdl\middleware\ble/cy_ble_gap.h **** *  \param connHandle: Peer device handle
 889:Generated_Source\PSoC6\pdl\middleware\ble/cy_ble_gap.h **** *  \param state:  The state that is desired to be set
 890:Generated_Source\PSoC6\pdl\middleware\ble/cy_ble_gap.h **** *
 891:Generated_Source\PSoC6\pdl\middleware\ble/cy_ble_gap.h **** ******************************************************************************/
 892:Generated_Source\PSoC6\pdl\middleware\ble/cy_ble_gap.h **** __STATIC_INLINE void Cy_BLE_SetConnectionState(cy_stc_ble_conn_handle_t connHandle,
 893:Generated_Source\PSoC6\pdl\middleware\ble/cy_ble_gap.h ****                                                cy_en_ble_conn_state_t state)
 894:Generated_Source\PSoC6\pdl\middleware\ble/cy_ble_gap.h **** {
 895:Generated_Source\PSoC6\pdl\middleware\ble/cy_ble_gap.h ****     if(connHandle.attId < CY_BLE_CONN_COUNT)
 896:Generated_Source\PSoC6\pdl\middleware\ble/cy_ble_gap.h ****     {
 897:Generated_Source\PSoC6\pdl\middleware\ble/cy_ble_gap.h ****         cy_ble_connState[connHandle.attId] = state;
 898:Generated_Source\PSoC6\pdl\middleware\ble/cy_ble_gap.h ****     }
 899:Generated_Source\PSoC6\pdl\middleware\ble/cy_ble_gap.h ****     else
 900:Generated_Source\PSoC6\pdl\middleware\ble/cy_ble_gap.h ****     {
 901:Generated_Source\PSoC6\pdl\middleware\ble/cy_ble_gap.h ****         /* Halt in debug mode*/
 902:Generated_Source\PSoC6\pdl\middleware\ble/cy_ble_gap.h ****         CY_ASSERT(connHandle.attId >= CY_BLE_CONN_COUNT);
 903:Generated_Source\PSoC6\pdl\middleware\ble/cy_ble_gap.h ****     }
 904:Generated_Source\PSoC6\pdl\middleware\ble/cy_ble_gap.h **** }
 905:Generated_Source\PSoC6\pdl\middleware\ble/cy_ble_gap.h **** /** \endcond */
 906:Generated_Source\PSoC6\pdl\middleware\ble/cy_ble_gap.h **** 
 907:Generated_Source\PSoC6\pdl\middleware\ble/cy_ble_gap.h **** /******************************************************************************
 908:Generated_Source\PSoC6\pdl\middleware\ble/cy_ble_gap.h **** * Function Name: Cy_BLE_GetNumOfActiveConn
 909:Generated_Source\PSoC6\pdl\middleware\ble/cy_ble_gap.h **** ***************************************************************************//**
 910:Generated_Source\PSoC6\pdl\middleware\ble/cy_ble_gap.h **** *
 911:Generated_Source\PSoC6\pdl\middleware\ble/cy_ble_gap.h **** *  Used to get active number of connections.
 912:Generated_Source\PSoC6\pdl\middleware\ble/cy_ble_gap.h **** *
 913:Generated_Source\PSoC6\pdl\middleware\ble/cy_ble_gap.h **** *  \return
 914:Generated_Source\PSoC6\pdl\middleware\ble/cy_ble_gap.h **** *  connNum - number of active connections
 915:Generated_Source\PSoC6\pdl\middleware\ble/cy_ble_gap.h **** *
 916:Generated_Source\PSoC6\pdl\middleware\ble/cy_ble_gap.h **** ******************************************************************************/
 917:Generated_Source\PSoC6\pdl\middleware\ble/cy_ble_gap.h **** __STATIC_INLINE uint8_t Cy_BLE_GetNumOfActiveConn(void)
 918:Generated_Source\PSoC6\pdl\middleware\ble/cy_ble_gap.h **** {
 919:Generated_Source\PSoC6\pdl\middleware\ble/cy_ble_gap.h ****     uint32_t i;
 920:Generated_Source\PSoC6\pdl\middleware\ble/cy_ble_gap.h ****     uint8_t connNum = 0u;
 921:Generated_Source\PSoC6\pdl\middleware\ble/cy_ble_gap.h **** 
 922:Generated_Source\PSoC6\pdl\middleware\ble/cy_ble_gap.h ****     for(i = 0u; i < CY_BLE_CONN_COUNT; i++)
 923:Generated_Source\PSoC6\pdl\middleware\ble/cy_ble_gap.h ****     {
 924:Generated_Source\PSoC6\pdl\middleware\ble/cy_ble_gap.h ****         if(cy_ble_connState[i] >= CY_BLE_CONN_STATE_CONNECTED)
 925:Generated_Source\PSoC6\pdl\middleware\ble/cy_ble_gap.h ****         {
 926:Generated_Source\PSoC6\pdl\middleware\ble/cy_ble_gap.h ****             connNum++;
 927:Generated_Source\PSoC6\pdl\middleware\ble/cy_ble_gap.h ****         }
 928:Generated_Source\PSoC6\pdl\middleware\ble/cy_ble_gap.h ****     }
 929:Generated_Source\PSoC6\pdl\middleware\ble/cy_ble_gap.h **** 
 930:Generated_Source\PSoC6\pdl\middleware\ble/cy_ble_gap.h ****     return(connNum);
 931:Generated_Source\PSoC6\pdl\middleware\ble/cy_ble_gap.h **** }
 932:Generated_Source\PSoC6\pdl\middleware\ble/cy_ble_gap.h **** 
 933:Generated_Source\PSoC6\pdl\middleware\ble/cy_ble_gap.h **** 
 934:Generated_Source\PSoC6\pdl\middleware\ble/cy_ble_gap.h **** /******************************************************************************
 935:Generated_Source\PSoC6\pdl\middleware\ble/cy_ble_gap.h **** * Function Name: Cy_BLE_GetConnHandleByBdHandle
 936:Generated_Source\PSoC6\pdl\middleware\ble/cy_ble_gap.h **** ***************************************************************************//**
 937:Generated_Source\PSoC6\pdl\middleware\ble/cy_ble_gap.h **** *
 938:Generated_Source\PSoC6\pdl\middleware\ble/cy_ble_gap.h **** *  Used to get connection handle by bdHandle
 939:Generated_Source\PSoC6\pdl\middleware\ble/cy_ble_gap.h **** *  This function halts in debug mode if bdHandle does not exist in the connected device
ARM GAS  C:\Users\Smaug\AppData\Local\Temp\ccVZzAJS.s 			page 39


 940:Generated_Source\PSoC6\pdl\middleware\ble/cy_ble_gap.h **** *  list
 941:Generated_Source\PSoC6\pdl\middleware\ble/cy_ble_gap.h **** *
 942:Generated_Source\PSoC6\pdl\middleware\ble/cy_ble_gap.h **** *  \param bdHandle: Peer device handle
 943:Generated_Source\PSoC6\pdl\middleware\ble/cy_ble_gap.h **** *
 944:Generated_Source\PSoC6\pdl\middleware\ble/cy_ble_gap.h **** *  \return
 945:Generated_Source\PSoC6\pdl\middleware\ble/cy_ble_gap.h **** *  * connHandle: Full connection handle.
 946:Generated_Source\PSoC6\pdl\middleware\ble/cy_ble_gap.h **** *  * connHandle.attId = CY_BLE_INVALID_CONN_HANDLE_VALUE: invalid bdHandle
 947:Generated_Source\PSoC6\pdl\middleware\ble/cy_ble_gap.h **** *
 948:Generated_Source\PSoC6\pdl\middleware\ble/cy_ble_gap.h **** ******************************************************************************/
 949:Generated_Source\PSoC6\pdl\middleware\ble/cy_ble_gap.h **** __STATIC_INLINE cy_stc_ble_conn_handle_t Cy_BLE_GetConnHandleByBdHandle(uint8_t bdHandle)
 950:Generated_Source\PSoC6\pdl\middleware\ble/cy_ble_gap.h **** {
 951:Generated_Source\PSoC6\pdl\middleware\ble/cy_ble_gap.h ****     uint32_t i;
 952:Generated_Source\PSoC6\pdl\middleware\ble/cy_ble_gap.h ****     cy_stc_ble_conn_handle_t cHandle =
 742              		.loc 2 952 0
 743 0232 0222     		movs	r2, #2
 744 0234 5A49     		ldr	r1, .L99+116
 745 0236 0831     		adds	r1, r1, #8
 746 0238 04A8     		add	r0, sp, #16
 747              	.LVL71:
 748 023a FFF7FEFF 		bl	memcpy
 749              	.LVL72:
 953:Generated_Source\PSoC6\pdl\middleware\ble/cy_ble_gap.h ****     {
 954:Generated_Source\PSoC6\pdl\middleware\ble/cy_ble_gap.h ****         .attId    = CY_BLE_INVALID_CONN_HANDLE_VALUE,
 955:Generated_Source\PSoC6\pdl\middleware\ble/cy_ble_gap.h ****         .bdHandle = CY_BLE_INVALID_CONN_HANDLE_VALUE
 956:Generated_Source\PSoC6\pdl\middleware\ble/cy_ble_gap.h ****     };
 957:Generated_Source\PSoC6\pdl\middleware\ble/cy_ble_gap.h **** 
 958:Generated_Source\PSoC6\pdl\middleware\ble/cy_ble_gap.h ****     for(i = 0u; i < CY_BLE_CONN_COUNT; i++)
 750              		.loc 2 958 0
 751 023e 0026     		movs	r6, #0
 752 0240 1DE0     		b	.L64
 753              	.LVL73:
 754              	.L68:
 755 0242 02AF     		add	r7, sp, #8
 756 0244 7300     		lsls	r3, r6, #1
 757 0246 5B49     		ldr	r1, .L99+136
 758 0248 C918     		adds	r1, r1, r3
 759 024a 0222     		movs	r2, #2
 760 024c 3800     		movs	r0, r7
 761 024e FFF7FEFF 		bl	memcpy
 762              	.LVL74:
 763              	.LBB90:
 764              	.LBB91:
 878:Generated_Source\PSoC6\pdl\middleware\ble/cy_ble_gap.h **** }
 765              		.loc 2 878 0
 766 0252 7B78     		ldrb	r3, [r7, #1]
 767 0254 002B     		cmp	r3, #0
 768 0256 02D1     		bne	.L96
 769 0258 574A     		ldr	r2, .L99+140
 770 025a D35C     		ldrb	r3, [r2, r3]
 771 025c 00E0     		b	.L65
 772              	.L96:
 773 025e 0023     		movs	r3, #0
 774              	.L65:
 775              	.LBE91:
 776              	.LBE90:
 959:Generated_Source\PSoC6\pdl\middleware\ble/cy_ble_gap.h ****     {
 960:Generated_Source\PSoC6\pdl\middleware\ble/cy_ble_gap.h ****         if((Cy_BLE_GetConnectionState(cy_ble_connHandle[i]) >= CY_BLE_CONN_STATE_CONNECTED) &&
ARM GAS  C:\Users\Smaug\AppData\Local\Temp\ccVZzAJS.s 			page 40


 777              		.loc 2 960 0
 778 0260 012B     		cmp	r3, #1
 779 0262 0BD9     		bls	.L66
 961:Generated_Source\PSoC6\pdl\middleware\ble/cy_ble_gap.h ****                 (cy_ble_connHandle[i].bdHandle == bdHandle))
 780              		.loc 2 961 0
 781 0264 7300     		lsls	r3, r6, #1
 782 0266 534A     		ldr	r2, .L99+136
 783 0268 9B5C     		ldrb	r3, [r3, r2]
 960:Generated_Source\PSoC6\pdl\middleware\ble/cy_ble_gap.h ****                 (cy_ble_connHandle[i].bdHandle == bdHandle))
 784              		.loc 2 960 0
 785 026a 9845     		cmp	r8, r3
 786 026c 06D1     		bne	.L66
 962:Generated_Source\PSoC6\pdl\middleware\ble/cy_ble_gap.h ****         {
 963:Generated_Source\PSoC6\pdl\middleware\ble/cy_ble_gap.h ****             cHandle = cy_ble_connHandle[i];
 787              		.loc 2 963 0
 788 026e 7600     		lsls	r6, r6, #1
 789              	.LVL75:
 790 0270 9119     		adds	r1, r2, r6
 791 0272 0222     		movs	r2, #2
 792 0274 04A8     		add	r0, sp, #16
 793 0276 FFF7FEFF 		bl	memcpy
 794              	.LVL76:
 795 027a 02E0     		b	.L67
 796              	.LVL77:
 797              	.L66:
 958:Generated_Source\PSoC6\pdl\middleware\ble/cy_ble_gap.h ****     {
 798              		.loc 2 958 0
 799 027c 0136     		adds	r6, r6, #1
 800              	.LVL78:
 801              	.L64:
 802 027e 002E     		cmp	r6, #0
 803 0280 DFD0     		beq	.L68
 804              	.LVL79:
 805              	.L67:
 964:Generated_Source\PSoC6\pdl\middleware\ble/cy_ble_gap.h ****             break;
 965:Generated_Source\PSoC6\pdl\middleware\ble/cy_ble_gap.h ****         }
 966:Generated_Source\PSoC6\pdl\middleware\ble/cy_ble_gap.h ****     }
 967:Generated_Source\PSoC6\pdl\middleware\ble/cy_ble_gap.h ****     if(cHandle.attId == CY_BLE_INVALID_CONN_HANDLE_VALUE)
 806              		.loc 2 967 0
 807 0282 04AB     		add	r3, sp, #16
 808 0284 5B78     		ldrb	r3, [r3, #1]
 809 0286 FF2B     		cmp	r3, #255
 810 0288 04D1     		bne	.L69
 968:Generated_Source\PSoC6\pdl\middleware\ble/cy_ble_gap.h ****     {
 969:Generated_Source\PSoC6\pdl\middleware\ble/cy_ble_gap.h ****         /* HALT in debug mode */
 970:Generated_Source\PSoC6\pdl\middleware\ble/cy_ble_gap.h ****         CY_ASSERT(cHandle.attId != CY_BLE_INVALID_CONN_HANDLE_VALUE);
 811              		.loc 2 970 0
 812 028a 03D1     		bne	.L69
 813 028c 4B49     		ldr	r1, .L99+144
 814 028e 4C48     		ldr	r0, .L99+148
 815 0290 FFF7FEFF 		bl	Cy_SysLib_AssertFailed
 816              	.LVL80:
 817              	.L69:
 971:Generated_Source\PSoC6\pdl\middleware\ble/cy_ble_gap.h ****     }
 972:Generated_Source\PSoC6\pdl\middleware\ble/cy_ble_gap.h **** 
 973:Generated_Source\PSoC6\pdl\middleware\ble/cy_ble_gap.h ****     return cHandle;
 818              		.loc 2 973 0
ARM GAS  C:\Users\Smaug\AppData\Local\Temp\ccVZzAJS.s 			page 41


 819 0294 04AB     		add	r3, sp, #16
 820 0296 1B88     		ldrh	r3, [r3]
 821 0298 07AA     		add	r2, sp, #28
 822 029a 1380     		strh	r3, [r2]
 823 029c 06AA     		add	r2, sp, #24
 824 029e 1380     		strh	r3, [r2]
 825              	.LVL81:
 826              	.LBE89:
 827              	.LBE88:
 828              		.loc 1 452 0
 829 02a0 1B0A     		lsrs	r3, r3, #8
 453:Generated_Source\PSoC6\pdl\middleware\ble/cy_ble_event_handler.c ****                 ((cy_stc_ble_l2cap_state_info_t*)evParam)->flowState;
 830              		.loc 1 453 0
 831 02a2 2978     		ldrb	r1, [r5]
 452:Generated_Source\PSoC6\pdl\middleware\ble/cy_ble_event_handler.c ****                 ((cy_stc_ble_l2cap_state_info_t*)evParam)->flowState;
 832              		.loc 1 452 0
 833 02a4 474A     		ldr	r2, .L99+152
 834 02a6 D154     		strb	r1, [r2, r3]
 454:Generated_Source\PSoC6\pdl\middleware\ble/cy_ble_event_handler.c ****         #endif /*(CY_BLE_GAP_ROLE_PERIPHERAL || CY_BLE_GAP_ROLE_CENTRAL)*/
 455:Generated_Source\PSoC6\pdl\middleware\ble/cy_ble_event_handler.c ****             break;
 835              		.loc 1 455 0
 836 02a8 CAE1     		b	.L31
 837              	.LVL82:
 838              	.L40:
 839              	.LBB92:
 456:Generated_Source\PSoC6\pdl\middleware\ble/cy_ble_event_handler.c **** 
 457:Generated_Source\PSoC6\pdl\middleware\ble/cy_ble_event_handler.c ****         case CY_BLE_EVT_MEMORY_REQUEST:
 458:Generated_Source\PSoC6\pdl\middleware\ble/cy_ble_event_handler.c ****         #if (CY_BLE_MODE_PROFILE)
 459:Generated_Source\PSoC6\pdl\middleware\ble/cy_ble_event_handler.c ****             {
 460:Generated_Source\PSoC6\pdl\middleware\ble/cy_ble_event_handler.c ****                 cy_stc_ble_memory_request_t *memReq = (cy_stc_ble_memory_request_t*)evParam;
 461:Generated_Source\PSoC6\pdl\middleware\ble/cy_ble_event_handler.c ****                 if(memReq->request == CY_BLE_PREPARED_WRITE_REQUEST)
 840              		.loc 1 461 0
 841 02aa 2B78     		ldrb	r3, [r5]
 842 02ac 002B     		cmp	r3, #0
 843 02ae 00D0     		beq	.LCB817
 844 02b0 C6E1     		b	.L31	@long jump
 845              	.LCB817:
 462:Generated_Source\PSoC6\pdl\middleware\ble/cy_ble_event_handler.c ****                 {
 463:Generated_Source\PSoC6\pdl\middleware\ble/cy_ble_event_handler.c ****             #if (CY_BLE_GATT_ENABLE_EXTERNAL_PREP_WRITE_BUFF == 0u)
 464:Generated_Source\PSoC6\pdl\middleware\ble/cy_ble_event_handler.c ****                     /* Stack requests to provide memory to process a remote request */
 465:Generated_Source\PSoC6\pdl\middleware\ble/cy_ble_event_handler.c ****                     if(memReq->allocFree == CY_BLE_ALLOC_MEMORY)
 846              		.loc 1 465 0
 847 02b2 2B7A     		ldrb	r3, [r5, #8]
 848 02b4 002B     		cmp	r3, #0
 849 02b6 07D1     		bne	.L70
 850              	.LBB93:
 466:Generated_Source\PSoC6\pdl\middleware\ble/cy_ble_event_handler.c ****                     {
 467:Generated_Source\PSoC6\pdl\middleware\ble/cy_ble_event_handler.c ****                         static cy_stc_ble_prepare_write_request_memory_t gPrepWriteReqMem;
 468:Generated_Source\PSoC6\pdl\middleware\ble/cy_ble_event_handler.c **** 
 469:Generated_Source\PSoC6\pdl\middleware\ble/cy_ble_event_handler.c ****                         /* Configure and return a statically allocated buffer at the end of the cy_
 470:Generated_Source\PSoC6\pdl\middleware\ble/cy_ble_event_handler.c ****                         gPrepWriteReqMem.prepareWriteQueueSize = CY_BLE_GATT_MAX_PREPARE_BUFF_COUNT
 851              		.loc 1 470 0
 852 02b8 434B     		ldr	r3, .L99+156
 853 02ba 0C22     		movs	r2, #12
 854 02bc DA80     		strh	r2, [r3, #6]
 471:Generated_Source\PSoC6\pdl\middleware\ble/cy_ble_event_handler.c ****                         gPrepWriteReqMem.totalAttrValueLength = CY_BLE_GATT_PREPARE_LENGTH_ALIGN;
 855              		.loc 1 471 0
ARM GAS  C:\Users\Smaug\AppData\Local\Temp\ccVZzAJS.s 			page 42


 856 02be BC32     		adds	r2, r2, #188
 857 02c0 9A80     		strh	r2, [r3, #4]
 472:Generated_Source\PSoC6\pdl\middleware\ble/cy_ble_event_handler.c ****                         gPrepWriteReqMem.queueBuffer = &cy_ble_stackMemoryRam[(CY_BLE_STACK_RAM_SIZ
 858              		.loc 1 472 0
 859 02c2 424A     		ldr	r2, .L99+160
 860 02c4 1A60     		str	r2, [r3]
 473:Generated_Source\PSoC6\pdl\middleware\ble/cy_ble_event_handler.c ****                                                                               CY_BLE_GATT_PREPARE_W
 474:Generated_Source\PSoC6\pdl\middleware\ble/cy_ble_event_handler.c ****                         memReq->configMemory = &gPrepWriteReqMem;
 861              		.loc 1 474 0
 862 02c6 6B60     		str	r3, [r5, #4]
 863              	.L70:
 864              	.LBE93:
 475:Generated_Source\PSoC6\pdl\middleware\ble/cy_ble_event_handler.c ****                     }
 476:Generated_Source\PSoC6\pdl\middleware\ble/cy_ble_event_handler.c ****                     /* Clear the CY_BLE_CALLBACK flag not to provide a handled event to the applica
 477:Generated_Source\PSoC6\pdl\middleware\ble/cy_ble_event_handler.c ****                     cy_ble_eventHandlerFlag &= (uint8_t) ~CY_BLE_CALLBACK;
 865              		.loc 1 477 0
 866 02c8 184A     		ldr	r2, .L99
 867 02ca 1378     		ldrb	r3, [r2]
 868 02cc 0121     		movs	r1, #1
 869 02ce 8B43     		bics	r3, r1
 870 02d0 1370     		strb	r3, [r2]
 871 02d2 B5E1     		b	.L31
 872              	.LVL83:
 873              	.L42:
 874              	.LBE92:
 478:Generated_Source\PSoC6\pdl\middleware\ble/cy_ble_event_handler.c ****             #endif  /* CY_BLE_GATT_ENABLE_EXTERNAL_PREP_WRITE_BUFF == 0u */
 479:Generated_Source\PSoC6\pdl\middleware\ble/cy_ble_event_handler.c ****                 }
 480:Generated_Source\PSoC6\pdl\middleware\ble/cy_ble_event_handler.c ****             }
 481:Generated_Source\PSoC6\pdl\middleware\ble/cy_ble_event_handler.c ****         #endif /* CY_BLE_MODE_PROFILE */
 482:Generated_Source\PSoC6\pdl\middleware\ble/cy_ble_event_handler.c ****             break;
 483:Generated_Source\PSoC6\pdl\middleware\ble/cy_ble_event_handler.c **** 
 484:Generated_Source\PSoC6\pdl\middleware\ble/cy_ble_event_handler.c ****         /**********************************************************
 485:Generated_Source\PSoC6\pdl\middleware\ble/cy_ble_event_handler.c ****          * GAP events
 486:Generated_Source\PSoC6\pdl\middleware\ble/cy_ble_event_handler.c ****          ************************************************************/
 487:Generated_Source\PSoC6\pdl\middleware\ble/cy_ble_event_handler.c ****         case CY_BLE_EVT_GAP_AUTH_REQ:
 488:Generated_Source\PSoC6\pdl\middleware\ble/cy_ble_event_handler.c ****             break;
 489:Generated_Source\PSoC6\pdl\middleware\ble/cy_ble_event_handler.c **** 
 490:Generated_Source\PSoC6\pdl\middleware\ble/cy_ble_event_handler.c ****         case CY_BLE_EVT_GAP_AUTH_COMPLETE:
 491:Generated_Source\PSoC6\pdl\middleware\ble/cy_ble_event_handler.c ****         #if ((CY_BLE_GAP_ROLE_PERIPHERAL || CY_BLE_GAP_ROLE_CENTRAL) && (CY_BLE_BONDING_REQUIREMENT
 492:Generated_Source\PSoC6\pdl\middleware\ble/cy_ble_event_handler.c ****             {
 493:Generated_Source\PSoC6\pdl\middleware\ble/cy_ble_event_handler.c ****                 cy_stc_ble_conn_handle_t connectedHandle;
 494:Generated_Source\PSoC6\pdl\middleware\ble/cy_ble_event_handler.c ****                 connectedHandle = Cy_BLE_GetConnHandleByBdHandle(((cy_stc_ble_gap_auth_info_t*)evPa
 495:Generated_Source\PSoC6\pdl\middleware\ble/cy_ble_event_handler.c ****                 cy_ble_peerBonding[connectedHandle.attId] = ((cy_stc_ble_gap_auth_info_t*)evParam)-
 496:Generated_Source\PSoC6\pdl\middleware\ble/cy_ble_event_handler.c ****             }
 497:Generated_Source\PSoC6\pdl\middleware\ble/cy_ble_event_handler.c ****         #endif  /* CY_BLE_BONDING_REQUIREMENT == CY_BLE_BONDING_YES */
 498:Generated_Source\PSoC6\pdl\middleware\ble/cy_ble_event_handler.c **** 
 499:Generated_Source\PSoC6\pdl\middleware\ble/cy_ble_event_handler.c ****         #if ((CY_BLE_GAP_ROLE_PERIPHERAL || CY_BLE_GAP_ROLE_CENTRAL))
 500:Generated_Source\PSoC6\pdl\middleware\ble/cy_ble_event_handler.c ****             if(((cy_stc_ble_gap_auth_info_t *)evParam)->authErr == CY_BLE_GAP_AUTH_ERROR_NONE)
 875              		.loc 1 500 0
 876 02d4 EB78     		ldrb	r3, [r5, #3]
 877 02d6 002B     		cmp	r3, #0
 878 02d8 00D0     		beq	.LCB850
 879 02da B1E1     		b	.L31	@long jump
 880              	.LCB850:
 881              	.LBB94:
 501:Generated_Source\PSoC6\pdl\middleware\ble/cy_ble_event_handler.c ****             {
 502:Generated_Source\PSoC6\pdl\middleware\ble/cy_ble_event_handler.c ****                 cy_stc_ble_conn_handle_t connectedHandle;
ARM GAS  C:\Users\Smaug\AppData\Local\Temp\ccVZzAJS.s 			page 43


 503:Generated_Source\PSoC6\pdl\middleware\ble/cy_ble_event_handler.c ****                 connectedHandle = Cy_BLE_GetConnHandleByBdHandle(((cy_stc_ble_gap_auth_info_t *)evP
 882              		.loc 1 503 0
 883 02dc 6B79     		ldrb	r3, [r5, #5]
 884 02de 9846     		mov	r8, r3
 885              	.LVL84:
 886              	.LBB95:
 887              	.LBB96:
 952:Generated_Source\PSoC6\pdl\middleware\ble/cy_ble_gap.h ****     {
 888              		.loc 2 952 0
 889 02e0 0222     		movs	r2, #2
 890 02e2 2F49     		ldr	r1, .L99+116
 891 02e4 0831     		adds	r1, r1, #8
 892 02e6 04A8     		add	r0, sp, #16
 893              	.LVL85:
 894 02e8 FFF7FEFF 		bl	memcpy
 895              	.LVL86:
 958:Generated_Source\PSoC6\pdl\middleware\ble/cy_ble_gap.h ****     {
 896              		.loc 2 958 0
 897 02ec 0026     		movs	r6, #0
 898 02ee 70E0     		b	.L71
 899              	.LVL87:
 900              	.L75:
 901 02f0 03AF     		add	r7, sp, #12
 902 02f2 7300     		lsls	r3, r6, #1
 903 02f4 2F49     		ldr	r1, .L99+136
 904 02f6 C918     		adds	r1, r1, r3
 905 02f8 0222     		movs	r2, #2
 906 02fa 3800     		movs	r0, r7
 907 02fc FFF7FEFF 		bl	memcpy
 908              	.LVL88:
 909              	.LBB97:
 910              	.LBB98:
 878:Generated_Source\PSoC6\pdl\middleware\ble/cy_ble_gap.h **** }
 911              		.loc 2 878 0
 912 0300 7B78     		ldrb	r3, [r7, #1]
 913 0302 002B     		cmp	r3, #0
 914 0304 02D1     		bne	.L97
 915 0306 2C4A     		ldr	r2, .L99+140
 916 0308 D35C     		ldrb	r3, [r2, r3]
 917 030a 00E0     		b	.L72
 918              	.L97:
 919 030c 0023     		movs	r3, #0
 920              	.L72:
 921              	.LBE98:
 922              	.LBE97:
 960:Generated_Source\PSoC6\pdl\middleware\ble/cy_ble_gap.h ****                 (cy_ble_connHandle[i].bdHandle == bdHandle))
 923              		.loc 2 960 0
 924 030e 012B     		cmp	r3, #1
 925 0310 5ED9     		bls	.L73
 961:Generated_Source\PSoC6\pdl\middleware\ble/cy_ble_gap.h ****         {
 926              		.loc 2 961 0
 927 0312 7300     		lsls	r3, r6, #1
 928 0314 274A     		ldr	r2, .L99+136
 929 0316 9B5C     		ldrb	r3, [r3, r2]
 960:Generated_Source\PSoC6\pdl\middleware\ble/cy_ble_gap.h ****                 (cy_ble_connHandle[i].bdHandle == bdHandle))
 930              		.loc 2 960 0
 931 0318 9845     		cmp	r8, r3
ARM GAS  C:\Users\Smaug\AppData\Local\Temp\ccVZzAJS.s 			page 44


 932 031a 59D1     		bne	.L73
 963:Generated_Source\PSoC6\pdl\middleware\ble/cy_ble_gap.h ****             break;
 933              		.loc 2 963 0
 934 031c 7600     		lsls	r6, r6, #1
 935              	.LVL89:
 936 031e 9119     		adds	r1, r2, r6
 937 0320 0222     		movs	r2, #2
 938 0322 04A8     		add	r0, sp, #16
 939 0324 FFF7FEFF 		bl	memcpy
 940              	.LVL90:
 941 0328 55E0     		b	.L74
 942              	.L100:
 943 032a C046     		.align	2
 944              	.L99:
 945 032c 00000000 		.word	cy_ble_eventHandlerFlag
 946 0330 08400000 		.word	16392
 947 0334 01300000 		.word	12289
 948 0338 02100000 		.word	4098
 949 033c 01100000 		.word	4097
 950 0340 03100000 		.word	4099
 951 0344 04200000 		.word	8196
 952 0348 04400000 		.word	16388
 953 034c 12300000 		.word	12306
 954 0350 19300000 		.word	12313
 955 0354 06400000 		.word	16390
 956 0358 07400000 		.word	16391
 957 035c 0C500000 		.word	20492
 958 0360 01500000 		.word	20481
 959 0364 0A400000 		.word	16394
 960 0368 10400000 		.word	16400
 961 036c 02500000 		.word	20482
 962 0370 03500000 		.word	20483
 963 0374 10500000 		.word	20496
 964 0378 0E500000 		.word	20494
 965 037c 0F500000 		.word	20495
 966 0380 17500000 		.word	20503
 967 0384 01600000 		.word	24577
 968 0388 14500000 		.word	20500
 969 038c 00000000 		.word	cy_ble_sflashDeviceAddress
 970 0390 00000000 		.word	cy_ble_configPtr
 971 0394 04060000 		.word	1540
 972 0398 05060000 		.word	1541
 973 039c 03060000 		.word	1539
 974 03a0 00000000 		.word	.LANCHOR0
 975 03a4 00000000 		.word	cy_ble_state
 976 03a8 00000000 		.word	cy_ble_advState
 977 03ac 00000000 		.word	cy_ble_pairStatus
 978 03b0 00000000 		.word	cy_ble_cmdStatus
 979 03b4 00000000 		.word	cy_ble_connHandle
 980 03b8 00000000 		.word	cy_ble_connState
 981 03bc CA030000 		.word	970
 982 03c0 00000000 		.word	.LC16
 983 03c4 00000000 		.word	cy_ble_busyStatus
 984 03c8 00000000 		.word	.LANCHOR1
 985 03cc E4240000 		.word	cy_ble_stackMemoryRam+9444
 986              	.LVL91:
 987              	.L73:
ARM GAS  C:\Users\Smaug\AppData\Local\Temp\ccVZzAJS.s 			page 45


 958:Generated_Source\PSoC6\pdl\middleware\ble/cy_ble_gap.h ****     {
 988              		.loc 2 958 0
 989 03d0 0136     		adds	r6, r6, #1
 990              	.LVL92:
 991              	.L71:
 992 03d2 002E     		cmp	r6, #0
 993 03d4 8CD0     		beq	.L75
 994              	.LVL93:
 995              	.L74:
 967:Generated_Source\PSoC6\pdl\middleware\ble/cy_ble_gap.h ****     {
 996              		.loc 2 967 0
 997 03d6 04AB     		add	r3, sp, #16
 998 03d8 5B78     		ldrb	r3, [r3, #1]
 999 03da FF2B     		cmp	r3, #255
 1000 03dc 04D1     		bne	.L76
 970:Generated_Source\PSoC6\pdl\middleware\ble/cy_ble_gap.h ****     }
 1001              		.loc 2 970 0
 1002 03de 03D1     		bne	.L76
 1003 03e0 A149     		ldr	r1, .L101
 1004 03e2 A248     		ldr	r0, .L101+4
 1005 03e4 FFF7FEFF 		bl	Cy_SysLib_AssertFailed
 1006              	.LVL94:
 1007              	.L76:
 1008              		.loc 2 973 0
 1009 03e8 04AA     		add	r2, sp, #16
 1010 03ea 1388     		ldrh	r3, [r2]
 1011 03ec 08A9     		add	r1, sp, #32
 1012 03ee 0B80     		strh	r3, [r1]
 1013 03f0 1380     		strh	r3, [r2]
 1014              	.LVL95:
 1015              	.LBE96:
 1016              	.LBE95:
 504:Generated_Source\PSoC6\pdl\middleware\ble/cy_ble_event_handler.c ****                 cy_ble_pairStatus[connectedHandle.attId] = true;
 1017              		.loc 1 504 0
 1018 03f2 1B0A     		lsrs	r3, r3, #8
 1019 03f4 0121     		movs	r1, #1
 1020 03f6 9E4A     		ldr	r2, .L101+8
 1021 03f8 D154     		strb	r1, [r2, r3]
 1022 03fa 21E1     		b	.L31
 1023              	.LVL96:
 1024              	.L51:
 1025              	.LBE94:
 505:Generated_Source\PSoC6\pdl\middleware\ble/cy_ble_event_handler.c ****             }
 506:Generated_Source\PSoC6\pdl\middleware\ble/cy_ble_event_handler.c ****         #endif /* ((CY_BLE_GAP_ROLE_PERIPHERAL || CY_BLE_GAP_ROLE_CENTRAL)) */
 507:Generated_Source\PSoC6\pdl\middleware\ble/cy_ble_event_handler.c ****             break;
 508:Generated_Source\PSoC6\pdl\middleware\ble/cy_ble_event_handler.c **** 
 509:Generated_Source\PSoC6\pdl\middleware\ble/cy_ble_event_handler.c ****         case CY_BLE_EVT_GAP_CONNECTION_UPDATE_COMPLETE:
 510:Generated_Source\PSoC6\pdl\middleware\ble/cy_ble_event_handler.c ****         #if (CY_BLE_GAP_ROLE_PERIPHERAL || CY_BLE_GAP_ROLE_CENTRAL)
 511:Generated_Source\PSoC6\pdl\middleware\ble/cy_ble_event_handler.c ****             (void)Cy_BLE_InvokeServiceEventHandler((uint32_t)event, (void*)evParam);
 1026              		.loc 1 511 0
 1027 03fc 2900     		movs	r1, r5
 1028 03fe FFF7FEFF 		bl	Cy_BLE_InvokeServiceEventHandler
 1029              	.LVL97:
 512:Generated_Source\PSoC6\pdl\middleware\ble/cy_ble_event_handler.c ****         #endif /*(CY_BLE_GAP_ROLE_PERIPHERAL || CY_BLE_GAP_ROLE_CENTRAL) */
 513:Generated_Source\PSoC6\pdl\middleware\ble/cy_ble_event_handler.c ****             break;
 1030              		.loc 1 513 0
 1031 0402 1DE1     		b	.L31
ARM GAS  C:\Users\Smaug\AppData\Local\Temp\ccVZzAJS.s 			page 46


 1032              	.LVL98:
 1033              	.L46:
 1034              	.LBB99:
 514:Generated_Source\PSoC6\pdl\middleware\ble/cy_ble_event_handler.c **** 
 515:Generated_Source\PSoC6\pdl\middleware\ble/cy_ble_event_handler.c ****         case CY_BLE_EVT_GAP_ENHANCE_CONN_COMPLETE:
 516:Generated_Source\PSoC6\pdl\middleware\ble/cy_ble_event_handler.c ****         case CY_BLE_EVT_GAP_DEVICE_CONNECTED:
 517:Generated_Source\PSoC6\pdl\middleware\ble/cy_ble_event_handler.c ****             {
 518:Generated_Source\PSoC6\pdl\middleware\ble/cy_ble_event_handler.c ****             #if (CY_BLE_LL_PRIVACY_FEATURE != 0u)
 519:Generated_Source\PSoC6\pdl\middleware\ble/cy_ble_event_handler.c ****                 cy_stc_ble_gap_enhance_conn_complete_param_t *tEvParam =
 520:Generated_Source\PSoC6\pdl\middleware\ble/cy_ble_event_handler.c ****                     (cy_stc_ble_gap_enhance_conn_complete_param_t *)evParam;
 521:Generated_Source\PSoC6\pdl\middleware\ble/cy_ble_event_handler.c ****             #else
 522:Generated_Source\PSoC6\pdl\middleware\ble/cy_ble_event_handler.c ****                 cy_stc_ble_gap_connected_param_t *tEvParam = (cy_stc_ble_gap_connected_param_t *)ev
 523:Generated_Source\PSoC6\pdl\middleware\ble/cy_ble_event_handler.c ****             #endif /* (CY_BLE_LL_PRIVACY_FEATURE != 0u) */
 524:Generated_Source\PSoC6\pdl\middleware\ble/cy_ble_event_handler.c ****                 if(tEvParam->status == CY_BLE_HCI_SUCCESS)
 1035              		.loc 1 524 0
 1036 0404 2B78     		ldrb	r3, [r5]
 1037 0406 002B     		cmp	r3, #0
 1038 0408 43D1     		bne	.L77
 525:Generated_Source\PSoC6\pdl\middleware\ble/cy_ble_event_handler.c ****                 {
 526:Generated_Source\PSoC6\pdl\middleware\ble/cy_ble_event_handler.c ****                     /* Advertising is automatically stopped if a Slave is connected,
 527:Generated_Source\PSoC6\pdl\middleware\ble/cy_ble_event_handler.c ****                        so update the adv state to CY_BLE_ADV_STATE_STOPPED  */
 528:Generated_Source\PSoC6\pdl\middleware\ble/cy_ble_event_handler.c ****                     #if (CY_BLE_GAP_ROLE_PERIPHERAL || CY_BLE_GAP_ROLE_BROADCASTER)
 529:Generated_Source\PSoC6\pdl\middleware\ble/cy_ble_event_handler.c ****                         if(tEvParam->role == CY_BLE_GAP_LL_ROLE_SLAVE)
 1039              		.loc 1 529 0
 1040 040a AB78     		ldrb	r3, [r5, #2]
 1041 040c 012B     		cmp	r3, #1
 1042 040e 02D1     		bne	.L78
 1043              	.LVL99:
 1044              	.LBB100:
 1045              	.LBB101:
 763:Generated_Source\PSoC6\pdl\middleware\ble/cy_ble_gap.h **** }
 1046              		.loc 2 763 0
 1047 0410 0022     		movs	r2, #0
 1048 0412 984B     		ldr	r3, .L101+12
 1049 0414 1A70     		strb	r2, [r3]
 1050              	.LVL100:
 1051              	.L78:
 1052              	.LBE101:
 1053              	.LBE100:
 1054              	.LBB102:
 530:Generated_Source\PSoC6\pdl\middleware\ble/cy_ble_event_handler.c ****                         {
 531:Generated_Source\PSoC6\pdl\middleware\ble/cy_ble_event_handler.c ****                             Cy_BLE_SetAdvertisementState(CY_BLE_ADV_STATE_STOPPED);
 532:Generated_Source\PSoC6\pdl\middleware\ble/cy_ble_event_handler.c ****                         }
 533:Generated_Source\PSoC6\pdl\middleware\ble/cy_ble_event_handler.c ****                     #endif /* (CY_BLE_GAP_ROLE_PERIPHERAL || CY_BLE_GAP_ROLE_BROADCASTER) */
 534:Generated_Source\PSoC6\pdl\middleware\ble/cy_ble_event_handler.c **** 
 535:Generated_Source\PSoC6\pdl\middleware\ble/cy_ble_event_handler.c ****                     /* Stop Timer in central mode (if timer was started) */
 536:Generated_Source\PSoC6\pdl\middleware\ble/cy_ble_event_handler.c ****                     #if (CY_BLE_GAP_ROLE_CENTRAL)
 537:Generated_Source\PSoC6\pdl\middleware\ble/cy_ble_event_handler.c ****                         if(cy_ble_connectingTimeout.timeout != 0u)
 538:Generated_Source\PSoC6\pdl\middleware\ble/cy_ble_event_handler.c ****                         {
 539:Generated_Source\PSoC6\pdl\middleware\ble/cy_ble_event_handler.c ****                             (void)Cy_BLE_StopTimer(&cy_ble_connectingTimeout);
 540:Generated_Source\PSoC6\pdl\middleware\ble/cy_ble_event_handler.c ****                         }
 541:Generated_Source\PSoC6\pdl\middleware\ble/cy_ble_event_handler.c ****                     #endif /* CY_BLE_GAP_ROLE_CENTRAL */
 542:Generated_Source\PSoC6\pdl\middleware\ble/cy_ble_event_handler.c **** 
 543:Generated_Source\PSoC6\pdl\middleware\ble/cy_ble_event_handler.c ****                     /* Store information about role of device connected (Master/Slave)*/
 544:Generated_Source\PSoC6\pdl\middleware\ble/cy_ble_event_handler.c ****                     #if ((CY_BLE_GAP_ROLE_PERIPHERAL || CY_BLE_GAP_ROLE_CENTRAL))
 545:Generated_Source\PSoC6\pdl\middleware\ble/cy_ble_event_handler.c ****                     {
 546:Generated_Source\PSoC6\pdl\middleware\ble/cy_ble_event_handler.c ****                         cy_stc_ble_conn_handle_t tconnHandle = Cy_BLE_GetConnHandleByBdHandle(tEvPa
ARM GAS  C:\Users\Smaug\AppData\Local\Temp\ccVZzAJS.s 			page 47


 1055              		.loc 1 546 0
 1056 0416 6B78     		ldrb	r3, [r5, #1]
 1057 0418 9846     		mov	r8, r3
 1058              	.LVL101:
 1059              	.LBB103:
 1060              	.LBB104:
 952:Generated_Source\PSoC6\pdl\middleware\ble/cy_ble_gap.h ****     {
 1061              		.loc 2 952 0
 1062 041a 0222     		movs	r2, #2
 1063 041c 9649     		ldr	r1, .L101+16
 1064 041e 0831     		adds	r1, r1, #8
 1065 0420 03A8     		add	r0, sp, #12
 1066              	.LVL102:
 1067 0422 FFF7FEFF 		bl	memcpy
 1068              	.LVL103:
 958:Generated_Source\PSoC6\pdl\middleware\ble/cy_ble_gap.h ****     {
 1069              		.loc 2 958 0
 1070 0426 0026     		movs	r6, #0
 1071 0428 1DE0     		b	.L79
 1072              	.LVL104:
 1073              	.L83:
 1074 042a 04AF     		add	r7, sp, #16
 1075 042c 7300     		lsls	r3, r6, #1
 1076 042e 9349     		ldr	r1, .L101+20
 1077 0430 C918     		adds	r1, r1, r3
 1078 0432 0222     		movs	r2, #2
 1079 0434 3800     		movs	r0, r7
 1080 0436 FFF7FEFF 		bl	memcpy
 1081              	.LVL105:
 1082              	.LBB105:
 1083              	.LBB106:
 878:Generated_Source\PSoC6\pdl\middleware\ble/cy_ble_gap.h **** }
 1084              		.loc 2 878 0
 1085 043a 7B78     		ldrb	r3, [r7, #1]
 1086 043c 002B     		cmp	r3, #0
 1087 043e 02D1     		bne	.L98
 1088 0440 8F4A     		ldr	r2, .L101+24
 1089 0442 D35C     		ldrb	r3, [r2, r3]
 1090 0444 00E0     		b	.L80
 1091              	.L98:
 1092 0446 0023     		movs	r3, #0
 1093              	.L80:
 1094              	.LBE106:
 1095              	.LBE105:
 960:Generated_Source\PSoC6\pdl\middleware\ble/cy_ble_gap.h ****                 (cy_ble_connHandle[i].bdHandle == bdHandle))
 1096              		.loc 2 960 0
 1097 0448 012B     		cmp	r3, #1
 1098 044a 0BD9     		bls	.L81
 961:Generated_Source\PSoC6\pdl\middleware\ble/cy_ble_gap.h ****         {
 1099              		.loc 2 961 0
 1100 044c 7300     		lsls	r3, r6, #1
 1101 044e 8B4A     		ldr	r2, .L101+20
 1102 0450 9B5C     		ldrb	r3, [r3, r2]
 960:Generated_Source\PSoC6\pdl\middleware\ble/cy_ble_gap.h ****                 (cy_ble_connHandle[i].bdHandle == bdHandle))
 1103              		.loc 2 960 0
 1104 0452 9845     		cmp	r8, r3
 1105 0454 06D1     		bne	.L81
ARM GAS  C:\Users\Smaug\AppData\Local\Temp\ccVZzAJS.s 			page 48


 963:Generated_Source\PSoC6\pdl\middleware\ble/cy_ble_gap.h ****             break;
 1106              		.loc 2 963 0
 1107 0456 7600     		lsls	r6, r6, #1
 1108              	.LVL106:
 1109 0458 9119     		adds	r1, r2, r6
 1110 045a 0222     		movs	r2, #2
 1111 045c 03A8     		add	r0, sp, #12
 1112 045e FFF7FEFF 		bl	memcpy
 1113              	.LVL107:
 1114 0462 02E0     		b	.L82
 1115              	.LVL108:
 1116              	.L81:
 958:Generated_Source\PSoC6\pdl\middleware\ble/cy_ble_gap.h ****     {
 1117              		.loc 2 958 0
 1118 0464 0136     		adds	r6, r6, #1
 1119              	.LVL109:
 1120              	.L79:
 1121 0466 002E     		cmp	r6, #0
 1122 0468 DFD0     		beq	.L83
 1123              	.LVL110:
 1124              	.L82:
 967:Generated_Source\PSoC6\pdl\middleware\ble/cy_ble_gap.h ****     {
 1125              		.loc 2 967 0
 1126 046a 03AB     		add	r3, sp, #12
 1127 046c 5B78     		ldrb	r3, [r3, #1]
 1128 046e FF2B     		cmp	r3, #255
 1129 0470 04D1     		bne	.L84
 970:Generated_Source\PSoC6\pdl\middleware\ble/cy_ble_gap.h ****     }
 1130              		.loc 2 970 0
 1131 0472 03D1     		bne	.L84
 1132 0474 7C49     		ldr	r1, .L101
 1133 0476 7D48     		ldr	r0, .L101+4
 1134 0478 FFF7FEFF 		bl	Cy_SysLib_AssertFailed
 1135              	.LVL111:
 1136              	.L84:
 1137              		.loc 2 973 0
 1138 047c 03AA     		add	r2, sp, #12
 1139 047e 1388     		ldrh	r3, [r2]
 1140 0480 09A9     		add	r1, sp, #36
 1141 0482 0B80     		strh	r3, [r1]
 1142 0484 1380     		strh	r3, [r2]
 1143              	.LVL112:
 1144              	.LBE104:
 1145              	.LBE103:
 547:Generated_Source\PSoC6\pdl\middleware\ble/cy_ble_event_handler.c ****                         if( tconnHandle.attId != CY_BLE_INVALID_CONN_HANDLE_VALUE)
 1146              		.loc 1 547 0
 1147 0486 1B0A     		lsrs	r3, r3, #8
 1148 0488 FF2B     		cmp	r3, #255
 1149 048a 02D0     		beq	.L77
 548:Generated_Source\PSoC6\pdl\middleware\ble/cy_ble_event_handler.c ****                         {
 549:Generated_Source\PSoC6\pdl\middleware\ble/cy_ble_event_handler.c ****                             cy_ble_devConnRole[tconnHandle.attId] = tEvParam->role;
 1150              		.loc 1 549 0
 1151 048c A978     		ldrb	r1, [r5, #2]
 1152 048e 7D4A     		ldr	r2, .L101+28
 1153 0490 D154     		strb	r1, [r2, r3]
 1154              	.L77:
 1155              	.LBE102:
ARM GAS  C:\Users\Smaug\AppData\Local\Temp\ccVZzAJS.s 			page 49


 550:Generated_Source\PSoC6\pdl\middleware\ble/cy_ble_event_handler.c ****                         }
 551:Generated_Source\PSoC6\pdl\middleware\ble/cy_ble_event_handler.c ****                     }
 552:Generated_Source\PSoC6\pdl\middleware\ble/cy_ble_event_handler.c ****                     #endif /*((CY_BLE_GAP_ROLE_PERIPHERAL || CY_BLE_GAP_ROLE_CENTRAL))*/
 553:Generated_Source\PSoC6\pdl\middleware\ble/cy_ble_event_handler.c ****                 }
 554:Generated_Source\PSoC6\pdl\middleware\ble/cy_ble_event_handler.c ****                 Cy_BLE_SetState(CY_BLE_STATE_ON);
 1156              		.loc 1 554 0
 1157 0492 0222     		movs	r2, #2
 1158 0494 7C4B     		ldr	r3, .L101+32
 1159 0496 1A70     		strb	r2, [r3]
 1160              	.LBE99:
 555:Generated_Source\PSoC6\pdl\middleware\ble/cy_ble_event_handler.c ****             }
 556:Generated_Source\PSoC6\pdl\middleware\ble/cy_ble_event_handler.c ****             break;
 1161              		.loc 1 556 0
 1162 0498 D2E0     		b	.L31
 1163              	.LVL113:
 1164              	.L32:
 557:Generated_Source\PSoC6\pdl\middleware\ble/cy_ble_event_handler.c **** 
 558:Generated_Source\PSoC6\pdl\middleware\ble/cy_ble_event_handler.c ****         case CY_BLE_EVT_GAP_DEVICE_DISCONNECTED:
 559:Generated_Source\PSoC6\pdl\middleware\ble/cy_ble_event_handler.c ****             Cy_BLE_SetState(CY_BLE_STATE_ON);
 1165              		.loc 1 559 0
 1166 049a 0222     		movs	r2, #2
 1167 049c 7A4B     		ldr	r3, .L101+32
 1168 049e 1A70     		strb	r2, [r3]
 560:Generated_Source\PSoC6\pdl\middleware\ble/cy_ble_event_handler.c ****             break;
 1169              		.loc 1 560 0
 1170 04a0 CEE0     		b	.L31
 1171              	.L45:
 561:Generated_Source\PSoC6\pdl\middleware\ble/cy_ble_event_handler.c **** 
 562:Generated_Source\PSoC6\pdl\middleware\ble/cy_ble_event_handler.c ****         #if (CY_BLE_GAP_ROLE_PERIPHERAL || CY_BLE_GAP_ROLE_BROADCASTER)
 563:Generated_Source\PSoC6\pdl\middleware\ble/cy_ble_event_handler.c ****         case CY_BLE_EVT_GAPP_ADVERTISEMENT_START_STOP:
 564:Generated_Source\PSoC6\pdl\middleware\ble/cy_ble_event_handler.c ****         #if (CY_BLE_GAP_ROLE_PERIPHERAL || CY_BLE_GAP_ROLE_CENTRAL)
 565:Generated_Source\PSoC6\pdl\middleware\ble/cy_ble_event_handler.c ****             (void)Cy_BLE_InvokeServiceEventHandler((uint32_t)event, (void*)evParam);
 1172              		.loc 1 565 0
 1173 04a2 2900     		movs	r1, r5
 1174 04a4 FFF7FEFF 		bl	Cy_BLE_InvokeServiceEventHandler
 1175              	.LVL114:
 566:Generated_Source\PSoC6\pdl\middleware\ble/cy_ble_event_handler.c ****         #endif /* (CY_BLE_GAP_ROLE_PERIPHERAL || CY_BLE_GAP_ROLE_CENTRAL) */
 567:Generated_Source\PSoC6\pdl\middleware\ble/cy_ble_event_handler.c **** 
 568:Generated_Source\PSoC6\pdl\middleware\ble/cy_ble_event_handler.c ****             if((cy_ble_eventHandlerFlag & CY_BLE_CALLBACK) != 0u)
 1176              		.loc 1 568 0
 1177 04a8 784B     		ldr	r3, .L101+36
 1178 04aa 1B78     		ldrb	r3, [r3]
 1179 04ac DB07     		lsls	r3, r3, #31
 1180 04ae 00D4     		bmi	.LCB1182
 1181 04b0 C6E0     		b	.L31	@long jump
 1182              	.LCB1182:
 1183              	.LBB107:
 1184              	.LBB108:
 745:Generated_Source\PSoC6\pdl\middleware\ble/cy_ble_gap.h **** }
 1185              		.loc 2 745 0
 1186 04b2 704B     		ldr	r3, .L101+12
 1187 04b4 1B78     		ldrb	r3, [r3]
 1188              	.LBE108:
 1189              	.LBE107:
 569:Generated_Source\PSoC6\pdl\middleware\ble/cy_ble_event_handler.c ****             {
 570:Generated_Source\PSoC6\pdl\middleware\ble/cy_ble_event_handler.c ****                 /* After Cy_BLE_GAPP_StartAdvertisement, the first event indicates that advertising
 571:Generated_Source\PSoC6\pdl\middleware\ble/cy_ble_event_handler.c ****                 if(Cy_BLE_GetAdvertisementState() == CY_BLE_ADV_STATE_ADV_INITIATED)
ARM GAS  C:\Users\Smaug\AppData\Local\Temp\ccVZzAJS.s 			page 50


 1190              		.loc 1 571 0
 1191 04b6 012B     		cmp	r3, #1
 1192 04b8 03D1     		bne	.L86
 1193              	.LVL115:
 1194              	.LBB109:
 1195              	.LBB110:
 763:Generated_Source\PSoC6\pdl\middleware\ble/cy_ble_gap.h **** }
 1196              		.loc 2 763 0
 1197 04ba 0222     		movs	r2, #2
 1198 04bc 6D4B     		ldr	r3, .L101+12
 1199 04be 1A70     		strb	r2, [r3]
 1200 04c0 BEE0     		b	.L31
 1201              	.LVL116:
 1202              	.L86:
 1203              	.LBE110:
 1204              	.LBE109:
 572:Generated_Source\PSoC6\pdl\middleware\ble/cy_ble_event_handler.c ****                 {
 573:Generated_Source\PSoC6\pdl\middleware\ble/cy_ble_event_handler.c ****                     Cy_BLE_SetAdvertisementState(CY_BLE_ADV_STATE_ADVERTISING);
 574:Generated_Source\PSoC6\pdl\middleware\ble/cy_ble_event_handler.c ****                 }
 575:Generated_Source\PSoC6\pdl\middleware\ble/cy_ble_event_handler.c ****                 /* When the application initiated a stop advertisement */
 576:Generated_Source\PSoC6\pdl\middleware\ble/cy_ble_event_handler.c ****                 else if(Cy_BLE_GetAdvertisementState() == CY_BLE_ADV_STATE_STOP_INITIATED)
 1205              		.loc 1 576 0
 1206 04c2 032B     		cmp	r3, #3
 1207 04c4 03D1     		bne	.L87
 1208              	.LVL117:
 1209              	.LBB111:
 1210              	.LBB112:
 763:Generated_Source\PSoC6\pdl\middleware\ble/cy_ble_gap.h **** }
 1211              		.loc 2 763 0
 1212 04c6 0022     		movs	r2, #0
 1213 04c8 6A4B     		ldr	r3, .L101+12
 1214 04ca 1A70     		strb	r2, [r3]
 1215 04cc B8E0     		b	.L31
 1216              	.LVL118:
 1217              	.L87:
 1218              	.LBE112:
 1219              	.LBE111:
 577:Generated_Source\PSoC6\pdl\middleware\ble/cy_ble_event_handler.c ****                 {
 578:Generated_Source\PSoC6\pdl\middleware\ble/cy_ble_event_handler.c ****                     Cy_BLE_SetAdvertisementState(CY_BLE_ADV_STATE_STOPPED);
 579:Generated_Source\PSoC6\pdl\middleware\ble/cy_ble_event_handler.c ****                 }
 580:Generated_Source\PSoC6\pdl\middleware\ble/cy_ble_event_handler.c ****                 else /* The following event indicates that advertising has been stopped */
 581:Generated_Source\PSoC6\pdl\middleware\ble/cy_ble_event_handler.c ****                 {
 582:Generated_Source\PSoC6\pdl\middleware\ble/cy_ble_event_handler.c ****                     if(Cy_BLE_GetAdvertisementState() == CY_BLE_ADV_STATE_ADVERTISING)
 1220              		.loc 1 582 0
 1221 04ce 022B     		cmp	r3, #2
 1222 04d0 00D0     		beq	.LCB1220
 1223 04d2 B5E0     		b	.L31	@long jump
 1224              	.LCB1220:
 1225              	.LVL119:
 1226              	.LBB113:
 1227              	.LBB114:
 763:Generated_Source\PSoC6\pdl\middleware\ble/cy_ble_gap.h **** }
 1228              		.loc 2 763 0
 1229 04d4 0022     		movs	r2, #0
 1230 04d6 674B     		ldr	r3, .L101+12
 1231 04d8 1A70     		strb	r2, [r3]
 1232              	.LVL120:
ARM GAS  C:\Users\Smaug\AppData\Local\Temp\ccVZzAJS.s 			page 51


 1233              	.LBE114:
 1234              	.LBE113:
 583:Generated_Source\PSoC6\pdl\middleware\ble/cy_ble_event_handler.c ****                     {
 584:Generated_Source\PSoC6\pdl\middleware\ble/cy_ble_event_handler.c ****                         Cy_BLE_SetAdvertisementState(CY_BLE_ADV_STATE_STOPPED);
 585:Generated_Source\PSoC6\pdl\middleware\ble/cy_ble_event_handler.c ****                         if((cy_ble_configPtr->gappAdvParams[cy_ble_advIndex].slowAdvEnable != 0u) &
 1235              		.loc 1 585 0
 1236 04da 6D4B     		ldr	r3, .L101+40
 1237 04dc 1B68     		ldr	r3, [r3]
 1238 04de 5868     		ldr	r0, [r3, #4]
 1239 04e0 6C4B     		ldr	r3, .L101+44
 1240 04e2 1978     		ldrb	r1, [r3]
 1241 04e4 CA00     		lsls	r2, r1, #3
 1242 04e6 531A     		subs	r3, r2, r1
 1243 04e8 5B00     		lsls	r3, r3, #1
 1244 04ea C318     		adds	r3, r0, r3
 1245 04ec 9A79     		ldrb	r2, [r3, #6]
 1246 04ee 002A     		cmp	r2, #0
 1247 04f0 00D1     		bne	.LCB1241
 1248 04f2 A5E0     		b	.L31	@long jump
 1249              	.LCB1241:
 586:Generated_Source\PSoC6\pdl\middleware\ble/cy_ble_event_handler.c ****                            (cy_ble_configPtr->gappAdvParams[cy_ble_advIndex].fastAdvTimeOut != 0u))
 1250              		.loc 1 586 0 discriminator 1
 1251 04f4 9B88     		ldrh	r3, [r3, #4]
 585:Generated_Source\PSoC6\pdl\middleware\ble/cy_ble_event_handler.c ****                            (cy_ble_configPtr->gappAdvParams[cy_ble_advIndex].fastAdvTimeOut != 0u))
 1252              		.loc 1 585 0 discriminator 1
 1253 04f6 002B     		cmp	r3, #0
 1254 04f8 00D1     		bne	.LCB1244
 1255 04fa A1E0     		b	.L31	@long jump
 1256              	.LCB1244:
 587:Generated_Source\PSoC6\pdl\middleware\ble/cy_ble_event_handler.c ****                         {
 588:Generated_Source\PSoC6\pdl\middleware\ble/cy_ble_event_handler.c ****                             if(cy_ble_advertisingIntervalType == CY_BLE_ADVERTISING_FAST)
 1257              		.loc 1 588 0
 1258 04fc 664B     		ldr	r3, .L101+48
 1259 04fe 1B78     		ldrb	r3, [r3]
 1260 0500 002B     		cmp	r3, #0
 1261 0502 00D0     		beq	.LCB1248
 1262 0504 9CE0     		b	.L31	@long jump
 1263              	.LCB1248:
 589:Generated_Source\PSoC6\pdl\middleware\ble/cy_ble_event_handler.c ****                             {
 590:Generated_Source\PSoC6\pdl\middleware\ble/cy_ble_event_handler.c ****                                 /* When fast advertising time out occur: Start slow advertising */
 591:Generated_Source\PSoC6\pdl\middleware\ble/cy_ble_event_handler.c ****                                 if(Cy_BLE_GAPP_StartAdvertisement(CY_BLE_ADVERTISING_SLOW, cy_ble_a
 1264              		.loc 1 591 0
 1265 0506 0120     		movs	r0, #1
 1266 0508 FFF7FEFF 		bl	Cy_BLE_GAPP_StartAdvertisement
 1267              	.LVL121:
 1268 050c 0028     		cmp	r0, #0
 1269 050e 00D0     		beq	.LCB1253
 1270 0510 96E0     		b	.L31	@long jump
 1271              	.LCB1253:
 1272              	.LVL122:
 1273              	.LBB115:
 1274              	.LBB116:
 763:Generated_Source\PSoC6\pdl\middleware\ble/cy_ble_gap.h **** }
 1275              		.loc 2 763 0
 1276 0512 0122     		movs	r2, #1
 1277 0514 574B     		ldr	r3, .L101+12
 1278 0516 1A70     		strb	r2, [r3]
ARM GAS  C:\Users\Smaug\AppData\Local\Temp\ccVZzAJS.s 			page 52


 1279 0518 92E0     		b	.L31
 1280              	.LVL123:
 1281              	.L59:
 1282              	.LBE116:
 1283              	.LBE115:
 592:Generated_Source\PSoC6\pdl\middleware\ble/cy_ble_event_handler.c ****                                    CY_BLE_SUCCESS)
 593:Generated_Source\PSoC6\pdl\middleware\ble/cy_ble_event_handler.c ****                                 {
 594:Generated_Source\PSoC6\pdl\middleware\ble/cy_ble_event_handler.c ****                                     Cy_BLE_SetAdvertisementState(CY_BLE_ADV_STATE_ADV_INITIATED);
 595:Generated_Source\PSoC6\pdl\middleware\ble/cy_ble_event_handler.c ****                                 }
 596:Generated_Source\PSoC6\pdl\middleware\ble/cy_ble_event_handler.c ****                             }
 597:Generated_Source\PSoC6\pdl\middleware\ble/cy_ble_event_handler.c ****                         }
 598:Generated_Source\PSoC6\pdl\middleware\ble/cy_ble_event_handler.c ****                     }
 599:Generated_Source\PSoC6\pdl\middleware\ble/cy_ble_event_handler.c ****                 }
 600:Generated_Source\PSoC6\pdl\middleware\ble/cy_ble_event_handler.c ****             }
 601:Generated_Source\PSoC6\pdl\middleware\ble/cy_ble_event_handler.c ****             break;
 602:Generated_Source\PSoC6\pdl\middleware\ble/cy_ble_event_handler.c ****         #endif /* CY_BLE_GAP_ROLE_PERIPHERAL || CY_BLE_GAP_ROLE_BROADCASTER */
 603:Generated_Source\PSoC6\pdl\middleware\ble/cy_ble_event_handler.c **** 
 604:Generated_Source\PSoC6\pdl\middleware\ble/cy_ble_event_handler.c ****         #if (CY_BLE_GAP_ROLE_CENTRAL || CY_BLE_GAP_ROLE_OBSERVER)
 605:Generated_Source\PSoC6\pdl\middleware\ble/cy_ble_event_handler.c ****         case CY_BLE_EVT_GAPC_SCAN_START_STOP:
 606:Generated_Source\PSoC6\pdl\middleware\ble/cy_ble_event_handler.c ****         #if (CY_BLE_GAP_ROLE_CENTRAL)
 607:Generated_Source\PSoC6\pdl\middleware\ble/cy_ble_event_handler.c ****             (void)Cy_BLE_InvokeServiceEventHandler((uint32_t)event, (void*)evParam);
 608:Generated_Source\PSoC6\pdl\middleware\ble/cy_ble_event_handler.c ****         #endif /* (CY_BLE_GAP_ROLE_CENTRAL) */
 609:Generated_Source\PSoC6\pdl\middleware\ble/cy_ble_event_handler.c **** 
 610:Generated_Source\PSoC6\pdl\middleware\ble/cy_ble_event_handler.c ****             if((cy_ble_eventHandlerFlag & CY_BLE_CALLBACK) != 0u)
 611:Generated_Source\PSoC6\pdl\middleware\ble/cy_ble_event_handler.c ****             {
 612:Generated_Source\PSoC6\pdl\middleware\ble/cy_ble_event_handler.c ****                 /* After Cy_BLE_GAPC_StartScan, the first event indicates that scanning has been st
 613:Generated_Source\PSoC6\pdl\middleware\ble/cy_ble_event_handler.c ****                 if(Cy_BLE_GetScanState() == CY_BLE_SCAN_STATE_SCAN_INITIATED)
 614:Generated_Source\PSoC6\pdl\middleware\ble/cy_ble_event_handler.c ****                 {
 615:Generated_Source\PSoC6\pdl\middleware\ble/cy_ble_event_handler.c ****                     Cy_BLE_SetScanState(CY_BLE_SCAN_STATE_SCANNING);
 616:Generated_Source\PSoC6\pdl\middleware\ble/cy_ble_event_handler.c ****                 }
 617:Generated_Source\PSoC6\pdl\middleware\ble/cy_ble_event_handler.c ****                 /* When the application initiated stop scanning */
 618:Generated_Source\PSoC6\pdl\middleware\ble/cy_ble_event_handler.c ****                 else if(Cy_BLE_GetScanState() == CY_BLE_SCAN_STATE_STOP_INITIATED)
 619:Generated_Source\PSoC6\pdl\middleware\ble/cy_ble_event_handler.c ****                 {
 620:Generated_Source\PSoC6\pdl\middleware\ble/cy_ble_event_handler.c ****                     Cy_BLE_SetScanState(CY_BLE_SCAN_STATE_STOPPED);
 621:Generated_Source\PSoC6\pdl\middleware\ble/cy_ble_event_handler.c ****                 }
 622:Generated_Source\PSoC6\pdl\middleware\ble/cy_ble_event_handler.c ****                 else /* The following event indicates that scanning has been stopped by BLE Stack *
 623:Generated_Source\PSoC6\pdl\middleware\ble/cy_ble_event_handler.c ****                 {
 624:Generated_Source\PSoC6\pdl\middleware\ble/cy_ble_event_handler.c ****                     if(Cy_BLE_GetScanState() == CY_BLE_SCAN_STATE_SCANNING)
 625:Generated_Source\PSoC6\pdl\middleware\ble/cy_ble_event_handler.c ****                     {
 626:Generated_Source\PSoC6\pdl\middleware\ble/cy_ble_event_handler.c ****                         Cy_BLE_SetScanState(CY_BLE_SCAN_STATE_STOPPED);
 627:Generated_Source\PSoC6\pdl\middleware\ble/cy_ble_event_handler.c ****                         if((cy_ble_configPtr->gapcScanParams[cy_ble_scanIndex].slowScanEnabled != 0
 628:Generated_Source\PSoC6\pdl\middleware\ble/cy_ble_event_handler.c ****                            (cy_ble_configPtr->gapcScanParams[cy_ble_scanIndex].fastScanTimeOut != 0
 629:Generated_Source\PSoC6\pdl\middleware\ble/cy_ble_event_handler.c ****                         {
 630:Generated_Source\PSoC6\pdl\middleware\ble/cy_ble_event_handler.c ****                             if(cy_ble_scanningIntervalType == CY_BLE_SCANNING_FAST)
 631:Generated_Source\PSoC6\pdl\middleware\ble/cy_ble_event_handler.c ****                             {
 632:Generated_Source\PSoC6\pdl\middleware\ble/cy_ble_event_handler.c ****                                 /* When a fast scanning timeout occurs: Start slow scanning */
 633:Generated_Source\PSoC6\pdl\middleware\ble/cy_ble_event_handler.c ****                                 if(Cy_BLE_GAPC_StartScan(CY_BLE_SCANNING_SLOW, cy_ble_scanIndex) ==
 634:Generated_Source\PSoC6\pdl\middleware\ble/cy_ble_event_handler.c ****                                 {
 635:Generated_Source\PSoC6\pdl\middleware\ble/cy_ble_event_handler.c ****                                     Cy_BLE_SetScanState(CY_BLE_SCAN_STATE_SCAN_INITIATED);
 636:Generated_Source\PSoC6\pdl\middleware\ble/cy_ble_event_handler.c ****                                 }
 637:Generated_Source\PSoC6\pdl\middleware\ble/cy_ble_event_handler.c ****                             }
 638:Generated_Source\PSoC6\pdl\middleware\ble/cy_ble_event_handler.c ****                         }
 639:Generated_Source\PSoC6\pdl\middleware\ble/cy_ble_event_handler.c ****                     }
 640:Generated_Source\PSoC6\pdl\middleware\ble/cy_ble_event_handler.c ****                 }
 641:Generated_Source\PSoC6\pdl\middleware\ble/cy_ble_event_handler.c ****             }
 642:Generated_Source\PSoC6\pdl\middleware\ble/cy_ble_event_handler.c ****             break;
 643:Generated_Source\PSoC6\pdl\middleware\ble/cy_ble_event_handler.c ****         #endif /* CY_BLE_GAP_ROLE_CENTRAL || CY_BLE_GAP_ROLE_OBSERVER */
ARM GAS  C:\Users\Smaug\AppData\Local\Temp\ccVZzAJS.s 			page 53


 644:Generated_Source\PSoC6\pdl\middleware\ble/cy_ble_event_handler.c **** 
 645:Generated_Source\PSoC6\pdl\middleware\ble/cy_ble_event_handler.c ****         /**********************************************************
 646:Generated_Source\PSoC6\pdl\middleware\ble/cy_ble_event_handler.c ****          * L2AP events
 647:Generated_Source\PSoC6\pdl\middleware\ble/cy_ble_event_handler.c ****          ************************************************************/
 648:Generated_Source\PSoC6\pdl\middleware\ble/cy_ble_event_handler.c ****         case CY_BLE_EVT_L2CAP_CONN_PARAM_UPDATE_RSP:
 649:Generated_Source\PSoC6\pdl\middleware\ble/cy_ble_event_handler.c ****         #if (CY_BLE_GAP_ROLE_PERIPHERAL || CY_BLE_GAP_ROLE_CENTRAL)
 650:Generated_Source\PSoC6\pdl\middleware\ble/cy_ble_event_handler.c ****             (void)Cy_BLE_InvokeServiceEventHandler((uint32_t)event, (void*)evParam);
 1284              		.loc 1 650 0
 1285 051a 2900     		movs	r1, r5
 1286 051c FFF7FEFF 		bl	Cy_BLE_InvokeServiceEventHandler
 1287              	.LVL124:
 651:Generated_Source\PSoC6\pdl\middleware\ble/cy_ble_event_handler.c ****         #endif /* (CY_BLE_GAP_ROLE_PERIPHERAL || CY_BLE_GAP_ROLE_CENTRAL) */
 652:Generated_Source\PSoC6\pdl\middleware\ble/cy_ble_event_handler.c ****             break;
 1288              		.loc 1 652 0
 1289 0520 8EE0     		b	.L31
 1290              	.LVL125:
 1291              	.L49:
 1292 0522 0222     		movs	r2, #2
 1293 0524 2900     		movs	r1, r5
 1294 0526 6846     		mov	r0, sp
 1295              	.LVL126:
 1296 0528 FFF7FEFF 		bl	memcpy
 1297              	.LVL127:
 1298              	.LBB117:
 1299              	.LBB118:
 895:Generated_Source\PSoC6\pdl\middleware\ble/cy_ble_gap.h ****     {
 1300              		.loc 2 895 0
 1301 052c 6B46     		mov	r3, sp
 1302 052e 5B78     		ldrb	r3, [r3, #1]
 1303 0530 002B     		cmp	r3, #0
 1304 0532 03D1     		bne	.L88
 897:Generated_Source\PSoC6\pdl\middleware\ble/cy_ble_gap.h ****     }
 1305              		.loc 2 897 0
 1306 0534 0221     		movs	r1, #2
 1307 0536 524A     		ldr	r2, .L101+24
 1308 0538 D154     		strb	r1, [r2, r3]
 1309 053a 05E0     		b	.L89
 1310              	.L88:
 902:Generated_Source\PSoC6\pdl\middleware\ble/cy_ble_gap.h ****     }
 1311              		.loc 2 902 0
 1312 053c 002B     		cmp	r3, #0
 1313 053e 03D1     		bne	.L89
 1314 0540 5649     		ldr	r1, .L101+52
 1315 0542 4A48     		ldr	r0, .L101+4
 1316 0544 FFF7FEFF 		bl	Cy_SysLib_AssertFailed
 1317              	.LVL128:
 1318              	.L89:
 1319              	.LBE118:
 1320              	.LBE117:
 653:Generated_Source\PSoC6\pdl\middleware\ble/cy_ble_event_handler.c **** 
 654:Generated_Source\PSoC6\pdl\middleware\ble/cy_ble_event_handler.c ****             /**********************************************************
 655:Generated_Source\PSoC6\pdl\middleware\ble/cy_ble_event_handler.c ****              * GATT events
 656:Generated_Source\PSoC6\pdl\middleware\ble/cy_ble_event_handler.c ****              ************************************************************/
 657:Generated_Source\PSoC6\pdl\middleware\ble/cy_ble_event_handler.c ****         #if ((CY_BLE_GATT_ROLE_SERVER) || (CY_BLE_GATT_ROLE_CLIENT))
 658:Generated_Source\PSoC6\pdl\middleware\ble/cy_ble_event_handler.c ****         case CY_BLE_EVT_GATT_CONNECT_IND:
 659:Generated_Source\PSoC6\pdl\middleware\ble/cy_ble_event_handler.c ****         #if (CY_BLE_GATT_ROLE_CLIENT)
 660:Generated_Source\PSoC6\pdl\middleware\ble/cy_ble_event_handler.c ****             /* If connected to the same device which is already discovered */
ARM GAS  C:\Users\Smaug\AppData\Local\Temp\ccVZzAJS.s 			page 54


 661:Generated_Source\PSoC6\pdl\middleware\ble/cy_ble_event_handler.c ****             if((Cy_BLE_GetConnectionState(*(cy_stc_ble_conn_handle_t*)evParam) ==
 662:Generated_Source\PSoC6\pdl\middleware\ble/cy_ble_event_handler.c ****                 CY_BLE_CONN_STATE_CLIENT_DISCONNECTED_DISCOVERED) &&
 663:Generated_Source\PSoC6\pdl\middleware\ble/cy_ble_event_handler.c ****                (((cy_stc_ble_conn_handle_t*)evParam)->bdHandle ==
 664:Generated_Source\PSoC6\pdl\middleware\ble/cy_ble_event_handler.c ****                 cy_ble_connHandle[((cy_stc_ble_conn_handle_t*)evParam)->attId].bdHandle))
 665:Generated_Source\PSoC6\pdl\middleware\ble/cy_ble_event_handler.c ****             {   /* Set a discovered state */
 666:Generated_Source\PSoC6\pdl\middleware\ble/cy_ble_event_handler.c ****                 Cy_BLE_SetConnectionState(*(cy_stc_ble_conn_handle_t*)evParam, CY_BLE_CONN_STATE_CL
 667:Generated_Source\PSoC6\pdl\middleware\ble/cy_ble_event_handler.c ****             }
 668:Generated_Source\PSoC6\pdl\middleware\ble/cy_ble_event_handler.c ****             else    /* Connected to a new device */
 669:Generated_Source\PSoC6\pdl\middleware\ble/cy_ble_event_handler.c ****         #endif /* CY_BLE_GATT_ROLE_CLIENT */
 670:Generated_Source\PSoC6\pdl\middleware\ble/cy_ble_event_handler.c ****             {
 671:Generated_Source\PSoC6\pdl\middleware\ble/cy_ble_event_handler.c ****                 /* Clear the discovery index for the Client role */
 672:Generated_Source\PSoC6\pdl\middleware\ble/cy_ble_event_handler.c ****             #if (CY_BLE_GATT_ROLE_CLIENT)
 673:Generated_Source\PSoC6\pdl\middleware\ble/cy_ble_event_handler.c ****                 (void)Cy_BLE_GATTC_RemoveConnHandle(*(cy_stc_ble_conn_handle_t*)evParam);
 674:Generated_Source\PSoC6\pdl\middleware\ble/cy_ble_event_handler.c ****             #endif /* CY_BLE_GATT_ROLE_CLIENT */
 675:Generated_Source\PSoC6\pdl\middleware\ble/cy_ble_event_handler.c ****                 Cy_BLE_SetConnectionState(*(cy_stc_ble_conn_handle_t*)evParam, CY_BLE_CONN_STATE_CO
 676:Generated_Source\PSoC6\pdl\middleware\ble/cy_ble_event_handler.c ****                 cy_ble_connHandle[((cy_stc_ble_conn_handle_t*)evParam)->attId] = *(cy_stc_ble_conn_
 1321              		.loc 1 676 0
 1322 0548 6878     		ldrb	r0, [r5, #1]
 1323 054a 4000     		lsls	r0, r0, #1
 1324 054c 4B4B     		ldr	r3, .L101+20
 1325 054e 1818     		adds	r0, r3, r0
 1326 0550 0222     		movs	r2, #2
 1327 0552 2900     		movs	r1, r5
 1328 0554 FFF7FEFF 		bl	memcpy
 1329              	.LVL129:
 677:Generated_Source\PSoC6\pdl\middleware\ble/cy_ble_event_handler.c ****             }
 678:Generated_Source\PSoC6\pdl\middleware\ble/cy_ble_event_handler.c **** 
 679:Generated_Source\PSoC6\pdl\middleware\ble/cy_ble_event_handler.c ****             cy_ble_busyStatus[((cy_stc_ble_conn_handle_t*)evParam)->attId] = CY_BLE_STACK_STATE_FRE
 1330              		.loc 1 679 0
 1331 0558 6B78     		ldrb	r3, [r5, #1]
 1332 055a 0021     		movs	r1, #0
 1333 055c 504A     		ldr	r2, .L101+56
 1334 055e D154     		strb	r1, [r2, r3]
 680:Generated_Source\PSoC6\pdl\middleware\ble/cy_ble_event_handler.c **** 
 681:Generated_Source\PSoC6\pdl\middleware\ble/cy_ble_event_handler.c ****         #if ((CY_BLE_GATT_ROLE_SERVER) && (CY_BLE_GATT_DB_CCCD_COUNT != 0u) && \
 682:Generated_Source\PSoC6\pdl\middleware\ble/cy_ble_event_handler.c ****             (CY_BLE_BONDING_REQUIREMENT == CY_BLE_BONDING_YES))
 683:Generated_Source\PSoC6\pdl\middleware\ble/cy_ble_event_handler.c **** 
 684:Generated_Source\PSoC6\pdl\middleware\ble/cy_ble_event_handler.c ****             /* Initialize the CCCD values in the RAM when bonding is enabled */
 685:Generated_Source\PSoC6\pdl\middleware\ble/cy_ble_event_handler.c ****             (void)memcpy((uint8_t*)cy_ble_attValuesCccdMultiple[((cy_stc_ble_conn_handle_t*)evParam
 686:Generated_Source\PSoC6\pdl\middleware\ble/cy_ble_event_handler.c ****                          cy_ble_configPtr->flashStorage->attValuesCCCDFlashMemory[((cy_stc_ble_conn
 687:Generated_Source\PSoC6\pdl\middleware\ble/cy_ble_event_handler.c ****                                                                                    bdHandle],
 688:Generated_Source\PSoC6\pdl\middleware\ble/cy_ble_event_handler.c ****                          CY_BLE_GATT_DB_CCCD_COUNT + CY_BLE_CCCD_CRC_BYTE);
 689:Generated_Source\PSoC6\pdl\middleware\ble/cy_ble_event_handler.c **** 
 690:Generated_Source\PSoC6\pdl\middleware\ble/cy_ble_event_handler.c ****             /* Check CRC for CCCD data */
 691:Generated_Source\PSoC6\pdl\middleware\ble/cy_ble_event_handler.c ****             {
 692:Generated_Source\PSoC6\pdl\middleware\ble/cy_ble_event_handler.c ****                 uint8_t cccdCrc = Cy_BLE_HAL_CalcCRC8(cy_ble_attValuesCccdMultiple[((cy_stc_ble_con
 693:Generated_Source\PSoC6\pdl\middleware\ble/cy_ble_event_handler.c ****                                                       CY_BLE_GATT_DB_CCCD_COUNT);
 694:Generated_Source\PSoC6\pdl\middleware\ble/cy_ble_event_handler.c **** 
 695:Generated_Source\PSoC6\pdl\middleware\ble/cy_ble_event_handler.c ****                 if(cy_ble_attValuesCccdMultiple[((cy_stc_ble_conn_handle_t*)evParam)->attId][CY_BLE
 696:Generated_Source\PSoC6\pdl\middleware\ble/cy_ble_event_handler.c ****                 {
 697:Generated_Source\PSoC6\pdl\middleware\ble/cy_ble_event_handler.c ****                     /* Inform that the CRC for CCCD is wrong */
 698:Generated_Source\PSoC6\pdl\middleware\ble/cy_ble_event_handler.c ****                     Cy_BLE_ApplCallback((uint32_t)CY_BLE_EVT_GATTS_EVT_CCCD_CORRUPT, NULL);
 699:Generated_Source\PSoC6\pdl\middleware\ble/cy_ble_event_handler.c **** 
 700:Generated_Source\PSoC6\pdl\middleware\ble/cy_ble_event_handler.c ****                     /* Clean the CCCD buffer in the RAM */
 701:Generated_Source\PSoC6\pdl\middleware\ble/cy_ble_event_handler.c ****                     (void)memset((uint8_t*)cy_ble_attValuesCccdMultiple[((cy_stc_ble_conn_handle_t*
 702:Generated_Source\PSoC6\pdl\middleware\ble/cy_ble_event_handler.c ****                                   0, CY_BLE_GATT_DB_CCCD_COUNT + CY_BLE_CCCD_CRC_BYTE);
 703:Generated_Source\PSoC6\pdl\middleware\ble/cy_ble_event_handler.c ****                 }
ARM GAS  C:\Users\Smaug\AppData\Local\Temp\ccVZzAJS.s 			page 55


 704:Generated_Source\PSoC6\pdl\middleware\ble/cy_ble_event_handler.c ****             }
 705:Generated_Source\PSoC6\pdl\middleware\ble/cy_ble_event_handler.c ****         #endif /* CY_BLE_GATT_ROLE_SERVER && (CY_BLE_BONDING_REQUIREMENT == CY_BLE_BONDING_YES) */
 706:Generated_Source\PSoC6\pdl\middleware\ble/cy_ble_event_handler.c **** 
 707:Generated_Source\PSoC6\pdl\middleware\ble/cy_ble_event_handler.c ****             (void)Cy_BLE_InvokeServiceEventHandler((uint32_t)event, (void*)evParam);
 1335              		.loc 1 707 0
 1336 0560 2900     		movs	r1, r5
 1337 0562 2000     		movs	r0, r4
 1338 0564 FFF7FEFF 		bl	Cy_BLE_InvokeServiceEventHandler
 1339              	.LVL130:
 708:Generated_Source\PSoC6\pdl\middleware\ble/cy_ble_event_handler.c ****             break;
 1340              		.loc 1 708 0
 1341 0568 6AE0     		b	.L31
 1342              	.LVL131:
 1343              	.L52:
 1344 056a 01AE     		add	r6, sp, #4
 1345 056c 0222     		movs	r2, #2
 1346 056e 2900     		movs	r1, r5
 1347 0570 3000     		movs	r0, r6
 1348              	.LVL132:
 1349 0572 FFF7FEFF 		bl	memcpy
 1350              	.LVL133:
 1351              	.LBB119:
 1352              	.LBB120:
 895:Generated_Source\PSoC6\pdl\middleware\ble/cy_ble_gap.h ****     {
 1353              		.loc 2 895 0
 1354 0576 7378     		ldrb	r3, [r6, #1]
 1355 0578 002B     		cmp	r3, #0
 1356 057a 03D1     		bne	.L90
 897:Generated_Source\PSoC6\pdl\middleware\ble/cy_ble_gap.h ****     }
 1357              		.loc 2 897 0
 1358 057c 0021     		movs	r1, #0
 1359 057e 404A     		ldr	r2, .L101+24
 1360 0580 D154     		strb	r1, [r2, r3]
 1361 0582 05E0     		b	.L91
 1362              	.L90:
 902:Generated_Source\PSoC6\pdl\middleware\ble/cy_ble_gap.h ****     }
 1363              		.loc 2 902 0
 1364 0584 002B     		cmp	r3, #0
 1365 0586 03D1     		bne	.L91
 1366 0588 4449     		ldr	r1, .L101+52
 1367 058a 3848     		ldr	r0, .L101+4
 1368 058c FFF7FEFF 		bl	Cy_SysLib_AssertFailed
 1369              	.LVL134:
 1370              	.L91:
 1371              	.LBE120:
 1372              	.LBE119:
 709:Generated_Source\PSoC6\pdl\middleware\ble/cy_ble_event_handler.c **** 
 710:Generated_Source\PSoC6\pdl\middleware\ble/cy_ble_event_handler.c ****         case CY_BLE_EVT_GATT_DISCONNECT_IND:
 711:Generated_Source\PSoC6\pdl\middleware\ble/cy_ble_event_handler.c ****         #if (CY_BLE_GATT_ROLE_CLIENT)
 712:Generated_Source\PSoC6\pdl\middleware\ble/cy_ble_event_handler.c ****             if((Cy_BLE_GetConnectionState(*(cy_stc_ble_conn_handle_t*)evParam) == CY_BLE_CONN_STATE
 713:Generated_Source\PSoC6\pdl\middleware\ble/cy_ble_event_handler.c ****                (CY_BLE_BONDING_REQUIREMENT == CY_BLE_BONDING_YES))
 714:Generated_Source\PSoC6\pdl\middleware\ble/cy_ble_event_handler.c ****             {
 715:Generated_Source\PSoC6\pdl\middleware\ble/cy_ble_event_handler.c ****                 Cy_BLE_SetConnectionState(*(cy_stc_ble_conn_handle_t*)evParam,
 716:Generated_Source\PSoC6\pdl\middleware\ble/cy_ble_event_handler.c ****                                           CY_BLE_CONN_STATE_CLIENT_DISCONNECTED_DISCOVERED);
 717:Generated_Source\PSoC6\pdl\middleware\ble/cy_ble_event_handler.c ****             }
 718:Generated_Source\PSoC6\pdl\middleware\ble/cy_ble_event_handler.c ****             else
 719:Generated_Source\PSoC6\pdl\middleware\ble/cy_ble_event_handler.c ****         #endif /* CY_BLE_GATT_ROLE_CLIENT */
ARM GAS  C:\Users\Smaug\AppData\Local\Temp\ccVZzAJS.s 			page 56


 720:Generated_Source\PSoC6\pdl\middleware\ble/cy_ble_event_handler.c ****             {
 721:Generated_Source\PSoC6\pdl\middleware\ble/cy_ble_event_handler.c ****                 Cy_BLE_SetConnectionState(*(cy_stc_ble_conn_handle_t*)evParam, CY_BLE_CONN_STATE_DI
 722:Generated_Source\PSoC6\pdl\middleware\ble/cy_ble_event_handler.c ****             #if (CY_BLE_GATT_ROLE_CLIENT)
 723:Generated_Source\PSoC6\pdl\middleware\ble/cy_ble_event_handler.c ****                 (void)Cy_BLE_GATTC_RemoveConnHandle(*(cy_stc_ble_conn_handle_t*)evParam);
 724:Generated_Source\PSoC6\pdl\middleware\ble/cy_ble_event_handler.c ****             #endif /* CY_BLE_GATT_ROLE_CLIENT */
 725:Generated_Source\PSoC6\pdl\middleware\ble/cy_ble_event_handler.c ****             }
 726:Generated_Source\PSoC6\pdl\middleware\ble/cy_ble_event_handler.c **** 
 727:Generated_Source\PSoC6\pdl\middleware\ble/cy_ble_event_handler.c ****             #if ((CY_BLE_GAP_ROLE_PERIPHERAL || CY_BLE_GAP_ROLE_CENTRAL))
 728:Generated_Source\PSoC6\pdl\middleware\ble/cy_ble_event_handler.c ****                 cy_ble_pairStatus[(*(cy_stc_ble_conn_handle_t *)evParam).attId] = false;
 1373              		.loc 1 728 0
 1374 0590 6B78     		ldrb	r3, [r5, #1]
 1375 0592 0021     		movs	r1, #0
 1376 0594 364A     		ldr	r2, .L101+8
 1377 0596 D154     		strb	r1, [r2, r3]
 729:Generated_Source\PSoC6\pdl\middleware\ble/cy_ble_event_handler.c ****             #endif /*((CY_BLE_GAP_ROLE_PERIPHERAL || CY_BLE_GAP_ROLE_CENTRAL))*/
 730:Generated_Source\PSoC6\pdl\middleware\ble/cy_ble_event_handler.c **** 
 731:Generated_Source\PSoC6\pdl\middleware\ble/cy_ble_event_handler.c ****             (void)Cy_BLE_InvokeServiceEventHandler((uint32_t)event, (void*)evParam);
 1378              		.loc 1 731 0
 1379 0598 2900     		movs	r1, r5
 1380 059a 2000     		movs	r0, r4
 1381 059c FFF7FEFF 		bl	Cy_BLE_InvokeServiceEventHandler
 1382              	.LVL135:
 732:Generated_Source\PSoC6\pdl\middleware\ble/cy_ble_event_handler.c ****             break;
 1383              		.loc 1 732 0
 1384 05a0 4EE0     		b	.L31
 1385              	.LVL136:
 1386              	.L53:
 1387              	.LBB121:
 733:Generated_Source\PSoC6\pdl\middleware\ble/cy_ble_event_handler.c **** 
 734:Generated_Source\PSoC6\pdl\middleware\ble/cy_ble_event_handler.c ****         case CY_BLE_EVT_GATTS_XCNHG_MTU_REQ:
 735:Generated_Source\PSoC6\pdl\middleware\ble/cy_ble_event_handler.c ****         {
 736:Generated_Source\PSoC6\pdl\middleware\ble/cy_ble_event_handler.c ****             cy_stc_ble_gatt_xchg_mtu_param_t mtuParam;
 737:Generated_Source\PSoC6\pdl\middleware\ble/cy_ble_event_handler.c ****             mtuParam.connHandle = ((cy_stc_ble_gatt_xchg_mtu_param_t*)evParam)->connHandle;
 1388              		.loc 1 737 0
 1389 05a2 04A8     		add	r0, sp, #16
 1390              	.LVL137:
 1391 05a4 2B88     		ldrh	r3, [r5]
 1392 05a6 0380     		strh	r3, [r0]
 738:Generated_Source\PSoC6\pdl\middleware\ble/cy_ble_event_handler.c ****             mtuParam.mtu = CY_BLE_GATT_MTU;
 1393              		.loc 1 738 0
 1394 05a8 FF23     		movs	r3, #255
 1395 05aa 4380     		strh	r3, [r0, #2]
 739:Generated_Source\PSoC6\pdl\middleware\ble/cy_ble_event_handler.c **** 
 740:Generated_Source\PSoC6\pdl\middleware\ble/cy_ble_event_handler.c ****             (void)Cy_BLE_GATTS_ExchangeMtuRsp(&mtuParam);
 1396              		.loc 1 740 0
 1397 05ac FFF7FEFF 		bl	Cy_BLE_GATTS_ExchangeMtuRsp
 1398              	.LVL138:
 1399              	.LBE121:
 741:Generated_Source\PSoC6\pdl\middleware\ble/cy_ble_event_handler.c ****         }
 742:Generated_Source\PSoC6\pdl\middleware\ble/cy_ble_event_handler.c ****         break;
 1400              		.loc 1 742 0
 1401 05b0 46E0     		b	.L31
 1402              	.LVL139:
 1403              	.L47:
 1404              	.LBB122:
 743:Generated_Source\PSoC6\pdl\middleware\ble/cy_ble_event_handler.c ****     #endif /* CY_BLE_GATT_ROLE_SERVER || CY_BLE_GATT_ROLE_CLIENT */
 744:Generated_Source\PSoC6\pdl\middleware\ble/cy_ble_event_handler.c **** 
ARM GAS  C:\Users\Smaug\AppData\Local\Temp\ccVZzAJS.s 			page 57


 745:Generated_Source\PSoC6\pdl\middleware\ble/cy_ble_event_handler.c ****     #if (CY_BLE_GATT_ROLE_CLIENT)
 746:Generated_Source\PSoC6\pdl\middleware\ble/cy_ble_event_handler.c ****         case CY_BLE_EVT_GAPC_SCAN_PROGRESS_RESULT:
 747:Generated_Source\PSoC6\pdl\middleware\ble/cy_ble_event_handler.c ****             (void)Cy_BLE_InvokeServiceEventHandler((uint32_t)event, (void*)evParam);
 748:Generated_Source\PSoC6\pdl\middleware\ble/cy_ble_event_handler.c ****             break;
 749:Generated_Source\PSoC6\pdl\middleware\ble/cy_ble_event_handler.c ****     #endif /* CY_BLE_GATT_ROLE_CLIENT */
 750:Generated_Source\PSoC6\pdl\middleware\ble/cy_ble_event_handler.c **** 
 751:Generated_Source\PSoC6\pdl\middleware\ble/cy_ble_event_handler.c ****     #if (CY_BLE_GATT_ROLE_SERVER)
 752:Generated_Source\PSoC6\pdl\middleware\ble/cy_ble_event_handler.c ****         case CY_BLE_EVT_GATTS_WRITE_REQ:
 753:Generated_Source\PSoC6\pdl\middleware\ble/cy_ble_event_handler.c ****         {
 754:Generated_Source\PSoC6\pdl\middleware\ble/cy_ble_event_handler.c ****             cy_en_ble_gatt_err_code_t gattErr;
 755:Generated_Source\PSoC6\pdl\middleware\ble/cy_ble_event_handler.c ****             cy_ble_gatt_db_attr_handle_t attrHandle;
 756:Generated_Source\PSoC6\pdl\middleware\ble/cy_ble_event_handler.c **** 
 757:Generated_Source\PSoC6\pdl\middleware\ble/cy_ble_event_handler.c ****             /* Process GATT service */
 758:Generated_Source\PSoC6\pdl\middleware\ble/cy_ble_event_handler.c ****             gattErr = Cy_BLE_GATTS_WriteEventHandler((cy_stc_ble_gatts_write_cmd_req_param_t*)evPar
 1405              		.loc 1 758 0
 1406 05b2 2800     		movs	r0, r5
 1407              	.LVL140:
 1408 05b4 FFF7FEFF 		bl	Cy_BLE_GATTS_WriteEventHandler
 1409              	.LVL141:
 1410 05b8 011E     		subs	r1, r0, #0
 1411              	.LVL142:
 759:Generated_Source\PSoC6\pdl\middleware\ble/cy_ble_event_handler.c **** 
 760:Generated_Source\PSoC6\pdl\middleware\ble/cy_ble_event_handler.c ****             /* Process all registered service */
 761:Generated_Source\PSoC6\pdl\middleware\ble/cy_ble_event_handler.c ****             if(gattErr == CY_BLE_GATT_ERR_NONE)
 1412              		.loc 1 761 0
 1413 05ba 04D1     		bne	.L92
 762:Generated_Source\PSoC6\pdl\middleware\ble/cy_ble_event_handler.c ****             {
 763:Generated_Source\PSoC6\pdl\middleware\ble/cy_ble_event_handler.c ****                 gattErr = Cy_BLE_InvokeServiceEventHandler((uint32_t)event, (void*)evParam);
 1414              		.loc 1 763 0
 1415 05bc 2900     		movs	r1, r5
 1416 05be 2000     		movs	r0, r4
 1417              	.LVL143:
 1418 05c0 FFF7FEFF 		bl	Cy_BLE_InvokeServiceEventHandler
 1419              	.LVL144:
 1420 05c4 0100     		movs	r1, r0
 1421              	.LVL145:
 1422              	.L92:
 764:Generated_Source\PSoC6\pdl\middleware\ble/cy_ble_event_handler.c ****             }
 765:Generated_Source\PSoC6\pdl\middleware\ble/cy_ble_event_handler.c ****             /* Send response if event was handled by the service */
 766:Generated_Source\PSoC6\pdl\middleware\ble/cy_ble_event_handler.c ****             Cy_BLE_SendWriteResponse((cy_stc_ble_gatts_write_cmd_req_param_t*)evParam, gattErr);
 1423              		.loc 1 766 0
 1424 05c6 2800     		movs	r0, r5
 1425 05c8 FFF7FEFF 		bl	Cy_BLE_SendWriteResponse
 1426              	.LVL146:
 767:Generated_Source\PSoC6\pdl\middleware\ble/cy_ble_event_handler.c **** 
 768:Generated_Source\PSoC6\pdl\middleware\ble/cy_ble_event_handler.c ****             /* Call Cy_BLE_ApplCallback if event was not processed */
 769:Generated_Source\PSoC6\pdl\middleware\ble/cy_ble_event_handler.c ****             if((cy_ble_eventHandlerFlag & (CY_BLE_CALLBACK | CY_BLE_ENABLE_ALL_EVENTS)) != 0u)
 1427              		.loc 1 769 0
 1428 05cc 2F4B     		ldr	r3, .L101+36
 1429 05ce 1A78     		ldrb	r2, [r3]
 1430 05d0 1123     		movs	r3, #17
 1431 05d2 1A42     		tst	r2, r3
 1432 05d4 04D0     		beq	.L93
 770:Generated_Source\PSoC6\pdl\middleware\ble/cy_ble_event_handler.c ****             {
 771:Generated_Source\PSoC6\pdl\middleware\ble/cy_ble_event_handler.c ****                 Cy_BLE_ApplCallback((uint32_t)event, evParam);
 1433              		.loc 1 771 0
 1434 05d6 334B     		ldr	r3, .L101+60
ARM GAS  C:\Users\Smaug\AppData\Local\Temp\ccVZzAJS.s 			page 58


 1435 05d8 1B68     		ldr	r3, [r3]
 1436 05da 2900     		movs	r1, r5
 1437 05dc 2000     		movs	r0, r4
 1438 05de 9847     		blx	r3
 1439              	.LVL147:
 1440              	.L93:
 772:Generated_Source\PSoC6\pdl\middleware\ble/cy_ble_event_handler.c ****             }
 773:Generated_Source\PSoC6\pdl\middleware\ble/cy_ble_event_handler.c **** 
 774:Generated_Source\PSoC6\pdl\middleware\ble/cy_ble_event_handler.c ****             /* Send Error response if unknown attr handle */
 775:Generated_Source\PSoC6\pdl\middleware\ble/cy_ble_event_handler.c ****             attrHandle = ((cy_stc_ble_gatts_write_cmd_req_param_t*)evParam)->handleValPair.attrHand
 1441              		.loc 1 775 0
 1442 05e0 2A89     		ldrh	r2, [r5, #8]
 1443              	.LVL148:
 776:Generated_Source\PSoC6\pdl\middleware\ble/cy_ble_event_handler.c ****             if( ((cy_ble_eventHandlerFlag & CY_BLE_CALLBACK) != 0u) &&
 1444              		.loc 1 776 0
 1445 05e2 2A4B     		ldr	r3, .L101+36
 1446 05e4 1B78     		ldrb	r3, [r3]
 1447 05e6 DB07     		lsls	r3, r3, #31
 1448 05e8 0DD5     		bpl	.L94
 777:Generated_Source\PSoC6\pdl\middleware\ble/cy_ble_event_handler.c ****                 ((attrHandle > CY_BLE_GATT_DB_INDEX_COUNT) || (attrHandle == 0u)))
 1449              		.loc 1 777 0 discriminator 1
 1450 05ea 531E     		subs	r3, r2, #1
 1451 05ec 9BB2     		uxth	r3, r3
 776:Generated_Source\PSoC6\pdl\middleware\ble/cy_ble_event_handler.c ****             if( ((cy_ble_eventHandlerFlag & CY_BLE_CALLBACK) != 0u) &&
 1452              		.loc 1 776 0 discriminator 1
 1453 05ee 142B     		cmp	r3, #20
 1454 05f0 09D9     		bls	.L94
 1455              	.LBB123:
 778:Generated_Source\PSoC6\pdl\middleware\ble/cy_ble_event_handler.c ****             {
 779:Generated_Source\PSoC6\pdl\middleware\ble/cy_ble_event_handler.c ****                 /* Processing unknown attr handle (send an Error Response) */
 780:Generated_Source\PSoC6\pdl\middleware\ble/cy_ble_event_handler.c ****                 cy_stc_ble_gatt_err_param_t err_param;
 781:Generated_Source\PSoC6\pdl\middleware\ble/cy_ble_event_handler.c ****                 err_param.errInfo.opCode     = CY_BLE_GATT_WRITE_REQ;
 1456              		.loc 1 781 0
 1457 05f2 04A8     		add	r0, sp, #16
 1458 05f4 1223     		movs	r3, #18
 1459 05f6 0371     		strb	r3, [r0, #4]
 782:Generated_Source\PSoC6\pdl\middleware\ble/cy_ble_event_handler.c ****                 err_param.errInfo.attrHandle = ((cy_stc_ble_gatts_write_cmd_req_param_t*)evParam)->
 1460              		.loc 1 782 0
 1461 05f8 4280     		strh	r2, [r0, #2]
 783:Generated_Source\PSoC6\pdl\middleware\ble/cy_ble_event_handler.c ****                 err_param.connHandle         = ((cy_stc_ble_gatts_write_cmd_req_param_t*)evParam)->
 1462              		.loc 1 783 0
 1463 05fa AB89     		ldrh	r3, [r5, #12]
 1464 05fc 0380     		strh	r3, [r0]
 784:Generated_Source\PSoC6\pdl\middleware\ble/cy_ble_event_handler.c ****                 err_param.errInfo.errorCode  = CY_BLE_GATT_ERR_INVALID_HANDLE;
 1465              		.loc 1 784 0
 1466 05fe 0123     		movs	r3, #1
 1467 0600 4371     		strb	r3, [r0, #5]
 785:Generated_Source\PSoC6\pdl\middleware\ble/cy_ble_event_handler.c **** 
 786:Generated_Source\PSoC6\pdl\middleware\ble/cy_ble_event_handler.c ****                 (void)Cy_BLE_GATTS_ErrorRsp(&err_param);
 1468              		.loc 1 786 0
 1469 0602 FFF7FEFF 		bl	Cy_BLE_GATTS_ErrorRsp
 1470              	.LVL149:
 1471              	.L94:
 1472              	.LBE123:
 787:Generated_Source\PSoC6\pdl\middleware\ble/cy_ble_event_handler.c ****             }
 788:Generated_Source\PSoC6\pdl\middleware\ble/cy_ble_event_handler.c **** 
 789:Generated_Source\PSoC6\pdl\middleware\ble/cy_ble_event_handler.c ****             /* Indicate that request was handled */
ARM GAS  C:\Users\Smaug\AppData\Local\Temp\ccVZzAJS.s 			page 59


 790:Generated_Source\PSoC6\pdl\middleware\ble/cy_ble_event_handler.c ****             cy_ble_eventHandlerFlag &= (uint8_t) ~CY_BLE_CALLBACK;
 1473              		.loc 1 790 0
 1474 0606 214A     		ldr	r2, .L101+36
 1475 0608 1378     		ldrb	r3, [r2]
 1476 060a 0121     		movs	r1, #1
 1477 060c 8B43     		bics	r3, r1
 1478 060e 1370     		strb	r3, [r2]
 1479              	.LBE122:
 791:Generated_Source\PSoC6\pdl\middleware\ble/cy_ble_event_handler.c ****         }
 792:Generated_Source\PSoC6\pdl\middleware\ble/cy_ble_event_handler.c ****         break;
 1480              		.loc 1 792 0
 1481 0610 16E0     		b	.L31
 1482              	.LVL150:
 1483              	.L56:
 793:Generated_Source\PSoC6\pdl\middleware\ble/cy_ble_event_handler.c **** 
 794:Generated_Source\PSoC6\pdl\middleware\ble/cy_ble_event_handler.c ****         case CY_BLE_EVT_GATTS_WRITE_CMD_REQ:
 795:Generated_Source\PSoC6\pdl\middleware\ble/cy_ble_event_handler.c ****             (void)Cy_BLE_InvokeServiceEventHandler((uint32_t)event, (void*)evParam);
 1484              		.loc 1 795 0
 1485 0612 2900     		movs	r1, r5
 1486 0614 FFF7FEFF 		bl	Cy_BLE_InvokeServiceEventHandler
 1487              	.LVL151:
 796:Generated_Source\PSoC6\pdl\middleware\ble/cy_ble_event_handler.c ****             break;
 1488              		.loc 1 796 0
 1489 0618 12E0     		b	.L31
 1490              	.LVL152:
 1491              	.L57:
 797:Generated_Source\PSoC6\pdl\middleware\ble/cy_ble_event_handler.c **** 
 798:Generated_Source\PSoC6\pdl\middleware\ble/cy_ble_event_handler.c ****         case CY_BLE_EVT_GATTS_PREP_WRITE_REQ:
 799:Generated_Source\PSoC6\pdl\middleware\ble/cy_ble_event_handler.c ****             (void)Cy_BLE_InvokeServiceEventHandler((uint32_t)event, (void*)evParam);
 1492              		.loc 1 799 0
 1493 061a 2900     		movs	r1, r5
 1494 061c FFF7FEFF 		bl	Cy_BLE_InvokeServiceEventHandler
 1495              	.LVL153:
 800:Generated_Source\PSoC6\pdl\middleware\ble/cy_ble_event_handler.c ****             break;
 1496              		.loc 1 800 0
 1497 0620 0EE0     		b	.L31
 1498              	.LVL154:
 1499              	.L54:
 801:Generated_Source\PSoC6\pdl\middleware\ble/cy_ble_event_handler.c **** 
 802:Generated_Source\PSoC6\pdl\middleware\ble/cy_ble_event_handler.c ****         case CY_BLE_EVT_GATTS_EXEC_WRITE_REQ:
 803:Generated_Source\PSoC6\pdl\middleware\ble/cy_ble_event_handler.c ****             (void)Cy_BLE_InvokeServiceEventHandler((uint32_t)event, (void*)evParam);
 1500              		.loc 1 803 0
 1501 0622 2900     		movs	r1, r5
 1502 0624 FFF7FEFF 		bl	Cy_BLE_InvokeServiceEventHandler
 1503              	.LVL155:
 804:Generated_Source\PSoC6\pdl\middleware\ble/cy_ble_event_handler.c ****             break;
 1504              		.loc 1 804 0
 1505 0628 0AE0     		b	.L31
 1506              	.LVL156:
 1507              	.L60:
 805:Generated_Source\PSoC6\pdl\middleware\ble/cy_ble_event_handler.c **** 
 806:Generated_Source\PSoC6\pdl\middleware\ble/cy_ble_event_handler.c ****         case CY_BLE_EVT_GATTS_HANDLE_VALUE_CNF:
 807:Generated_Source\PSoC6\pdl\middleware\ble/cy_ble_event_handler.c ****             (void)Cy_BLE_InvokeServiceEventHandler((uint32_t)event, (void*)evParam);
 1508              		.loc 1 807 0
 1509 062a 2900     		movs	r1, r5
 1510 062c FFF7FEFF 		bl	Cy_BLE_InvokeServiceEventHandler
 1511              	.LVL157:
ARM GAS  C:\Users\Smaug\AppData\Local\Temp\ccVZzAJS.s 			page 60


 808:Generated_Source\PSoC6\pdl\middleware\ble/cy_ble_event_handler.c ****             break;
 1512              		.loc 1 808 0
 1513 0630 06E0     		b	.L31
 1514              	.LVL158:
 1515              	.L58:
 809:Generated_Source\PSoC6\pdl\middleware\ble/cy_ble_event_handler.c **** 
 810:Generated_Source\PSoC6\pdl\middleware\ble/cy_ble_event_handler.c ****         case CY_BLE_EVT_GATTS_READ_CHAR_VAL_ACCESS_REQ:
 811:Generated_Source\PSoC6\pdl\middleware\ble/cy_ble_event_handler.c ****         #if (CY_BLE_GATT_DB_CCCD_COUNT != 0u)
 812:Generated_Source\PSoC6\pdl\middleware\ble/cy_ble_event_handler.c ****             (void)Cy_BLE_GATTS_ReadAttributeValueCCCDReqHandler((cy_stc_ble_gatts_char_val_read_req
 1516              		.loc 1 812 0
 1517 0632 2800     		movs	r0, r5
 1518              	.LVL159:
 1519 0634 FFF7FEFF 		bl	Cy_BLE_GATTS_ReadAttributeValueCCCDReqHandler
 1520              	.LVL160:
 813:Generated_Source\PSoC6\pdl\middleware\ble/cy_ble_event_handler.c ****         #endif  /* (CY_BLE_GATT_DB_CCCD_COUNT != 0u) */
 814:Generated_Source\PSoC6\pdl\middleware\ble/cy_ble_event_handler.c ****             (void)Cy_BLE_InvokeServiceEventHandler((uint32_t)event, (void*)evParam);
 1521              		.loc 1 814 0
 1522 0638 2900     		movs	r1, r5
 1523 063a 2000     		movs	r0, r4
 1524 063c FFF7FEFF 		bl	Cy_BLE_InvokeServiceEventHandler
 1525              	.LVL161:
 1526              	.L31:
 815:Generated_Source\PSoC6\pdl\middleware\ble/cy_ble_event_handler.c ****             break;
 816:Generated_Source\PSoC6\pdl\middleware\ble/cy_ble_event_handler.c ****     #endif /* CY_BLE_GATT_ROLE_SERVER */
 817:Generated_Source\PSoC6\pdl\middleware\ble/cy_ble_event_handler.c **** 
 818:Generated_Source\PSoC6\pdl\middleware\ble/cy_ble_event_handler.c ****     #if (CY_BLE_GATT_ROLE_CLIENT)
 819:Generated_Source\PSoC6\pdl\middleware\ble/cy_ble_event_handler.c ****         case CY_BLE_EVT_GATTC_READ_BY_GROUP_TYPE_RSP:
 820:Generated_Source\PSoC6\pdl\middleware\ble/cy_ble_event_handler.c ****             Cy_BLE_ReadByGroupEventHandler((cy_stc_ble_gattc_read_by_grp_rsp_param_t*)evParam);
 821:Generated_Source\PSoC6\pdl\middleware\ble/cy_ble_event_handler.c ****             break;
 822:Generated_Source\PSoC6\pdl\middleware\ble/cy_ble_event_handler.c **** 
 823:Generated_Source\PSoC6\pdl\middleware\ble/cy_ble_event_handler.c ****         case CY_BLE_EVT_GATTC_READ_BY_TYPE_RSP:
 824:Generated_Source\PSoC6\pdl\middleware\ble/cy_ble_event_handler.c ****             Cy_BLE_ReadByTypeEventHandler((cy_stc_ble_gattc_read_by_type_rsp_param_t*)evParam);
 825:Generated_Source\PSoC6\pdl\middleware\ble/cy_ble_event_handler.c ****             break;
 826:Generated_Source\PSoC6\pdl\middleware\ble/cy_ble_event_handler.c **** 
 827:Generated_Source\PSoC6\pdl\middleware\ble/cy_ble_event_handler.c ****         case CY_BLE_EVT_GATTC_READ_BLOB_RSP:
 828:Generated_Source\PSoC6\pdl\middleware\ble/cy_ble_event_handler.c ****             (void)Cy_BLE_InvokeServiceEventHandler((uint32_t)event, (void*)evParam);
 829:Generated_Source\PSoC6\pdl\middleware\ble/cy_ble_event_handler.c ****             break;
 830:Generated_Source\PSoC6\pdl\middleware\ble/cy_ble_event_handler.c **** 
 831:Generated_Source\PSoC6\pdl\middleware\ble/cy_ble_event_handler.c ****         case CY_BLE_EVT_GATTC_LONG_PROCEDURE_END:
 832:Generated_Source\PSoC6\pdl\middleware\ble/cy_ble_event_handler.c ****             Cy_BLE_LongProcedureEndEventHandler(((cy_stc_ble_gattc_long_procedure_end_param_t*)evPa
 833:Generated_Source\PSoC6\pdl\middleware\ble/cy_ble_event_handler.c ****             break;
 834:Generated_Source\PSoC6\pdl\middleware\ble/cy_ble_event_handler.c **** 
 835:Generated_Source\PSoC6\pdl\middleware\ble/cy_ble_event_handler.c ****         case CY_BLE_EVT_GATTC_FIND_INFO_RSP:
 836:Generated_Source\PSoC6\pdl\middleware\ble/cy_ble_event_handler.c ****             Cy_BLE_FindInfoEventHandler((cy_stc_ble_gattc_find_info_rsp_param_t*)evParam);
 837:Generated_Source\PSoC6\pdl\middleware\ble/cy_ble_event_handler.c ****             break;
 838:Generated_Source\PSoC6\pdl\middleware\ble/cy_ble_event_handler.c **** 
 839:Generated_Source\PSoC6\pdl\middleware\ble/cy_ble_event_handler.c ****         case CY_BLE_EVT_GATTC_ERROR_RSP:
 840:Generated_Source\PSoC6\pdl\middleware\ble/cy_ble_event_handler.c ****             Cy_BLE_ErrorResponseEventHandler((cy_stc_ble_gatt_err_param_t*)evParam);
 841:Generated_Source\PSoC6\pdl\middleware\ble/cy_ble_event_handler.c ****             (void)Cy_BLE_InvokeServiceEventHandler((uint32_t)event, (void*)evParam);
 842:Generated_Source\PSoC6\pdl\middleware\ble/cy_ble_event_handler.c ****             break;
 843:Generated_Source\PSoC6\pdl\middleware\ble/cy_ble_event_handler.c **** 
 844:Generated_Source\PSoC6\pdl\middleware\ble/cy_ble_event_handler.c ****         case CY_BLE_EVT_GATTC_HANDLE_VALUE_NTF:
 845:Generated_Source\PSoC6\pdl\middleware\ble/cy_ble_event_handler.c ****             (void)Cy_BLE_InvokeServiceEventHandler((uint32_t)event, (void*)evParam);
 846:Generated_Source\PSoC6\pdl\middleware\ble/cy_ble_event_handler.c ****             break;
 847:Generated_Source\PSoC6\pdl\middleware\ble/cy_ble_event_handler.c **** 
 848:Generated_Source\PSoC6\pdl\middleware\ble/cy_ble_event_handler.c ****         case CY_BLE_EVT_GATTC_HANDLE_VALUE_IND:
 849:Generated_Source\PSoC6\pdl\middleware\ble/cy_ble_event_handler.c ****             Cy_BLE_GATTC_IndicationEventHandler((cy_stc_ble_gattc_handle_value_ind_param_t*)evParam
ARM GAS  C:\Users\Smaug\AppData\Local\Temp\ccVZzAJS.s 			page 61


 850:Generated_Source\PSoC6\pdl\middleware\ble/cy_ble_event_handler.c ****             (void)Cy_BLE_InvokeServiceEventHandler((uint32_t)event, (void*)evParam);
 851:Generated_Source\PSoC6\pdl\middleware\ble/cy_ble_event_handler.c **** 
 852:Generated_Source\PSoC6\pdl\middleware\ble/cy_ble_event_handler.c ****             /* Respond with a Handle Value Confirmation when request handled */
 853:Generated_Source\PSoC6\pdl\middleware\ble/cy_ble_event_handler.c ****             if((cy_ble_eventHandlerFlag & CY_BLE_CALLBACK) == 0u)
 854:Generated_Source\PSoC6\pdl\middleware\ble/cy_ble_event_handler.c ****             {
 855:Generated_Source\PSoC6\pdl\middleware\ble/cy_ble_event_handler.c ****                 cy_stc_ble_gattc_confirmation_req_t confirmationParam;
 856:Generated_Source\PSoC6\pdl\middleware\ble/cy_ble_event_handler.c ****                 confirmationParam.connHandle = ((cy_stc_ble_gattc_handle_value_ind_param_t*)evParam
 857:Generated_Source\PSoC6\pdl\middleware\ble/cy_ble_event_handler.c **** 
 858:Generated_Source\PSoC6\pdl\middleware\ble/cy_ble_event_handler.c ****                 (void)Cy_BLE_GATTC_Confirmation(&confirmationParam);
 859:Generated_Source\PSoC6\pdl\middleware\ble/cy_ble_event_handler.c ****             }
 860:Generated_Source\PSoC6\pdl\middleware\ble/cy_ble_event_handler.c ****             break;
 861:Generated_Source\PSoC6\pdl\middleware\ble/cy_ble_event_handler.c **** 
 862:Generated_Source\PSoC6\pdl\middleware\ble/cy_ble_event_handler.c ****         case CY_BLE_EVT_GATTC_READ_RSP:
 863:Generated_Source\PSoC6\pdl\middleware\ble/cy_ble_event_handler.c ****             (void)Cy_BLE_InvokeServiceEventHandler((uint32_t)event, (void*)evParam);
 864:Generated_Source\PSoC6\pdl\middleware\ble/cy_ble_event_handler.c ****             break;
 865:Generated_Source\PSoC6\pdl\middleware\ble/cy_ble_event_handler.c **** 
 866:Generated_Source\PSoC6\pdl\middleware\ble/cy_ble_event_handler.c ****         case CY_BLE_EVT_GATTC_READ_MULTI_RSP:
 867:Generated_Source\PSoC6\pdl\middleware\ble/cy_ble_event_handler.c ****             (void)Cy_BLE_InvokeServiceEventHandler((uint32_t)event, (void*)evParam);
 868:Generated_Source\PSoC6\pdl\middleware\ble/cy_ble_event_handler.c ****             break;
 869:Generated_Source\PSoC6\pdl\middleware\ble/cy_ble_event_handler.c **** 
 870:Generated_Source\PSoC6\pdl\middleware\ble/cy_ble_event_handler.c ****         case CY_BLE_EVT_GATTC_WRITE_RSP:
 871:Generated_Source\PSoC6\pdl\middleware\ble/cy_ble_event_handler.c ****             (void)Cy_BLE_InvokeServiceEventHandler((uint32_t)event, (void*)evParam);
 872:Generated_Source\PSoC6\pdl\middleware\ble/cy_ble_event_handler.c ****             break;
 873:Generated_Source\PSoC6\pdl\middleware\ble/cy_ble_event_handler.c **** 
 874:Generated_Source\PSoC6\pdl\middleware\ble/cy_ble_event_handler.c ****         case CY_BLE_EVT_GATTC_EXEC_WRITE_RSP:
 875:Generated_Source\PSoC6\pdl\middleware\ble/cy_ble_event_handler.c ****             (void)Cy_BLE_InvokeServiceEventHandler((uint32_t)event, (void*)evParam);
 876:Generated_Source\PSoC6\pdl\middleware\ble/cy_ble_event_handler.c ****             break;
 877:Generated_Source\PSoC6\pdl\middleware\ble/cy_ble_event_handler.c **** 
 878:Generated_Source\PSoC6\pdl\middleware\ble/cy_ble_event_handler.c ****         case CY_BLE_EVT_GATTC_STOP_CMD_COMPLETE:
 879:Generated_Source\PSoC6\pdl\middleware\ble/cy_ble_event_handler.c ****             {
 880:Generated_Source\PSoC6\pdl\middleware\ble/cy_ble_event_handler.c ****                 uint32_t discIdx = Cy_BLE_GetDiscoveryIdx(*(cy_stc_ble_conn_handle_t *)evParam);
 881:Generated_Source\PSoC6\pdl\middleware\ble/cy_ble_event_handler.c ****                 if( (Cy_BLE_GetConnectionState(*(cy_stc_ble_conn_handle_t *)evParam) == CY_BLE_CONN
 882:Generated_Source\PSoC6\pdl\middleware\ble/cy_ble_event_handler.c ****                     (discIdx < CY_BLE_GATTC_COUNT) && (cy_ble_discovery[discIdx].autoDiscoveryFlag 
 883:Generated_Source\PSoC6\pdl\middleware\ble/cy_ble_event_handler.c ****                 {
 884:Generated_Source\PSoC6\pdl\middleware\ble/cy_ble_event_handler.c **** 
 885:Generated_Source\PSoC6\pdl\middleware\ble/cy_ble_event_handler.c ****                     cy_stc_ble_gattc_read_req_t readReqParam =
 886:Generated_Source\PSoC6\pdl\middleware\ble/cy_ble_event_handler.c ****                     {
 887:Generated_Source\PSoC6\pdl\middleware\ble/cy_ble_event_handler.c ****                         .attrHandle = cy_ble_discovery[discIdx].inclInfo.inclHandleRange.startHandl
 888:Generated_Source\PSoC6\pdl\middleware\ble/cy_ble_event_handler.c ****                         .connHandle = *(cy_stc_ble_conn_handle_t *)evParam
 889:Generated_Source\PSoC6\pdl\middleware\ble/cy_ble_event_handler.c ****                     };
 890:Generated_Source\PSoC6\pdl\middleware\ble/cy_ble_event_handler.c **** 
 891:Generated_Source\PSoC6\pdl\middleware\ble/cy_ble_event_handler.c ****                     /* Get the included service UUID when the included service uses a 128-bit
 892:Generated_Source\PSoC6\pdl\middleware\ble/cy_ble_event_handler.c ****                      * UUID, a Read Request is used. The Attribute Handle for the Read Request is
 893:Generated_Source\PSoC6\pdl\middleware\ble/cy_ble_event_handler.c ****                      * the Attribute Handle of the included service.
 894:Generated_Source\PSoC6\pdl\middleware\ble/cy_ble_event_handler.c ****                      */
 895:Generated_Source\PSoC6\pdl\middleware\ble/cy_ble_event_handler.c **** 
 896:Generated_Source\PSoC6\pdl\middleware\ble/cy_ble_event_handler.c ****                     if(Cy_BLE_GATTC_ReadCharacteristicValue(&readReqParam) != CY_BLE_SUCCESS)
 897:Generated_Source\PSoC6\pdl\middleware\ble/cy_ble_event_handler.c ****                     {
 898:Generated_Source\PSoC6\pdl\middleware\ble/cy_ble_event_handler.c ****                         Cy_BLE_ApplCallback((uint32_t)CY_BLE_EVT_GATTC_INCL_DISCOVERY_FAILED, (cy_s
 899:Generated_Source\PSoC6\pdl\middleware\ble/cy_ble_event_handler.c ****                         cy_ble_discovery[discIdx].autoDiscoveryFlag = 0u;
 900:Generated_Source\PSoC6\pdl\middleware\ble/cy_ble_event_handler.c ****                     }
 901:Generated_Source\PSoC6\pdl\middleware\ble/cy_ble_event_handler.c **** 
 902:Generated_Source\PSoC6\pdl\middleware\ble/cy_ble_event_handler.c ****                     cy_ble_eventHandlerFlag &= (uint8_t) ~CY_BLE_CALLBACK;
 903:Generated_Source\PSoC6\pdl\middleware\ble/cy_ble_event_handler.c ****                 }
 904:Generated_Source\PSoC6\pdl\middleware\ble/cy_ble_event_handler.c ****             }
 905:Generated_Source\PSoC6\pdl\middleware\ble/cy_ble_event_handler.c ****             break;
 906:Generated_Source\PSoC6\pdl\middleware\ble/cy_ble_event_handler.c ****     #endif /* CY_BLE_GATT_ROLE_CLIENT */
ARM GAS  C:\Users\Smaug\AppData\Local\Temp\ccVZzAJS.s 			page 62


 907:Generated_Source\PSoC6\pdl\middleware\ble/cy_ble_event_handler.c **** 
 908:Generated_Source\PSoC6\pdl\middleware\ble/cy_ble_event_handler.c ****     #if ((CY_BLE_GAP_ROLE_PERIPHERAL || CY_BLE_GAP_ROLE_CENTRAL) && (CY_BLE_BONDING_REQUIREMENT == 
 909:Generated_Source\PSoC6\pdl\middleware\ble/cy_ble_event_handler.c ****         case CY_BLE_EVT_PENDING_FLASH_WRITE:
 910:Generated_Source\PSoC6\pdl\middleware\ble/cy_ble_event_handler.c ****             cy_ble_pendingFlashWrite |= CY_BLE_PENDING_STACK_FLASH_WRITE_BIT;
 911:Generated_Source\PSoC6\pdl\middleware\ble/cy_ble_event_handler.c ****             break;
 912:Generated_Source\PSoC6\pdl\middleware\ble/cy_ble_event_handler.c ****     #endif  /* (CY_BLE_BONDING_REQUIREMENT == CY_BLE_BONDING_YES) */
 913:Generated_Source\PSoC6\pdl\middleware\ble/cy_ble_event_handler.c **** 
 914:Generated_Source\PSoC6\pdl\middleware\ble/cy_ble_event_handler.c ****         default:
 915:Generated_Source\PSoC6\pdl\middleware\ble/cy_ble_event_handler.c ****             break;
 916:Generated_Source\PSoC6\pdl\middleware\ble/cy_ble_event_handler.c ****     }
 917:Generated_Source\PSoC6\pdl\middleware\ble/cy_ble_event_handler.c **** 
 918:Generated_Source\PSoC6\pdl\middleware\ble/cy_ble_event_handler.c ****     if((cy_ble_eventHandlerFlag & (CY_BLE_CALLBACK | CY_BLE_ENABLE_ALL_EVENTS)) != 0u)
 1527              		.loc 1 918 0
 1528 0640 124B     		ldr	r3, .L101+36
 1529 0642 1A78     		ldrb	r2, [r3]
 1530 0644 1123     		movs	r3, #17
 1531 0646 1A42     		tst	r2, r3
 1532 0648 09D0     		beq	.L30
 919:Generated_Source\PSoC6\pdl\middleware\ble/cy_ble_event_handler.c ****     {
 920:Generated_Source\PSoC6\pdl\middleware\ble/cy_ble_event_handler.c ****         cy_ble_eventHandlerFlag &= (uint8_t) ~CY_BLE_CALLBACK;
 1533              		.loc 1 920 0
 1534 064a 104A     		ldr	r2, .L101+36
 1535 064c 1378     		ldrb	r3, [r2]
 1536 064e 0121     		movs	r1, #1
 1537 0650 8B43     		bics	r3, r1
 1538 0652 1370     		strb	r3, [r2]
 921:Generated_Source\PSoC6\pdl\middleware\ble/cy_ble_event_handler.c ****         Cy_BLE_ApplCallback((uint32_t)event, evParam);
 1539              		.loc 1 921 0
 1540 0654 134B     		ldr	r3, .L101+60
 1541 0656 1B68     		ldr	r3, [r3]
 1542 0658 2900     		movs	r1, r5
 1543 065a 2000     		movs	r0, r4
 1544 065c 9847     		blx	r3
 1545              	.LVL162:
 1546              	.L30:
 922:Generated_Source\PSoC6\pdl\middleware\ble/cy_ble_event_handler.c ****     }
 923:Generated_Source\PSoC6\pdl\middleware\ble/cy_ble_event_handler.c **** }
 1547              		.loc 1 923 0
 1548 065e 0AB0     		add	sp, sp, #40
 1549              		@ sp needed
 1550              	.LVL163:
 1551 0660 04BC     		pop	{r2}
 1552 0662 9046     		mov	r8, r2
 1553 0664 F0BD     		pop	{r4, r5, r6, r7, pc}
 1554              	.L102:
 1555 0666 C046     		.align	2
 1556              	.L101:
 1557 0668 CA030000 		.word	970
 1558 066c 00000000 		.word	.LC16
 1559 0670 00000000 		.word	cy_ble_pairStatus
 1560 0674 00000000 		.word	cy_ble_advState
 1561 0678 00000000 		.word	.LANCHOR0
 1562 067c 00000000 		.word	cy_ble_connHandle
 1563 0680 00000000 		.word	cy_ble_connState
 1564 0684 00000000 		.word	cy_ble_devConnRole
 1565 0688 00000000 		.word	cy_ble_state
 1566 068c 00000000 		.word	cy_ble_eventHandlerFlag
ARM GAS  C:\Users\Smaug\AppData\Local\Temp\ccVZzAJS.s 			page 63


 1567 0690 00000000 		.word	cy_ble_configPtr
 1568 0694 00000000 		.word	cy_ble_advIndex
 1569 0698 00000000 		.word	cy_ble_advertisingIntervalType
 1570 069c 86030000 		.word	902
 1571 06a0 00000000 		.word	cy_ble_busyStatus
 1572 06a4 00000000 		.word	Cy_BLE_ApplCallback
 1573              		.cfi_endproc
 1574              	.LFE172:
 1575              		.size	Cy_BLE_EventHandler, .-Cy_BLE_EventHandler
 1576              		.comm	cy_ble_eventHandler,8,4
 1577              		.comm	cy_ble_advertisingIntervalType,1,1
 1578              		.comm	cy_ble_cmdStatus,4,4
 1579              		.comm	cy_ble_eventHandlerFlag,1,1
 1580              		.comm	cy_ble_busyStatus,1,4
 1581              		.section	.rodata
 1582              		.align	2
 1583              		.set	.LANCHOR0,. + 0
 1584              	.LC0:
 1585 0000 7F       		.byte	127
 1586 0001 08       		.byte	8
 1587 0002 00       		.byte	0
 1588 0003 00       		.byte	0
 1589 0004 00       		.byte	0
 1590 0005 00       		.byte	0
 1591 0006 00       		.byte	0
 1592 0007 00       		.byte	0
 1593              	.LC1:
 1594 0008 FF       		.byte	-1
 1595 0009 FF       		.byte	-1
 1596              		.section	.rodata.str1.4,"aMS",%progbits,1
 1597              		.align	2
 1598              	.LC16:
 1599 0000 47656E65 		.ascii	"Generated_Source\\PSoC6\\pdl\\middleware\\ble\\cy_b"
 1599      72617465 
 1599      645F536F 
 1599      75726365 
 1599      5C50536F 
 1600 002e 6C655F67 		.ascii	"le_gap.h\000"
 1600      61702E68 
 1600      00
 1601              		.bss
 1602              		.align	2
 1603              		.set	.LANCHOR1,. + 0
 1604              		.type	gPrepWriteReqMem.13604, %object
 1605              		.size	gPrepWriteReqMem.13604, 12
 1606              	gPrepWriteReqMem.13604:
 1607 0000 00000000 		.space	12
 1607      00000000 
 1607      00000000 
 1608              		.text
 1609              	.Letext0:
 1610              		.file 3 "c:\\program files (x86)\\cypress\\psoc creator\\4.4\\psoc creator\\import\\gnu\\arm\\5.4.
 1611              		.file 4 "c:\\program files (x86)\\cypress\\psoc creator\\4.4\\psoc creator\\import\\gnu\\arm\\5.4.
 1612              		.file 5 "Generated_Source\\PSoC6\\pdl\\devices/psoc6/include/ip/cyip_sflash.h"
 1613              		.file 6 "Generated_Source\\PSoC6\\pdl\\drivers/peripheral/device/cy_device.h"
 1614              		.file 7 "Generated_Source\\PSoC6\\pdl\\devices/psoc6/include/cyble_416045_02.h"
 1615              		.file 8 "Generated_Source\\PSoC6\\pdl\\devices/psoc6/include/psoc6_01_config.h"
ARM GAS  C:\Users\Smaug\AppData\Local\Temp\ccVZzAJS.s 			page 64


 1616              		.file 9 "Generated_Source\\PSoC6\\pdl\\drivers/peripheral/syslib/cy_syslib.h"
 1617              		.file 10 "Generated_Source\\PSoC6\\pdl\\drivers/peripheral/sysint/cy_sysint.h"
 1618              		.file 11 "Generated_Source\\PSoC6\\pdl\\middleware\\ble\\cy_ble_stack.h"
 1619              		.file 12 "Generated_Source\\PSoC6\\pdl\\middleware\\ble\\cy_ble_stack_host_main.h"
 1620              		.file 13 "Generated_Source\\PSoC6\\pdl\\middleware\\ble\\cy_ble_stack_gatt.h"
 1621              		.file 14 "Generated_Source\\PSoC6\\pdl\\middleware\\ble\\cy_ble_stack_gap.h"
 1622              		.file 15 "Generated_Source\\PSoC6\\pdl\\middleware\\ble\\cy_ble_stack_gap_central.h"
 1623              		.file 16 "Generated_Source\\PSoC6\\pdl\\middleware\\ble\\cy_ble_stack_gap_peripheral.h"
 1624              		.file 17 "Generated_Source\\PSoC6\\pdl\\middleware\\ble\\cy_ble_stack_gatt_server.h"
 1625              		.file 18 "Generated_Source\\PSoC6\\pdl\\middleware\\ble\\cy_ble_stack_gatt_db.h"
 1626              		.file 19 "Generated_Source\\PSoC6\\pdl\\middleware\\ble\\cy_ble_gatt.h"
 1627              		.file 20 "Generated_Source\\PSoC6\\pdl\\middleware\\ble\\cy_ble_stack_l2cap.h"
 1628              		.file 21 "Generated_Source\\PSoC6\\pdl\\middleware\\ble\\cy_ble.h"
 1629              		.file 22 "Generated_Source\\PSoC6\\pdl\\middleware\\ble\\cy_ble_event_handler.h"
 1630              		.file 23 "Generated_Source\\PSoC6\\pdl\\middleware\\ble\\cy_ble_hal_pvt.h"
 1631              		.section	.debug_info,"",%progbits
 1632              	.Ldebug_info0:
 1633 0000 88330000 		.4byte	0x3388
 1634 0004 0400     		.2byte	0x4
 1635 0006 00000000 		.4byte	.Ldebug_abbrev0
 1636 000a 04       		.byte	0x4
 1637 000b 01       		.uleb128 0x1
 1638 000c 30120000 		.4byte	.LASF943
 1639 0010 0C       		.byte	0xc
 1640 0011 E02E0000 		.4byte	.LASF944
 1641 0015 6D380000 		.4byte	.LASF945
 1642 0019 18000000 		.4byte	.Ldebug_ranges0+0x18
 1643 001d 00000000 		.4byte	0
 1644 0021 00000000 		.4byte	.Ldebug_line0
 1645 0025 02       		.uleb128 0x2
 1646 0026 04       		.byte	0x4
 1647 0027 05       		.byte	0x5
 1648 0028 696E7400 		.ascii	"int\000"
 1649 002c 03       		.uleb128 0x3
 1650 002d 04       		.byte	0x4
 1651 002e 07       		.byte	0x7
 1652 002f 72320000 		.4byte	.LASF0
 1653 0033 03       		.uleb128 0x3
 1654 0034 08       		.byte	0x8
 1655 0035 05       		.byte	0x5
 1656 0036 F42A0000 		.4byte	.LASF1
 1657 003a 03       		.uleb128 0x3
 1658 003b 08       		.byte	0x8
 1659 003c 04       		.byte	0x4
 1660 003d 17380000 		.4byte	.LASF2
 1661 0041 03       		.uleb128 0x3
 1662 0042 01       		.byte	0x1
 1663 0043 06       		.byte	0x6
 1664 0044 9C3D0000 		.4byte	.LASF3
 1665 0048 04       		.uleb128 0x4
 1666 0049 DA0A0000 		.4byte	.LASF5
 1667 004d 03       		.byte	0x3
 1668 004e 1D       		.byte	0x1d
 1669 004f 53000000 		.4byte	0x53
 1670 0053 03       		.uleb128 0x3
 1671 0054 01       		.byte	0x1
 1672 0055 08       		.byte	0x8
ARM GAS  C:\Users\Smaug\AppData\Local\Temp\ccVZzAJS.s 			page 65


 1673 0056 71000000 		.4byte	.LASF4
 1674 005a 04       		.uleb128 0x4
 1675 005b DA410000 		.4byte	.LASF6
 1676 005f 03       		.byte	0x3
 1677 0060 29       		.byte	0x29
 1678 0061 65000000 		.4byte	0x65
 1679 0065 03       		.uleb128 0x3
 1680 0066 02       		.byte	0x2
 1681 0067 05       		.byte	0x5
 1682 0068 29470000 		.4byte	.LASF7
 1683 006c 04       		.uleb128 0x4
 1684 006d B5190000 		.4byte	.LASF8
 1685 0071 03       		.byte	0x3
 1686 0072 2B       		.byte	0x2b
 1687 0073 77000000 		.4byte	0x77
 1688 0077 03       		.uleb128 0x3
 1689 0078 02       		.byte	0x2
 1690 0079 07       		.byte	0x7
 1691 007a 430E0000 		.4byte	.LASF9
 1692 007e 03       		.uleb128 0x3
 1693 007f 04       		.byte	0x4
 1694 0080 05       		.byte	0x5
 1695 0081 440C0000 		.4byte	.LASF10
 1696 0085 04       		.uleb128 0x4
 1697 0086 D71E0000 		.4byte	.LASF11
 1698 008a 03       		.byte	0x3
 1699 008b 41       		.byte	0x41
 1700 008c 90000000 		.4byte	0x90
 1701 0090 03       		.uleb128 0x3
 1702 0091 04       		.byte	0x4
 1703 0092 07       		.byte	0x7
 1704 0093 5B230000 		.4byte	.LASF12
 1705 0097 03       		.uleb128 0x3
 1706 0098 08       		.byte	0x8
 1707 0099 07       		.byte	0x7
 1708 009a E94D0000 		.4byte	.LASF13
 1709 009e 03       		.uleb128 0x3
 1710 009f 04       		.byte	0x4
 1711 00a0 07       		.byte	0x7
 1712 00a1 CD000000 		.4byte	.LASF14
 1713 00a5 05       		.uleb128 0x5
 1714 00a6 04       		.byte	0x4
 1715 00a7 03       		.uleb128 0x3
 1716 00a8 01       		.byte	0x1
 1717 00a9 08       		.byte	0x8
 1718 00aa EF170000 		.4byte	.LASF15
 1719 00ae 04       		.uleb128 0x4
 1720 00af 89110000 		.4byte	.LASF16
 1721 00b3 04       		.byte	0x4
 1722 00b4 18       		.byte	0x18
 1723 00b5 48000000 		.4byte	0x48
 1724 00b9 04       		.uleb128 0x4
 1725 00ba 41480000 		.4byte	.LASF17
 1726 00be 04       		.byte	0x4
 1727 00bf 20       		.byte	0x20
 1728 00c0 5A000000 		.4byte	0x5a
 1729 00c4 04       		.uleb128 0x4
ARM GAS  C:\Users\Smaug\AppData\Local\Temp\ccVZzAJS.s 			page 66


 1730 00c5 C53D0000 		.4byte	.LASF18
 1731 00c9 04       		.byte	0x4
 1732 00ca 24       		.byte	0x24
 1733 00cb 6C000000 		.4byte	0x6c
 1734 00cf 04       		.uleb128 0x4
 1735 00d0 5C4E0000 		.4byte	.LASF19
 1736 00d4 04       		.byte	0x4
 1737 00d5 30       		.byte	0x30
 1738 00d6 85000000 		.4byte	0x85
 1739 00da 06       		.uleb128 0x6
 1740 00db CF000000 		.4byte	0xcf
 1741 00df 07       		.uleb128 0x7
 1742 00e0 DA000000 		.4byte	0xda
 1743 00e4 08       		.uleb128 0x8
 1744 00e5 DA000000 		.4byte	0xda
 1745 00e9 F4000000 		.4byte	0xf4
 1746 00ed 09       		.uleb128 0x9
 1747 00ee 9E000000 		.4byte	0x9e
 1748 00f2 0F       		.byte	0xf
 1749 00f3 00       		.byte	0
 1750 00f4 08       		.uleb128 0x8
 1751 00f5 DF000000 		.4byte	0xdf
 1752 00f9 04010000 		.4byte	0x104
 1753 00fd 09       		.uleb128 0x9
 1754 00fe 9E000000 		.4byte	0x9e
 1755 0102 06       		.byte	0x6
 1756 0103 00       		.byte	0
 1757 0104 08       		.uleb128 0x8
 1758 0105 DF000000 		.4byte	0xdf
 1759 0109 14010000 		.4byte	0x114
 1760 010d 09       		.uleb128 0x9
 1761 010e 9E000000 		.4byte	0x9e
 1762 0112 07       		.byte	0x7
 1763 0113 00       		.byte	0
 1764 0114 08       		.uleb128 0x8
 1765 0115 DF000000 		.4byte	0xdf
 1766 0119 24010000 		.4byte	0x124
 1767 011d 09       		.uleb128 0x9
 1768 011e 9E000000 		.4byte	0x9e
 1769 0122 01       		.byte	0x1
 1770 0123 00       		.byte	0
 1771 0124 0A       		.uleb128 0xa
 1772 0125 0080     		.2byte	0x8000
 1773 0127 05       		.byte	0x5
 1774 0128 21       		.byte	0x21
 1775 0129 0A070000 		.4byte	0x70a
 1776 012d 0B       		.uleb128 0xb
 1777 012e 741F0000 		.4byte	.LASF20
 1778 0132 05       		.byte	0x5
 1779 0133 22       		.byte	0x22
 1780 0134 0F070000 		.4byte	0x70f
 1781 0138 00       		.byte	0
 1782 0139 0B       		.uleb128 0xb
 1783 013a 27330000 		.4byte	.LASF21
 1784 013e 05       		.byte	0x5
 1785 013f 23       		.byte	0x23
 1786 0140 0A070000 		.4byte	0x70a
ARM GAS  C:\Users\Smaug\AppData\Local\Temp\ccVZzAJS.s 			page 67


 1787 0144 01       		.byte	0x1
 1788 0145 0B       		.uleb128 0xb
 1789 0146 6E210000 		.4byte	.LASF22
 1790 014a 05       		.byte	0x5
 1791 014b 24       		.byte	0x24
 1792 014c 14070000 		.4byte	0x714
 1793 0150 02       		.byte	0x2
 1794 0151 0B       		.uleb128 0xb
 1795 0152 18140000 		.4byte	.LASF23
 1796 0156 05       		.byte	0x5
 1797 0157 25       		.byte	0x25
 1798 0158 1E070000 		.4byte	0x71e
 1799 015c 04       		.byte	0x4
 1800 015d 0B       		.uleb128 0xb
 1801 015e 3B200000 		.4byte	.LASF24
 1802 0162 05       		.byte	0x5
 1803 0163 26       		.byte	0x26
 1804 0164 14070000 		.4byte	0x714
 1805 0168 0C       		.byte	0xc
 1806 0169 0B       		.uleb128 0xb
 1807 016a 261A0000 		.4byte	.LASF25
 1808 016e 05       		.byte	0x5
 1809 016f 27       		.byte	0x27
 1810 0170 3D070000 		.4byte	0x73d
 1811 0174 0E       		.byte	0xe
 1812 0175 0B       		.uleb128 0xb
 1813 0176 7B450000 		.4byte	.LASF26
 1814 017a 05       		.byte	0x5
 1815 017b 28       		.byte	0x28
 1816 017c DA000000 		.4byte	0xda
 1817 0180 14       		.byte	0x14
 1818 0181 0B       		.uleb128 0xb
 1819 0182 3D140000 		.4byte	.LASF27
 1820 0186 05       		.byte	0x5
 1821 0187 29       		.byte	0x29
 1822 0188 58070000 		.4byte	0x758
 1823 018c 18       		.byte	0x18
 1824 018d 0C       		.uleb128 0xc
 1825 018e F7070000 		.4byte	.LASF28
 1826 0192 05       		.byte	0x5
 1827 0193 2A       		.byte	0x2a
 1828 0194 6D070000 		.4byte	0x76d
 1829 0198 0006     		.2byte	0x600
 1830 019a 0C       		.uleb128 0xc
 1831 019b 3B260000 		.4byte	.LASF29
 1832 019f 05       		.byte	0x5
 1833 01a0 2B       		.byte	0x2b
 1834 01a1 0A070000 		.4byte	0x70a
 1835 01a5 0306     		.2byte	0x603
 1836 01a7 0C       		.uleb128 0xc
 1837 01a8 37550000 		.4byte	.LASF30
 1838 01ac 05       		.byte	0x5
 1839 01ad 2C       		.byte	0x2c
 1840 01ae 0A070000 		.4byte	0x70a
 1841 01b2 0406     		.2byte	0x604
 1842 01b4 0C       		.uleb128 0xc
 1843 01b5 3D550000 		.4byte	.LASF31
ARM GAS  C:\Users\Smaug\AppData\Local\Temp\ccVZzAJS.s 			page 68


 1844 01b9 05       		.byte	0x5
 1845 01ba 2D       		.byte	0x2d
 1846 01bb 0A070000 		.4byte	0x70a
 1847 01bf 0506     		.2byte	0x605
 1848 01c1 0C       		.uleb128 0xc
 1849 01c2 B74E0000 		.4byte	.LASF32
 1850 01c6 05       		.byte	0x5
 1851 01c7 2E       		.byte	0x2e
 1852 01c8 0A070000 		.4byte	0x70a
 1853 01cc 0606     		.2byte	0x606
 1854 01ce 0C       		.uleb128 0xc
 1855 01cf E82C0000 		.4byte	.LASF33
 1856 01d3 05       		.byte	0x5
 1857 01d4 2F       		.byte	0x2f
 1858 01d5 0A070000 		.4byte	0x70a
 1859 01d9 0706     		.2byte	0x607
 1860 01db 0C       		.uleb128 0xc
 1861 01dc A02C0000 		.4byte	.LASF34
 1862 01e0 05       		.byte	0x5
 1863 01e1 30       		.byte	0x30
 1864 01e2 0A070000 		.4byte	0x70a
 1865 01e6 0806     		.2byte	0x608
 1866 01e8 0C       		.uleb128 0xc
 1867 01e9 920D0000 		.4byte	.LASF35
 1868 01ed 05       		.byte	0x5
 1869 01ee 31       		.byte	0x31
 1870 01ef 0A070000 		.4byte	0x70a
 1871 01f3 0906     		.2byte	0x609
 1872 01f5 0C       		.uleb128 0xc
 1873 01f6 D01F0000 		.4byte	.LASF36
 1874 01fa 05       		.byte	0x5
 1875 01fb 32       		.byte	0x32
 1876 01fc 0A070000 		.4byte	0x70a
 1877 0200 0A06     		.2byte	0x60a
 1878 0202 0C       		.uleb128 0xc
 1879 0203 47140000 		.4byte	.LASF37
 1880 0207 05       		.byte	0x5
 1881 0208 33       		.byte	0x33
 1882 0209 87070000 		.4byte	0x787
 1883 020d 0B06     		.2byte	0x60b
 1884 020f 0C       		.uleb128 0xc
 1885 0210 DF470000 		.4byte	.LASF38
 1886 0214 05       		.byte	0x5
 1887 0215 34       		.byte	0x34
 1888 0216 14070000 		.4byte	0x714
 1889 021a 4806     		.2byte	0x648
 1890 021c 0C       		.uleb128 0xc
 1891 021d D91D0000 		.4byte	.LASF39
 1892 0221 05       		.byte	0x5
 1893 0222 35       		.byte	0x35
 1894 0223 14070000 		.4byte	0x714
 1895 0227 4A06     		.2byte	0x64a
 1896 0229 0C       		.uleb128 0xc
 1897 022a 51140000 		.4byte	.LASF40
 1898 022e 05       		.byte	0x5
 1899 022f 36       		.byte	0x36
 1900 0230 91070000 		.4byte	0x791
ARM GAS  C:\Users\Smaug\AppData\Local\Temp\ccVZzAJS.s 			page 69


 1901 0234 4C06     		.2byte	0x64c
 1902 0236 0C       		.uleb128 0xc
 1903 0237 E4410000 		.4byte	.LASF41
 1904 023b 05       		.byte	0x5
 1905 023c 37       		.byte	0x37
 1906 023d DA000000 		.4byte	0xda
 1907 0241 6C06     		.2byte	0x66c
 1908 0243 0C       		.uleb128 0xc
 1909 0244 5B140000 		.4byte	.LASF42
 1910 0248 05       		.byte	0x5
 1911 0249 38       		.byte	0x38
 1912 024a AB070000 		.4byte	0x7ab
 1913 024e 7006     		.2byte	0x670
 1914 0250 0C       		.uleb128 0xc
 1915 0251 F3220000 		.4byte	.LASF43
 1916 0255 05       		.byte	0x5
 1917 0256 39       		.byte	0x39
 1918 0257 0A070000 		.4byte	0x70a
 1919 025b 4007     		.2byte	0x740
 1920 025d 0C       		.uleb128 0xc
 1921 025e 02070000 		.4byte	.LASF44
 1922 0262 05       		.byte	0x5
 1923 0263 3A       		.byte	0x3a
 1924 0264 0A070000 		.4byte	0x70a
 1925 0268 4107     		.2byte	0x741
 1926 026a 0C       		.uleb128 0xc
 1927 026b 65140000 		.4byte	.LASF45
 1928 026f 05       		.byte	0x5
 1929 0270 3B       		.byte	0x3b
 1930 0271 C5070000 		.4byte	0x7c5
 1931 0275 4207     		.2byte	0x742
 1932 0277 0C       		.uleb128 0xc
 1933 0278 C64A0000 		.4byte	.LASF46
 1934 027c 05       		.byte	0x5
 1935 027d 3C       		.byte	0x3c
 1936 027e DA070000 		.4byte	0x7da
 1937 0282 0008     		.2byte	0x800
 1938 0284 0C       		.uleb128 0xc
 1939 0285 7E2A0000 		.4byte	.LASF47
 1940 0289 05       		.byte	0x5
 1941 028a 3D       		.byte	0x3d
 1942 028b DF070000 		.4byte	0x7df
 1943 028f 000A     		.2byte	0xa00
 1944 0291 0C       		.uleb128 0xc
 1945 0292 8D2A0000 		.4byte	.LASF48
 1946 0296 05       		.byte	0x5
 1947 0297 3E       		.byte	0x3e
 1948 0298 E4070000 		.4byte	0x7e4
 1949 029c 000C     		.2byte	0xc00
 1950 029e 0C       		.uleb128 0xc
 1951 029f 9C2A0000 		.4byte	.LASF49
 1952 02a3 05       		.byte	0x5
 1953 02a4 3F       		.byte	0x3f
 1954 02a5 E9070000 		.4byte	0x7e9
 1955 02a9 000E     		.2byte	0xe00
 1956 02ab 0C       		.uleb128 0xc
 1957 02ac 6F140000 		.4byte	.LASF50
ARM GAS  C:\Users\Smaug\AppData\Local\Temp\ccVZzAJS.s 			page 70


 1958 02b0 05       		.byte	0x5
 1959 02b1 40       		.byte	0x40
 1960 02b2 04080000 		.4byte	0x804
 1961 02b6 0010     		.2byte	0x1000
 1962 02b8 0C       		.uleb128 0xc
 1963 02b9 220B0000 		.4byte	.LASF51
 1964 02bd 05       		.byte	0x5
 1965 02be 41       		.byte	0x41
 1966 02bf 19080000 		.4byte	0x819
 1967 02c3 B814     		.2byte	0x14b8
 1968 02c5 0C       		.uleb128 0xc
 1969 02c6 6F1D0000 		.4byte	.LASF52
 1970 02ca 05       		.byte	0x5
 1971 02cb 42       		.byte	0x42
 1972 02cc 1E080000 		.4byte	0x81e
 1973 02d0 C814     		.2byte	0x14c8
 1974 02d2 0C       		.uleb128 0xc
 1975 02d3 7A480000 		.4byte	.LASF53
 1976 02d7 05       		.byte	0x5
 1977 02d8 43       		.byte	0x43
 1978 02d9 23080000 		.4byte	0x823
 1979 02dd D814     		.2byte	0x14d8
 1980 02df 0C       		.uleb128 0xc
 1981 02e0 59330000 		.4byte	.LASF54
 1982 02e4 05       		.byte	0x5
 1983 02e5 44       		.byte	0x44
 1984 02e6 28080000 		.4byte	0x828
 1985 02ea 1815     		.2byte	0x1518
 1986 02ec 0C       		.uleb128 0xc
 1987 02ed 52490000 		.4byte	.LASF55
 1988 02f1 05       		.byte	0x5
 1989 02f2 45       		.byte	0x45
 1990 02f3 2D080000 		.4byte	0x82d
 1991 02f7 5815     		.2byte	0x1558
 1992 02f9 0C       		.uleb128 0xc
 1993 02fa 5B0A0000 		.4byte	.LASF56
 1994 02fe 05       		.byte	0x5
 1995 02ff 46       		.byte	0x46
 1996 0300 32080000 		.4byte	0x832
 1997 0304 9815     		.2byte	0x1598
 1998 0306 0C       		.uleb128 0xc
 1999 0307 5E320000 		.4byte	.LASF57
 2000 030b 05       		.byte	0x5
 2001 030c 47       		.byte	0x47
 2002 030d 37080000 		.4byte	0x837
 2003 0311 D815     		.2byte	0x15d8
 2004 0313 0C       		.uleb128 0xc
 2005 0314 79140000 		.4byte	.LASF58
 2006 0318 05       		.byte	0x5
 2007 0319 48       		.byte	0x48
 2008 031a 51080000 		.4byte	0x851
 2009 031e 1816     		.2byte	0x1618
 2010 0320 0C       		.uleb128 0xc
 2011 0321 A72E0000 		.4byte	.LASF59
 2012 0325 05       		.byte	0x5
 2013 0326 49       		.byte	0x49
 2014 0327 14070000 		.4byte	0x714
ARM GAS  C:\Users\Smaug\AppData\Local\Temp\ccVZzAJS.s 			page 71


 2015 032b 0018     		.2byte	0x1800
 2016 032d 0C       		.uleb128 0xc
 2017 032e BD3E0000 		.4byte	.LASF60
 2018 0332 05       		.byte	0x5
 2019 0333 4A       		.byte	0x4a
 2020 0334 33070000 		.4byte	0x733
 2021 0338 0218     		.2byte	0x1802
 2022 033a 0C       		.uleb128 0xc
 2023 033b 9C020000 		.4byte	.LASF61
 2024 033f 05       		.byte	0x5
 2025 0340 4B       		.byte	0x4b
 2026 0341 DA000000 		.4byte	0xda
 2027 0345 0418     		.2byte	0x1804
 2028 0347 0C       		.uleb128 0xc
 2029 0348 51000000 		.4byte	.LASF62
 2030 034c 05       		.byte	0x5
 2031 034d 4C       		.byte	0x4c
 2032 034e DA000000 		.4byte	0xda
 2033 0352 0818     		.2byte	0x1808
 2034 0354 0C       		.uleb128 0xc
 2035 0355 CD020000 		.4byte	.LASF63
 2036 0359 05       		.byte	0x5
 2037 035a 4D       		.byte	0x4d
 2038 035b DA000000 		.4byte	0xda
 2039 035f 0C18     		.2byte	0x180c
 2040 0361 0C       		.uleb128 0xc
 2041 0362 3A4F0000 		.4byte	.LASF64
 2042 0366 05       		.byte	0x5
 2043 0367 4E       		.byte	0x4e
 2044 0368 DA000000 		.4byte	0xda
 2045 036c 1018     		.2byte	0x1810
 2046 036e 0C       		.uleb128 0xc
 2047 036f C83E0000 		.4byte	.LASF65
 2048 0373 05       		.byte	0x5
 2049 0374 4F       		.byte	0x4f
 2050 0375 33070000 		.4byte	0x733
 2051 0379 1418     		.2byte	0x1814
 2052 037b 0C       		.uleb128 0xc
 2053 037c 0A4E0000 		.4byte	.LASF66
 2054 0380 05       		.byte	0x5
 2055 0381 50       		.byte	0x50
 2056 0382 14070000 		.4byte	0x714
 2057 0386 1618     		.2byte	0x1816
 2058 0388 0C       		.uleb128 0xc
 2059 0389 A9070000 		.4byte	.LASF67
 2060 038d 05       		.byte	0x5
 2061 038e 51       		.byte	0x51
 2062 038f DA000000 		.4byte	0xda
 2063 0393 1818     		.2byte	0x1818
 2064 0395 0C       		.uleb128 0xc
 2065 0396 10340000 		.4byte	.LASF68
 2066 039a 05       		.byte	0x5
 2067 039b 52       		.byte	0x52
 2068 039c DA000000 		.4byte	0xda
 2069 03a0 1C18     		.2byte	0x181c
 2070 03a2 0C       		.uleb128 0xc
 2071 03a3 F5120000 		.4byte	.LASF69
ARM GAS  C:\Users\Smaug\AppData\Local\Temp\ccVZzAJS.s 			page 72


 2072 03a7 05       		.byte	0x5
 2073 03a8 53       		.byte	0x53
 2074 03a9 DA000000 		.4byte	0xda
 2075 03ad 2018     		.2byte	0x1820
 2076 03af 0C       		.uleb128 0xc
 2077 03b0 413F0000 		.4byte	.LASF70
 2078 03b4 05       		.byte	0x5
 2079 03b5 54       		.byte	0x54
 2080 03b6 DA000000 		.4byte	0xda
 2081 03ba 2418     		.2byte	0x1824
 2082 03bc 0C       		.uleb128 0xc
 2083 03bd D33E0000 		.4byte	.LASF71
 2084 03c1 05       		.byte	0x5
 2085 03c2 55       		.byte	0x55
 2086 03c3 5B080000 		.4byte	0x85b
 2087 03c7 2818     		.2byte	0x1828
 2088 03c9 0C       		.uleb128 0xc
 2089 03ca E5190000 		.4byte	.LASF72
 2090 03ce 05       		.byte	0x5
 2091 03cf 56       		.byte	0x56
 2092 03d0 DA000000 		.4byte	0xda
 2093 03d4 4418     		.2byte	0x1844
 2094 03d6 0C       		.uleb128 0xc
 2095 03d7 CE3D0000 		.4byte	.LASF73
 2096 03db 05       		.byte	0x5
 2097 03dc 57       		.byte	0x57
 2098 03dd DA000000 		.4byte	0xda
 2099 03e1 4818     		.2byte	0x1848
 2100 03e3 0C       		.uleb128 0xc
 2101 03e4 3B4B0000 		.4byte	.LASF74
 2102 03e8 05       		.byte	0x5
 2103 03e9 58       		.byte	0x58
 2104 03ea DA000000 		.4byte	0xda
 2105 03ee 4C18     		.2byte	0x184c
 2106 03f0 0C       		.uleb128 0xc
 2107 03f1 B4060000 		.4byte	.LASF75
 2108 03f5 05       		.byte	0x5
 2109 03f6 59       		.byte	0x59
 2110 03f7 DA000000 		.4byte	0xda
 2111 03fb 5018     		.2byte	0x1850
 2112 03fd 0C       		.uleb128 0xc
 2113 03fe DE3E0000 		.4byte	.LASF76
 2114 0402 05       		.byte	0x5
 2115 0403 5A       		.byte	0x5a
 2116 0404 76080000 		.4byte	0x876
 2117 0408 5418     		.2byte	0x1854
 2118 040a 0C       		.uleb128 0xc
 2119 040b A0100000 		.4byte	.LASF77
 2120 040f 05       		.byte	0x5
 2121 0410 5B       		.byte	0x5b
 2122 0411 DA000000 		.4byte	0xda
 2123 0415 0020     		.2byte	0x2000
 2124 0417 0C       		.uleb128 0xc
 2125 0418 07400000 		.4byte	.LASF78
 2126 041c 05       		.byte	0x5
 2127 041d 5C       		.byte	0x5c
 2128 041e DA000000 		.4byte	0xda
ARM GAS  C:\Users\Smaug\AppData\Local\Temp\ccVZzAJS.s 			page 73


 2129 0422 0420     		.2byte	0x2004
 2130 0424 0C       		.uleb128 0xc
 2131 0425 79390000 		.4byte	.LASF79
 2132 0429 05       		.byte	0x5
 2133 042a 5D       		.byte	0x5d
 2134 042b DA000000 		.4byte	0xda
 2135 042f 0820     		.2byte	0x2008
 2136 0431 0C       		.uleb128 0xc
 2137 0432 702E0000 		.4byte	.LASF80
 2138 0436 05       		.byte	0x5
 2139 0437 5E       		.byte	0x5e
 2140 0438 DA000000 		.4byte	0xda
 2141 043c 0C20     		.2byte	0x200c
 2142 043e 0C       		.uleb128 0xc
 2143 043f B8340000 		.4byte	.LASF81
 2144 0443 05       		.byte	0x5
 2145 0444 5F       		.byte	0x5f
 2146 0445 DA000000 		.4byte	0xda
 2147 0449 1020     		.2byte	0x2010
 2148 044b 0C       		.uleb128 0xc
 2149 044c 98350000 		.4byte	.LASF82
 2150 0450 05       		.byte	0x5
 2151 0451 60       		.byte	0x60
 2152 0452 DA000000 		.4byte	0xda
 2153 0456 1420     		.2byte	0x2014
 2154 0458 0C       		.uleb128 0xc
 2155 0459 E93E0000 		.4byte	.LASF83
 2156 045d 05       		.byte	0x5
 2157 045e 61       		.byte	0x61
 2158 045f 90080000 		.4byte	0x890
 2159 0463 1820     		.2byte	0x2018
 2160 0465 0C       		.uleb128 0xc
 2161 0466 59250000 		.4byte	.LASF84
 2162 046a 05       		.byte	0x5
 2163 046b 62       		.byte	0x62
 2164 046c A6080000 		.4byte	0x8a6
 2165 0470 D820     		.2byte	0x20d8
 2166 0472 0C       		.uleb128 0xc
 2167 0473 E4170000 		.4byte	.LASF85
 2168 0477 05       		.byte	0x5
 2169 0478 63       		.byte	0x63
 2170 0479 BC080000 		.4byte	0x8bc
 2171 047d 005A     		.2byte	0x5a00
 2172 047f 0C       		.uleb128 0xc
 2173 0480 141F0000 		.4byte	.LASF86
 2174 0484 05       		.byte	0x5
 2175 0485 64       		.byte	0x64
 2176 0486 D2080000 		.4byte	0x8d2
 2177 048a 0066     		.2byte	0x6600
 2178 048c 0C       		.uleb128 0xc
 2179 048d F43E0000 		.4byte	.LASF87
 2180 0491 05       		.byte	0x5
 2181 0492 65       		.byte	0x65
 2182 0493 ED080000 		.4byte	0x8ed
 2183 0497 006C     		.2byte	0x6c00
 2184 0499 0C       		.uleb128 0xc
 2185 049a 92410000 		.4byte	.LASF88
ARM GAS  C:\Users\Smaug\AppData\Local\Temp\ccVZzAJS.s 			page 74


 2186 049e 05       		.byte	0x5
 2187 049f 66       		.byte	0x66
 2188 04a0 DA000000 		.4byte	0xda
 2189 04a4 0078     		.2byte	0x7800
 2190 04a6 0C       		.uleb128 0xc
 2191 04a7 B7470000 		.4byte	.LASF89
 2192 04ab 05       		.byte	0x5
 2193 04ac 68       		.byte	0x68
 2194 04ad DA000000 		.4byte	0xda
 2195 04b1 0478     		.2byte	0x7804
 2196 04b3 0C       		.uleb128 0xc
 2197 04b4 AE540000 		.4byte	.LASF90
 2198 04b8 05       		.byte	0x5
 2199 04b9 69       		.byte	0x69
 2200 04ba DA000000 		.4byte	0xda
 2201 04be 0878     		.2byte	0x7808
 2202 04c0 0C       		.uleb128 0xc
 2203 04c1 19400000 		.4byte	.LASF91
 2204 04c5 05       		.byte	0x5
 2205 04c6 6B       		.byte	0x6b
 2206 04c7 DA000000 		.4byte	0xda
 2207 04cb 0C78     		.2byte	0x780c
 2208 04cd 0C       		.uleb128 0xc
 2209 04ce E5040000 		.4byte	.LASF92
 2210 04d2 05       		.byte	0x5
 2211 04d3 6C       		.byte	0x6c
 2212 04d4 DA000000 		.4byte	0xda
 2213 04d8 1078     		.2byte	0x7810
 2214 04da 0C       		.uleb128 0xc
 2215 04db E4310000 		.4byte	.LASF93
 2216 04df 05       		.byte	0x5
 2217 04e0 6D       		.byte	0x6d
 2218 04e1 DA000000 		.4byte	0xda
 2219 04e5 1478     		.2byte	0x7814
 2220 04e7 0C       		.uleb128 0xc
 2221 04e8 C5170000 		.4byte	.LASF94
 2222 04ec 05       		.byte	0x5
 2223 04ed 6E       		.byte	0x6e
 2224 04ee DA000000 		.4byte	0xda
 2225 04f2 1878     		.2byte	0x7818
 2226 04f4 0C       		.uleb128 0xc
 2227 04f5 76530000 		.4byte	.LASF95
 2228 04f9 05       		.byte	0x5
 2229 04fa 6F       		.byte	0x6f
 2230 04fb DA000000 		.4byte	0xda
 2231 04ff 1C78     		.2byte	0x781c
 2232 0501 0C       		.uleb128 0xc
 2233 0502 AF520000 		.4byte	.LASF96
 2234 0506 05       		.byte	0x5
 2235 0507 70       		.byte	0x70
 2236 0508 07090000 		.4byte	0x907
 2237 050c 2078     		.2byte	0x7820
 2238 050e 0C       		.uleb128 0xc
 2239 050f 40100000 		.4byte	.LASF97
 2240 0513 05       		.byte	0x5
 2241 0514 71       		.byte	0x71
 2242 0515 DA000000 		.4byte	0xda
ARM GAS  C:\Users\Smaug\AppData\Local\Temp\ccVZzAJS.s 			page 75


 2243 0519 FC79     		.2byte	0x79fc
 2244 051b 0C       		.uleb128 0xc
 2245 051c 04480000 		.4byte	.LASF98
 2246 0520 05       		.byte	0x5
 2247 0521 72       		.byte	0x72
 2248 0522 DA000000 		.4byte	0xda
 2249 0526 007A     		.2byte	0x7a00
 2250 0528 0C       		.uleb128 0xc
 2251 0529 8F490000 		.4byte	.LASF99
 2252 052d 05       		.byte	0x5
 2253 052e 74       		.byte	0x74
 2254 052f DA000000 		.4byte	0xda
 2255 0533 047A     		.2byte	0x7a04
 2256 0535 0C       		.uleb128 0xc
 2257 0536 60420000 		.4byte	.LASF100
 2258 053a 05       		.byte	0x5
 2259 053b 75       		.byte	0x75
 2260 053c DA000000 		.4byte	0xda
 2261 0540 087A     		.2byte	0x7a08
 2262 0542 0C       		.uleb128 0xc
 2263 0543 CC110000 		.4byte	.LASF101
 2264 0547 05       		.byte	0x5
 2265 0548 77       		.byte	0x77
 2266 0549 DA000000 		.4byte	0xda
 2267 054d 0C7A     		.2byte	0x7a0c
 2268 054f 0C       		.uleb128 0xc
 2269 0550 5B100000 		.4byte	.LASF102
 2270 0554 05       		.byte	0x5
 2271 0555 78       		.byte	0x78
 2272 0556 DA000000 		.4byte	0xda
 2273 055a 107A     		.2byte	0x7a10
 2274 055c 0C       		.uleb128 0xc
 2275 055d DE210000 		.4byte	.LASF103
 2276 0561 05       		.byte	0x5
 2277 0562 79       		.byte	0x79
 2278 0563 DA000000 		.4byte	0xda
 2279 0567 147A     		.2byte	0x7a14
 2280 0569 0C       		.uleb128 0xc
 2281 056a 10160000 		.4byte	.LASF104
 2282 056e 05       		.byte	0x5
 2283 056f 7B       		.byte	0x7b
 2284 0570 DA000000 		.4byte	0xda
 2285 0574 187A     		.2byte	0x7a18
 2286 0576 0C       		.uleb128 0xc
 2287 0577 991F0000 		.4byte	.LASF105
 2288 057b 05       		.byte	0x5
 2289 057c 7C       		.byte	0x7c
 2290 057d DA000000 		.4byte	0xda
 2291 0581 1C7A     		.2byte	0x7a1c
 2292 0583 0C       		.uleb128 0xc
 2293 0584 203F0000 		.4byte	.LASF106
 2294 0588 05       		.byte	0x5
 2295 0589 7D       		.byte	0x7d
 2296 058a 11090000 		.4byte	0x911
 2297 058e 207A     		.2byte	0x7a20
 2298 0590 0C       		.uleb128 0xc
 2299 0591 AD0A0000 		.4byte	.LASF107
ARM GAS  C:\Users\Smaug\AppData\Local\Temp\ccVZzAJS.s 			page 76


 2300 0595 05       		.byte	0x5
 2301 0596 7E       		.byte	0x7e
 2302 0597 DA000000 		.4byte	0xda
 2303 059b FC7B     		.2byte	0x7bfc
 2304 059d 0C       		.uleb128 0xc
 2305 059e 700D0000 		.4byte	.LASF108
 2306 05a2 05       		.byte	0x5
 2307 05a3 80       		.byte	0x80
 2308 05a4 DA000000 		.4byte	0xda
 2309 05a8 007C     		.2byte	0x7c00
 2310 05aa 0C       		.uleb128 0xc
 2311 05ab F0340000 		.4byte	.LASF109
 2312 05af 05       		.byte	0x5
 2313 05b0 82       		.byte	0x82
 2314 05b1 DA000000 		.4byte	0xda
 2315 05b5 047C     		.2byte	0x7c04
 2316 05b7 0C       		.uleb128 0xc
 2317 05b8 82060000 		.4byte	.LASF110
 2318 05bc 05       		.byte	0x5
 2319 05bd 83       		.byte	0x83
 2320 05be DA000000 		.4byte	0xda
 2321 05c2 087C     		.2byte	0x7c08
 2322 05c4 0C       		.uleb128 0xc
 2323 05c5 9E500000 		.4byte	.LASF111
 2324 05c9 05       		.byte	0x5
 2325 05ca 84       		.byte	0x84
 2326 05cb DA000000 		.4byte	0xda
 2327 05cf 0C7C     		.2byte	0x7c0c
 2328 05d1 0C       		.uleb128 0xc
 2329 05d2 27340000 		.4byte	.LASF112
 2330 05d6 05       		.byte	0x5
 2331 05d7 86       		.byte	0x86
 2332 05d8 DA000000 		.4byte	0xda
 2333 05dc 107C     		.2byte	0x7c10
 2334 05de 0C       		.uleb128 0xc
 2335 05df 22140000 		.4byte	.LASF113
 2336 05e3 05       		.byte	0x5
 2337 05e4 87       		.byte	0x87
 2338 05e5 DA000000 		.4byte	0xda
 2339 05e9 147C     		.2byte	0x7c14
 2340 05eb 0C       		.uleb128 0xc
 2341 05ec AB290000 		.4byte	.LASF114
 2342 05f0 05       		.byte	0x5
 2343 05f1 89       		.byte	0x89
 2344 05f2 DA000000 		.4byte	0xda
 2345 05f6 187C     		.2byte	0x7c18
 2346 05f8 0C       		.uleb128 0xc
 2347 05f9 07490000 		.4byte	.LASF115
 2348 05fd 05       		.byte	0x5
 2349 05fe 8A       		.byte	0x8a
 2350 05ff DA000000 		.4byte	0xda
 2351 0603 1C7C     		.2byte	0x7c1c
 2352 0605 0C       		.uleb128 0xc
 2353 0606 A9110000 		.4byte	.LASF116
 2354 060a 05       		.byte	0x5
 2355 060b 8C       		.byte	0x8c
 2356 060c DA000000 		.4byte	0xda
ARM GAS  C:\Users\Smaug\AppData\Local\Temp\ccVZzAJS.s 			page 77


 2357 0610 207C     		.2byte	0x7c20
 2358 0612 0C       		.uleb128 0xc
 2359 0613 512A0000 		.4byte	.LASF117
 2360 0617 05       		.byte	0x5
 2361 0618 8F       		.byte	0x8f
 2362 0619 DA000000 		.4byte	0xda
 2363 061d 247C     		.2byte	0x7c24
 2364 061f 0C       		.uleb128 0xc
 2365 0620 2B3F0000 		.4byte	.LASF118
 2366 0624 05       		.byte	0x5
 2367 0625 91       		.byte	0x91
 2368 0626 2B090000 		.4byte	0x92b
 2369 062a 287C     		.2byte	0x7c28
 2370 062c 0C       		.uleb128 0xc
 2371 062d A3410000 		.4byte	.LASF119
 2372 0631 05       		.byte	0x5
 2373 0632 92       		.byte	0x92
 2374 0633 DA000000 		.4byte	0xda
 2375 0637 F47D     		.2byte	0x7df4
 2376 0639 0C       		.uleb128 0xc
 2377 063a 3F380000 		.4byte	.LASF120
 2378 063e 05       		.byte	0x5
 2379 063f 93       		.byte	0x93
 2380 0640 DA000000 		.4byte	0xda
 2381 0644 F87D     		.2byte	0x7df8
 2382 0646 0C       		.uleb128 0xc
 2383 0647 FB000000 		.4byte	.LASF121
 2384 064b 05       		.byte	0x5
 2385 064c 94       		.byte	0x94
 2386 064d DA000000 		.4byte	0xda
 2387 0651 FC7D     		.2byte	0x7dfc
 2388 0653 0C       		.uleb128 0xc
 2389 0654 C2150000 		.4byte	.LASF122
 2390 0658 05       		.byte	0x5
 2391 0659 95       		.byte	0x95
 2392 065a DA000000 		.4byte	0xda
 2393 065e 007E     		.2byte	0x7e00
 2394 0660 0C       		.uleb128 0xc
 2395 0661 AE350000 		.4byte	.LASF123
 2396 0665 05       		.byte	0x5
 2397 0666 97       		.byte	0x97
 2398 0667 DA000000 		.4byte	0xda
 2399 066b 047E     		.2byte	0x7e04
 2400 066d 0C       		.uleb128 0xc
 2401 066e 974D0000 		.4byte	.LASF124
 2402 0672 05       		.byte	0x5
 2403 0673 98       		.byte	0x98
 2404 0674 DA000000 		.4byte	0xda
 2405 0678 087E     		.2byte	0x7e08
 2406 067a 0C       		.uleb128 0xc
 2407 067b D93C0000 		.4byte	.LASF125
 2408 067f 05       		.byte	0x5
 2409 0680 99       		.byte	0x99
 2410 0681 DA000000 		.4byte	0xda
 2411 0685 0C7E     		.2byte	0x7e0c
 2412 0687 0C       		.uleb128 0xc
 2413 0688 253E0000 		.4byte	.LASF126
ARM GAS  C:\Users\Smaug\AppData\Local\Temp\ccVZzAJS.s 			page 78


 2414 068c 05       		.byte	0x5
 2415 068d 9B       		.byte	0x9b
 2416 068e DA000000 		.4byte	0xda
 2417 0692 107E     		.2byte	0x7e10
 2418 0694 0C       		.uleb128 0xc
 2419 0695 73490000 		.4byte	.LASF127
 2420 0699 05       		.byte	0x5
 2421 069a 9C       		.byte	0x9c
 2422 069b DA000000 		.4byte	0xda
 2423 069f 147E     		.2byte	0x7e14
 2424 06a1 0C       		.uleb128 0xc
 2425 06a2 18090000 		.4byte	.LASF128
 2426 06a6 05       		.byte	0x5
 2427 06a7 9E       		.byte	0x9e
 2428 06a8 DA000000 		.4byte	0xda
 2429 06ac 187E     		.2byte	0x7e18
 2430 06ae 0C       		.uleb128 0xc
 2431 06af D0510000 		.4byte	.LASF129
 2432 06b3 05       		.byte	0x5
 2433 06b4 9F       		.byte	0x9f
 2434 06b5 DA000000 		.4byte	0xda
 2435 06b9 1C7E     		.2byte	0x7e1c
 2436 06bb 0C       		.uleb128 0xc
 2437 06bc 212F0000 		.4byte	.LASF130
 2438 06c0 05       		.byte	0x5
 2439 06c1 A1       		.byte	0xa1
 2440 06c2 DA000000 		.4byte	0xda
 2441 06c6 207E     		.2byte	0x7e20
 2442 06c8 0C       		.uleb128 0xc
 2443 06c9 17180000 		.4byte	.LASF131
 2444 06cd 05       		.byte	0x5
 2445 06ce A4       		.byte	0xa4
 2446 06cf DA000000 		.4byte	0xda
 2447 06d3 247E     		.2byte	0x7e24
 2448 06d5 0C       		.uleb128 0xc
 2449 06d6 363F0000 		.4byte	.LASF132
 2450 06da 05       		.byte	0x5
 2451 06db A7       		.byte	0xa7
 2452 06dc 35090000 		.4byte	0x935
 2453 06e0 287E     		.2byte	0x7e28
 2454 06e2 0C       		.uleb128 0xc
 2455 06e3 CB440000 		.4byte	.LASF133
 2456 06e7 05       		.byte	0x5
 2457 06e8 A8       		.byte	0xa8
 2458 06e9 DA000000 		.4byte	0xda
 2459 06ed F47F     		.2byte	0x7ff4
 2460 06ef 0C       		.uleb128 0xc
 2461 06f0 ED1A0000 		.4byte	.LASF134
 2462 06f4 05       		.byte	0x5
 2463 06f5 A9       		.byte	0xa9
 2464 06f6 DA000000 		.4byte	0xda
 2465 06fa F87F     		.2byte	0x7ff8
 2466 06fc 0C       		.uleb128 0xc
 2467 06fd 611E0000 		.4byte	.LASF135
 2468 0701 05       		.byte	0x5
 2469 0702 AA       		.byte	0xaa
 2470 0703 DA000000 		.4byte	0xda
ARM GAS  C:\Users\Smaug\AppData\Local\Temp\ccVZzAJS.s 			page 79


 2471 0707 FC7F     		.2byte	0x7ffc
 2472 0709 00       		.byte	0
 2473 070a 06       		.uleb128 0x6
 2474 070b AE000000 		.4byte	0xae
 2475 070f 07       		.uleb128 0x7
 2476 0710 0A070000 		.4byte	0x70a
 2477 0714 06       		.uleb128 0x6
 2478 0715 C4000000 		.4byte	0xc4
 2479 0719 06       		.uleb128 0x6
 2480 071a 14010000 		.4byte	0x114
 2481 071e 07       		.uleb128 0x7
 2482 071f 19070000 		.4byte	0x719
 2483 0723 08       		.uleb128 0x8
 2484 0724 33070000 		.4byte	0x733
 2485 0728 33070000 		.4byte	0x733
 2486 072c 09       		.uleb128 0x9
 2487 072d 9E000000 		.4byte	0x9e
 2488 0731 02       		.byte	0x2
 2489 0732 00       		.byte	0
 2490 0733 07       		.uleb128 0x7
 2491 0734 14070000 		.4byte	0x714
 2492 0738 06       		.uleb128 0x6
 2493 0739 23070000 		.4byte	0x723
 2494 073d 07       		.uleb128 0x7
 2495 073e 38070000 		.4byte	0x738
 2496 0742 08       		.uleb128 0x8
 2497 0743 DF000000 		.4byte	0xdf
 2498 0747 53070000 		.4byte	0x753
 2499 074b 0D       		.uleb128 0xd
 2500 074c 9E000000 		.4byte	0x9e
 2501 0750 7901     		.2byte	0x179
 2502 0752 00       		.byte	0
 2503 0753 06       		.uleb128 0x6
 2504 0754 42070000 		.4byte	0x742
 2505 0758 07       		.uleb128 0x7
 2506 0759 53070000 		.4byte	0x753
 2507 075d 08       		.uleb128 0x8
 2508 075e 0A070000 		.4byte	0x70a
 2509 0762 6D070000 		.4byte	0x76d
 2510 0766 09       		.uleb128 0x9
 2511 0767 9E000000 		.4byte	0x9e
 2512 076b 02       		.byte	0x2
 2513 076c 00       		.byte	0
 2514 076d 06       		.uleb128 0x6
 2515 076e 5D070000 		.4byte	0x75d
 2516 0772 08       		.uleb128 0x8
 2517 0773 0F070000 		.4byte	0x70f
 2518 0777 82070000 		.4byte	0x782
 2519 077b 09       		.uleb128 0x9
 2520 077c 9E000000 		.4byte	0x9e
 2521 0780 3C       		.byte	0x3c
 2522 0781 00       		.byte	0
 2523 0782 06       		.uleb128 0x6
 2524 0783 72070000 		.4byte	0x772
 2525 0787 07       		.uleb128 0x7
 2526 0788 82070000 		.4byte	0x782
 2527 078c 06       		.uleb128 0x6
ARM GAS  C:\Users\Smaug\AppData\Local\Temp\ccVZzAJS.s 			page 80


 2528 078d 04010000 		.4byte	0x104
 2529 0791 07       		.uleb128 0x7
 2530 0792 8C070000 		.4byte	0x78c
 2531 0796 08       		.uleb128 0x8
 2532 0797 DF000000 		.4byte	0xdf
 2533 079b A6070000 		.4byte	0x7a6
 2534 079f 09       		.uleb128 0x9
 2535 07a0 9E000000 		.4byte	0x9e
 2536 07a4 33       		.byte	0x33
 2537 07a5 00       		.byte	0
 2538 07a6 06       		.uleb128 0x6
 2539 07a7 96070000 		.4byte	0x796
 2540 07ab 07       		.uleb128 0x7
 2541 07ac A6070000 		.4byte	0x7a6
 2542 07b0 08       		.uleb128 0x8
 2543 07b1 33070000 		.4byte	0x733
 2544 07b5 C0070000 		.4byte	0x7c0
 2545 07b9 09       		.uleb128 0x9
 2546 07ba 9E000000 		.4byte	0x9e
 2547 07be 5E       		.byte	0x5e
 2548 07bf 00       		.byte	0
 2549 07c0 06       		.uleb128 0x6
 2550 07c1 B0070000 		.4byte	0x7b0
 2551 07c5 07       		.uleb128 0x7
 2552 07c6 C0070000 		.4byte	0x7c0
 2553 07ca 08       		.uleb128 0x8
 2554 07cb DA000000 		.4byte	0xda
 2555 07cf DA070000 		.4byte	0x7da
 2556 07d3 09       		.uleb128 0x9
 2557 07d4 9E000000 		.4byte	0x9e
 2558 07d8 7F       		.byte	0x7f
 2559 07d9 00       		.byte	0
 2560 07da 06       		.uleb128 0x6
 2561 07db CA070000 		.4byte	0x7ca
 2562 07df 06       		.uleb128 0x6
 2563 07e0 CA070000 		.4byte	0x7ca
 2564 07e4 06       		.uleb128 0x6
 2565 07e5 CA070000 		.4byte	0x7ca
 2566 07e9 06       		.uleb128 0x6
 2567 07ea CA070000 		.4byte	0x7ca
 2568 07ee 08       		.uleb128 0x8
 2569 07ef DF000000 		.4byte	0xdf
 2570 07f3 FF070000 		.4byte	0x7ff
 2571 07f7 0D       		.uleb128 0xd
 2572 07f8 9E000000 		.4byte	0x9e
 2573 07fc 2D01     		.2byte	0x12d
 2574 07fe 00       		.byte	0
 2575 07ff 06       		.uleb128 0x6
 2576 0800 EE070000 		.4byte	0x7ee
 2577 0804 07       		.uleb128 0x7
 2578 0805 FF070000 		.4byte	0x7ff
 2579 0809 08       		.uleb128 0x8
 2580 080a 0A070000 		.4byte	0x70a
 2581 080e 19080000 		.4byte	0x819
 2582 0812 09       		.uleb128 0x9
 2583 0813 9E000000 		.4byte	0x9e
 2584 0817 0F       		.byte	0xf
ARM GAS  C:\Users\Smaug\AppData\Local\Temp\ccVZzAJS.s 			page 81


 2585 0818 00       		.byte	0
 2586 0819 06       		.uleb128 0x6
 2587 081a 09080000 		.4byte	0x809
 2588 081e 06       		.uleb128 0x6
 2589 081f 09080000 		.4byte	0x809
 2590 0823 06       		.uleb128 0x6
 2591 0824 E4000000 		.4byte	0xe4
 2592 0828 06       		.uleb128 0x6
 2593 0829 E4000000 		.4byte	0xe4
 2594 082d 06       		.uleb128 0x6
 2595 082e E4000000 		.4byte	0xe4
 2596 0832 06       		.uleb128 0x6
 2597 0833 E4000000 		.4byte	0xe4
 2598 0837 06       		.uleb128 0x6
 2599 0838 E4000000 		.4byte	0xe4
 2600 083c 08       		.uleb128 0x8
 2601 083d DF000000 		.4byte	0xdf
 2602 0841 4C080000 		.4byte	0x84c
 2603 0845 09       		.uleb128 0x9
 2604 0846 9E000000 		.4byte	0x9e
 2605 084a 79       		.byte	0x79
 2606 084b 00       		.byte	0
 2607 084c 06       		.uleb128 0x6
 2608 084d 3C080000 		.4byte	0x83c
 2609 0851 07       		.uleb128 0x7
 2610 0852 4C080000 		.4byte	0x84c
 2611 0856 06       		.uleb128 0x6
 2612 0857 F4000000 		.4byte	0xf4
 2613 085b 07       		.uleb128 0x7
 2614 085c 56080000 		.4byte	0x856
 2615 0860 08       		.uleb128 0x8
 2616 0861 DF000000 		.4byte	0xdf
 2617 0865 71080000 		.4byte	0x871
 2618 0869 0D       		.uleb128 0xd
 2619 086a 9E000000 		.4byte	0x9e
 2620 086e EA01     		.2byte	0x1ea
 2621 0870 00       		.byte	0
 2622 0871 06       		.uleb128 0x6
 2623 0872 60080000 		.4byte	0x860
 2624 0876 07       		.uleb128 0x7
 2625 0877 71080000 		.4byte	0x871
 2626 087b 08       		.uleb128 0x8
 2627 087c DF000000 		.4byte	0xdf
 2628 0880 8B080000 		.4byte	0x88b
 2629 0884 09       		.uleb128 0x9
 2630 0885 9E000000 		.4byte	0x9e
 2631 0889 2F       		.byte	0x2f
 2632 088a 00       		.byte	0
 2633 088b 06       		.uleb128 0x6
 2634 088c 7B080000 		.4byte	0x87b
 2635 0890 07       		.uleb128 0x7
 2636 0891 8B080000 		.4byte	0x88b
 2637 0895 08       		.uleb128 0x8
 2638 0896 0A070000 		.4byte	0x70a
 2639 089a A6080000 		.4byte	0x8a6
 2640 089e 0D       		.uleb128 0xd
 2641 089f 9E000000 		.4byte	0x9e
ARM GAS  C:\Users\Smaug\AppData\Local\Temp\ccVZzAJS.s 			page 82


 2642 08a3 2739     		.2byte	0x3927
 2643 08a5 00       		.byte	0
 2644 08a6 06       		.uleb128 0x6
 2645 08a7 95080000 		.4byte	0x895
 2646 08ab 08       		.uleb128 0x8
 2647 08ac 0A070000 		.4byte	0x70a
 2648 08b0 BC080000 		.4byte	0x8bc
 2649 08b4 0D       		.uleb128 0xd
 2650 08b5 9E000000 		.4byte	0x9e
 2651 08b9 FF0B     		.2byte	0xbff
 2652 08bb 00       		.byte	0
 2653 08bc 06       		.uleb128 0x6
 2654 08bd AB080000 		.4byte	0x8ab
 2655 08c1 08       		.uleb128 0x8
 2656 08c2 DA000000 		.4byte	0xda
 2657 08c6 D2080000 		.4byte	0x8d2
 2658 08ca 0D       		.uleb128 0xd
 2659 08cb 9E000000 		.4byte	0x9e
 2660 08cf 7F01     		.2byte	0x17f
 2661 08d1 00       		.byte	0
 2662 08d2 06       		.uleb128 0x6
 2663 08d3 C1080000 		.4byte	0x8c1
 2664 08d7 08       		.uleb128 0x8
 2665 08d8 DF000000 		.4byte	0xdf
 2666 08dc E8080000 		.4byte	0x8e8
 2667 08e0 0D       		.uleb128 0xd
 2668 08e1 9E000000 		.4byte	0x9e
 2669 08e5 FF02     		.2byte	0x2ff
 2670 08e7 00       		.byte	0
 2671 08e8 06       		.uleb128 0x6
 2672 08e9 D7080000 		.4byte	0x8d7
 2673 08ed 07       		.uleb128 0x7
 2674 08ee E8080000 		.4byte	0x8e8
 2675 08f2 08       		.uleb128 0x8
 2676 08f3 DF000000 		.4byte	0xdf
 2677 08f7 02090000 		.4byte	0x902
 2678 08fb 09       		.uleb128 0x9
 2679 08fc 9E000000 		.4byte	0x9e
 2680 0900 76       		.byte	0x76
 2681 0901 00       		.byte	0
 2682 0902 06       		.uleb128 0x6
 2683 0903 F2080000 		.4byte	0x8f2
 2684 0907 07       		.uleb128 0x7
 2685 0908 02090000 		.4byte	0x902
 2686 090c 06       		.uleb128 0x6
 2687 090d F2080000 		.4byte	0x8f2
 2688 0911 07       		.uleb128 0x7
 2689 0912 0C090000 		.4byte	0x90c
 2690 0916 08       		.uleb128 0x8
 2691 0917 DF000000 		.4byte	0xdf
 2692 091b 26090000 		.4byte	0x926
 2693 091f 09       		.uleb128 0x9
 2694 0920 9E000000 		.4byte	0x9e
 2695 0924 72       		.byte	0x72
 2696 0925 00       		.byte	0
 2697 0926 06       		.uleb128 0x6
 2698 0927 16090000 		.4byte	0x916
ARM GAS  C:\Users\Smaug\AppData\Local\Temp\ccVZzAJS.s 			page 83


 2699 092b 07       		.uleb128 0x7
 2700 092c 26090000 		.4byte	0x926
 2701 0930 06       		.uleb128 0x6
 2702 0931 16090000 		.4byte	0x916
 2703 0935 07       		.uleb128 0x7
 2704 0936 30090000 		.4byte	0x930
 2705 093a 04       		.uleb128 0x4
 2706 093b D1220000 		.4byte	.LASF136
 2707 093f 05       		.byte	0x5
 2708 0940 AC       		.byte	0xac
 2709 0941 24010000 		.4byte	0x124
 2710 0945 0E       		.uleb128 0xe
 2711 0946 B8       		.byte	0xb8
 2712 0947 06       		.byte	0x6
 2713 0948 34       		.byte	0x34
 2714 0949 560D0000 		.4byte	0xd56
 2715 094d 0B       		.uleb128 0xb
 2716 094e 1B2A0000 		.4byte	.LASF137
 2717 0952 06       		.byte	0x6
 2718 0953 37       		.byte	0x37
 2719 0954 CF000000 		.4byte	0xcf
 2720 0958 00       		.byte	0
 2721 0959 0B       		.uleb128 0xb
 2722 095a AA130000 		.4byte	.LASF138
 2723 095e 06       		.byte	0x6
 2724 095f 38       		.byte	0x38
 2725 0960 CF000000 		.4byte	0xcf
 2726 0964 04       		.byte	0x4
 2727 0965 0B       		.uleb128 0xb
 2728 0966 8C210000 		.4byte	.LASF139
 2729 096a 06       		.byte	0x6
 2730 096b 39       		.byte	0x39
 2731 096c CF000000 		.4byte	0xcf
 2732 0970 08       		.byte	0x8
 2733 0971 0B       		.uleb128 0xb
 2734 0972 B31B0000 		.4byte	.LASF140
 2735 0976 06       		.byte	0x6
 2736 0977 3A       		.byte	0x3a
 2737 0978 CF000000 		.4byte	0xcf
 2738 097c 0C       		.byte	0xc
 2739 097d 0B       		.uleb128 0xb
 2740 097e 6A2A0000 		.4byte	.LASF141
 2741 0982 06       		.byte	0x6
 2742 0983 3B       		.byte	0x3b
 2743 0984 CF000000 		.4byte	0xcf
 2744 0988 10       		.byte	0x10
 2745 0989 0B       		.uleb128 0xb
 2746 098a A4030000 		.4byte	.LASF142
 2747 098e 06       		.byte	0x6
 2748 098f 3C       		.byte	0x3c
 2749 0990 CF000000 		.4byte	0xcf
 2750 0994 14       		.byte	0x14
 2751 0995 0B       		.uleb128 0xb
 2752 0996 0A440000 		.4byte	.LASF143
 2753 099a 06       		.byte	0x6
 2754 099b 3D       		.byte	0x3d
 2755 099c CF000000 		.4byte	0xcf
ARM GAS  C:\Users\Smaug\AppData\Local\Temp\ccVZzAJS.s 			page 84


 2756 09a0 18       		.byte	0x18
 2757 09a1 0B       		.uleb128 0xb
 2758 09a2 D6160000 		.4byte	.LASF144
 2759 09a6 06       		.byte	0x6
 2760 09a7 3E       		.byte	0x3e
 2761 09a8 CF000000 		.4byte	0xcf
 2762 09ac 1C       		.byte	0x1c
 2763 09ad 0B       		.uleb128 0xb
 2764 09ae D54F0000 		.4byte	.LASF145
 2765 09b2 06       		.byte	0x6
 2766 09b3 3F       		.byte	0x3f
 2767 09b4 CF000000 		.4byte	0xcf
 2768 09b8 20       		.byte	0x20
 2769 09b9 0B       		.uleb128 0xb
 2770 09ba 66000000 		.4byte	.LASF146
 2771 09be 06       		.byte	0x6
 2772 09bf 40       		.byte	0x40
 2773 09c0 CF000000 		.4byte	0xcf
 2774 09c4 24       		.byte	0x24
 2775 09c5 0B       		.uleb128 0xb
 2776 09c6 4C250000 		.4byte	.LASF147
 2777 09ca 06       		.byte	0x6
 2778 09cb 43       		.byte	0x43
 2779 09cc AE000000 		.4byte	0xae
 2780 09d0 28       		.byte	0x28
 2781 09d1 0B       		.uleb128 0xb
 2782 09d2 50540000 		.4byte	.LASF148
 2783 09d6 06       		.byte	0x6
 2784 09d7 44       		.byte	0x44
 2785 09d8 AE000000 		.4byte	0xae
 2786 09dc 29       		.byte	0x29
 2787 09dd 0B       		.uleb128 0xb
 2788 09de C6430000 		.4byte	.LASF149
 2789 09e2 06       		.byte	0x6
 2790 09e3 45       		.byte	0x45
 2791 09e4 AE000000 		.4byte	0xae
 2792 09e8 2A       		.byte	0x2a
 2793 09e9 0B       		.uleb128 0xb
 2794 09ea CC0A0000 		.4byte	.LASF150
 2795 09ee 06       		.byte	0x6
 2796 09ef 46       		.byte	0x46
 2797 09f0 AE000000 		.4byte	0xae
 2798 09f4 2B       		.byte	0x2b
 2799 09f5 0B       		.uleb128 0xb
 2800 09f6 F4400000 		.4byte	.LASF151
 2801 09fa 06       		.byte	0x6
 2802 09fb 47       		.byte	0x47
 2803 09fc AE000000 		.4byte	0xae
 2804 0a00 2C       		.byte	0x2c
 2805 0a01 0B       		.uleb128 0xb
 2806 0a02 94560000 		.4byte	.LASF152
 2807 0a06 06       		.byte	0x6
 2808 0a07 48       		.byte	0x48
 2809 0a08 AE000000 		.4byte	0xae
 2810 0a0c 2D       		.byte	0x2d
 2811 0a0d 0B       		.uleb128 0xb
 2812 0a0e 732A0000 		.4byte	.LASF153
ARM GAS  C:\Users\Smaug\AppData\Local\Temp\ccVZzAJS.s 			page 85


 2813 0a12 06       		.byte	0x6
 2814 0a13 49       		.byte	0x49
 2815 0a14 AE000000 		.4byte	0xae
 2816 0a18 2E       		.byte	0x2e
 2817 0a19 0B       		.uleb128 0xb
 2818 0a1a FE460000 		.4byte	.LASF154
 2819 0a1e 06       		.byte	0x6
 2820 0a1f 4A       		.byte	0x4a
 2821 0a20 AE000000 		.4byte	0xae
 2822 0a24 2F       		.byte	0x2f
 2823 0a25 0B       		.uleb128 0xb
 2824 0a26 1D0D0000 		.4byte	.LASF155
 2825 0a2a 06       		.byte	0x6
 2826 0a2b 4B       		.byte	0x4b
 2827 0a2c AE000000 		.4byte	0xae
 2828 0a30 30       		.byte	0x30
 2829 0a31 0B       		.uleb128 0xb
 2830 0a32 26300000 		.4byte	.LASF156
 2831 0a36 06       		.byte	0x6
 2832 0a37 4E       		.byte	0x4e
 2833 0a38 AE000000 		.4byte	0xae
 2834 0a3c 31       		.byte	0x31
 2835 0a3d 0B       		.uleb128 0xb
 2836 0a3e FE350000 		.4byte	.LASF157
 2837 0a42 06       		.byte	0x6
 2838 0a43 4F       		.byte	0x4f
 2839 0a44 AE000000 		.4byte	0xae
 2840 0a48 32       		.byte	0x32
 2841 0a49 0B       		.uleb128 0xb
 2842 0a4a 11410000 		.4byte	.LASF158
 2843 0a4e 06       		.byte	0x6
 2844 0a4f 50       		.byte	0x50
 2845 0a50 AE000000 		.4byte	0xae
 2846 0a54 33       		.byte	0x33
 2847 0a55 0B       		.uleb128 0xb
 2848 0a56 3F3E0000 		.4byte	.LASF159
 2849 0a5a 06       		.byte	0x6
 2850 0a5b 51       		.byte	0x51
 2851 0a5c AE000000 		.4byte	0xae
 2852 0a60 34       		.byte	0x34
 2853 0a61 0B       		.uleb128 0xb
 2854 0a62 45450000 		.4byte	.LASF160
 2855 0a66 06       		.byte	0x6
 2856 0a67 52       		.byte	0x52
 2857 0a68 B9000000 		.4byte	0xb9
 2858 0a6c 36       		.byte	0x36
 2859 0a6d 0B       		.uleb128 0xb
 2860 0a6e 0D260000 		.4byte	.LASF161
 2861 0a72 06       		.byte	0x6
 2862 0a73 53       		.byte	0x53
 2863 0a74 B9000000 		.4byte	0xb9
 2864 0a78 38       		.byte	0x38
 2865 0a79 0B       		.uleb128 0xb
 2866 0a7a A6200000 		.4byte	.LASF162
 2867 0a7e 06       		.byte	0x6
 2868 0a7f 54       		.byte	0x54
 2869 0a80 B9000000 		.4byte	0xb9
ARM GAS  C:\Users\Smaug\AppData\Local\Temp\ccVZzAJS.s 			page 86


 2870 0a84 3A       		.byte	0x3a
 2871 0a85 0B       		.uleb128 0xb
 2872 0a86 FA030000 		.4byte	.LASF163
 2873 0a8a 06       		.byte	0x6
 2874 0a8b 55       		.byte	0x55
 2875 0a8c AE000000 		.4byte	0xae
 2876 0a90 3C       		.byte	0x3c
 2877 0a91 0B       		.uleb128 0xb
 2878 0a92 8E390000 		.4byte	.LASF164
 2879 0a96 06       		.byte	0x6
 2880 0a97 56       		.byte	0x56
 2881 0a98 AE000000 		.4byte	0xae
 2882 0a9c 3D       		.byte	0x3d
 2883 0a9d 0B       		.uleb128 0xb
 2884 0a9e C0070000 		.4byte	.LASF165
 2885 0aa2 06       		.byte	0x6
 2886 0aa3 57       		.byte	0x57
 2887 0aa4 AE000000 		.4byte	0xae
 2888 0aa8 3E       		.byte	0x3e
 2889 0aa9 0B       		.uleb128 0xb
 2890 0aaa 43110000 		.4byte	.LASF166
 2891 0aae 06       		.byte	0x6
 2892 0aaf 58       		.byte	0x58
 2893 0ab0 AE000000 		.4byte	0xae
 2894 0ab4 3F       		.byte	0x3f
 2895 0ab5 0B       		.uleb128 0xb
 2896 0ab6 EC270000 		.4byte	.LASF167
 2897 0aba 06       		.byte	0x6
 2898 0abb 59       		.byte	0x59
 2899 0abc AE000000 		.4byte	0xae
 2900 0ac0 40       		.byte	0x40
 2901 0ac1 0B       		.uleb128 0xb
 2902 0ac2 E42A0000 		.4byte	.LASF168
 2903 0ac6 06       		.byte	0x6
 2904 0ac7 5A       		.byte	0x5a
 2905 0ac8 AE000000 		.4byte	0xae
 2906 0acc 41       		.byte	0x41
 2907 0acd 0B       		.uleb128 0xb
 2908 0ace 60240000 		.4byte	.LASF169
 2909 0ad2 06       		.byte	0x6
 2910 0ad3 5B       		.byte	0x5b
 2911 0ad4 AE000000 		.4byte	0xae
 2912 0ad8 42       		.byte	0x42
 2913 0ad9 0B       		.uleb128 0xb
 2914 0ada 650D0000 		.4byte	.LASF170
 2915 0ade 06       		.byte	0x6
 2916 0adf 5C       		.byte	0x5c
 2917 0ae0 AE000000 		.4byte	0xae
 2918 0ae4 43       		.byte	0x43
 2919 0ae5 0B       		.uleb128 0xb
 2920 0ae6 A2440000 		.4byte	.LASF171
 2921 0aea 06       		.byte	0x6
 2922 0aeb 5D       		.byte	0x5d
 2923 0aec AE000000 		.4byte	0xae
 2924 0af0 44       		.byte	0x44
 2925 0af1 0B       		.uleb128 0xb
 2926 0af2 90440000 		.4byte	.LASF172
ARM GAS  C:\Users\Smaug\AppData\Local\Temp\ccVZzAJS.s 			page 87


 2927 0af6 06       		.byte	0x6
 2928 0af7 5E       		.byte	0x5e
 2929 0af8 CF000000 		.4byte	0xcf
 2930 0afc 48       		.byte	0x48
 2931 0afd 0B       		.uleb128 0xb
 2932 0afe 01030000 		.4byte	.LASF173
 2933 0b02 06       		.byte	0x6
 2934 0b03 5F       		.byte	0x5f
 2935 0b04 CF000000 		.4byte	0xcf
 2936 0b08 4C       		.byte	0x4c
 2937 0b09 0B       		.uleb128 0xb
 2938 0b0a AF2D0000 		.4byte	.LASF174
 2939 0b0e 06       		.byte	0x6
 2940 0b0f 60       		.byte	0x60
 2941 0b10 AE000000 		.4byte	0xae
 2942 0b14 50       		.byte	0x50
 2943 0b15 0B       		.uleb128 0xb
 2944 0b16 7C4A0000 		.4byte	.LASF175
 2945 0b1a 06       		.byte	0x6
 2946 0b1b 61       		.byte	0x61
 2947 0b1c AE000000 		.4byte	0xae
 2948 0b20 51       		.byte	0x51
 2949 0b21 0B       		.uleb128 0xb
 2950 0b22 9F2D0000 		.4byte	.LASF176
 2951 0b26 06       		.byte	0x6
 2952 0b27 62       		.byte	0x62
 2953 0b28 AE000000 		.4byte	0xae
 2954 0b2c 52       		.byte	0x52
 2955 0b2d 0B       		.uleb128 0xb
 2956 0b2e BB000000 		.4byte	.LASF177
 2957 0b32 06       		.byte	0x6
 2958 0b33 63       		.byte	0x63
 2959 0b34 AE000000 		.4byte	0xae
 2960 0b38 53       		.byte	0x53
 2961 0b39 0B       		.uleb128 0xb
 2962 0b3a 78370000 		.4byte	.LASF178
 2963 0b3e 06       		.byte	0x6
 2964 0b3f 64       		.byte	0x64
 2965 0b40 AE000000 		.4byte	0xae
 2966 0b44 54       		.byte	0x54
 2967 0b45 0B       		.uleb128 0xb
 2968 0b46 E7000000 		.4byte	.LASF179
 2969 0b4a 06       		.byte	0x6
 2970 0b4b 65       		.byte	0x65
 2971 0b4c AE000000 		.4byte	0xae
 2972 0b50 55       		.byte	0x55
 2973 0b51 0B       		.uleb128 0xb
 2974 0b52 B6480000 		.4byte	.LASF180
 2975 0b56 06       		.byte	0x6
 2976 0b57 66       		.byte	0x66
 2977 0b58 AE000000 		.4byte	0xae
 2978 0b5c 56       		.byte	0x56
 2979 0b5d 0B       		.uleb128 0xb
 2980 0b5e AF3B0000 		.4byte	.LASF181
 2981 0b62 06       		.byte	0x6
 2982 0b63 67       		.byte	0x67
 2983 0b64 AE000000 		.4byte	0xae
ARM GAS  C:\Users\Smaug\AppData\Local\Temp\ccVZzAJS.s 			page 88


 2984 0b68 57       		.byte	0x57
 2985 0b69 0B       		.uleb128 0xb
 2986 0b6a C02D0000 		.4byte	.LASF182
 2987 0b6e 06       		.byte	0x6
 2988 0b6f 68       		.byte	0x68
 2989 0b70 AE000000 		.4byte	0xae
 2990 0b74 58       		.byte	0x58
 2991 0b75 0B       		.uleb128 0xb
 2992 0b76 27200000 		.4byte	.LASF183
 2993 0b7a 06       		.byte	0x6
 2994 0b7b 69       		.byte	0x69
 2995 0b7c AE000000 		.4byte	0xae
 2996 0b80 59       		.byte	0x59
 2997 0b81 0B       		.uleb128 0xb
 2998 0b82 C2560000 		.4byte	.LASF184
 2999 0b86 06       		.byte	0x6
 3000 0b87 6E       		.byte	0x6e
 3001 0b88 C4000000 		.4byte	0xc4
 3002 0b8c 5A       		.byte	0x5a
 3003 0b8d 0B       		.uleb128 0xb
 3004 0b8e 64260000 		.4byte	.LASF185
 3005 0b92 06       		.byte	0x6
 3006 0b93 6F       		.byte	0x6f
 3007 0b94 C4000000 		.4byte	0xc4
 3008 0b98 5C       		.byte	0x5c
 3009 0b99 0B       		.uleb128 0xb
 3010 0b9a B22B0000 		.4byte	.LASF186
 3011 0b9e 06       		.byte	0x6
 3012 0b9f 70       		.byte	0x70
 3013 0ba0 AE000000 		.4byte	0xae
 3014 0ba4 5E       		.byte	0x5e
 3015 0ba5 0B       		.uleb128 0xb
 3016 0ba6 5E500000 		.4byte	.LASF187
 3017 0baa 06       		.byte	0x6
 3018 0bab 71       		.byte	0x71
 3019 0bac AE000000 		.4byte	0xae
 3020 0bb0 5F       		.byte	0x5f
 3021 0bb1 0B       		.uleb128 0xb
 3022 0bb2 33090000 		.4byte	.LASF188
 3023 0bb6 06       		.byte	0x6
 3024 0bb7 72       		.byte	0x72
 3025 0bb8 AE000000 		.4byte	0xae
 3026 0bbc 60       		.byte	0x60
 3027 0bbd 0B       		.uleb128 0xb
 3028 0bbe 7E360000 		.4byte	.LASF189
 3029 0bc2 06       		.byte	0x6
 3030 0bc3 73       		.byte	0x73
 3031 0bc4 CF000000 		.4byte	0xcf
 3032 0bc8 64       		.byte	0x64
 3033 0bc9 0B       		.uleb128 0xb
 3034 0bca 38530000 		.4byte	.LASF190
 3035 0bce 06       		.byte	0x6
 3036 0bcf 76       		.byte	0x76
 3037 0bd0 C4000000 		.4byte	0xc4
 3038 0bd4 68       		.byte	0x68
 3039 0bd5 0B       		.uleb128 0xb
 3040 0bd6 141B0000 		.4byte	.LASF191
ARM GAS  C:\Users\Smaug\AppData\Local\Temp\ccVZzAJS.s 			page 89


 3041 0bda 06       		.byte	0x6
 3042 0bdb 77       		.byte	0x77
 3043 0bdc C4000000 		.4byte	0xc4
 3044 0be0 6A       		.byte	0x6a
 3045 0be1 0B       		.uleb128 0xb
 3046 0be2 D51C0000 		.4byte	.LASF192
 3047 0be6 06       		.byte	0x6
 3048 0be7 78       		.byte	0x78
 3049 0be8 C4000000 		.4byte	0xc4
 3050 0bec 6C       		.byte	0x6c
 3051 0bed 0B       		.uleb128 0xb
 3052 0bee 1A280000 		.4byte	.LASF193
 3053 0bf2 06       		.byte	0x6
 3054 0bf3 79       		.byte	0x79
 3055 0bf4 C4000000 		.4byte	0xc4
 3056 0bf8 6E       		.byte	0x6e
 3057 0bf9 0B       		.uleb128 0xb
 3058 0bfa 29430000 		.4byte	.LASF194
 3059 0bfe 06       		.byte	0x6
 3060 0bff 7B       		.byte	0x7b
 3061 0c00 AE000000 		.4byte	0xae
 3062 0c04 70       		.byte	0x70
 3063 0c05 0B       		.uleb128 0xb
 3064 0c06 E9290000 		.4byte	.LASF195
 3065 0c0a 06       		.byte	0x6
 3066 0c0b 7C       		.byte	0x7c
 3067 0c0c AE000000 		.4byte	0xae
 3068 0c10 71       		.byte	0x71
 3069 0c11 0B       		.uleb128 0xb
 3070 0c12 DF120000 		.4byte	.LASF196
 3071 0c16 06       		.byte	0x6
 3072 0c17 7D       		.byte	0x7d
 3073 0c18 AE000000 		.4byte	0xae
 3074 0c1c 72       		.byte	0x72
 3075 0c1d 0B       		.uleb128 0xb
 3076 0c1e 653A0000 		.4byte	.LASF197
 3077 0c22 06       		.byte	0x6
 3078 0c23 7E       		.byte	0x7e
 3079 0c24 AE000000 		.4byte	0xae
 3080 0c28 73       		.byte	0x73
 3081 0c29 0B       		.uleb128 0xb
 3082 0c2a F90D0000 		.4byte	.LASF198
 3083 0c2e 06       		.byte	0x6
 3084 0c2f 80       		.byte	0x80
 3085 0c30 C4000000 		.4byte	0xc4
 3086 0c34 74       		.byte	0x74
 3087 0c35 0B       		.uleb128 0xb
 3088 0c36 59290000 		.4byte	.LASF199
 3089 0c3a 06       		.byte	0x6
 3090 0c3b 81       		.byte	0x81
 3091 0c3c C4000000 		.4byte	0xc4
 3092 0c40 76       		.byte	0x76
 3093 0c41 0B       		.uleb128 0xb
 3094 0c42 212E0000 		.4byte	.LASF200
 3095 0c46 06       		.byte	0x6
 3096 0c47 82       		.byte	0x82
 3097 0c48 C4000000 		.4byte	0xc4
ARM GAS  C:\Users\Smaug\AppData\Local\Temp\ccVZzAJS.s 			page 90


 3098 0c4c 78       		.byte	0x78
 3099 0c4d 0B       		.uleb128 0xb
 3100 0c4e BC220000 		.4byte	.LASF201
 3101 0c52 06       		.byte	0x6
 3102 0c53 83       		.byte	0x83
 3103 0c54 C4000000 		.4byte	0xc4
 3104 0c58 7A       		.byte	0x7a
 3105 0c59 0B       		.uleb128 0xb
 3106 0c5a 36330000 		.4byte	.LASF202
 3107 0c5e 06       		.byte	0x6
 3108 0c5f 86       		.byte	0x86
 3109 0c60 AE000000 		.4byte	0xae
 3110 0c64 7C       		.byte	0x7c
 3111 0c65 0B       		.uleb128 0xb
 3112 0c66 10070000 		.4byte	.LASF203
 3113 0c6a 06       		.byte	0x6
 3114 0c6b 87       		.byte	0x87
 3115 0c6c AE000000 		.4byte	0xae
 3116 0c70 7D       		.byte	0x7d
 3117 0c71 0B       		.uleb128 0xb
 3118 0c72 79210000 		.4byte	.LASF204
 3119 0c76 06       		.byte	0x6
 3120 0c77 88       		.byte	0x88
 3121 0c78 AE000000 		.4byte	0xae
 3122 0c7c 7E       		.byte	0x7e
 3123 0c7d 0B       		.uleb128 0xb
 3124 0c7e D42C0000 		.4byte	.LASF205
 3125 0c82 06       		.byte	0x6
 3126 0c83 89       		.byte	0x89
 3127 0c84 AE000000 		.4byte	0xae
 3128 0c88 7F       		.byte	0x7f
 3129 0c89 0B       		.uleb128 0xb
 3130 0c8a 734B0000 		.4byte	.LASF206
 3131 0c8e 06       		.byte	0x6
 3132 0c8f 8A       		.byte	0x8a
 3133 0c90 AE000000 		.4byte	0xae
 3134 0c94 80       		.byte	0x80
 3135 0c95 0B       		.uleb128 0xb
 3136 0c96 B01C0000 		.4byte	.LASF207
 3137 0c9a 06       		.byte	0x6
 3138 0c9b 8D       		.byte	0x8d
 3139 0c9c CF000000 		.4byte	0xcf
 3140 0ca0 84       		.byte	0x84
 3141 0ca1 0B       		.uleb128 0xb
 3142 0ca2 E21E0000 		.4byte	.LASF208
 3143 0ca6 06       		.byte	0x6
 3144 0ca7 8E       		.byte	0x8e
 3145 0ca8 CF000000 		.4byte	0xcf
 3146 0cac 88       		.byte	0x88
 3147 0cad 0B       		.uleb128 0xb
 3148 0cae 11500000 		.4byte	.LASF209
 3149 0cb2 06       		.byte	0x6
 3150 0cb3 8F       		.byte	0x8f
 3151 0cb4 CF000000 		.4byte	0xcf
 3152 0cb8 8C       		.byte	0x8c
 3153 0cb9 0B       		.uleb128 0xb
 3154 0cba 8B000000 		.4byte	.LASF210
ARM GAS  C:\Users\Smaug\AppData\Local\Temp\ccVZzAJS.s 			page 91


 3155 0cbe 06       		.byte	0x6
 3156 0cbf 90       		.byte	0x90
 3157 0cc0 CF000000 		.4byte	0xcf
 3158 0cc4 90       		.byte	0x90
 3159 0cc5 0B       		.uleb128 0xb
 3160 0cc6 DF160000 		.4byte	.LASF211
 3161 0cca 06       		.byte	0x6
 3162 0ccb 91       		.byte	0x91
 3163 0ccc CF000000 		.4byte	0xcf
 3164 0cd0 94       		.byte	0x94
 3165 0cd1 0B       		.uleb128 0xb
 3166 0cd2 4B160000 		.4byte	.LASF212
 3167 0cd6 06       		.byte	0x6
 3168 0cd7 92       		.byte	0x92
 3169 0cd8 CF000000 		.4byte	0xcf
 3170 0cdc 98       		.byte	0x98
 3171 0cdd 0B       		.uleb128 0xb
 3172 0cde 01170000 		.4byte	.LASF213
 3173 0ce2 06       		.byte	0x6
 3174 0ce3 93       		.byte	0x93
 3175 0ce4 CF000000 		.4byte	0xcf
 3176 0ce8 9C       		.byte	0x9c
 3177 0ce9 0B       		.uleb128 0xb
 3178 0cea 95290000 		.4byte	.LASF214
 3179 0cee 06       		.byte	0x6
 3180 0cef 94       		.byte	0x94
 3181 0cf0 CF000000 		.4byte	0xcf
 3182 0cf4 A0       		.byte	0xa0
 3183 0cf5 0B       		.uleb128 0xb
 3184 0cf6 403B0000 		.4byte	.LASF215
 3185 0cfa 06       		.byte	0x6
 3186 0cfb 95       		.byte	0x95
 3187 0cfc C4000000 		.4byte	0xc4
 3188 0d00 A4       		.byte	0xa4
 3189 0d01 0B       		.uleb128 0xb
 3190 0d02 C93A0000 		.4byte	.LASF216
 3191 0d06 06       		.byte	0x6
 3192 0d07 96       		.byte	0x96
 3193 0d08 C4000000 		.4byte	0xc4
 3194 0d0c A6       		.byte	0xa6
 3195 0d0d 0B       		.uleb128 0xb
 3196 0d0e 0B130000 		.4byte	.LASF217
 3197 0d12 06       		.byte	0x6
 3198 0d13 97       		.byte	0x97
 3199 0d14 C4000000 		.4byte	0xc4
 3200 0d18 A8       		.byte	0xa8
 3201 0d19 0B       		.uleb128 0xb
 3202 0d1a 1D410000 		.4byte	.LASF218
 3203 0d1e 06       		.byte	0x6
 3204 0d1f 98       		.byte	0x98
 3205 0d20 C4000000 		.4byte	0xc4
 3206 0d24 AA       		.byte	0xaa
 3207 0d25 0B       		.uleb128 0xb
 3208 0d26 4B330000 		.4byte	.LASF219
 3209 0d2a 06       		.byte	0x6
 3210 0d2b 99       		.byte	0x99
 3211 0d2c C4000000 		.4byte	0xc4
ARM GAS  C:\Users\Smaug\AppData\Local\Temp\ccVZzAJS.s 			page 92


 3212 0d30 AC       		.byte	0xac
 3213 0d31 0B       		.uleb128 0xb
 3214 0d32 AA240000 		.4byte	.LASF220
 3215 0d36 06       		.byte	0x6
 3216 0d37 9A       		.byte	0x9a
 3217 0d38 C4000000 		.4byte	0xc4
 3218 0d3c AE       		.byte	0xae
 3219 0d3d 0B       		.uleb128 0xb
 3220 0d3e B10F0000 		.4byte	.LASF221
 3221 0d42 06       		.byte	0x6
 3222 0d43 9D       		.byte	0x9d
 3223 0d44 C4000000 		.4byte	0xc4
 3224 0d48 B0       		.byte	0xb0
 3225 0d49 0B       		.uleb128 0xb
 3226 0d4a 5B1D0000 		.4byte	.LASF222
 3227 0d4e 06       		.byte	0x6
 3228 0d4f 9E       		.byte	0x9e
 3229 0d50 CF000000 		.4byte	0xcf
 3230 0d54 B4       		.byte	0xb4
 3231 0d55 00       		.byte	0
 3232 0d56 04       		.uleb128 0x4
 3233 0d57 EF2B0000 		.4byte	.LASF223
 3234 0d5b 06       		.byte	0x6
 3235 0d5c 9F       		.byte	0x9f
 3236 0d5d 45090000 		.4byte	0x945
 3237 0d61 0F       		.uleb128 0xf
 3238 0d62 02       		.byte	0x2
 3239 0d63 65000000 		.4byte	0x65
 3240 0d67 07       		.byte	0x7
 3241 0d68 24       		.byte	0x24
 3242 0d69 580E0000 		.4byte	0xe58
 3243 0d6d 10       		.uleb128 0x10
 3244 0d6e 8D350000 		.4byte	.LASF224
 3245 0d72 71       		.sleb128 -15
 3246 0d73 10       		.uleb128 0x10
 3247 0d74 A0220000 		.4byte	.LASF225
 3248 0d78 72       		.sleb128 -14
 3249 0d79 10       		.uleb128 0x10
 3250 0d7a D5540000 		.4byte	.LASF226
 3251 0d7e 73       		.sleb128 -13
 3252 0d7f 10       		.uleb128 0x10
 3253 0d80 79330000 		.4byte	.LASF227
 3254 0d84 7B       		.sleb128 -5
 3255 0d85 10       		.uleb128 0x10
 3256 0d86 F1060000 		.4byte	.LASF228
 3257 0d8a 7E       		.sleb128 -2
 3258 0d8b 10       		.uleb128 0x10
 3259 0d8c 4E100000 		.4byte	.LASF229
 3260 0d90 7F       		.sleb128 -1
 3261 0d91 11       		.uleb128 0x11
 3262 0d92 C71C0000 		.4byte	.LASF230
 3263 0d96 00       		.byte	0
 3264 0d97 11       		.uleb128 0x11
 3265 0d98 C8010000 		.4byte	.LASF231
 3266 0d9c 01       		.byte	0x1
 3267 0d9d 11       		.uleb128 0x11
 3268 0d9e BD370000 		.4byte	.LASF232
ARM GAS  C:\Users\Smaug\AppData\Local\Temp\ccVZzAJS.s 			page 93


 3269 0da2 02       		.byte	0x2
 3270 0da3 11       		.uleb128 0x11
 3271 0da4 C2160000 		.4byte	.LASF233
 3272 0da8 03       		.byte	0x3
 3273 0da9 11       		.uleb128 0x11
 3274 0daa 874B0000 		.4byte	.LASF234
 3275 0dae 04       		.byte	0x4
 3276 0daf 11       		.uleb128 0x11
 3277 0db0 AD460000 		.4byte	.LASF235
 3278 0db4 05       		.byte	0x5
 3279 0db5 11       		.uleb128 0x11
 3280 0db6 38240000 		.4byte	.LASF236
 3281 0dba 06       		.byte	0x6
 3282 0dbb 11       		.uleb128 0x11
 3283 0dbc C8030000 		.4byte	.LASF237
 3284 0dc0 07       		.byte	0x7
 3285 0dc1 11       		.uleb128 0x11
 3286 0dc2 8B550000 		.4byte	.LASF238
 3287 0dc6 08       		.byte	0x8
 3288 0dc7 11       		.uleb128 0x11
 3289 0dc8 02340000 		.4byte	.LASF239
 3290 0dcc 09       		.byte	0x9
 3291 0dcd 11       		.uleb128 0x11
 3292 0dce 261B0000 		.4byte	.LASF240
 3293 0dd2 0A       		.byte	0xa
 3294 0dd3 11       		.uleb128 0x11
 3295 0dd4 F6300000 		.4byte	.LASF241
 3296 0dd8 0B       		.byte	0xb
 3297 0dd9 11       		.uleb128 0x11
 3298 0dda 6B480000 		.4byte	.LASF242
 3299 0dde 0C       		.byte	0xc
 3300 0ddf 11       		.uleb128 0x11
 3301 0de0 19100000 		.4byte	.LASF243
 3302 0de4 0D       		.byte	0xd
 3303 0de5 11       		.uleb128 0x11
 3304 0de6 B02F0000 		.4byte	.LASF244
 3305 0dea 0E       		.byte	0xe
 3306 0deb 11       		.uleb128 0x11
 3307 0dec 3B3A0000 		.4byte	.LASF245
 3308 0df0 0F       		.byte	0xf
 3309 0df1 11       		.uleb128 0x11
 3310 0df2 A6190000 		.4byte	.LASF246
 3311 0df6 10       		.byte	0x10
 3312 0df7 11       		.uleb128 0x11
 3313 0df8 4D4E0000 		.4byte	.LASF247
 3314 0dfc 11       		.byte	0x11
 3315 0dfd 11       		.uleb128 0x11
 3316 0dfe 23490000 		.4byte	.LASF248
 3317 0e02 12       		.byte	0x12
 3318 0e03 11       		.uleb128 0x11
 3319 0e04 8F270000 		.4byte	.LASF249
 3320 0e08 13       		.byte	0x13
 3321 0e09 11       		.uleb128 0x11
 3322 0e0a 85560000 		.4byte	.LASF250
 3323 0e0e 14       		.byte	0x14
 3324 0e0f 11       		.uleb128 0x11
 3325 0e10 4F350000 		.4byte	.LASF251
ARM GAS  C:\Users\Smaug\AppData\Local\Temp\ccVZzAJS.s 			page 94


 3326 0e14 15       		.byte	0x15
 3327 0e15 11       		.uleb128 0x11
 3328 0e16 74080000 		.4byte	.LASF252
 3329 0e1a 16       		.byte	0x16
 3330 0e1b 11       		.uleb128 0x11
 3331 0e1c 9C0D0000 		.4byte	.LASF253
 3332 0e20 17       		.byte	0x17
 3333 0e21 11       		.uleb128 0x11
 3334 0e22 0C450000 		.4byte	.LASF254
 3335 0e26 18       		.byte	0x18
 3336 0e27 11       		.uleb128 0x11
 3337 0e28 6C3F0000 		.4byte	.LASF255
 3338 0e2c 19       		.byte	0x19
 3339 0e2d 11       		.uleb128 0x11
 3340 0e2e AC000000 		.4byte	.LASF256
 3341 0e32 1A       		.byte	0x1a
 3342 0e33 11       		.uleb128 0x11
 3343 0e34 48530000 		.4byte	.LASF257
 3344 0e38 1B       		.byte	0x1b
 3345 0e39 11       		.uleb128 0x11
 3346 0e3a 3A4D0000 		.4byte	.LASF258
 3347 0e3e 1C       		.byte	0x1c
 3348 0e3f 11       		.uleb128 0x11
 3349 0e40 E02B0000 		.4byte	.LASF259
 3350 0e44 1D       		.byte	0x1d
 3351 0e45 11       		.uleb128 0x11
 3352 0e46 09040000 		.4byte	.LASF260
 3353 0e4a 1E       		.byte	0x1e
 3354 0e4b 11       		.uleb128 0x11
 3355 0e4c 3B560000 		.4byte	.LASF261
 3356 0e50 1F       		.byte	0x1f
 3357 0e51 11       		.uleb128 0x11
 3358 0e52 73160000 		.4byte	.LASF262
 3359 0e56 F0       		.byte	0xf0
 3360 0e57 00       		.byte	0
 3361 0e58 04       		.uleb128 0x4
 3362 0e59 42250000 		.4byte	.LASF263
 3363 0e5d 07       		.byte	0x7
 3364 0e5e F4       		.byte	0xf4
 3365 0e5f 610D0000 		.4byte	0xd61
 3366 0e63 0F       		.uleb128 0xf
 3367 0e64 01       		.byte	0x1
 3368 0e65 53000000 		.4byte	0x53
 3369 0e69 07       		.byte	0x7
 3370 0e6a FD       		.byte	0xfd
 3371 0e6b E8110000 		.4byte	0x11e8
 3372 0e6f 11       		.uleb128 0x11
 3373 0e70 301C0000 		.4byte	.LASF264
 3374 0e74 00       		.byte	0
 3375 0e75 11       		.uleb128 0x11
 3376 0e76 6E520000 		.4byte	.LASF265
 3377 0e7a 01       		.byte	0x1
 3378 0e7b 11       		.uleb128 0x11
 3379 0e7c 754C0000 		.4byte	.LASF266
 3380 0e80 02       		.byte	0x2
 3381 0e81 11       		.uleb128 0x11
 3382 0e82 022B0000 		.4byte	.LASF267
ARM GAS  C:\Users\Smaug\AppData\Local\Temp\ccVZzAJS.s 			page 95


 3383 0e86 03       		.byte	0x3
 3384 0e87 11       		.uleb128 0x11
 3385 0e88 1B0A0000 		.4byte	.LASF268
 3386 0e8c 04       		.byte	0x4
 3387 0e8d 11       		.uleb128 0x11
 3388 0e8e 13050000 		.4byte	.LASF269
 3389 0e92 05       		.byte	0x5
 3390 0e93 11       		.uleb128 0x11
 3391 0e94 133A0000 		.4byte	.LASF270
 3392 0e98 06       		.byte	0x6
 3393 0e99 11       		.uleb128 0x11
 3394 0e9a 9A420000 		.4byte	.LASF271
 3395 0e9e 07       		.byte	0x7
 3396 0e9f 11       		.uleb128 0x11
 3397 0ea0 79130000 		.4byte	.LASF272
 3398 0ea4 08       		.byte	0x8
 3399 0ea5 11       		.uleb128 0x11
 3400 0ea6 CA480000 		.4byte	.LASF273
 3401 0eaa 09       		.byte	0x9
 3402 0eab 11       		.uleb128 0x11
 3403 0eac 554A0000 		.4byte	.LASF274
 3404 0eb0 0A       		.byte	0xa
 3405 0eb1 11       		.uleb128 0x11
 3406 0eb2 3C290000 		.4byte	.LASF275
 3407 0eb6 0B       		.byte	0xb
 3408 0eb7 11       		.uleb128 0x11
 3409 0eb8 0A080000 		.4byte	.LASF276
 3410 0ebc 0C       		.byte	0xc
 3411 0ebd 11       		.uleb128 0x11
 3412 0ebe 2B020000 		.4byte	.LASF277
 3413 0ec2 0D       		.byte	0xd
 3414 0ec3 11       		.uleb128 0x11
 3415 0ec4 7C3A0000 		.4byte	.LASF278
 3416 0ec8 0E       		.byte	0xe
 3417 0ec9 11       		.uleb128 0x11
 3418 0eca 36350000 		.4byte	.LASF279
 3419 0ece 0F       		.byte	0xf
 3420 0ecf 11       		.uleb128 0x11
 3421 0ed0 C34D0000 		.4byte	.LASF280
 3422 0ed4 10       		.byte	0x10
 3423 0ed5 11       		.uleb128 0x11
 3424 0ed6 C9470000 		.4byte	.LASF281
 3425 0eda 11       		.byte	0x11
 3426 0edb 11       		.uleb128 0x11
 3427 0edc 99540000 		.4byte	.LASF282
 3428 0ee0 12       		.byte	0x12
 3429 0ee1 11       		.uleb128 0x11
 3430 0ee2 B1020000 		.4byte	.LASF283
 3431 0ee6 13       		.byte	0x13
 3432 0ee7 11       		.uleb128 0x11
 3433 0ee8 4A380000 		.4byte	.LASF284
 3434 0eec 14       		.byte	0x14
 3435 0eed 11       		.uleb128 0x11
 3436 0eee 1D240000 		.4byte	.LASF285
 3437 0ef2 15       		.byte	0x15
 3438 0ef3 11       		.uleb128 0x11
 3439 0ef4 EB050000 		.4byte	.LASF286
ARM GAS  C:\Users\Smaug\AppData\Local\Temp\ccVZzAJS.s 			page 96


 3440 0ef8 16       		.byte	0x16
 3441 0ef9 11       		.uleb128 0x11
 3442 0efa E41C0000 		.4byte	.LASF287
 3443 0efe 17       		.byte	0x17
 3444 0eff 11       		.uleb128 0x11
 3445 0f00 2B3B0000 		.4byte	.LASF288
 3446 0f04 18       		.byte	0x18
 3447 0f05 11       		.uleb128 0x11
 3448 0f06 0A520000 		.4byte	.LASF289
 3449 0f0a 19       		.byte	0x19
 3450 0f0b 11       		.uleb128 0x11
 3451 0f0c 294C0000 		.4byte	.LASF290
 3452 0f10 1A       		.byte	0x1a
 3453 0f11 11       		.uleb128 0x11
 3454 0f12 C82A0000 		.4byte	.LASF291
 3455 0f16 1B       		.byte	0x1b
 3456 0f17 11       		.uleb128 0x11
 3457 0f18 CF090000 		.4byte	.LASF292
 3458 0f1c 1C       		.byte	0x1c
 3459 0f1d 11       		.uleb128 0x11
 3460 0f1e 971B0000 		.4byte	.LASF293
 3461 0f22 1D       		.byte	0x1d
 3462 0f23 11       		.uleb128 0x11
 3463 0f24 B3390000 		.4byte	.LASF294
 3464 0f28 1E       		.byte	0x1e
 3465 0f29 11       		.uleb128 0x11
 3466 0f2a F0440000 		.4byte	.LASF295
 3467 0f2e 1F       		.byte	0x1f
 3468 0f2f 11       		.uleb128 0x11
 3469 0f30 17130000 		.4byte	.LASF296
 3470 0f34 20       		.byte	0x20
 3471 0f35 11       		.uleb128 0x11
 3472 0f36 9A480000 		.4byte	.LASF297
 3473 0f3a 21       		.byte	0x21
 3474 0f3b 11       		.uleb128 0x11
 3475 0f3c CA330000 		.4byte	.LASF298
 3476 0f40 22       		.byte	0x22
 3477 0f41 11       		.uleb128 0x11
 3478 0f42 05310000 		.4byte	.LASF299
 3479 0f46 23       		.byte	0x23
 3480 0f47 11       		.uleb128 0x11
 3481 0f48 F10E0000 		.4byte	.LASF300
 3482 0f4c 24       		.byte	0x24
 3483 0f4d 11       		.uleb128 0x11
 3484 0f4e 8A450000 		.4byte	.LASF301
 3485 0f52 25       		.byte	0x25
 3486 0f53 11       		.uleb128 0x11
 3487 0f54 D7400000 		.4byte	.LASF302
 3488 0f58 26       		.byte	0x26
 3489 0f59 11       		.uleb128 0x11
 3490 0f5a 861E0000 		.4byte	.LASF303
 3491 0f5e 27       		.byte	0x27
 3492 0f5f 11       		.uleb128 0x11
 3493 0f60 7A1D0000 		.4byte	.LASF304
 3494 0f64 28       		.byte	0x28
 3495 0f65 11       		.uleb128 0x11
 3496 0f66 711A0000 		.4byte	.LASF305
ARM GAS  C:\Users\Smaug\AppData\Local\Temp\ccVZzAJS.s 			page 97


 3497 0f6a 29       		.byte	0x29
 3498 0f6b 11       		.uleb128 0x11
 3499 0f6c A83F0000 		.4byte	.LASF306
 3500 0f70 2A       		.byte	0x2a
 3501 0f71 11       		.uleb128 0x11
 3502 0f72 8C280000 		.4byte	.LASF307
 3503 0f76 2B       		.byte	0x2b
 3504 0f77 11       		.uleb128 0x11
 3505 0f78 254D0000 		.4byte	.LASF308
 3506 0f7c 2C       		.byte	0x2c
 3507 0f7d 11       		.uleb128 0x11
 3508 0f7e 91370000 		.4byte	.LASF309
 3509 0f82 2D       		.byte	0x2d
 3510 0f83 11       		.uleb128 0x11
 3511 0f84 67050000 		.4byte	.LASF310
 3512 0f88 2E       		.byte	0x2e
 3513 0f89 11       		.uleb128 0x11
 3514 0f8a E6450000 		.4byte	.LASF311
 3515 0f8e 2F       		.byte	0x2f
 3516 0f8f 11       		.uleb128 0x11
 3517 0f90 95130000 		.4byte	.LASF312
 3518 0f94 30       		.byte	0x30
 3519 0f95 11       		.uleb128 0x11
 3520 0f96 B7100000 		.4byte	.LASF313
 3521 0f9a 31       		.byte	0x31
 3522 0f9b 11       		.uleb128 0x11
 3523 0f9c BB1B0000 		.4byte	.LASF314
 3524 0fa0 32       		.byte	0x32
 3525 0fa1 11       		.uleb128 0x11
 3526 0fa2 4C510000 		.4byte	.LASF315
 3527 0fa6 33       		.byte	0x33
 3528 0fa7 11       		.uleb128 0x11
 3529 0fa8 5F300000 		.4byte	.LASF316
 3530 0fac 34       		.byte	0x34
 3531 0fad 11       		.uleb128 0x11
 3532 0fae 23380000 		.4byte	.LASF317
 3533 0fb2 35       		.byte	0x35
 3534 0fb3 11       		.uleb128 0x11
 3535 0fb4 00000000 		.4byte	.LASF318
 3536 0fb8 36       		.byte	0x36
 3537 0fb9 11       		.uleb128 0x11
 3538 0fba 69560000 		.4byte	.LASF319
 3539 0fbe 37       		.byte	0x37
 3540 0fbf 11       		.uleb128 0x11
 3541 0fc0 5D390000 		.4byte	.LASF320
 3542 0fc4 38       		.byte	0x38
 3543 0fc5 11       		.uleb128 0x11
 3544 0fc6 A1180000 		.4byte	.LASF321
 3545 0fca 39       		.byte	0x39
 3546 0fcb 11       		.uleb128 0x11
 3547 0fcc 11530000 		.4byte	.LASF322
 3548 0fd0 3A       		.byte	0x3a
 3549 0fd1 11       		.uleb128 0x11
 3550 0fd2 4C2C0000 		.4byte	.LASF323
 3551 0fd6 3B       		.byte	0x3b
 3552 0fd7 11       		.uleb128 0x11
 3553 0fd8 78290000 		.4byte	.LASF324
ARM GAS  C:\Users\Smaug\AppData\Local\Temp\ccVZzAJS.s 			page 98


 3554 0fdc 3C       		.byte	0x3c
 3555 0fdd 11       		.uleb128 0x11
 3556 0fde 2C080000 		.4byte	.LASF325
 3557 0fe2 3D       		.byte	0x3d
 3558 0fe3 11       		.uleb128 0x11
 3559 0fe4 853E0000 		.4byte	.LASF326
 3560 0fe8 3E       		.byte	0x3e
 3561 0fe9 11       		.uleb128 0x11
 3562 0fea E0370000 		.4byte	.LASF327
 3563 0fee 3F       		.byte	0x3f
 3564 0fef 11       		.uleb128 0x11
 3565 0ff0 17170000 		.4byte	.LASF328
 3566 0ff4 40       		.byte	0x40
 3567 0ff5 11       		.uleb128 0x11
 3568 0ff6 EF4B0000 		.4byte	.LASF329
 3569 0ffa 41       		.byte	0x41
 3570 0ffb 11       		.uleb128 0x11
 3571 0ffc 8E530000 		.4byte	.LASF330
 3572 1000 42       		.byte	0x42
 3573 1001 11       		.uleb128 0x11
 3574 1002 42320000 		.4byte	.LASF331
 3575 1006 43       		.byte	0x43
 3576 1007 11       		.uleb128 0x11
 3577 1008 F30F0000 		.4byte	.LASF332
 3578 100c 44       		.byte	0x44
 3579 100d 11       		.uleb128 0x11
 3580 100e FE0A0000 		.4byte	.LASF333
 3581 1012 45       		.byte	0x45
 3582 1013 11       		.uleb128 0x11
 3583 1014 76410000 		.4byte	.LASF334
 3584 1018 46       		.byte	0x46
 3585 1019 11       		.uleb128 0x11
 3586 101a 7D1F0000 		.4byte	.LASF335
 3587 101e 47       		.byte	0x47
 3588 101f 11       		.uleb128 0x11
 3589 1020 301A0000 		.4byte	.LASF336
 3590 1024 48       		.byte	0x48
 3591 1025 11       		.uleb128 0x11
 3592 1026 164F0000 		.4byte	.LASF337
 3593 102a 49       		.byte	0x49
 3594 102b 11       		.uleb128 0x11
 3595 102c 052E0000 		.4byte	.LASF338
 3596 1030 4A       		.byte	0x4a
 3597 1031 11       		.uleb128 0x11
 3598 1032 BF280000 		.4byte	.LASF339
 3599 1036 4B       		.byte	0x4b
 3600 1037 11       		.uleb128 0x11
 3601 1038 3F3D0000 		.4byte	.LASF340
 3602 103c 4C       		.byte	0x4c
 3603 103d 11       		.uleb128 0x11
 3604 103e 571B0000 		.4byte	.LASF341
 3605 1042 4D       		.byte	0x4d
 3606 1043 11       		.uleb128 0x11
 3607 1044 D43F0000 		.4byte	.LASF342
 3608 1048 4E       		.byte	0x4e
 3609 1049 11       		.uleb128 0x11
 3610 104a D94A0000 		.4byte	.LASF343
ARM GAS  C:\Users\Smaug\AppData\Local\Temp\ccVZzAJS.s 			page 99


 3611 104e 4F       		.byte	0x4f
 3612 104f 11       		.uleb128 0x11
 3613 1050 FE290000 		.4byte	.LASF344
 3614 1054 50       		.byte	0x50
 3615 1055 11       		.uleb128 0x11
 3616 1056 FB080000 		.4byte	.LASF345
 3617 105a 51       		.byte	0x51
 3618 105b 11       		.uleb128 0x11
 3619 105c B1410000 		.4byte	.LASF346
 3620 1060 52       		.byte	0x52
 3621 1061 11       		.uleb128 0x11
 3622 1062 B21F0000 		.4byte	.LASF347
 3623 1066 53       		.byte	0x53
 3624 1067 11       		.uleb128 0x11
 3625 1068 7E420000 		.4byte	.LASF348
 3626 106c 54       		.byte	0x54
 3627 106d 11       		.uleb128 0x11
 3628 106e 96060000 		.4byte	.LASF349
 3629 1072 55       		.byte	0x55
 3630 1073 11       		.uleb128 0x11
 3631 1074 56410000 		.4byte	.LASF350
 3632 1078 56       		.byte	0x56
 3633 1079 11       		.uleb128 0x11
 3634 107a 7D250000 		.4byte	.LASF351
 3635 107e 57       		.byte	0x57
 3636 107f 11       		.uleb128 0x11
 3637 1080 F8130000 		.4byte	.LASF352
 3638 1084 58       		.byte	0x58
 3639 1085 11       		.uleb128 0x11
 3640 1086 32490000 		.4byte	.LASF353
 3641 108a 59       		.byte	0x59
 3642 108b 11       		.uleb128 0x11
 3643 108c 1D440000 		.4byte	.LASF354
 3644 1090 5A       		.byte	0x5a
 3645 1091 11       		.uleb128 0x11
 3646 1092 AE030000 		.4byte	.LASF355
 3647 1096 5B       		.byte	0x5b
 3648 1097 11       		.uleb128 0x11
 3649 1098 F3210000 		.4byte	.LASF356
 3650 109c 5C       		.byte	0x5c
 3651 109d 11       		.uleb128 0x11
 3652 109e 26520000 		.4byte	.LASF357
 3653 10a2 5D       		.byte	0x5d
 3654 10a3 11       		.uleb128 0x11
 3655 10a4 454C0000 		.4byte	.LASF358
 3656 10a8 5E       		.byte	0x5e
 3657 10a9 11       		.uleb128 0x11
 3658 10aa 46240000 		.4byte	.LASF359
 3659 10ae 5F       		.byte	0x5f
 3660 10af 11       		.uleb128 0x11
 3661 10b0 EB090000 		.4byte	.LASF360
 3662 10b4 60       		.byte	0x60
 3663 10b5 11       		.uleb128 0x11
 3664 10b6 F9040000 		.4byte	.LASF361
 3665 10ba 61       		.byte	0x61
 3666 10bb 11       		.uleb128 0x11
 3667 10bc 68070000 		.4byte	.LASF362
ARM GAS  C:\Users\Smaug\AppData\Local\Temp\ccVZzAJS.s 			page 100


 3668 10c0 62       		.byte	0x62
 3669 10c1 11       		.uleb128 0x11
 3670 10c2 99390000 		.4byte	.LASF363
 3671 10c6 63       		.byte	0x63
 3672 10c7 11       		.uleb128 0x11
 3673 10c8 14190000 		.4byte	.LASF364
 3674 10cc 64       		.byte	0x64
 3675 10cd 11       		.uleb128 0x11
 3676 10ce FD370000 		.4byte	.LASF365
 3677 10d2 65       		.byte	0x65
 3678 10d3 11       		.uleb128 0x11
 3679 10d4 A82C0000 		.4byte	.LASF366
 3680 10d8 66       		.byte	0x66
 3681 10d9 11       		.uleb128 0x11
 3682 10da 04270000 		.4byte	.LASF367
 3683 10de 67       		.byte	0x67
 3684 10df 11       		.uleb128 0x11
 3685 10e0 68060000 		.4byte	.LASF368
 3686 10e4 68       		.byte	0x68
 3687 10e5 11       		.uleb128 0x11
 3688 10e6 F93B0000 		.4byte	.LASF369
 3689 10ea 69       		.byte	0x69
 3690 10eb 11       		.uleb128 0x11
 3691 10ec 2B360000 		.4byte	.LASF370
 3692 10f0 6A       		.byte	0x6a
 3693 10f1 11       		.uleb128 0x11
 3694 10f2 4D440000 		.4byte	.LASF371
 3695 10f6 6B       		.byte	0x6b
 3696 10f7 11       		.uleb128 0x11
 3697 10f8 F91A0000 		.4byte	.LASF372
 3698 10fc 6C       		.byte	0x6c
 3699 10fd 11       		.uleb128 0x11
 3700 10fe BA4F0000 		.4byte	.LASF373
 3701 1102 6D       		.byte	0x6d
 3702 1103 11       		.uleb128 0x11
 3703 1104 352F0000 		.4byte	.LASF374
 3704 1108 6E       		.byte	0x6e
 3705 1109 11       		.uleb128 0x11
 3706 110a 290D0000 		.4byte	.LASF375
 3707 110e 6F       		.byte	0x6f
 3708 110f 11       		.uleb128 0x11
 3709 1110 B6080000 		.4byte	.LASF376
 3710 1114 70       		.byte	0x70
 3711 1115 11       		.uleb128 0x11
 3712 1116 4C1C0000 		.4byte	.LASF377
 3713 111a 71       		.byte	0x71
 3714 111b 11       		.uleb128 0x11
 3715 111c 671C0000 		.4byte	.LASF378
 3716 1120 72       		.byte	0x72
 3717 1121 11       		.uleb128 0x11
 3718 1122 832E0000 		.4byte	.LASF379
 3719 1126 73       		.byte	0x73
 3720 1127 11       		.uleb128 0x11
 3721 1128 A24C0000 		.4byte	.LASF380
 3722 112c 74       		.byte	0x74
 3723 112d 11       		.uleb128 0x11
 3724 112e 482B0000 		.4byte	.LASF381
ARM GAS  C:\Users\Smaug\AppData\Local\Temp\ccVZzAJS.s 			page 101


 3725 1132 75       		.byte	0x75
 3726 1133 11       		.uleb128 0x11
 3727 1134 401F0000 		.4byte	.LASF382
 3728 1138 76       		.byte	0x76
 3729 1139 11       		.uleb128 0x11
 3730 113a F91E0000 		.4byte	.LASF383
 3731 113e 77       		.byte	0x77
 3732 113f 11       		.uleb128 0x11
 3733 1140 85330000 		.4byte	.LASF384
 3734 1144 78       		.byte	0x78
 3735 1145 11       		.uleb128 0x11
 3736 1146 DB2D0000 		.4byte	.LASF385
 3737 114a 79       		.byte	0x79
 3738 114b 11       		.uleb128 0x11
 3739 114c 070D0000 		.4byte	.LASF386
 3740 1150 7A       		.byte	0x7a
 3741 1151 11       		.uleb128 0x11
 3742 1152 37440000 		.4byte	.LASF387
 3743 1156 7B       		.byte	0x7b
 3744 1157 11       		.uleb128 0x11
 3745 1158 39210000 		.4byte	.LASF388
 3746 115c 7C       		.byte	0x7c
 3747 115d 11       		.uleb128 0x11
 3748 115e 3B000000 		.4byte	.LASF389
 3749 1162 7D       		.byte	0x7d
 3750 1163 11       		.uleb128 0x11
 3751 1164 DD4F0000 		.4byte	.LASF390
 3752 1168 7E       		.byte	0x7e
 3753 1169 11       		.uleb128 0x11
 3754 116a C7300000 		.4byte	.LASF391
 3755 116e 7F       		.byte	0x7f
 3756 116f 11       		.uleb128 0x11
 3757 1170 980E0000 		.4byte	.LASF392
 3758 1174 80       		.byte	0x80
 3759 1175 11       		.uleb128 0x11
 3760 1176 050A0000 		.4byte	.LASF393
 3761 117a 81       		.byte	0x81
 3762 117b 11       		.uleb128 0x11
 3763 117c 6B400000 		.4byte	.LASF394
 3764 1180 82       		.byte	0x82
 3765 1181 11       		.uleb128 0x11
 3766 1182 2D1E0000 		.4byte	.LASF395
 3767 1186 83       		.byte	0x83
 3768 1187 11       		.uleb128 0x11
 3769 1188 AC4D0000 		.4byte	.LASF396
 3770 118c 84       		.byte	0x84
 3771 118d 11       		.uleb128 0x11
 3772 118e 682C0000 		.4byte	.LASF397
 3773 1192 85       		.byte	0x85
 3774 1193 11       		.uleb128 0x11
 3775 1194 C5260000 		.4byte	.LASF398
 3776 1198 86       		.byte	0x86
 3777 1199 11       		.uleb128 0x11
 3778 119a 7B200000 		.4byte	.LASF399
 3779 119e 87       		.byte	0x87
 3780 119f 11       		.uleb128 0x11
 3781 11a0 C93B0000 		.4byte	.LASF400
ARM GAS  C:\Users\Smaug\AppData\Local\Temp\ccVZzAJS.s 			page 102


 3782 11a4 88       		.byte	0x88
 3783 11a5 11       		.uleb128 0x11
 3784 11a6 E7350000 		.4byte	.LASF401
 3785 11aa 89       		.byte	0x89
 3786 11ab 11       		.uleb128 0x11
 3787 11ac 93340000 		.4byte	.LASF402
 3788 11b0 8A       		.byte	0x8a
 3789 11b1 11       		.uleb128 0x11
 3790 11b2 EF430000 		.4byte	.LASF403
 3791 11b6 8B       		.byte	0x8b
 3792 11b7 11       		.uleb128 0x11
 3793 11b8 4A3A0000 		.4byte	.LASF404
 3794 11bc 8C       		.byte	0x8c
 3795 11bd 11       		.uleb128 0x11
 3796 11be EA3D0000 		.4byte	.LASF405
 3797 11c2 8D       		.byte	0x8d
 3798 11c3 11       		.uleb128 0x11
 3799 11c4 A2080000 		.4byte	.LASF406
 3800 11c8 8E       		.byte	0x8e
 3801 11c9 11       		.uleb128 0x11
 3802 11ca 4C4F0000 		.4byte	.LASF407
 3803 11ce 8F       		.byte	0x8f
 3804 11cf 11       		.uleb128 0x11
 3805 11d0 1B510000 		.4byte	.LASF408
 3806 11d4 90       		.byte	0x90
 3807 11d5 11       		.uleb128 0x11
 3808 11d6 34150000 		.4byte	.LASF409
 3809 11da 91       		.byte	0x91
 3810 11db 11       		.uleb128 0x11
 3811 11dc 5B1F0000 		.4byte	.LASF410
 3812 11e0 92       		.byte	0x92
 3813 11e1 11       		.uleb128 0x11
 3814 11e2 90080000 		.4byte	.LASF411
 3815 11e6 F0       		.byte	0xf0
 3816 11e7 00       		.byte	0
 3817 11e8 12       		.uleb128 0x12
 3818 11e9 F04C0000 		.4byte	.LASF412
 3819 11ed 07       		.byte	0x7
 3820 11ee 9201     		.2byte	0x192
 3821 11f0 630E0000 		.4byte	0xe63
 3822 11f4 08       		.uleb128 0x8
 3823 11f5 AE000000 		.4byte	0xae
 3824 11f9 04120000 		.4byte	0x1204
 3825 11fd 09       		.uleb128 0x9
 3826 11fe 9E000000 		.4byte	0x9e
 3827 1202 07       		.byte	0x7
 3828 1203 00       		.byte	0
 3829 1204 12       		.uleb128 0x12
 3830 1205 954B0000 		.4byte	.LASF413
 3831 1209 08       		.byte	0x8
 3832 120a 1106     		.2byte	0x611
 3833 120c 3A090000 		.4byte	0x93a
 3834 1210 12       		.uleb128 0x12
 3835 1211 483C0000 		.4byte	.LASF414
 3836 1215 09       		.byte	0x9
 3837 1216 F601     		.2byte	0x1f6
 3838 1218 A7000000 		.4byte	0xa7
ARM GAS  C:\Users\Smaug\AppData\Local\Temp\ccVZzAJS.s 			page 103


 3839 121c 03       		.uleb128 0x3
 3840 121d 04       		.byte	0x4
 3841 121e 04       		.byte	0x4
 3842 121f 762F0000 		.4byte	.LASF415
 3843 1223 03       		.uleb128 0x3
 3844 1224 08       		.byte	0x8
 3845 1225 04       		.byte	0x4
 3846 1226 CD2C0000 		.4byte	.LASF416
 3847 122a 13       		.uleb128 0x13
 3848 122b 08       		.byte	0x8
 3849 122c 0A       		.byte	0xa
 3850 122d 2D01     		.2byte	0x12d
 3851 122f 5B120000 		.4byte	0x125b
 3852 1233 14       		.uleb128 0x14
 3853 1234 1A0B0000 		.4byte	.LASF417
 3854 1238 0A       		.byte	0xa
 3855 1239 2E01     		.2byte	0x12e
 3856 123b 580E0000 		.4byte	0xe58
 3857 123f 00       		.byte	0
 3858 1240 14       		.uleb128 0x14
 3859 1241 324F0000 		.4byte	.LASF418
 3860 1245 0A       		.byte	0xa
 3861 1246 3001     		.2byte	0x130
 3862 1248 E8110000 		.4byte	0x11e8
 3863 124c 02       		.byte	0x2
 3864 124d 14       		.uleb128 0x14
 3865 124e BC3A0000 		.4byte	.LASF419
 3866 1252 0A       		.byte	0xa
 3867 1253 3201     		.2byte	0x132
 3868 1255 CF000000 		.4byte	0xcf
 3869 1259 04       		.byte	0x4
 3870 125a 00       		.byte	0
 3871 125b 12       		.uleb128 0x12
 3872 125c C71E0000 		.4byte	.LASF420
 3873 1260 0A       		.byte	0xa
 3874 1261 3301     		.2byte	0x133
 3875 1263 2A120000 		.4byte	0x122a
 3876 1267 15       		.uleb128 0x15
 3877 1268 02       		.byte	0x2
 3878 1269 77000000 		.4byte	0x77
 3879 126d 0B       		.byte	0xb
 3880 126e 5401     		.2byte	0x154
 3881 1270 A7150000 		.4byte	0x15a7
 3882 1274 11       		.uleb128 0x11
 3883 1275 D4350000 		.4byte	.LASF421
 3884 1279 00       		.byte	0
 3885 127a 16       		.uleb128 0x16
 3886 127b 69250000 		.4byte	.LASF422
 3887 127f 0010     		.2byte	0x1000
 3888 1281 16       		.uleb128 0x16
 3889 1282 E0220000 		.4byte	.LASF423
 3890 1286 0110     		.2byte	0x1001
 3891 1288 16       		.uleb128 0x16
 3892 1289 090C0000 		.4byte	.LASF424
 3893 128d 0210     		.2byte	0x1002
 3894 128f 16       		.uleb128 0x16
 3895 1290 16120000 		.4byte	.LASF425
ARM GAS  C:\Users\Smaug\AppData\Local\Temp\ccVZzAJS.s 			page 104


 3896 1294 0310     		.2byte	0x1003
 3897 1296 16       		.uleb128 0x16
 3898 1297 1C000000 		.4byte	.LASF426
 3899 129b 0410     		.2byte	0x1004
 3900 129d 16       		.uleb128 0x16
 3901 129e F8520000 		.4byte	.LASF427
 3902 12a2 0510     		.2byte	0x1005
 3903 12a4 16       		.uleb128 0x16
 3904 12a5 4D050000 		.4byte	.LASF428
 3905 12a9 0020     		.2byte	0x2000
 3906 12ab 16       		.uleb128 0x16
 3907 12ac 98050000 		.4byte	.LASF429
 3908 12b0 0120     		.2byte	0x2001
 3909 12b2 16       		.uleb128 0x16
 3910 12b3 47460000 		.4byte	.LASF430
 3911 12b7 0220     		.2byte	0x2002
 3912 12b9 16       		.uleb128 0x16
 3913 12ba BB460000 		.4byte	.LASF431
 3914 12be 0320     		.2byte	0x2003
 3915 12c0 16       		.uleb128 0x16
 3916 12c1 BF040000 		.4byte	.LASF432
 3917 12c5 0420     		.2byte	0x2004
 3918 12c7 16       		.uleb128 0x16
 3919 12c8 5C3D0000 		.4byte	.LASF433
 3920 12cc 0520     		.2byte	0x2005
 3921 12ce 16       		.uleb128 0x16
 3922 12cf CD380000 		.4byte	.LASF434
 3923 12d3 0620     		.2byte	0x2006
 3924 12d5 16       		.uleb128 0x16
 3925 12d6 F6550000 		.4byte	.LASF435
 3926 12da 0720     		.2byte	0x2007
 3927 12dc 16       		.uleb128 0x16
 3928 12dd 03200000 		.4byte	.LASF436
 3929 12e1 0820     		.2byte	0x2008
 3930 12e3 16       		.uleb128 0x16
 3931 12e4 494D0000 		.4byte	.LASF437
 3932 12e8 0920     		.2byte	0x2009
 3933 12ea 16       		.uleb128 0x16
 3934 12eb FF3E0000 		.4byte	.LASF438
 3935 12ef 0A20     		.2byte	0x200a
 3936 12f1 16       		.uleb128 0x16
 3937 12f2 A44A0000 		.4byte	.LASF439
 3938 12f6 0B20     		.2byte	0x200b
 3939 12f8 16       		.uleb128 0x16
 3940 12f9 8B240000 		.4byte	.LASF440
 3941 12fd 0C20     		.2byte	0x200c
 3942 12ff 16       		.uleb128 0x16
 3943 1300 993A0000 		.4byte	.LASF441
 3944 1304 0D20     		.2byte	0x200d
 3945 1306 16       		.uleb128 0x16
 3946 1307 7A0F0000 		.4byte	.LASF442
 3947 130b 0E20     		.2byte	0x200e
 3948 130d 16       		.uleb128 0x16
 3949 130e CB550000 		.4byte	.LASF443
 3950 1312 0F20     		.2byte	0x200f
 3951 1314 16       		.uleb128 0x16
 3952 1315 70100000 		.4byte	.LASF444
ARM GAS  C:\Users\Smaug\AppData\Local\Temp\ccVZzAJS.s 			page 105


 3953 1319 1020     		.2byte	0x2010
 3954 131b 16       		.uleb128 0x16
 3955 131c 15320000 		.4byte	.LASF445
 3956 1320 1120     		.2byte	0x2011
 3957 1322 16       		.uleb128 0x16
 3958 1323 99550000 		.4byte	.LASF446
 3959 1327 1220     		.2byte	0x2012
 3960 1329 16       		.uleb128 0x16
 3961 132a BD180000 		.4byte	.LASF447
 3962 132e 1320     		.2byte	0x2013
 3963 1330 16       		.uleb128 0x16
 3964 1331 A31E0000 		.4byte	.LASF448
 3965 1335 1420     		.2byte	0x2014
 3966 1337 16       		.uleb128 0x16
 3967 1338 50220000 		.4byte	.LASF449
 3968 133c 1520     		.2byte	0x2015
 3969 133e 16       		.uleb128 0x16
 3970 133f 45200000 		.4byte	.LASF450
 3971 1343 1620     		.2byte	0x2016
 3972 1345 16       		.uleb128 0x16
 3973 1346 B70E0000 		.4byte	.LASF451
 3974 134a 1720     		.2byte	0x2017
 3975 134c 16       		.uleb128 0x16
 3976 134d D1080000 		.4byte	.LASF452
 3977 1351 0030     		.2byte	0x3000
 3978 1353 16       		.uleb128 0x16
 3979 1354 E2020000 		.4byte	.LASF453
 3980 1358 0130     		.2byte	0x3001
 3981 135a 16       		.uleb128 0x16
 3982 135b 77010000 		.4byte	.LASF454
 3983 135f 0230     		.2byte	0x3002
 3984 1361 16       		.uleb128 0x16
 3985 1362 44270000 		.4byte	.LASF455
 3986 1366 0330     		.2byte	0x3003
 3987 1368 16       		.uleb128 0x16
 3988 1369 16220000 		.4byte	.LASF456
 3989 136d 0430     		.2byte	0x3004
 3990 136f 16       		.uleb128 0x16
 3991 1370 6D470000 		.4byte	.LASF457
 3992 1374 0530     		.2byte	0x3005
 3993 1376 16       		.uleb128 0x16
 3994 1377 F3540000 		.4byte	.LASF458
 3995 137b 0630     		.2byte	0x3006
 3996 137d 16       		.uleb128 0x16
 3997 137e 18040000 		.4byte	.LASF459
 3998 1382 0730     		.2byte	0x3007
 3999 1384 16       		.uleb128 0x16
 4000 1385 09010000 		.4byte	.LASF460
 4001 1389 0830     		.2byte	0x3008
 4002 138b 16       		.uleb128 0x16
 4003 138c 19290000 		.4byte	.LASF461
 4004 1390 0930     		.2byte	0x3009
 4005 1392 16       		.uleb128 0x16
 4006 1393 2D4E0000 		.4byte	.LASF462
 4007 1397 0A30     		.2byte	0x300a
 4008 1399 16       		.uleb128 0x16
 4009 139a CC250000 		.4byte	.LASF463
ARM GAS  C:\Users\Smaug\AppData\Local\Temp\ccVZzAJS.s 			page 106


 4010 139e 0B30     		.2byte	0x300b
 4011 13a0 16       		.uleb128 0x16
 4012 13a1 F0180000 		.4byte	.LASF464
 4013 13a5 0C30     		.2byte	0x300c
 4014 13a7 16       		.uleb128 0x16
 4015 13a8 EB110000 		.4byte	.LASF465
 4016 13ac 1130     		.2byte	0x3011
 4017 13ae 16       		.uleb128 0x16
 4018 13af 33470000 		.4byte	.LASF466
 4019 13b3 1230     		.2byte	0x3012
 4020 13b5 16       		.uleb128 0x16
 4021 13b6 ED510000 		.4byte	.LASF467
 4022 13ba 1330     		.2byte	0x3013
 4023 13bc 16       		.uleb128 0x16
 4024 13bd 074A0000 		.4byte	.LASF468
 4025 13c1 1430     		.2byte	0x3014
 4026 13c3 16       		.uleb128 0x16
 4027 13c4 5E350000 		.4byte	.LASF469
 4028 13c8 1530     		.2byte	0x3015
 4029 13ca 16       		.uleb128 0x16
 4030 13cb 810C0000 		.4byte	.LASF470
 4031 13cf 1630     		.2byte	0x3016
 4032 13d1 16       		.uleb128 0x16
 4033 13d2 0A370000 		.4byte	.LASF471
 4034 13d6 1730     		.2byte	0x3017
 4035 13d8 16       		.uleb128 0x16
 4036 13d9 071E0000 		.4byte	.LASF472
 4037 13dd 1830     		.2byte	0x3018
 4038 13df 16       		.uleb128 0x16
 4039 13e0 91110000 		.4byte	.LASF473
 4040 13e4 1930     		.2byte	0x3019
 4041 13e6 16       		.uleb128 0x16
 4042 13e7 011A0000 		.4byte	.LASF474
 4043 13eb 0040     		.2byte	0x4000
 4044 13ed 16       		.uleb128 0x16
 4045 13ee 28100000 		.4byte	.LASF475
 4046 13f2 0140     		.2byte	0x4001
 4047 13f4 16       		.uleb128 0x16
 4048 13f5 9D150000 		.4byte	.LASF476
 4049 13f9 0240     		.2byte	0x4002
 4050 13fb 16       		.uleb128 0x16
 4051 13fc 863C0000 		.4byte	.LASF477
 4052 1400 0340     		.2byte	0x4003
 4053 1402 16       		.uleb128 0x16
 4054 1403 564B0000 		.4byte	.LASF478
 4055 1407 0440     		.2byte	0x4004
 4056 1409 16       		.uleb128 0x16
 4057 140a 8A520000 		.4byte	.LASF479
 4058 140e 0540     		.2byte	0x4005
 4059 1410 16       		.uleb128 0x16
 4060 1411 52450000 		.4byte	.LASF480
 4061 1415 0640     		.2byte	0x4006
 4062 1417 16       		.uleb128 0x16
 4063 1418 E7490000 		.4byte	.LASF481
 4064 141c 0740     		.2byte	0x4007
 4065 141e 16       		.uleb128 0x16
 4066 141f 93510000 		.4byte	.LASF482
ARM GAS  C:\Users\Smaug\AppData\Local\Temp\ccVZzAJS.s 			page 107


 4067 1423 0840     		.2byte	0x4008
 4068 1425 16       		.uleb128 0x16
 4069 1426 3B0F0000 		.4byte	.LASF483
 4070 142a 0940     		.2byte	0x4009
 4071 142c 16       		.uleb128 0x16
 4072 142d 133C0000 		.4byte	.LASF484
 4073 1431 0A40     		.2byte	0x400a
 4074 1433 16       		.uleb128 0x16
 4075 1434 D1230000 		.4byte	.LASF485
 4076 1438 0B40     		.2byte	0x400b
 4077 143a 16       		.uleb128 0x16
 4078 143b 553B0000 		.4byte	.LASF486
 4079 143f 0C40     		.2byte	0x400c
 4080 1441 16       		.uleb128 0x16
 4081 1442 B8500000 		.4byte	.LASF487
 4082 1446 0D40     		.2byte	0x400d
 4083 1448 16       		.uleb128 0x16
 4084 1449 BA320000 		.4byte	.LASF488
 4085 144d 0E40     		.2byte	0x400e
 4086 144f 16       		.uleb128 0x16
 4087 1450 AF1D0000 		.4byte	.LASF489
 4088 1454 0F40     		.2byte	0x400f
 4089 1456 16       		.uleb128 0x16
 4090 1457 4C1A0000 		.4byte	.LASF490
 4091 145b 1040     		.2byte	0x4010
 4092 145d 16       		.uleb128 0x16
 4093 145e 67110000 		.4byte	.LASF491
 4094 1462 1140     		.2byte	0x4011
 4095 1464 16       		.uleb128 0x16
 4096 1465 38420000 		.4byte	.LASF492
 4097 1469 1240     		.2byte	0x4012
 4098 146b 16       		.uleb128 0x16
 4099 146c E2140000 		.4byte	.LASF493
 4100 1470 1340     		.2byte	0x4013
 4101 1472 16       		.uleb128 0x16
 4102 1473 A1560000 		.4byte	.LASF494
 4103 1477 1440     		.2byte	0x4014
 4104 1479 16       		.uleb128 0x16
 4105 147a 5E3E0000 		.4byte	.LASF495
 4106 147e 1540     		.2byte	0x4015
 4107 1480 16       		.uleb128 0x16
 4108 1481 9F090000 		.4byte	.LASF496
 4109 1485 1640     		.2byte	0x4016
 4110 1487 16       		.uleb128 0x16
 4111 1488 68510000 		.4byte	.LASF497
 4112 148c 1740     		.2byte	0x4017
 4113 148e 16       		.uleb128 0x16
 4114 148f 972F0000 		.4byte	.LASF498
 4115 1493 1840     		.2byte	0x4018
 4116 1495 16       		.uleb128 0x16
 4117 1496 40520000 		.4byte	.LASF499
 4118 149a 1940     		.2byte	0x4019
 4119 149c 16       		.uleb128 0x16
 4120 149d F13F0000 		.4byte	.LASF500
 4121 14a1 1A40     		.2byte	0x401a
 4122 14a3 16       		.uleb128 0x16
 4123 14a4 362A0000 		.4byte	.LASF501
ARM GAS  C:\Users\Smaug\AppData\Local\Temp\ccVZzAJS.s 			page 108


 4124 14a8 0050     		.2byte	0x5000
 4125 14aa 16       		.uleb128 0x16
 4126 14ab E6330000 		.4byte	.LASF502
 4127 14af 0150     		.2byte	0x5001
 4128 14b1 16       		.uleb128 0x16
 4129 14b2 45260000 		.4byte	.LASF503
 4130 14b6 0250     		.2byte	0x5002
 4131 14b8 16       		.uleb128 0x16
 4132 14b9 4D0C0000 		.4byte	.LASF504
 4133 14bd 0350     		.2byte	0x5003
 4134 14bf 16       		.uleb128 0x16
 4135 14c0 212D0000 		.4byte	.LASF505
 4136 14c4 0450     		.2byte	0x5004
 4137 14c6 16       		.uleb128 0x16
 4138 14c7 33230000 		.4byte	.LASF506
 4139 14cb 0550     		.2byte	0x5005
 4140 14cd 16       		.uleb128 0x16
 4141 14ce 6D230000 		.4byte	.LASF507
 4142 14d2 0650     		.2byte	0x5006
 4143 14d4 16       		.uleb128 0x16
 4144 14d5 61150000 		.4byte	.LASF508
 4145 14d9 0750     		.2byte	0x5007
 4146 14db 16       		.uleb128 0x16
 4147 14dc DC260000 		.4byte	.LASF509
 4148 14e0 0850     		.2byte	0x5008
 4149 14e2 16       		.uleb128 0x16
 4150 14e3 9E270000 		.4byte	.LASF510
 4151 14e7 0950     		.2byte	0x5009
 4152 14e9 16       		.uleb128 0x16
 4153 14ea D0430000 		.4byte	.LASF511
 4154 14ee 0A50     		.2byte	0x500a
 4155 14f0 16       		.uleb128 0x16
 4156 14f1 632B0000 		.4byte	.LASF512
 4157 14f5 0B50     		.2byte	0x500b
 4158 14f7 16       		.uleb128 0x16
 4159 14f8 440D0000 		.4byte	.LASF513
 4160 14fc 0C50     		.2byte	0x500c
 4161 14fe 16       		.uleb128 0x16
 4162 14ff 151C0000 		.4byte	.LASF514
 4163 1503 0D50     		.2byte	0x500d
 4164 1505 16       		.uleb128 0x16
 4165 1506 0C360000 		.4byte	.LASF515
 4166 150a 0E50     		.2byte	0x500e
 4167 150c 16       		.uleb128 0x16
 4168 150d 6A030000 		.4byte	.LASF516
 4169 1511 0F50     		.2byte	0x500f
 4170 1513 16       		.uleb128 0x16
 4171 1514 F1380000 		.4byte	.LASF517
 4172 1518 1050     		.2byte	0x5010
 4173 151a 16       		.uleb128 0x16
 4174 151b 44090000 		.4byte	.LASF518
 4175 151f 1150     		.2byte	0x5011
 4176 1521 16       		.uleb128 0x16
 4177 1522 84160000 		.4byte	.LASF519
 4178 1526 1250     		.2byte	0x5012
 4179 1528 16       		.uleb128 0x16
 4180 1529 9C0B0000 		.4byte	.LASF520
ARM GAS  C:\Users\Smaug\AppData\Local\Temp\ccVZzAJS.s 			page 109


 4181 152d 1350     		.2byte	0x5013
 4182 152f 16       		.uleb128 0x16
 4183 1530 57130000 		.4byte	.LASF521
 4184 1534 1450     		.2byte	0x5014
 4185 1536 16       		.uleb128 0x16
 4186 1537 BC490000 		.4byte	.LASF522
 4187 153b 1550     		.2byte	0x5015
 4188 153d 16       		.uleb128 0x16
 4189 153e F4170000 		.4byte	.LASF523
 4190 1542 1650     		.2byte	0x5016
 4191 1544 16       		.uleb128 0x16
 4192 1545 1D460000 		.4byte	.LASF524
 4193 1549 1750     		.2byte	0x5017
 4194 154b 16       		.uleb128 0x16
 4195 154c 370A0000 		.4byte	.LASF525
 4196 1550 1850     		.2byte	0x5018
 4197 1552 16       		.uleb128 0x16
 4198 1553 861A0000 		.4byte	.LASF526
 4199 1557 0060     		.2byte	0x6000
 4200 1559 16       		.uleb128 0x16
 4201 155a 82070000 		.4byte	.LASF527
 4202 155e 0160     		.2byte	0x6001
 4203 1560 16       		.uleb128 0x16
 4204 1561 9D250000 		.4byte	.LASF528
 4205 1565 0260     		.2byte	0x6002
 4206 1567 16       		.uleb128 0x16
 4207 1568 95210000 		.4byte	.LASF529
 4208 156c 0360     		.2byte	0x6003
 4209 156e 16       		.uleb128 0x16
 4210 156f 8E0A0000 		.4byte	.LASF530
 4211 1573 0460     		.2byte	0x6004
 4212 1575 16       		.uleb128 0x16
 4213 1576 4F3C0000 		.4byte	.LASF531
 4214 157a 0560     		.2byte	0x6005
 4215 157c 16       		.uleb128 0x16
 4216 157d 902B0000 		.4byte	.LASF532
 4217 1581 0660     		.2byte	0x6006
 4218 1583 16       		.uleb128 0x16
 4219 1584 31180000 		.4byte	.LASF533
 4220 1588 0760     		.2byte	0x6007
 4221 158a 16       		.uleb128 0x16
 4222 158b 33130000 		.4byte	.LASF534
 4223 158f 0860     		.2byte	0x6008
 4224 1591 16       		.uleb128 0x16
 4225 1592 A4010000 		.4byte	.LASF535
 4226 1596 0960     		.2byte	0x6009
 4227 1598 16       		.uleb128 0x16
 4228 1599 B2400000 		.4byte	.LASF536
 4229 159d 0A60     		.2byte	0x600a
 4230 159f 16       		.uleb128 0x16
 4231 15a0 BC440000 		.4byte	.LASF537
 4232 15a4 FFFF     		.2byte	0xffff
 4233 15a6 00       		.byte	0
 4234 15a7 12       		.uleb128 0x12
 4235 15a8 DA530000 		.4byte	.LASF538
 4236 15ac 0B       		.byte	0xb
 4237 15ad D604     		.2byte	0x4d6
ARM GAS  C:\Users\Smaug\AppData\Local\Temp\ccVZzAJS.s 			page 110


 4238 15af 67120000 		.4byte	0x1267
 4239 15b3 15       		.uleb128 0x15
 4240 15b4 04       		.byte	0x4
 4241 15b5 2C000000 		.4byte	0x2c
 4242 15b9 0B       		.byte	0xb
 4243 15ba E004     		.2byte	0x4e0
 4244 15bc CC160000 		.4byte	0x16cc
 4245 15c0 11       		.uleb128 0x11
 4246 15c1 B6510000 		.4byte	.LASF539
 4247 15c5 00       		.byte	0
 4248 15c6 17       		.uleb128 0x17
 4249 15c7 D6030000 		.4byte	.LASF540
 4250 15cb 01001400 		.4byte	0x140001
 4251 15cf 17       		.uleb128 0x17
 4252 15d0 8E460000 		.4byte	.LASF541
 4253 15d4 01001600 		.4byte	0x160001
 4254 15d8 17       		.uleb128 0x17
 4255 15d9 6C240000 		.4byte	.LASF542
 4256 15dd 02001600 		.4byte	0x160002
 4257 15e1 17       		.uleb128 0x17
 4258 15e2 43550000 		.4byte	.LASF543
 4259 15e6 03001600 		.4byte	0x160003
 4260 15ea 17       		.uleb128 0x17
 4261 15eb FC2F0000 		.4byte	.LASF544
 4262 15ef 04001600 		.4byte	0x160004
 4263 15f3 17       		.uleb128 0x17
 4264 15f4 4A560000 		.4byte	.LASF545
 4265 15f8 05001600 		.4byte	0x160005
 4266 15fc 17       		.uleb128 0x17
 4267 15fd 842D0000 		.4byte	.LASF546
 4268 1601 06001600 		.4byte	0x160006
 4269 1605 17       		.uleb128 0x17
 4270 1606 70460000 		.4byte	.LASF547
 4271 160a 07001600 		.4byte	0x160007
 4272 160e 17       		.uleb128 0x17
 4273 160f C3450000 		.4byte	.LASF548
 4274 1613 08001600 		.4byte	0x160008
 4275 1617 17       		.uleb128 0x17
 4276 1618 2C010000 		.4byte	.LASF549
 4277 161c 09001600 		.4byte	0x160009
 4278 1620 17       		.uleb128 0x17
 4279 1621 8E4A0000 		.4byte	.LASF550
 4280 1625 0A001600 		.4byte	0x16000a
 4281 1629 17       		.uleb128 0x17
 4282 162a 971D0000 		.4byte	.LASF551
 4283 162e 0B001600 		.4byte	0x16000b
 4284 1632 17       		.uleb128 0x17
 4285 1633 52370000 		.4byte	.LASF552
 4286 1637 0C001600 		.4byte	0x16000c
 4287 163b 17       		.uleb128 0x17
 4288 163c E9390000 		.4byte	.LASF553
 4289 1640 0D001600 		.4byte	0x16000d
 4290 1644 17       		.uleb128 0x17
 4291 1645 654E0000 		.4byte	.LASF554
 4292 1649 0E001600 		.4byte	0x16000e
 4293 164d 17       		.uleb128 0x17
 4294 164e F22C0000 		.4byte	.LASF555
ARM GAS  C:\Users\Smaug\AppData\Local\Temp\ccVZzAJS.s 			page 111


 4295 1652 0F001600 		.4byte	0x16000f
 4296 1656 17       		.uleb128 0x17
 4297 1657 39390000 		.4byte	.LASF556
 4298 165b 10001600 		.4byte	0x160010
 4299 165f 17       		.uleb128 0x17
 4300 1660 D9240000 		.4byte	.LASF557
 4301 1664 11001600 		.4byte	0x160011
 4302 1668 17       		.uleb128 0x17
 4303 1669 54190000 		.4byte	.LASF558
 4304 166d 12001600 		.4byte	0x160012
 4305 1671 17       		.uleb128 0x17
 4306 1672 83020000 		.4byte	.LASF559
 4307 1676 13001600 		.4byte	0x160013
 4308 167a 17       		.uleb128 0x17
 4309 167b E11F0000 		.4byte	.LASF560
 4310 167f 14001600 		.4byte	0x160014
 4311 1683 17       		.uleb128 0x17
 4312 1684 431E0000 		.4byte	.LASF561
 4313 1688 15001600 		.4byte	0x160015
 4314 168c 17       		.uleb128 0x17
 4315 168d B34B0000 		.4byte	.LASF562
 4316 1691 16001600 		.4byte	0x160016
 4317 1695 17       		.uleb128 0x17
 4318 1696 41280000 		.4byte	.LASF563
 4319 169a 17001600 		.4byte	0x160017
 4320 169e 17       		.uleb128 0x17
 4321 169f 27280000 		.4byte	.LASF564
 4322 16a3 18001600 		.4byte	0x160018
 4323 16a7 17       		.uleb128 0x17
 4324 16a8 1F110000 		.4byte	.LASF565
 4325 16ac 19001600 		.4byte	0x160019
 4326 16b0 17       		.uleb128 0x17
 4327 16b1 97310000 		.4byte	.LASF566
 4328 16b5 FE001600 		.4byte	0x1600fe
 4329 16b9 17       		.uleb128 0x17
 4330 16ba 30160000 		.4byte	.LASF567
 4331 16be FF001600 		.4byte	0x1600ff
 4332 16c2 17       		.uleb128 0x17
 4333 16c3 86310000 		.4byte	.LASF568
 4334 16c7 FFFF1600 		.4byte	0x16ffff
 4335 16cb 00       		.byte	0
 4336 16cc 12       		.uleb128 0x12
 4337 16cd 8A180000 		.4byte	.LASF569
 4338 16d1 0B       		.byte	0xb
 4339 16d2 4305     		.2byte	0x543
 4340 16d4 B3150000 		.4byte	0x15b3
 4341 16d8 13       		.uleb128 0x13
 4342 16d9 07       		.byte	0x7
 4343 16da 0B       		.byte	0xb
 4344 16db 6105     		.2byte	0x561
 4345 16dd FC160000 		.4byte	0x16fc
 4346 16e1 14       		.uleb128 0x14
 4347 16e2 344B0000 		.4byte	.LASF570
 4348 16e6 0B       		.byte	0xb
 4349 16e7 6405     		.2byte	0x564
 4350 16e9 FC160000 		.4byte	0x16fc
 4351 16ed 00       		.byte	0
ARM GAS  C:\Users\Smaug\AppData\Local\Temp\ccVZzAJS.s 			page 112


 4352 16ee 14       		.uleb128 0x14
 4353 16ef 27080000 		.4byte	.LASF571
 4354 16f3 0B       		.byte	0xb
 4355 16f4 6705     		.2byte	0x567
 4356 16f6 AE000000 		.4byte	0xae
 4357 16fa 06       		.byte	0x6
 4358 16fb 00       		.byte	0
 4359 16fc 08       		.uleb128 0x8
 4360 16fd AE000000 		.4byte	0xae
 4361 1701 0C170000 		.4byte	0x170c
 4362 1705 09       		.uleb128 0x9
 4363 1706 9E000000 		.4byte	0x9e
 4364 170a 05       		.byte	0x5
 4365 170b 00       		.byte	0
 4366 170c 12       		.uleb128 0x12
 4367 170d 61530000 		.4byte	.LASF572
 4368 1711 0B       		.byte	0xb
 4369 1712 6905     		.2byte	0x569
 4370 1714 D8160000 		.4byte	0x16d8
 4371 1718 13       		.uleb128 0x13
 4372 1719 22       		.byte	0x22
 4373 171a 0B       		.byte	0xb
 4374 171b B305     		.2byte	0x5b3
 4375 171d 63170000 		.4byte	0x1763
 4376 1721 14       		.uleb128 0x14
 4377 1722 A2490000 		.4byte	.LASF573
 4378 1726 0B       		.byte	0xb
 4379 1727 C205     		.2byte	0x5c2
 4380 1729 63170000 		.4byte	0x1763
 4381 172d 00       		.byte	0
 4382 172e 14       		.uleb128 0x14
 4383 172f 6C290000 		.4byte	.LASF574
 4384 1733 0B       		.byte	0xb
 4385 1734 D505     		.2byte	0x5d5
 4386 1736 73170000 		.4byte	0x1773
 4387 173a 08       		.byte	0x8
 4388 173b 14       		.uleb128 0x14
 4389 173c 41050000 		.4byte	.LASF575
 4390 1740 0B       		.byte	0xb
 4391 1741 DB05     		.2byte	0x5db
 4392 1743 AE000000 		.4byte	0xae
 4393 1747 16       		.byte	0x16
 4394 1748 14       		.uleb128 0x14
 4395 1749 77020000 		.4byte	.LASF576
 4396 174d 0B       		.byte	0xb
 4397 174e E105     		.2byte	0x5e1
 4398 1750 C4000000 		.4byte	0xc4
 4399 1754 18       		.byte	0x18
 4400 1755 14       		.uleb128 0x14
 4401 1756 D5360000 		.4byte	.LASF577
 4402 175a 0B       		.byte	0xb
 4403 175b F005     		.2byte	0x5f0
 4404 175d 63170000 		.4byte	0x1763
 4405 1761 1A       		.byte	0x1a
 4406 1762 00       		.byte	0
 4407 1763 08       		.uleb128 0x8
 4408 1764 C4000000 		.4byte	0xc4
ARM GAS  C:\Users\Smaug\AppData\Local\Temp\ccVZzAJS.s 			page 113


 4409 1768 73170000 		.4byte	0x1773
 4410 176c 09       		.uleb128 0x9
 4411 176d 9E000000 		.4byte	0x9e
 4412 1771 03       		.byte	0x3
 4413 1772 00       		.byte	0
 4414 1773 08       		.uleb128 0x8
 4415 1774 C4000000 		.4byte	0xc4
 4416 1778 83170000 		.4byte	0x1783
 4417 177c 09       		.uleb128 0x9
 4418 177d 9E000000 		.4byte	0x9e
 4419 1781 06       		.byte	0x6
 4420 1782 00       		.byte	0
 4421 1783 12       		.uleb128 0x12
 4422 1784 164B0000 		.4byte	.LASF578
 4423 1788 0B       		.byte	0xb
 4424 1789 F205     		.2byte	0x5f2
 4425 178b 18170000 		.4byte	0x1718
 4426 178f 18       		.uleb128 0x18
 4427 1790 04       		.byte	0x4
 4428 1791 AE000000 		.4byte	0xae
 4429 1795 15       		.uleb128 0x15
 4430 1796 01       		.byte	0x1
 4431 1797 41000000 		.4byte	0x41
 4432 179b 0B       		.byte	0xb
 4433 179c 7B06     		.2byte	0x67b
 4434 179e C7170000 		.4byte	0x17c7
 4435 17a2 10       		.uleb128 0x10
 4436 17a3 61360000 		.4byte	.LASF579
 4437 17a7 6C       		.sleb128 -20
 4438 17a8 10       		.uleb128 0x10
 4439 17a9 42300000 		.4byte	.LASF580
 4440 17ad 70       		.sleb128 -16
 4441 17ae 10       		.uleb128 0x10
 4442 17af A83D0000 		.4byte	.LASF581
 4443 17b3 74       		.sleb128 -12
 4444 17b4 10       		.uleb128 0x10
 4445 17b5 E8100000 		.4byte	.LASF582
 4446 17b9 7A       		.sleb128 -6
 4447 17ba 11       		.uleb128 0x11
 4448 17bb FD1B0000 		.4byte	.LASF583
 4449 17bf 00       		.byte	0
 4450 17c0 11       		.uleb128 0x11
 4451 17c1 502D0000 		.4byte	.LASF584
 4452 17c5 04       		.byte	0x4
 4453 17c6 00       		.byte	0
 4454 17c7 12       		.uleb128 0x12
 4455 17c8 8A030000 		.4byte	.LASF585
 4456 17cc 0B       		.byte	0xb
 4457 17cd 8E06     		.2byte	0x68e
 4458 17cf 95170000 		.4byte	0x1795
 4459 17d3 15       		.uleb128 0x15
 4460 17d4 01       		.byte	0x1
 4461 17d5 53000000 		.4byte	0x53
 4462 17d9 0B       		.byte	0xb
 4463 17da 9206     		.2byte	0x692
 4464 17dc F3170000 		.4byte	0x17f3
 4465 17e0 11       		.uleb128 0x11
ARM GAS  C:\Users\Smaug\AppData\Local\Temp\ccVZzAJS.s 			page 114


 4466 17e1 5F4C0000 		.4byte	.LASF586
 4467 17e5 00       		.byte	0
 4468 17e6 11       		.uleb128 0x11
 4469 17e7 64200000 		.4byte	.LASF587
 4470 17eb 01       		.byte	0x1
 4471 17ec 11       		.uleb128 0x11
 4472 17ed 004F0000 		.4byte	.LASF588
 4473 17f1 02       		.byte	0x2
 4474 17f2 00       		.byte	0
 4475 17f3 12       		.uleb128 0x12
 4476 17f4 A5260000 		.4byte	.LASF589
 4477 17f8 0B       		.byte	0xb
 4478 17f9 9C06     		.2byte	0x69c
 4479 17fb D3170000 		.4byte	0x17d3
 4480 17ff 13       		.uleb128 0x13
 4481 1800 08       		.byte	0x8
 4482 1801 0B       		.byte	0xb
 4483 1802 DD06     		.2byte	0x6dd
 4484 1804 30180000 		.4byte	0x1830
 4485 1808 14       		.uleb128 0x14
 4486 1809 BF0F0000 		.4byte	.LASF590
 4487 180d 0B       		.byte	0xb
 4488 180e 3907     		.2byte	0x739
 4489 1810 8F170000 		.4byte	0x178f
 4490 1814 00       		.byte	0
 4491 1815 14       		.uleb128 0x14
 4492 1816 2D530000 		.4byte	.LASF591
 4493 181a 0B       		.byte	0xb
 4494 181b 3E07     		.2byte	0x73e
 4495 181d C4000000 		.4byte	0xc4
 4496 1821 04       		.byte	0x4
 4497 1822 14       		.uleb128 0x14
 4498 1823 3C310000 		.4byte	.LASF592
 4499 1827 0B       		.byte	0xb
 4500 1828 4D07     		.2byte	0x74d
 4501 182a AE000000 		.4byte	0xae
 4502 182e 06       		.byte	0x6
 4503 182f 00       		.byte	0
 4504 1830 12       		.uleb128 0x12
 4505 1831 7C3D0000 		.4byte	.LASF593
 4506 1835 0B       		.byte	0xb
 4507 1836 4F07     		.2byte	0x74f
 4508 1838 FF170000 		.4byte	0x17ff
 4509 183c 15       		.uleb128 0x15
 4510 183d 01       		.byte	0x1
 4511 183e 53000000 		.4byte	0x53
 4512 1842 0C       		.byte	0xc
 4513 1843 0C01     		.2byte	0x10c
 4514 1845 62180000 		.4byte	0x1862
 4515 1849 11       		.uleb128 0x11
 4516 184a BA250000 		.4byte	.LASF594
 4517 184e 01       		.byte	0x1
 4518 184f 11       		.uleb128 0x11
 4519 1850 1A4E0000 		.4byte	.LASF595
 4520 1854 02       		.byte	0x2
 4521 1855 11       		.uleb128 0x11
 4522 1856 890B0000 		.4byte	.LASF596
ARM GAS  C:\Users\Smaug\AppData\Local\Temp\ccVZzAJS.s 			page 115


 4523 185a 03       		.byte	0x3
 4524 185b 11       		.uleb128 0x11
 4525 185c 502F0000 		.4byte	.LASF597
 4526 1860 04       		.byte	0x4
 4527 1861 00       		.byte	0
 4528 1862 12       		.uleb128 0x12
 4529 1863 7C2F0000 		.4byte	.LASF598
 4530 1867 0C       		.byte	0xc
 4531 1868 1901     		.2byte	0x119
 4532 186a 3C180000 		.4byte	0x183c
 4533 186e 15       		.uleb128 0x15
 4534 186f 01       		.byte	0x1
 4535 1870 53000000 		.4byte	0x53
 4536 1874 0C       		.byte	0xc
 4537 1875 1D01     		.2byte	0x11d
 4538 1877 88180000 		.4byte	0x1888
 4539 187b 11       		.uleb128 0x11
 4540 187c CA100000 		.4byte	.LASF599
 4541 1880 00       		.byte	0
 4542 1881 11       		.uleb128 0x11
 4543 1882 352C0000 		.4byte	.LASF600
 4544 1886 01       		.byte	0x1
 4545 1887 00       		.byte	0
 4546 1888 12       		.uleb128 0x12
 4547 1889 1C2C0000 		.4byte	.LASF601
 4548 188d 0C       		.byte	0xc
 4549 188e 2401     		.2byte	0x124
 4550 1890 6E180000 		.4byte	0x186e
 4551 1894 13       		.uleb128 0x13
 4552 1895 02       		.byte	0x2
 4553 1896 0C       		.byte	0xc
 4554 1897 6401     		.2byte	0x164
 4555 1899 B8180000 		.4byte	0x18b8
 4556 189d 14       		.uleb128 0x14
 4557 189e DD300000 		.4byte	.LASF602
 4558 18a2 0C       		.byte	0xc
 4559 18a3 6E01     		.2byte	0x16e
 4560 18a5 AE000000 		.4byte	0xae
 4561 18a9 00       		.byte	0
 4562 18aa 14       		.uleb128 0x14
 4563 18ab D4530000 		.4byte	.LASF603
 4564 18af 0C       		.byte	0xc
 4565 18b0 7201     		.2byte	0x172
 4566 18b2 AE000000 		.4byte	0xae
 4567 18b6 01       		.byte	0x1
 4568 18b7 00       		.byte	0
 4569 18b8 12       		.uleb128 0x12
 4570 18b9 25450000 		.4byte	.LASF604
 4571 18bd 0C       		.byte	0xc
 4572 18be 7401     		.2byte	0x174
 4573 18c0 94180000 		.4byte	0x1894
 4574 18c4 13       		.uleb128 0x13
 4575 18c5 02       		.byte	0x2
 4576 18c6 0C       		.byte	0xc
 4577 18c7 9B01     		.2byte	0x19b
 4578 18c9 E8180000 		.4byte	0x18e8
 4579 18cd 14       		.uleb128 0x14
ARM GAS  C:\Users\Smaug\AppData\Local\Temp\ccVZzAJS.s 			page 116


 4580 18ce 0F100000 		.4byte	.LASF605
 4581 18d2 0C       		.byte	0xc
 4582 18d3 9E01     		.2byte	0x19e
 4583 18d5 F3170000 		.4byte	0x17f3
 4584 18d9 00       		.byte	0
 4585 18da 14       		.uleb128 0x14
 4586 18db DD300000 		.4byte	.LASF602
 4587 18df 0C       		.byte	0xc
 4588 18e0 A101     		.2byte	0x1a1
 4589 18e2 AE000000 		.4byte	0xae
 4590 18e6 01       		.byte	0x1
 4591 18e7 00       		.byte	0
 4592 18e8 12       		.uleb128 0x12
 4593 18e9 B8240000 		.4byte	.LASF606
 4594 18ed 0C       		.byte	0xc
 4595 18ee A301     		.2byte	0x1a3
 4596 18f0 C4180000 		.4byte	0x18c4
 4597 18f4 13       		.uleb128 0x13
 4598 18f5 03       		.byte	0x3
 4599 18f6 0C       		.byte	0xc
 4600 18f7 A601     		.2byte	0x1a6
 4601 18f9 18190000 		.4byte	0x1918
 4602 18fd 14       		.uleb128 0x14
 4603 18fe AB0D0000 		.4byte	.LASF607
 4604 1902 0C       		.byte	0xc
 4605 1903 A901     		.2byte	0x1a9
 4606 1905 C7170000 		.4byte	0x17c7
 4607 1909 00       		.byte	0
 4608 190a 14       		.uleb128 0x14
 4609 190b 2D0B0000 		.4byte	.LASF608
 4610 190f 0C       		.byte	0xc
 4611 1910 AC01     		.2byte	0x1ac
 4612 1912 E8180000 		.4byte	0x18e8
 4613 1916 01       		.byte	0x1
 4614 1917 00       		.byte	0
 4615 1918 12       		.uleb128 0x12
 4616 1919 80150000 		.4byte	.LASF609
 4617 191d 0C       		.byte	0xc
 4618 191e AE01     		.2byte	0x1ae
 4619 1920 F4180000 		.4byte	0x18f4
 4620 1924 13       		.uleb128 0x13
 4621 1925 0C       		.byte	0xc
 4622 1926 0C       		.byte	0xc
 4623 1927 EE02     		.2byte	0x2ee
 4624 1929 62190000 		.4byte	0x1962
 4625 192d 14       		.uleb128 0x14
 4626 192e 0F030000 		.4byte	.LASF610
 4627 1932 0C       		.byte	0xc
 4628 1933 F102     		.2byte	0x2f1
 4629 1935 88180000 		.4byte	0x1888
 4630 1939 00       		.byte	0
 4631 193a 14       		.uleb128 0x14
 4632 193b F4160000 		.4byte	.LASF611
 4633 193f 0C       		.byte	0xc
 4634 1940 F902     		.2byte	0x2f9
 4635 1942 A5000000 		.4byte	0xa5
 4636 1946 04       		.byte	0x4
ARM GAS  C:\Users\Smaug\AppData\Local\Temp\ccVZzAJS.s 			page 117


 4637 1947 14       		.uleb128 0x14
 4638 1948 96220000 		.4byte	.LASF612
 4639 194c 0C       		.byte	0xc
 4640 194d FE02     		.2byte	0x2fe
 4641 194f AE000000 		.4byte	0xae
 4642 1953 08       		.byte	0x8
 4643 1954 14       		.uleb128 0x14
 4644 1955 CF410000 		.4byte	.LASF613
 4645 1959 0C       		.byte	0xc
 4646 195a 0103     		.2byte	0x301
 4647 195c B8180000 		.4byte	0x18b8
 4648 1960 09       		.byte	0x9
 4649 1961 00       		.byte	0
 4650 1962 12       		.uleb128 0x12
 4651 1963 542E0000 		.4byte	.LASF614
 4652 1967 0C       		.byte	0xc
 4653 1968 0303     		.2byte	0x303
 4654 196a 24190000 		.4byte	0x1924
 4655 196e 19       		.uleb128 0x19
 4656 196f 02       		.byte	0x2
 4657 1970 0C       		.byte	0xc
 4658 1971 1B03     		.2byte	0x31b
 4659 1973 90190000 		.4byte	0x1990
 4660 1977 1A       		.uleb128 0x1a
 4661 1978 CF410000 		.4byte	.LASF613
 4662 197c 0C       		.byte	0xc
 4663 197d 1E03     		.2byte	0x31e
 4664 197f B8180000 		.4byte	0x18b8
 4665 1983 1A       		.uleb128 0x1a
 4666 1984 DD300000 		.4byte	.LASF602
 4667 1988 0C       		.byte	0xc
 4668 1989 2103     		.2byte	0x321
 4669 198b AE000000 		.4byte	0xae
 4670 198f 00       		.byte	0
 4671 1990 13       		.uleb128 0x13
 4672 1991 04       		.byte	0x4
 4673 1992 0C       		.byte	0xc
 4674 1993 1503     		.2byte	0x315
 4675 1995 C1190000 		.4byte	0x19c1
 4676 1999 14       		.uleb128 0x14
 4677 199a 92380000 		.4byte	.LASF615
 4678 199e 0C       		.byte	0xc
 4679 199f 1803     		.2byte	0x318
 4680 19a1 62180000 		.4byte	0x1862
 4681 19a5 00       		.byte	0
 4682 19a6 14       		.uleb128 0x14
 4683 19a7 7B300000 		.4byte	.LASF616
 4684 19ab 0C       		.byte	0xc
 4685 19ac 2303     		.2byte	0x323
 4686 19ae 6E190000 		.4byte	0x196e
 4687 19b2 01       		.byte	0x1
 4688 19b3 14       		.uleb128 0x14
 4689 19b4 A6370000 		.4byte	.LASF617
 4690 19b8 0C       		.byte	0xc
 4691 19b9 2603     		.2byte	0x326
 4692 19bb AE000000 		.4byte	0xae
 4693 19bf 03       		.byte	0x3
ARM GAS  C:\Users\Smaug\AppData\Local\Temp\ccVZzAJS.s 			page 118


 4694 19c0 00       		.byte	0
 4695 19c1 12       		.uleb128 0x12
 4696 19c2 99140000 		.4byte	.LASF618
 4697 19c6 0C       		.byte	0xc
 4698 19c7 2803     		.2byte	0x328
 4699 19c9 90190000 		.4byte	0x1990
 4700 19cd 0F       		.uleb128 0xf
 4701 19ce 01       		.byte	0x1
 4702 19cf 53000000 		.4byte	0x53
 4703 19d3 0D       		.byte	0xd
 4704 19d4 4E       		.byte	0x4e
 4705 19d5 881A0000 		.4byte	0x1a88
 4706 19d9 11       		.uleb128 0x11
 4707 19da E71B0000 		.4byte	.LASF619
 4708 19de 01       		.byte	0x1
 4709 19df 11       		.uleb128 0x11
 4710 19e0 E40A0000 		.4byte	.LASF620
 4711 19e4 02       		.byte	0x2
 4712 19e5 11       		.uleb128 0x11
 4713 19e6 71550000 		.4byte	.LASF621
 4714 19ea 03       		.byte	0x3
 4715 19eb 11       		.uleb128 0x11
 4716 19ec 8F360000 		.4byte	.LASF622
 4717 19f0 04       		.byte	0x4
 4718 19f1 11       		.uleb128 0x11
 4719 19f2 862C0000 		.4byte	.LASF623
 4720 19f6 05       		.byte	0x5
 4721 19f7 11       		.uleb128 0x11
 4722 19f8 CD340000 		.4byte	.LASF624
 4723 19fc 06       		.byte	0x6
 4724 19fd 11       		.uleb128 0x11
 4725 19fe FF050000 		.4byte	.LASF625
 4726 1a02 07       		.byte	0x7
 4727 1a03 11       		.uleb128 0x11
 4728 1a04 0C4C0000 		.4byte	.LASF626
 4729 1a08 08       		.byte	0x8
 4730 1a09 11       		.uleb128 0x11
 4731 1a0a 2E1D0000 		.4byte	.LASF627
 4732 1a0e 09       		.byte	0x9
 4733 1a0f 11       		.uleb128 0x11
 4734 1a10 F43C0000 		.4byte	.LASF628
 4735 1a14 0A       		.byte	0xa
 4736 1a15 11       		.uleb128 0x11
 4737 1a16 6C0C0000 		.4byte	.LASF629
 4738 1a1a 0B       		.byte	0xb
 4739 1a1b 11       		.uleb128 0x11
 4740 1a1c DF320000 		.4byte	.LASF630
 4741 1a20 0C       		.byte	0xc
 4742 1a21 11       		.uleb128 0x11
 4743 1a22 50030000 		.4byte	.LASF631
 4744 1a26 0D       		.byte	0xd
 4745 1a27 11       		.uleb128 0x11
 4746 1a28 260C0000 		.4byte	.LASF632
 4747 1a2c 0E       		.byte	0xe
 4748 1a2d 11       		.uleb128 0x11
 4749 1a2e 02350000 		.4byte	.LASF633
 4750 1a32 0F       		.byte	0xf
ARM GAS  C:\Users\Smaug\AppData\Local\Temp\ccVZzAJS.s 			page 119


 4751 1a33 11       		.uleb128 0x11
 4752 1a34 A1280000 		.4byte	.LASF634
 4753 1a38 10       		.byte	0x10
 4754 1a39 11       		.uleb128 0x11
 4755 1a3a F34F0000 		.4byte	.LASF635
 4756 1a3e 11       		.byte	0x11
 4757 1a3f 11       		.uleb128 0x11
 4758 1a40 E8460000 		.4byte	.LASF636
 4759 1a44 12       		.byte	0x12
 4760 1a45 11       		.uleb128 0x11
 4761 1a46 51180000 		.4byte	.LASF637
 4762 1a4a 13       		.byte	0x13
 4763 1a4b 11       		.uleb128 0x11
 4764 1a4c 66040000 		.4byte	.LASF638
 4765 1a50 52       		.byte	0x52
 4766 1a51 11       		.uleb128 0x11
 4767 1a52 B4310000 		.4byte	.LASF639
 4768 1a56 16       		.byte	0x16
 4769 1a57 11       		.uleb128 0x11
 4770 1a58 362E0000 		.4byte	.LASF640
 4771 1a5c 17       		.byte	0x17
 4772 1a5d 11       		.uleb128 0x11
 4773 1a5e A9300000 		.4byte	.LASF641
 4774 1a62 18       		.byte	0x18
 4775 1a63 11       		.uleb128 0x11
 4776 1a64 CE270000 		.4byte	.LASF642
 4777 1a68 19       		.byte	0x19
 4778 1a69 11       		.uleb128 0x11
 4779 1a6a DE3A0000 		.4byte	.LASF643
 4780 1a6e 1B       		.byte	0x1b
 4781 1a6f 11       		.uleb128 0x11
 4782 1a70 FC280000 		.4byte	.LASF644
 4783 1a74 1D       		.byte	0x1d
 4784 1a75 11       		.uleb128 0x11
 4785 1a76 34170000 		.4byte	.LASF645
 4786 1a7a 1E       		.byte	0x1e
 4787 1a7b 11       		.uleb128 0x11
 4788 1a7c FF2B0000 		.4byte	.LASF646
 4789 1a80 D2       		.byte	0xd2
 4790 1a81 11       		.uleb128 0x11
 4791 1a82 A6160000 		.4byte	.LASF647
 4792 1a86 FF       		.byte	0xff
 4793 1a87 00       		.byte	0
 4794 1a88 04       		.uleb128 0x4
 4795 1a89 D81A0000 		.4byte	.LASF648
 4796 1a8d 0D       		.byte	0xd
 4797 1a8e A6       		.byte	0xa6
 4798 1a8f CD190000 		.4byte	0x19cd
 4799 1a93 0F       		.uleb128 0xf
 4800 1a94 01       		.byte	0x1
 4801 1a95 53000000 		.4byte	0x53
 4802 1a99 0D       		.byte	0xd
 4803 1a9a AA       		.byte	0xaa
 4804 1a9b 841B0000 		.4byte	0x1b84
 4805 1a9f 11       		.uleb128 0x11
 4806 1aa0 22060000 		.4byte	.LASF649
 4807 1aa4 00       		.byte	0
ARM GAS  C:\Users\Smaug\AppData\Local\Temp\ccVZzAJS.s 			page 120


 4808 1aa5 11       		.uleb128 0x11
 4809 1aa6 560E0000 		.4byte	.LASF650
 4810 1aaa 01       		.byte	0x1
 4811 1aab 11       		.uleb128 0x11
 4812 1aac 18260000 		.4byte	.LASF651
 4813 1ab0 02       		.byte	0x2
 4814 1ab1 11       		.uleb128 0x11
 4815 1ab2 37060000 		.4byte	.LASF652
 4816 1ab6 03       		.byte	0x3
 4817 1ab7 11       		.uleb128 0x11
 4818 1ab8 81400000 		.4byte	.LASF653
 4819 1abc 04       		.byte	0x4
 4820 1abd 11       		.uleb128 0x11
 4821 1abe DB0C0000 		.4byte	.LASF654
 4822 1ac2 05       		.byte	0x5
 4823 1ac3 11       		.uleb128 0x11
 4824 1ac4 7C040000 		.4byte	.LASF655
 4825 1ac8 06       		.byte	0x6
 4826 1ac9 11       		.uleb128 0x11
 4827 1aca 6F0A0000 		.4byte	.LASF656
 4828 1ace 07       		.byte	0x7
 4829 1acf 11       		.uleb128 0x11
 4830 1ad0 6D260000 		.4byte	.LASF657
 4831 1ad4 08       		.byte	0x8
 4832 1ad5 11       		.uleb128 0x11
 4833 1ad6 3F070000 		.4byte	.LASF658
 4834 1ada 09       		.byte	0x9
 4835 1adb 11       		.uleb128 0x11
 4836 1adc 2B410000 		.4byte	.LASF659
 4837 1ae0 0A       		.byte	0xa
 4838 1ae1 11       		.uleb128 0x11
 4839 1ae2 750E0000 		.4byte	.LASF660
 4840 1ae6 0B       		.byte	0xb
 4841 1ae7 11       		.uleb128 0x11
 4842 1ae8 01420000 		.4byte	.LASF661
 4843 1aec 0C       		.byte	0xc
 4844 1aed 11       		.uleb128 0x11
 4845 1aee 8F230000 		.4byte	.LASF662
 4846 1af2 0D       		.byte	0xd
 4847 1af3 11       		.uleb128 0x11
 4848 1af4 A7430000 		.4byte	.LASF663
 4849 1af8 0E       		.byte	0xe
 4850 1af9 11       		.uleb128 0x11
 4851 1afa E10B0000 		.4byte	.LASF664
 4852 1afe 0F       		.byte	0xf
 4853 1aff 11       		.uleb128 0x11
 4854 1b00 68270000 		.4byte	.LASF665
 4855 1b04 10       		.byte	0x10
 4856 1b05 11       		.uleb128 0x11
 4857 1b06 2E190000 		.4byte	.LASF666
 4858 1b0a 11       		.byte	0x11
 4859 1b0b 11       		.uleb128 0x11
 4860 1b0c 5B430000 		.4byte	.LASF667
 4861 1b10 80       		.byte	0x80
 4862 1b11 11       		.uleb128 0x11
 4863 1b12 48020000 		.4byte	.LASF668
 4864 1b16 80       		.byte	0x80
ARM GAS  C:\Users\Smaug\AppData\Local\Temp\ccVZzAJS.s 			page 121


 4865 1b17 11       		.uleb128 0x11
 4866 1b18 26500000 		.4byte	.LASF669
 4867 1b1c 80       		.byte	0x80
 4868 1b1d 11       		.uleb128 0x11
 4869 1b1e 8E3B0000 		.4byte	.LASF670
 4870 1b22 80       		.byte	0x80
 4871 1b23 11       		.uleb128 0x11
 4872 1b24 103D0000 		.4byte	.LASF671
 4873 1b28 80       		.byte	0x80
 4874 1b29 11       		.uleb128 0x11
 4875 1b2a 2C370000 		.4byte	.LASF672
 4876 1b2e 80       		.byte	0x80
 4877 1b2f 11       		.uleb128 0x11
 4878 1b30 45360000 		.4byte	.LASF673
 4879 1b34 80       		.byte	0x80
 4880 1b35 11       		.uleb128 0x11
 4881 1b36 A9360000 		.4byte	.LASF674
 4882 1b3a 81       		.byte	0x81
 4883 1b3b 11       		.uleb128 0x11
 4884 1b3c 49480000 		.4byte	.LASF675
 4885 1b40 81       		.byte	0x81
 4886 1b41 11       		.uleb128 0x11
 4887 1b42 013E0000 		.4byte	.LASF676
 4888 1b46 81       		.byte	0x81
 4889 1b47 11       		.uleb128 0x11
 4890 1b48 E5360000 		.4byte	.LASF677
 4891 1b4c 81       		.byte	0x81
 4892 1b4d 11       		.uleb128 0x11
 4893 1b4e B6420000 		.4byte	.LASF678
 4894 1b52 82       		.byte	0x82
 4895 1b53 11       		.uleb128 0x11
 4896 1b54 B70D0000 		.4byte	.LASF679
 4897 1b58 A0       		.byte	0xa0
 4898 1b59 11       		.uleb128 0x11
 4899 1b5a F1230000 		.4byte	.LASF680
 4900 1b5e A0       		.byte	0xa0
 4901 1b5f 11       		.uleb128 0x11
 4902 1b60 BA520000 		.4byte	.LASF681
 4903 1b64 A1       		.byte	0xa1
 4904 1b65 11       		.uleb128 0x11
 4905 1b66 784F0000 		.4byte	.LASF682
 4906 1b6a A2       		.byte	0xa2
 4907 1b6b 11       		.uleb128 0x11
 4908 1b6c 67180000 		.4byte	.LASF683
 4909 1b70 A3       		.byte	0xa3
 4910 1b71 11       		.uleb128 0x11
 4911 1b72 AD1A0000 		.4byte	.LASF684
 4912 1b76 FD       		.byte	0xfd
 4913 1b77 11       		.uleb128 0x11
 4914 1b78 821C0000 		.4byte	.LASF685
 4915 1b7c FE       		.byte	0xfe
 4916 1b7d 11       		.uleb128 0x11
 4917 1b7e BD4C0000 		.4byte	.LASF686
 4918 1b82 FF       		.byte	0xff
 4919 1b83 00       		.byte	0
 4920 1b84 12       		.uleb128 0x12
 4921 1b85 22310000 		.4byte	.LASF687
ARM GAS  C:\Users\Smaug\AppData\Local\Temp\ccVZzAJS.s 			page 122


 4922 1b89 0D       		.byte	0xd
 4923 1b8a 6101     		.2byte	0x161
 4924 1b8c 931A0000 		.4byte	0x1a93
 4925 1b90 12       		.uleb128 0x12
 4926 1b91 C2120000 		.4byte	.LASF688
 4927 1b95 0D       		.byte	0xd
 4928 1b96 7F01     		.2byte	0x17f
 4929 1b98 C4000000 		.4byte	0xc4
 4930 1b9c 13       		.uleb128 0x13
 4931 1b9d 08       		.byte	0x8
 4932 1b9e 0D       		.byte	0xd
 4933 1b9f 9401     		.2byte	0x194
 4934 1ba1 CD1B0000 		.4byte	0x1bcd
 4935 1ba5 1B       		.uleb128 0x1b
 4936 1ba6 76616C00 		.ascii	"val\000"
 4937 1baa 0D       		.byte	0xd
 4938 1bab 9701     		.2byte	0x197
 4939 1bad 8F170000 		.4byte	0x178f
 4940 1bb1 00       		.byte	0
 4941 1bb2 1B       		.uleb128 0x1b
 4942 1bb3 6C656E00 		.ascii	"len\000"
 4943 1bb7 0D       		.byte	0xd
 4944 1bb8 9A01     		.2byte	0x19a
 4945 1bba C4000000 		.4byte	0xc4
 4946 1bbe 04       		.byte	0x4
 4947 1bbf 14       		.uleb128 0x14
 4948 1bc0 A5520000 		.4byte	.LASF689
 4949 1bc4 0D       		.byte	0xd
 4950 1bc5 A101     		.2byte	0x1a1
 4951 1bc7 C4000000 		.4byte	0xc4
 4952 1bcb 06       		.byte	0x6
 4953 1bcc 00       		.byte	0
 4954 1bcd 12       		.uleb128 0x12
 4955 1bce E10D0000 		.4byte	.LASF690
 4956 1bd2 0D       		.byte	0xd
 4957 1bd3 A301     		.2byte	0x1a3
 4958 1bd5 9C1B0000 		.4byte	0x1b9c
 4959 1bd9 13       		.uleb128 0x13
 4960 1bda 0C       		.byte	0xc
 4961 1bdb 0D       		.byte	0xd
 4962 1bdc A601     		.2byte	0x1a6
 4963 1bde FD1B0000 		.4byte	0x1bfd
 4964 1be2 14       		.uleb128 0x14
 4965 1be3 5F0D0000 		.4byte	.LASF691
 4966 1be7 0D       		.byte	0xd
 4967 1be8 A901     		.2byte	0x1a9
 4968 1bea CD1B0000 		.4byte	0x1bcd
 4969 1bee 00       		.byte	0
 4970 1bef 14       		.uleb128 0x14
 4971 1bf0 89300000 		.4byte	.LASF692
 4972 1bf4 0D       		.byte	0xd
 4973 1bf5 AC01     		.2byte	0x1ac
 4974 1bf7 901B0000 		.4byte	0x1b90
 4975 1bfb 08       		.byte	0x8
 4976 1bfc 00       		.byte	0
 4977 1bfd 12       		.uleb128 0x12
 4978 1bfe C9200000 		.4byte	.LASF693
ARM GAS  C:\Users\Smaug\AppData\Local\Temp\ccVZzAJS.s 			page 123


 4979 1c02 0D       		.byte	0xd
 4980 1c03 AE01     		.2byte	0x1ae
 4981 1c05 D91B0000 		.4byte	0x1bd9
 4982 1c09 13       		.uleb128 0x13
 4983 1c0a 04       		.byte	0x4
 4984 1c0b 0D       		.byte	0xd
 4985 1c0c BC01     		.2byte	0x1bc
 4986 1c0e 2D1C0000 		.4byte	0x1c2d
 4987 1c12 14       		.uleb128 0x14
 4988 1c13 CF410000 		.4byte	.LASF613
 4989 1c17 0D       		.byte	0xd
 4990 1c18 BF01     		.2byte	0x1bf
 4991 1c1a B8180000 		.4byte	0x18b8
 4992 1c1e 00       		.byte	0
 4993 1c1f 1B       		.uleb128 0x1b
 4994 1c20 6D747500 		.ascii	"mtu\000"
 4995 1c24 0D       		.byte	0xd
 4996 1c25 C201     		.2byte	0x1c2
 4997 1c27 C4000000 		.4byte	0xc4
 4998 1c2b 02       		.byte	0x2
 4999 1c2c 00       		.byte	0
 5000 1c2d 12       		.uleb128 0x12
 5001 1c2e E6480000 		.4byte	.LASF694
 5002 1c32 0D       		.byte	0xd
 5003 1c33 C401     		.2byte	0x1c4
 5004 1c35 091C0000 		.4byte	0x1c09
 5005 1c39 13       		.uleb128 0x13
 5006 1c3a 10       		.byte	0x10
 5007 1c3b 0D       		.byte	0xd
 5008 1c3c D201     		.2byte	0x1d2
 5009 1c3e 5D1C0000 		.4byte	0x1c5d
 5010 1c42 14       		.uleb128 0x14
 5011 1c43 56470000 		.4byte	.LASF695
 5012 1c47 0D       		.byte	0xd
 5013 1c48 D501     		.2byte	0x1d5
 5014 1c4a FD1B0000 		.4byte	0x1bfd
 5015 1c4e 00       		.byte	0
 5016 1c4f 14       		.uleb128 0x14
 5017 1c50 CF410000 		.4byte	.LASF613
 5018 1c54 0D       		.byte	0xd
 5019 1c55 D801     		.2byte	0x1d8
 5020 1c57 B8180000 		.4byte	0x18b8
 5021 1c5b 0C       		.byte	0xc
 5022 1c5c 00       		.byte	0
 5023 1c5d 12       		.uleb128 0x12
 5024 1c5e 662D0000 		.4byte	.LASF696
 5025 1c62 0D       		.byte	0xd
 5026 1c63 DA01     		.2byte	0x1da
 5027 1c65 391C0000 		.4byte	0x1c39
 5028 1c69 13       		.uleb128 0x13
 5029 1c6a 04       		.byte	0x4
 5030 1c6b 0D       		.byte	0xd
 5031 1c6c DD01     		.2byte	0x1dd
 5032 1c6e 9A1C0000 		.4byte	0x1c9a
 5033 1c72 14       		.uleb128 0x14
 5034 1c73 89300000 		.4byte	.LASF692
 5035 1c77 0D       		.byte	0xd
ARM GAS  C:\Users\Smaug\AppData\Local\Temp\ccVZzAJS.s 			page 124


 5036 1c78 E001     		.2byte	0x1e0
 5037 1c7a 901B0000 		.4byte	0x1b90
 5038 1c7e 00       		.byte	0
 5039 1c7f 14       		.uleb128 0x14
 5040 1c80 D42D0000 		.4byte	.LASF697
 5041 1c84 0D       		.byte	0xd
 5042 1c85 E301     		.2byte	0x1e3
 5043 1c87 881A0000 		.4byte	0x1a88
 5044 1c8b 02       		.byte	0x2
 5045 1c8c 14       		.uleb128 0x14
 5046 1c8d 57530000 		.4byte	.LASF698
 5047 1c91 0D       		.byte	0xd
 5048 1c92 E601     		.2byte	0x1e6
 5049 1c94 841B0000 		.4byte	0x1b84
 5050 1c98 03       		.byte	0x3
 5051 1c99 00       		.byte	0
 5052 1c9a 12       		.uleb128 0x12
 5053 1c9b 9D380000 		.4byte	.LASF699
 5054 1c9f 0D       		.byte	0xd
 5055 1ca0 E801     		.2byte	0x1e8
 5056 1ca2 691C0000 		.4byte	0x1c69
 5057 1ca6 13       		.uleb128 0x13
 5058 1ca7 06       		.byte	0x6
 5059 1ca8 0D       		.byte	0xd
 5060 1ca9 EB01     		.2byte	0x1eb
 5061 1cab CA1C0000 		.4byte	0x1cca
 5062 1caf 14       		.uleb128 0x14
 5063 1cb0 CF410000 		.4byte	.LASF613
 5064 1cb4 0D       		.byte	0xd
 5065 1cb5 EE01     		.2byte	0x1ee
 5066 1cb7 B8180000 		.4byte	0x18b8
 5067 1cbb 00       		.byte	0
 5068 1cbc 14       		.uleb128 0x14
 5069 1cbd D91F0000 		.4byte	.LASF700
 5070 1cc1 0D       		.byte	0xd
 5071 1cc2 F101     		.2byte	0x1f1
 5072 1cc4 9A1C0000 		.4byte	0x1c9a
 5073 1cc8 02       		.byte	0x2
 5074 1cc9 00       		.byte	0
 5075 1cca 12       		.uleb128 0x12
 5076 1ccb AA530000 		.4byte	.LASF701
 5077 1ccf 0D       		.byte	0xd
 5078 1cd0 F301     		.2byte	0x1f3
 5079 1cd2 A61C0000 		.4byte	0x1ca6
 5080 1cd6 13       		.uleb128 0x13
 5081 1cd7 0C       		.byte	0xc
 5082 1cd8 0D       		.byte	0xd
 5083 1cd9 0302     		.2byte	0x203
 5084 1cdb 141D0000 		.4byte	0x1d14
 5085 1cdf 14       		.uleb128 0x14
 5086 1ce0 2F3A0000 		.4byte	.LASF702
 5087 1ce4 0D       		.byte	0xd
 5088 1ce5 0802     		.2byte	0x208
 5089 1ce7 8F170000 		.4byte	0x178f
 5090 1ceb 00       		.byte	0
 5091 1cec 14       		.uleb128 0x14
 5092 1ced 573F0000 		.4byte	.LASF703
ARM GAS  C:\Users\Smaug\AppData\Local\Temp\ccVZzAJS.s 			page 125


 5093 1cf1 0D       		.byte	0xd
 5094 1cf2 0D02     		.2byte	0x20d
 5095 1cf4 C4000000 		.4byte	0xc4
 5096 1cf8 04       		.byte	0x4
 5097 1cf9 14       		.uleb128 0x14
 5098 1cfa 701E0000 		.4byte	.LASF704
 5099 1cfe 0D       		.byte	0xd
 5100 1cff 1302     		.2byte	0x213
 5101 1d01 C4000000 		.4byte	0xc4
 5102 1d05 06       		.byte	0x6
 5103 1d06 14       		.uleb128 0x14
 5104 1d07 CF410000 		.4byte	.LASF613
 5105 1d0b 0D       		.byte	0xd
 5106 1d0c 1602     		.2byte	0x216
 5107 1d0e B8180000 		.4byte	0x18b8
 5108 1d12 08       		.byte	0x8
 5109 1d13 00       		.byte	0
 5110 1d14 12       		.uleb128 0x12
 5111 1d15 6C220000 		.4byte	.LASF705
 5112 1d19 0D       		.byte	0xd
 5113 1d1a 1802     		.2byte	0x218
 5114 1d1c D61C0000 		.4byte	0x1cd6
 5115 1d20 0F       		.uleb128 0xf
 5116 1d21 01       		.byte	0x1
 5117 1d22 53000000 		.4byte	0x53
 5118 1d26 0E       		.byte	0xe
 5119 1d27 D5       		.byte	0xd5
 5120 1d28 4B1D0000 		.4byte	0x1d4b
 5121 1d2c 11       		.uleb128 0x11
 5122 1d2d E91D0000 		.4byte	.LASF706
 5123 1d31 00       		.byte	0
 5124 1d32 11       		.uleb128 0x11
 5125 1d33 4F210000 		.4byte	.LASF707
 5126 1d37 01       		.byte	0x1
 5127 1d38 11       		.uleb128 0x11
 5128 1d39 0A430000 		.4byte	.LASF708
 5129 1d3d 02       		.byte	0x2
 5130 1d3e 11       		.uleb128 0x11
 5131 1d3f BF2F0000 		.4byte	.LASF709
 5132 1d43 03       		.byte	0x3
 5133 1d44 11       		.uleb128 0x11
 5134 1d45 CF060000 		.4byte	.LASF710
 5135 1d49 04       		.byte	0x4
 5136 1d4a 00       		.byte	0
 5137 1d4b 04       		.uleb128 0x4
 5138 1d4c 2C250000 		.4byte	.LASF711
 5139 1d50 0E       		.byte	0xe
 5140 1d51 E7       		.byte	0xe7
 5141 1d52 201D0000 		.4byte	0x1d20
 5142 1d56 0F       		.uleb128 0xf
 5143 1d57 01       		.byte	0x1
 5144 1d58 53000000 		.4byte	0x53
 5145 1d5c 0E       		.byte	0xe
 5146 1d5d EB       		.byte	0xeb
 5147 1d5e C91D0000 		.4byte	0x1dc9
 5148 1d62 11       		.uleb128 0x11
 5149 1d63 04110000 		.4byte	.LASF712
ARM GAS  C:\Users\Smaug\AppData\Local\Temp\ccVZzAJS.s 			page 126


 5150 1d67 00       		.byte	0
 5151 1d68 11       		.uleb128 0x11
 5152 1d69 D6010000 		.4byte	.LASF713
 5153 1d6d 01       		.byte	0x1
 5154 1d6e 11       		.uleb128 0x11
 5155 1d6f DD420000 		.4byte	.LASF714
 5156 1d73 02       		.byte	0x2
 5157 1d74 11       		.uleb128 0x11
 5158 1d75 5B280000 		.4byte	.LASF715
 5159 1d79 03       		.byte	0x3
 5160 1d7a 11       		.uleb128 0x11
 5161 1d7b 17030000 		.4byte	.LASF716
 5162 1d7f 04       		.byte	0x4
 5163 1d80 11       		.uleb128 0x11
 5164 1d81 4B010000 		.4byte	.LASF717
 5165 1d85 05       		.byte	0x5
 5166 1d86 11       		.uleb128 0x11
 5167 1d87 FD530000 		.4byte	.LASF718
 5168 1d8b 06       		.byte	0x6
 5169 1d8c 11       		.uleb128 0x11
 5170 1d8d AD3C0000 		.4byte	.LASF719
 5171 1d91 07       		.byte	0x7
 5172 1d92 11       		.uleb128 0x11
 5173 1d93 CE070000 		.4byte	.LASF720
 5174 1d97 08       		.byte	0x8
 5175 1d98 11       		.uleb128 0x11
 5176 1d99 11390000 		.4byte	.LASF721
 5177 1d9d 09       		.byte	0x9
 5178 1d9e 11       		.uleb128 0x11
 5179 1d9f E7150000 		.4byte	.LASF722
 5180 1da3 0A       		.byte	0xa
 5181 1da4 11       		.uleb128 0x11
 5182 1da5 67440000 		.4byte	.LASF723
 5183 1da9 0B       		.byte	0xb
 5184 1daa 11       		.uleb128 0x11
 5185 1dab 590B0000 		.4byte	.LASF724
 5186 1daf 0C       		.byte	0xc
 5187 1db0 11       		.uleb128 0x11
 5188 1db1 ED200000 		.4byte	.LASF725
 5189 1db5 0D       		.byte	0xd
 5190 1db6 11       		.uleb128 0x11
 5191 1db7 51170000 		.4byte	.LASF726
 5192 1dbb 0E       		.byte	0xe
 5193 1dbc 11       		.uleb128 0x11
 5194 1dbd 0E0F0000 		.4byte	.LASF727
 5195 1dc1 15       		.byte	0x15
 5196 1dc2 11       		.uleb128 0x11
 5197 1dc3 FD4C0000 		.4byte	.LASF728
 5198 1dc7 18       		.byte	0x18
 5199 1dc8 00       		.byte	0
 5200 1dc9 12       		.uleb128 0x12
 5201 1dca BE0B0000 		.4byte	.LASF729
 5202 1dce 0E       		.byte	0xe
 5203 1dcf 2801     		.2byte	0x128
 5204 1dd1 561D0000 		.4byte	0x1d56
 5205 1dd5 12       		.uleb128 0x12
 5206 1dd6 3E1B0000 		.4byte	.LASF730
ARM GAS  C:\Users\Smaug\AppData\Local\Temp\ccVZzAJS.s 			page 127


 5207 1dda 0E       		.byte	0xe
 5208 1ddb 6601     		.2byte	0x166
 5209 1ddd 0C170000 		.4byte	0x170c
 5210 1de1 13       		.uleb128 0x13
 5211 1de2 06       		.byte	0x6
 5212 1de3 0E       		.byte	0xe
 5213 1de4 EA01     		.2byte	0x1ea
 5214 1de6 391E0000 		.4byte	0x1e39
 5215 1dea 14       		.uleb128 0x14
 5216 1deb DF460000 		.4byte	.LASF731
 5217 1def 0E       		.byte	0xe
 5218 1df0 F301     		.2byte	0x1f3
 5219 1df2 AE000000 		.4byte	0xae
 5220 1df6 00       		.byte	0
 5221 1df7 14       		.uleb128 0x14
 5222 1df8 A1300000 		.4byte	.LASF732
 5223 1dfc 0E       		.byte	0xe
 5224 1dfd F901     		.2byte	0x1f9
 5225 1dff AE000000 		.4byte	0xae
 5226 1e03 01       		.byte	0x1
 5227 1e04 14       		.uleb128 0x14
 5228 1e05 9B010000 		.4byte	.LASF733
 5229 1e09 0E       		.byte	0xe
 5230 1e0a 0002     		.2byte	0x200
 5231 1e0c AE000000 		.4byte	0xae
 5232 1e10 02       		.byte	0x2
 5233 1e11 14       		.uleb128 0x14
 5234 1e12 1C1D0000 		.4byte	.LASF734
 5235 1e16 0E       		.byte	0xe
 5236 1e17 0402     		.2byte	0x204
 5237 1e19 C91D0000 		.4byte	0x1dc9
 5238 1e1d 03       		.byte	0x3
 5239 1e1e 14       		.uleb128 0x14
 5240 1e1f D2310000 		.4byte	.LASF735
 5241 1e23 0E       		.byte	0xe
 5242 1e24 0E02     		.2byte	0x20e
 5243 1e26 AE000000 		.4byte	0xae
 5244 1e2a 04       		.byte	0x4
 5245 1e2b 14       		.uleb128 0x14
 5246 1e2c DD300000 		.4byte	.LASF602
 5247 1e30 0E       		.byte	0xe
 5248 1e31 1102     		.2byte	0x211
 5249 1e33 AE000000 		.4byte	0xae
 5250 1e37 05       		.byte	0x5
 5251 1e38 00       		.byte	0
 5252 1e39 12       		.uleb128 0x12
 5253 1e3a 1E210000 		.4byte	.LASF736
 5254 1e3e 0E       		.byte	0xe
 5255 1e3f 1302     		.2byte	0x213
 5256 1e41 E11D0000 		.4byte	0x1de1
 5257 1e45 13       		.uleb128 0x13
 5258 1e46 10       		.byte	0x10
 5259 1e47 0E       		.byte	0xe
 5260 1e48 D302     		.2byte	0x2d3
 5261 1e4a C41E0000 		.4byte	0x1ec4
 5262 1e4e 14       		.uleb128 0x14
 5263 1e4f 16240000 		.4byte	.LASF737
ARM GAS  C:\Users\Smaug\AppData\Local\Temp\ccVZzAJS.s 			page 128


 5264 1e53 0E       		.byte	0xe
 5265 1e54 D702     		.2byte	0x2d7
 5266 1e56 AE000000 		.4byte	0xae
 5267 1e5a 00       		.byte	0
 5268 1e5b 14       		.uleb128 0x14
 5269 1e5c DD300000 		.4byte	.LASF602
 5270 1e60 0E       		.byte	0xe
 5271 1e61 DA02     		.2byte	0x2da
 5272 1e63 AE000000 		.4byte	0xae
 5273 1e67 01       		.byte	0x1
 5274 1e68 14       		.uleb128 0x14
 5275 1e69 FD060000 		.4byte	.LASF738
 5276 1e6d 0E       		.byte	0xe
 5277 1e6e DE02     		.2byte	0x2de
 5278 1e70 AE000000 		.4byte	0xae
 5279 1e74 02       		.byte	0x2
 5280 1e75 14       		.uleb128 0x14
 5281 1e76 4A150000 		.4byte	.LASF739
 5282 1e7a 0E       		.byte	0xe
 5283 1e7b E302     		.2byte	0x2e3
 5284 1e7d AE000000 		.4byte	0xae
 5285 1e81 03       		.byte	0x3
 5286 1e82 14       		.uleb128 0x14
 5287 1e83 64470000 		.4byte	.LASF740
 5288 1e87 0E       		.byte	0xe
 5289 1e88 E602     		.2byte	0x2e6
 5290 1e8a 8F170000 		.4byte	0x178f
 5291 1e8e 04       		.byte	0x4
 5292 1e8f 14       		.uleb128 0x14
 5293 1e90 74500000 		.4byte	.LASF741
 5294 1e94 0E       		.byte	0xe
 5295 1e95 EC02     		.2byte	0x2ec
 5296 1e97 C4000000 		.4byte	0xc4
 5297 1e9b 08       		.byte	0x8
 5298 1e9c 14       		.uleb128 0x14
 5299 1e9d 8B4E0000 		.4byte	.LASF742
 5300 1ea1 0E       		.byte	0xe
 5301 1ea2 F102     		.2byte	0x2f1
 5302 1ea4 C4000000 		.4byte	0xc4
 5303 1ea8 0A       		.byte	0xa
 5304 1ea9 14       		.uleb128 0x14
 5305 1eaa 42540000 		.4byte	.LASF743
 5306 1eae 0E       		.byte	0xe
 5307 1eaf F702     		.2byte	0x2f7
 5308 1eb1 C4000000 		.4byte	0xc4
 5309 1eb5 0C       		.byte	0xc
 5310 1eb6 14       		.uleb128 0x14
 5311 1eb7 92200000 		.4byte	.LASF744
 5312 1ebb 0E       		.byte	0xe
 5313 1ebc FB02     		.2byte	0x2fb
 5314 1ebe AE000000 		.4byte	0xae
 5315 1ec2 0E       		.byte	0xe
 5316 1ec3 00       		.byte	0
 5317 1ec4 12       		.uleb128 0x12
 5318 1ec5 DB280000 		.4byte	.LASF745
 5319 1ec9 0E       		.byte	0xe
 5320 1eca FD02     		.2byte	0x2fd
ARM GAS  C:\Users\Smaug\AppData\Local\Temp\ccVZzAJS.s 			page 129


 5321 1ecc 451E0000 		.4byte	0x1e45
 5322 1ed0 0E       		.uleb128 0xe
 5323 1ed1 0C       		.byte	0xc
 5324 1ed2 0F       		.byte	0xf
 5325 1ed3 71       		.byte	0x71
 5326 1ed4 391F0000 		.4byte	0x1f39
 5327 1ed8 0B       		.uleb128 0xb
 5328 1ed9 D0210000 		.4byte	.LASF746
 5329 1edd 0F       		.byte	0xf
 5330 1ede 78       		.byte	0x78
 5331 1edf AE000000 		.4byte	0xae
 5332 1ee3 00       		.byte	0
 5333 1ee4 0B       		.uleb128 0xb
 5334 1ee5 3A0E0000 		.4byte	.LASF747
 5335 1ee9 0F       		.byte	0xf
 5336 1eea 7E       		.byte	0x7e
 5337 1eeb AE000000 		.4byte	0xae
 5338 1eef 01       		.byte	0x1
 5339 1ef0 0B       		.uleb128 0xb
 5340 1ef1 9E2E0000 		.4byte	.LASF748
 5341 1ef5 0F       		.byte	0xf
 5342 1ef6 85       		.byte	0x85
 5343 1ef7 C4000000 		.4byte	0xc4
 5344 1efb 02       		.byte	0x2
 5345 1efc 0B       		.uleb128 0xb
 5346 1efd 3D3C0000 		.4byte	.LASF749
 5347 1f01 0F       		.byte	0xf
 5348 1f02 8C       		.byte	0x8c
 5349 1f03 C4000000 		.4byte	0xc4
 5350 1f07 04       		.byte	0x4
 5351 1f08 0B       		.uleb128 0xb
 5352 1f09 2F560000 		.4byte	.LASF750
 5353 1f0d 0F       		.byte	0xf
 5354 1f0e 94       		.byte	0x94
 5355 1f0f AE000000 		.4byte	0xae
 5356 1f13 06       		.byte	0x6
 5357 1f14 0B       		.uleb128 0xb
 5358 1f15 EC530000 		.4byte	.LASF751
 5359 1f19 0F       		.byte	0xf
 5360 1f1a 9C       		.byte	0x9c
 5361 1f1b AE000000 		.4byte	0xae
 5362 1f1f 07       		.byte	0x7
 5363 1f20 0B       		.uleb128 0xb
 5364 1f21 3D430000 		.4byte	.LASF752
 5365 1f25 0F       		.byte	0xf
 5366 1f26 A0       		.byte	0xa0
 5367 1f27 C4000000 		.4byte	0xc4
 5368 1f2b 08       		.byte	0x8
 5369 1f2c 0B       		.uleb128 0xb
 5370 1f2d 31300000 		.4byte	.LASF753
 5371 1f31 0F       		.byte	0xf
 5372 1f32 AA       		.byte	0xaa
 5373 1f33 AE000000 		.4byte	0xae
 5374 1f37 0A       		.byte	0xa
 5375 1f38 00       		.byte	0
 5376 1f39 04       		.uleb128 0x4
 5377 1f3a 25480000 		.4byte	.LASF754
ARM GAS  C:\Users\Smaug\AppData\Local\Temp\ccVZzAJS.s 			page 130


 5378 1f3e 0F       		.byte	0xf
 5379 1f3f AC       		.byte	0xac
 5380 1f40 D01E0000 		.4byte	0x1ed0
 5381 1f44 0F       		.uleb128 0xf
 5382 1f45 01       		.byte	0x1
 5383 1f46 53000000 		.4byte	0x53
 5384 1f4a 10       		.byte	0x10
 5385 1f4b 3E       		.byte	0x3e
 5386 1f4c 6F1F0000 		.4byte	0x1f6f
 5387 1f50 11       		.uleb128 0x11
 5388 1f51 7F320000 		.4byte	.LASF755
 5389 1f55 00       		.byte	0
 5390 1f56 11       		.uleb128 0x11
 5391 1f57 7B3F0000 		.4byte	.LASF756
 5392 1f5b 01       		.byte	0x1
 5393 1f5c 11       		.uleb128 0x11
 5394 1f5d C0190000 		.4byte	.LASF757
 5395 1f61 02       		.byte	0x2
 5396 1f62 11       		.uleb128 0x11
 5397 1f63 49080000 		.4byte	.LASF758
 5398 1f67 03       		.byte	0x3
 5399 1f68 11       		.uleb128 0x11
 5400 1f69 7A190000 		.4byte	.LASF759
 5401 1f6d 04       		.byte	0x4
 5402 1f6e 00       		.byte	0
 5403 1f6f 04       		.uleb128 0x4
 5404 1f70 92430000 		.4byte	.LASF760
 5405 1f74 10       		.byte	0x10
 5406 1f75 4E       		.byte	0x4e
 5407 1f76 441F0000 		.4byte	0x1f44
 5408 1f7a 0E       		.uleb128 0xe
 5409 1f7b 10       		.byte	0x10
 5410 1f7c 10       		.byte	0x10
 5411 1f7d 56       		.byte	0x56
 5412 1f7e E31F0000 		.4byte	0x1fe3
 5413 1f82 0B       		.uleb128 0xb
 5414 1f83 C22C0000 		.4byte	.LASF761
 5415 1f87 10       		.byte	0x10
 5416 1f88 5E       		.byte	0x5e
 5417 1f89 C4000000 		.4byte	0xc4
 5418 1f8d 00       		.byte	0
 5419 1f8e 0B       		.uleb128 0xb
 5420 1f8f 24560000 		.4byte	.LASF762
 5421 1f93 10       		.byte	0x10
 5422 1f94 66       		.byte	0x66
 5423 1f95 C4000000 		.4byte	0xc4
 5424 1f99 02       		.byte	0x2
 5425 1f9a 0B       		.uleb128 0xb
 5426 1f9b B4220000 		.4byte	.LASF763
 5427 1f9f 10       		.byte	0x10
 5428 1fa0 6F       		.byte	0x6f
 5429 1fa1 6F1F0000 		.4byte	0x1f6f
 5430 1fa5 04       		.byte	0x4
 5431 1fa6 0B       		.uleb128 0xb
 5432 1fa7 2F560000 		.4byte	.LASF750
 5433 1fab 10       		.byte	0x10
 5434 1fac 77       		.byte	0x77
ARM GAS  C:\Users\Smaug\AppData\Local\Temp\ccVZzAJS.s 			page 131


 5435 1fad AE000000 		.4byte	0xae
 5436 1fb1 05       		.byte	0x5
 5437 1fb2 0B       		.uleb128 0xb
 5438 1fb3 F62D0000 		.4byte	.LASF764
 5439 1fb7 10       		.byte	0x10
 5440 1fb8 7E       		.byte	0x7e
 5441 1fb9 AE000000 		.4byte	0xae
 5442 1fbd 06       		.byte	0x6
 5443 1fbe 0B       		.uleb128 0xb
 5444 1fbf C5510000 		.4byte	.LASF765
 5445 1fc3 10       		.byte	0x10
 5446 1fc4 84       		.byte	0x84
 5447 1fc5 FC160000 		.4byte	0x16fc
 5448 1fc9 07       		.byte	0x7
 5449 1fca 0B       		.uleb128 0xb
 5450 1fcb DF520000 		.4byte	.LASF766
 5451 1fcf 10       		.byte	0x10
 5452 1fd0 8C       		.byte	0x8c
 5453 1fd1 AE000000 		.4byte	0xae
 5454 1fd5 0D       		.byte	0xd
 5455 1fd6 0B       		.uleb128 0xb
 5456 1fd7 E6300000 		.4byte	.LASF767
 5457 1fdb 10       		.byte	0x10
 5458 1fdc 98       		.byte	0x98
 5459 1fdd AE000000 		.4byte	0xae
 5460 1fe1 0E       		.byte	0xe
 5461 1fe2 00       		.byte	0
 5462 1fe3 04       		.uleb128 0x4
 5463 1fe4 3C0B0000 		.4byte	.LASF768
 5464 1fe8 10       		.byte	0x10
 5465 1fe9 9A       		.byte	0x9a
 5466 1fea 7A1F0000 		.4byte	0x1f7a
 5467 1fee 0E       		.uleb128 0xe
 5468 1fef 20       		.byte	0x20
 5469 1ff0 10       		.byte	0x10
 5470 1ff1 9D       		.byte	0x9d
 5471 1ff2 0F200000 		.4byte	0x200f
 5472 1ff6 0B       		.uleb128 0xb
 5473 1ff7 69550000 		.4byte	.LASF769
 5474 1ffb 10       		.byte	0x10
 5475 1ffc A0       		.byte	0xa0
 5476 1ffd 0F200000 		.4byte	0x200f
 5477 2001 00       		.byte	0
 5478 2002 0B       		.uleb128 0xb
 5479 2003 B2370000 		.4byte	.LASF770
 5480 2007 10       		.byte	0x10
 5481 2008 A3       		.byte	0xa3
 5482 2009 AE000000 		.4byte	0xae
 5483 200d 1F       		.byte	0x1f
 5484 200e 00       		.byte	0
 5485 200f 08       		.uleb128 0x8
 5486 2010 AE000000 		.4byte	0xae
 5487 2014 1F200000 		.4byte	0x201f
 5488 2018 09       		.uleb128 0x9
 5489 2019 9E000000 		.4byte	0x9e
 5490 201d 1E       		.byte	0x1e
 5491 201e 00       		.byte	0
ARM GAS  C:\Users\Smaug\AppData\Local\Temp\ccVZzAJS.s 			page 132


 5492 201f 04       		.uleb128 0x4
 5493 2020 B5230000 		.4byte	.LASF771
 5494 2024 10       		.byte	0x10
 5495 2025 A5       		.byte	0xa5
 5496 2026 EE1F0000 		.4byte	0x1fee
 5497 202a 0E       		.uleb128 0xe
 5498 202b 20       		.byte	0x20
 5499 202c 10       		.byte	0x10
 5500 202d A8       		.byte	0xa8
 5501 202e 4B200000 		.4byte	0x204b
 5502 2032 0B       		.uleb128 0xb
 5503 2033 A0000000 		.4byte	.LASF772
 5504 2037 10       		.byte	0x10
 5505 2038 AC       		.byte	0xac
 5506 2039 0F200000 		.4byte	0x200f
 5507 203d 00       		.byte	0
 5508 203e 0B       		.uleb128 0xb
 5509 203f 16480000 		.4byte	.LASF773
 5510 2043 10       		.byte	0x10
 5511 2044 AF       		.byte	0xaf
 5512 2045 AE000000 		.4byte	0xae
 5513 2049 1F       		.byte	0x1f
 5514 204a 00       		.byte	0
 5515 204b 04       		.uleb128 0x4
 5516 204c CB050000 		.4byte	.LASF774
 5517 2050 10       		.byte	0x10
 5518 2051 B1       		.byte	0xb1
 5519 2052 2A200000 		.4byte	0x202a
 5520 2056 0E       		.uleb128 0xe
 5521 2057 14       		.byte	0x14
 5522 2058 10       		.byte	0x10
 5523 2059 B4       		.byte	0xb4
 5524 205a 9B200000 		.4byte	0x209b
 5525 205e 0B       		.uleb128 0xb
 5526 205f C2050000 		.4byte	.LASF775
 5527 2063 10       		.byte	0x10
 5528 2064 BC       		.byte	0xbc
 5529 2065 AE000000 		.4byte	0xae
 5530 2069 00       		.byte	0
 5531 206a 0B       		.uleb128 0xb
 5532 206b 351B0000 		.4byte	.LASF776
 5533 206f 10       		.byte	0x10
 5534 2070 C1       		.byte	0xc1
 5535 2071 9B200000 		.4byte	0x209b
 5536 2075 04       		.byte	0x4
 5537 2076 0B       		.uleb128 0xb
 5538 2077 69550000 		.4byte	.LASF769
 5539 207b 10       		.byte	0x10
 5540 207c C3       		.byte	0xc3
 5541 207d A1200000 		.4byte	0x20a1
 5542 2081 08       		.byte	0x8
 5543 2082 0B       		.uleb128 0xb
 5544 2083 A0000000 		.4byte	.LASF772
 5545 2087 10       		.byte	0x10
 5546 2088 C5       		.byte	0xc5
 5547 2089 A7200000 		.4byte	0x20a7
 5548 208d 0C       		.byte	0xc
ARM GAS  C:\Users\Smaug\AppData\Local\Temp\ccVZzAJS.s 			page 133


 5549 208e 0B       		.uleb128 0xb
 5550 208f 741B0000 		.4byte	.LASF777
 5551 2093 10       		.byte	0x10
 5552 2094 CF       		.byte	0xcf
 5553 2095 C4000000 		.4byte	0xc4
 5554 2099 10       		.byte	0x10
 5555 209a 00       		.byte	0
 5556 209b 18       		.uleb128 0x18
 5557 209c 04       		.byte	0x4
 5558 209d E31F0000 		.4byte	0x1fe3
 5559 20a1 18       		.uleb128 0x18
 5560 20a2 04       		.byte	0x4
 5561 20a3 1F200000 		.4byte	0x201f
 5562 20a7 18       		.uleb128 0x18
 5563 20a8 04       		.byte	0x4
 5564 20a9 4B200000 		.4byte	0x204b
 5565 20ad 04       		.uleb128 0x4
 5566 20ae F9270000 		.4byte	.LASF778
 5567 20b2 10       		.byte	0x10
 5568 20b3 D1       		.byte	0xd1
 5569 20b4 56200000 		.4byte	0x2056
 5570 20b8 0F       		.uleb128 0xf
 5571 20b9 01       		.byte	0x1
 5572 20ba 53000000 		.4byte	0x53
 5573 20be 02       		.byte	0x2
 5574 20bf 69       		.byte	0x69
 5575 20c0 D7200000 		.4byte	0x20d7
 5576 20c4 11       		.uleb128 0x11
 5577 20c5 DC0E0000 		.4byte	.LASF779
 5578 20c9 00       		.byte	0
 5579 20ca 11       		.uleb128 0x11
 5580 20cb CF390000 		.4byte	.LASF780
 5581 20cf 01       		.byte	0x1
 5582 20d0 11       		.uleb128 0x11
 5583 20d1 8F090000 		.4byte	.LASF781
 5584 20d5 02       		.byte	0x2
 5585 20d6 00       		.byte	0
 5586 20d7 04       		.uleb128 0x4
 5587 20d8 2F050000 		.4byte	.LASF782
 5588 20dc 02       		.byte	0x2
 5589 20dd 70       		.byte	0x70
 5590 20de B8200000 		.4byte	0x20b8
 5591 20e2 0F       		.uleb128 0xf
 5592 20e3 01       		.byte	0x1
 5593 20e4 53000000 		.4byte	0x53
 5594 20e8 02       		.byte	0x2
 5595 20e9 7E       		.byte	0x7e
 5596 20ea 07210000 		.4byte	0x2107
 5597 20ee 11       		.uleb128 0x11
 5598 20ef 40340000 		.4byte	.LASF783
 5599 20f3 00       		.byte	0
 5600 20f4 11       		.uleb128 0x11
 5601 20f5 C40F0000 		.4byte	.LASF784
 5602 20f9 01       		.byte	0x1
 5603 20fa 11       		.uleb128 0x11
 5604 20fb A2040000 		.4byte	.LASF785
 5605 20ff 02       		.byte	0x2
ARM GAS  C:\Users\Smaug\AppData\Local\Temp\ccVZzAJS.s 			page 134


 5606 2100 11       		.uleb128 0x11
 5607 2101 37400000 		.4byte	.LASF786
 5608 2105 03       		.byte	0x3
 5609 2106 00       		.byte	0
 5610 2107 04       		.uleb128 0x4
 5611 2108 20350000 		.4byte	.LASF787
 5612 210c 02       		.byte	0x2
 5613 210d 83       		.byte	0x83
 5614 210e E2200000 		.4byte	0x20e2
 5615 2112 0F       		.uleb128 0xf
 5616 2113 01       		.byte	0x1
 5617 2114 53000000 		.4byte	0x53
 5618 2118 02       		.byte	0x2
 5619 2119 87       		.byte	0x87
 5620 211a 4F210000 		.4byte	0x214f
 5621 211e 11       		.uleb128 0x11
 5622 211f 0A470000 		.4byte	.LASF788
 5623 2123 00       		.byte	0
 5624 2124 11       		.uleb128 0x11
 5625 2125 47310000 		.4byte	.LASF789
 5626 2129 01       		.byte	0x1
 5627 212a 11       		.uleb128 0x11
 5628 212b A7450000 		.4byte	.LASF790
 5629 212f 02       		.byte	0x2
 5630 2130 11       		.uleb128 0x11
 5631 2131 B62E0000 		.4byte	.LASF791
 5632 2135 03       		.byte	0x3
 5633 2136 11       		.uleb128 0x11
 5634 2137 A0330000 		.4byte	.LASF792
 5635 213b 04       		.byte	0x4
 5636 213c 11       		.uleb128 0x11
 5637 213d 0A150000 		.4byte	.LASF793
 5638 2141 05       		.byte	0x5
 5639 2142 11       		.uleb128 0x11
 5640 2143 3B040000 		.4byte	.LASF794
 5641 2147 06       		.byte	0x6
 5642 2148 11       		.uleb128 0x11
 5643 2149 A40C0000 		.4byte	.LASF795
 5644 214d 07       		.byte	0x7
 5645 214e 00       		.byte	0
 5646 214f 04       		.uleb128 0x4
 5647 2150 BD3F0000 		.4byte	.LASF796
 5648 2154 02       		.byte	0x2
 5649 2155 90       		.byte	0x90
 5650 2156 12210000 		.4byte	0x2112
 5651 215a 0E       		.uleb128 0xe
 5652 215b 0C       		.byte	0xc
 5653 215c 02       		.byte	0x2
 5654 215d 93       		.byte	0x93
 5655 215e AB210000 		.4byte	0x21ab
 5656 2162 0B       		.uleb128 0xb
 5657 2163 34540000 		.4byte	.LASF797
 5658 2167 02       		.byte	0x2
 5659 2168 96       		.byte	0x96
 5660 2169 901B0000 		.4byte	0x1b90
 5661 216d 00       		.byte	0
 5662 216e 0B       		.uleb128 0xb
ARM GAS  C:\Users\Smaug\AppData\Local\Temp\ccVZzAJS.s 			page 135


 5663 216f CB370000 		.4byte	.LASF798
 5664 2173 02       		.byte	0x2
 5665 2174 99       		.byte	0x99
 5666 2175 901B0000 		.4byte	0x1b90
 5667 2179 02       		.byte	0x2
 5668 217a 0B       		.uleb128 0xb
 5669 217b B8380000 		.4byte	.LASF799
 5670 217f 02       		.byte	0x2
 5671 2180 9C       		.byte	0x9c
 5672 2181 901B0000 		.4byte	0x1b90
 5673 2185 04       		.byte	0x4
 5674 2186 0B       		.uleb128 0xb
 5675 2187 B5130000 		.4byte	.LASF800
 5676 218b 02       		.byte	0x2
 5677 218c 9F       		.byte	0x9f
 5678 218d 901B0000 		.4byte	0x1b90
 5679 2191 06       		.byte	0x6
 5680 2192 0B       		.uleb128 0xb
 5681 2193 F64A0000 		.4byte	.LASF801
 5682 2197 02       		.byte	0x2
 5683 2198 A2       		.byte	0xa2
 5684 2199 901B0000 		.4byte	0x1b90
 5685 219d 08       		.byte	0x8
 5686 219e 0B       		.uleb128 0xb
 5687 219f F0250000 		.4byte	.LASF802
 5688 21a3 02       		.byte	0x2
 5689 21a4 A5       		.byte	0xa5
 5690 21a5 901B0000 		.4byte	0x1b90
 5691 21a9 0A       		.byte	0xa
 5692 21aa 00       		.byte	0
 5693 21ab 04       		.uleb128 0x4
 5694 21ac 9F0F0000 		.4byte	.LASF803
 5695 21b0 02       		.byte	0x2
 5696 21b1 A6       		.byte	0xa6
 5697 21b2 5A210000 		.4byte	0x215a
 5698 21b6 13       		.uleb128 0x13
 5699 21b7 0E       		.byte	0xe
 5700 21b8 02       		.byte	0x2
 5701 21b9 2B01     		.2byte	0x12b
 5702 21bb 1B220000 		.4byte	0x221b
 5703 21bf 14       		.uleb128 0x14
 5704 21c0 DC4B0000 		.4byte	.LASF804
 5705 21c4 02       		.byte	0x2
 5706 21c5 2E01     		.2byte	0x12e
 5707 21c7 C4000000 		.4byte	0xc4
 5708 21cb 00       		.byte	0
 5709 21cc 14       		.uleb128 0x14
 5710 21cd C1350000 		.4byte	.LASF805
 5711 21d1 02       		.byte	0x2
 5712 21d2 3101     		.2byte	0x131
 5713 21d4 C4000000 		.4byte	0xc4
 5714 21d8 02       		.byte	0x2
 5715 21d9 14       		.uleb128 0x14
 5716 21da 30070000 		.4byte	.LASF806
 5717 21de 02       		.byte	0x2
 5718 21df 3401     		.2byte	0x134
 5719 21e1 C4000000 		.4byte	0xc4
ARM GAS  C:\Users\Smaug\AppData\Local\Temp\ccVZzAJS.s 			page 136


 5720 21e5 04       		.byte	0x4
 5721 21e6 14       		.uleb128 0x14
 5722 21e7 C6530000 		.4byte	.LASF807
 5723 21eb 02       		.byte	0x2
 5724 21ec 3701     		.2byte	0x137
 5725 21ee AE000000 		.4byte	0xae
 5726 21f2 06       		.byte	0x6
 5727 21f3 14       		.uleb128 0x14
 5728 21f4 01230000 		.4byte	.LASF808
 5729 21f8 02       		.byte	0x2
 5730 21f9 3A01     		.2byte	0x13a
 5731 21fb C4000000 		.4byte	0xc4
 5732 21ff 08       		.byte	0x8
 5733 2200 14       		.uleb128 0x14
 5734 2201 C80C0000 		.4byte	.LASF809
 5735 2205 02       		.byte	0x2
 5736 2206 3D01     		.2byte	0x13d
 5737 2208 C4000000 		.4byte	0xc4
 5738 220c 0A       		.byte	0xa
 5739 220d 14       		.uleb128 0x14
 5740 220e 764D0000 		.4byte	.LASF810
 5741 2212 02       		.byte	0x2
 5742 2213 4001     		.2byte	0x140
 5743 2215 C4000000 		.4byte	0xc4
 5744 2219 0C       		.byte	0xc
 5745 221a 00       		.byte	0
 5746 221b 12       		.uleb128 0x12
 5747 221c F8310000 		.4byte	.LASF811
 5748 2220 02       		.byte	0x2
 5749 2221 4101     		.2byte	0x141
 5750 2223 B6210000 		.4byte	0x21b6
 5751 2227 13       		.uleb128 0x13
 5752 2228 16       		.byte	0x16
 5753 2229 02       		.byte	0x2
 5754 222a 4401     		.2byte	0x144
 5755 222c C0220000 		.4byte	0x22c0
 5756 2230 14       		.uleb128 0x14
 5757 2231 914C0000 		.4byte	.LASF812
 5758 2235 02       		.byte	0x2
 5759 2236 4701     		.2byte	0x147
 5760 2238 C4000000 		.4byte	0xc4
 5761 223c 00       		.byte	0
 5762 223d 14       		.uleb128 0x14
 5763 223e 21070000 		.4byte	.LASF813
 5764 2242 02       		.byte	0x2
 5765 2243 4A01     		.2byte	0x14a
 5766 2245 C4000000 		.4byte	0xc4
 5767 2249 02       		.byte	0x2
 5768 224a 14       		.uleb128 0x14
 5769 224b D71B0000 		.4byte	.LASF814
 5770 224f 02       		.byte	0x2
 5771 2250 4D01     		.2byte	0x14d
 5772 2252 C4000000 		.4byte	0xc4
 5773 2256 04       		.byte	0x4
 5774 2257 14       		.uleb128 0x14
 5775 2258 BC110000 		.4byte	.LASF815
 5776 225c 02       		.byte	0x2
ARM GAS  C:\Users\Smaug\AppData\Local\Temp\ccVZzAJS.s 			page 137


 5777 225d 5001     		.2byte	0x150
 5778 225f AE000000 		.4byte	0xae
 5779 2263 06       		.byte	0x6
 5780 2264 14       		.uleb128 0x14
 5781 2265 F3470000 		.4byte	.LASF816
 5782 2269 02       		.byte	0x2
 5783 226a 5301     		.2byte	0x153
 5784 226c C4000000 		.4byte	0xc4
 5785 2270 08       		.byte	0x8
 5786 2271 14       		.uleb128 0x14
 5787 2272 674D0000 		.4byte	.LASF817
 5788 2276 02       		.byte	0x2
 5789 2277 5601     		.2byte	0x156
 5790 2279 C4000000 		.4byte	0xc4
 5791 227d 0A       		.byte	0xa
 5792 227e 14       		.uleb128 0x14
 5793 227f 974E0000 		.4byte	.LASF818
 5794 2283 02       		.byte	0x2
 5795 2284 5901     		.2byte	0x159
 5796 2286 C4000000 		.4byte	0xc4
 5797 228a 0C       		.byte	0xc
 5798 228b 14       		.uleb128 0x14
 5799 228c 32510000 		.4byte	.LASF819
 5800 2290 02       		.byte	0x2
 5801 2291 5C01     		.2byte	0x15c
 5802 2293 C4000000 		.4byte	0xc4
 5803 2297 0E       		.byte	0xe
 5804 2298 14       		.uleb128 0x14
 5805 2299 113B0000 		.4byte	.LASF820
 5806 229d 02       		.byte	0x2
 5807 229e 5F01     		.2byte	0x15f
 5808 22a0 C4000000 		.4byte	0xc4
 5809 22a4 10       		.byte	0x10
 5810 22a5 14       		.uleb128 0x14
 5811 22a6 E2500000 		.4byte	.LASF821
 5812 22aa 02       		.byte	0x2
 5813 22ab 6301     		.2byte	0x163
 5814 22ad C4000000 		.4byte	0xc4
 5815 22b1 12       		.byte	0x12
 5816 22b2 14       		.uleb128 0x14
 5817 22b3 C5290000 		.4byte	.LASF822
 5818 22b7 02       		.byte	0x2
 5819 22b8 6601     		.2byte	0x166
 5820 22ba C4000000 		.4byte	0xc4
 5821 22be 14       		.byte	0x14
 5822 22bf 00       		.byte	0
 5823 22c0 12       		.uleb128 0x12
 5824 22c1 264A0000 		.4byte	.LASF823
 5825 22c5 02       		.byte	0x2
 5826 22c6 6701     		.2byte	0x167
 5827 22c8 27220000 		.4byte	0x2227
 5828 22cc 04       		.uleb128 0x4
 5829 22cd CA4E0000 		.4byte	.LASF824
 5830 22d1 11       		.byte	0x11
 5831 22d2 74       		.byte	0x74
 5832 22d3 5D1C0000 		.4byte	0x1c5d
 5833 22d7 0E       		.uleb128 0xe
ARM GAS  C:\Users\Smaug\AppData\Local\Temp\ccVZzAJS.s 			page 138


 5834 22d8 06       		.byte	0x6
 5835 22d9 11       		.byte	0x11
 5836 22da 7E       		.byte	0x7e
 5837 22db 04230000 		.4byte	0x2304
 5838 22df 0B       		.uleb128 0xb
 5839 22e0 CF410000 		.4byte	.LASF613
 5840 22e4 11       		.byte	0x11
 5841 22e5 81       		.byte	0x81
 5842 22e6 B8180000 		.4byte	0x18b8
 5843 22ea 00       		.byte	0
 5844 22eb 0B       		.uleb128 0xb
 5845 22ec 89300000 		.4byte	.LASF692
 5846 22f0 11       		.byte	0x11
 5847 22f1 84       		.byte	0x84
 5848 22f2 901B0000 		.4byte	0x1b90
 5849 22f6 02       		.byte	0x2
 5850 22f7 0B       		.uleb128 0xb
 5851 22f8 DB290000 		.4byte	.LASF825
 5852 22fc 11       		.byte	0x11
 5853 22fd 8A       		.byte	0x8a
 5854 22fe 841B0000 		.4byte	0x1b84
 5855 2302 04       		.byte	0x4
 5856 2303 00       		.byte	0
 5857 2304 04       		.uleb128 0x4
 5858 2305 12550000 		.4byte	.LASF826
 5859 2309 11       		.byte	0x11
 5860 230a 8C       		.byte	0x8c
 5861 230b D7220000 		.4byte	0x22d7
 5862 230f 0E       		.uleb128 0xe
 5863 2310 08       		.byte	0x8
 5864 2311 12       		.byte	0x12
 5865 2312 D6       		.byte	0xd6
 5866 2313 30230000 		.4byte	0x2330
 5867 2317 0B       		.uleb128 0xb
 5868 2318 2B420000 		.4byte	.LASF827
 5869 231c 12       		.byte	0x12
 5870 231d D9       		.byte	0xd9
 5871 231e C4000000 		.4byte	0xc4
 5872 2322 00       		.byte	0
 5873 2323 0B       		.uleb128 0xb
 5874 2324 FB450000 		.4byte	.LASF828
 5875 2328 12       		.byte	0x12
 5876 2329 DE       		.byte	0xde
 5877 232a A5000000 		.4byte	0xa5
 5878 232e 04       		.byte	0x4
 5879 232f 00       		.byte	0
 5880 2330 04       		.uleb128 0x4
 5881 2331 5E540000 		.4byte	.LASF829
 5882 2335 12       		.byte	0x12
 5883 2336 E0       		.byte	0xe0
 5884 2337 0F230000 		.4byte	0x230f
 5885 233b 0E       		.uleb128 0xe
 5886 233c 08       		.byte	0x8
 5887 233d 12       		.byte	0x12
 5888 233e E3       		.byte	0xe3
 5889 233f 5C230000 		.4byte	0x235c
 5890 2343 0B       		.uleb128 0xb
ARM GAS  C:\Users\Smaug\AppData\Local\Temp\ccVZzAJS.s 			page 139


 5891 2344 DB4D0000 		.4byte	.LASF830
 5892 2348 12       		.byte	0x12
 5893 2349 E6       		.byte	0xe6
 5894 234a C4000000 		.4byte	0xc4
 5895 234e 00       		.byte	0
 5896 234f 0B       		.uleb128 0xb
 5897 2350 A6470000 		.4byte	.LASF831
 5898 2354 12       		.byte	0x12
 5899 2355 EB       		.byte	0xeb
 5900 2356 5C230000 		.4byte	0x235c
 5901 235a 04       		.byte	0x4
 5902 235b 00       		.byte	0
 5903 235c 18       		.uleb128 0x18
 5904 235d 04       		.byte	0x4
 5905 235e 30230000 		.4byte	0x2330
 5906 2362 04       		.uleb128 0x4
 5907 2363 8F170000 		.4byte	.LASF832
 5908 2367 12       		.byte	0x12
 5909 2368 ED       		.byte	0xed
 5910 2369 3B230000 		.4byte	0x233b
 5911 236d 1C       		.uleb128 0x1c
 5912 236e 08       		.byte	0x8
 5913 236f 12       		.byte	0x12
 5914 2370 F0       		.byte	0xf0
 5915 2371 8C230000 		.4byte	0x238c
 5916 2375 1D       		.uleb128 0x1d
 5917 2376 84340000 		.4byte	.LASF833
 5918 237a 12       		.byte	0x12
 5919 237b F6       		.byte	0xf6
 5920 237c 62230000 		.4byte	0x2362
 5921 2380 1D       		.uleb128 0x1d
 5922 2381 98260000 		.4byte	.LASF834
 5923 2385 12       		.byte	0x12
 5924 2386 F9       		.byte	0xf9
 5925 2387 C4000000 		.4byte	0xc4
 5926 238b 00       		.byte	0
 5927 238c 04       		.uleb128 0x4
 5928 238d F9320000 		.4byte	.LASF835
 5929 2391 12       		.byte	0x12
 5930 2392 FB       		.byte	0xfb
 5931 2393 6D230000 		.4byte	0x236d
 5932 2397 0E       		.uleb128 0xe
 5933 2398 14       		.byte	0x14
 5934 2399 12       		.byte	0x12
 5935 239a FE       		.byte	0xfe
 5936 239b E1230000 		.4byte	0x23e1
 5937 239f 14       		.uleb128 0x14
 5938 23a0 57150000 		.4byte	.LASF836
 5939 23a4 12       		.byte	0x12
 5940 23a5 0101     		.2byte	0x101
 5941 23a7 C4000000 		.4byte	0xc4
 5942 23ab 00       		.byte	0
 5943 23ac 14       		.uleb128 0x14
 5944 23ad E30F0000 		.4byte	.LASF837
 5945 23b1 12       		.byte	0x12
 5946 23b2 0701     		.2byte	0x107
 5947 23b4 C4000000 		.4byte	0xc4
ARM GAS  C:\Users\Smaug\AppData\Local\Temp\ccVZzAJS.s 			page 140


 5948 23b8 02       		.byte	0x2
 5949 23b9 14       		.uleb128 0x14
 5950 23ba FF070000 		.4byte	.LASF838
 5951 23be 12       		.byte	0x12
 5952 23bf 1501     		.2byte	0x115
 5953 23c1 CF000000 		.4byte	0xcf
 5954 23c5 04       		.byte	0x4
 5955 23c6 14       		.uleb128 0x14
 5956 23c7 832B0000 		.4byte	.LASF839
 5957 23cb 12       		.byte	0x12
 5958 23cc 1801     		.2byte	0x118
 5959 23ce C4000000 		.4byte	0xc4
 5960 23d2 08       		.byte	0x8
 5961 23d3 14       		.uleb128 0x14
 5962 23d4 88370000 		.4byte	.LASF840
 5963 23d8 12       		.byte	0x12
 5964 23d9 2101     		.2byte	0x121
 5965 23db 8C230000 		.4byte	0x238c
 5966 23df 0C       		.byte	0xc
 5967 23e0 00       		.byte	0
 5968 23e1 12       		.uleb128 0x12
 5969 23e2 83140000 		.4byte	.LASF841
 5970 23e6 12       		.byte	0x12
 5971 23e7 2301     		.2byte	0x123
 5972 23e9 97230000 		.4byte	0x2397
 5973 23ed 18       		.uleb128 0x18
 5974 23ee 04       		.byte	0x4
 5975 23ef F3230000 		.4byte	0x23f3
 5976 23f3 07       		.uleb128 0x7
 5977 23f4 E1230000 		.4byte	0x23e1
 5978 23f8 0E       		.uleb128 0xe
 5979 23f9 06       		.byte	0x6
 5980 23fa 13       		.byte	0x13
 5981 23fb 87       		.byte	0x87
 5982 23fc 25240000 		.4byte	0x2425
 5983 2400 0B       		.uleb128 0xb
 5984 2401 34540000 		.4byte	.LASF797
 5985 2405 13       		.byte	0x13
 5986 2406 89       		.byte	0x89
 5987 2407 901B0000 		.4byte	0x1b90
 5988 240b 00       		.byte	0
 5989 240c 0B       		.uleb128 0xb
 5990 240d 9D400000 		.4byte	.LASF842
 5991 2411 13       		.byte	0x13
 5992 2412 8A       		.byte	0x8a
 5993 2413 901B0000 		.4byte	0x1b90
 5994 2417 02       		.byte	0x2
 5995 2418 0B       		.uleb128 0xb
 5996 2419 ED520000 		.4byte	.LASF843
 5997 241d 13       		.byte	0x13
 5998 241e 8B       		.byte	0x8b
 5999 241f 901B0000 		.4byte	0x1b90
 6000 2423 04       		.byte	0x4
 6001 2424 00       		.byte	0
 6002 2425 04       		.uleb128 0x4
 6003 2426 9F4F0000 		.4byte	.LASF844
 6004 242a 13       		.byte	0x13
ARM GAS  C:\Users\Smaug\AppData\Local\Temp\ccVZzAJS.s 			page 141


 6005 242b 8C       		.byte	0x8c
 6006 242c F8230000 		.4byte	0x23f8
 6007 2430 0E       		.uleb128 0xe
 6008 2431 02       		.byte	0x2
 6009 2432 14       		.byte	0x14
 6010 2433 C5       		.byte	0xc5
 6011 2434 51240000 		.4byte	0x2451
 6012 2438 0B       		.uleb128 0xb
 6013 2439 241D0000 		.4byte	.LASF845
 6014 243d 14       		.byte	0x14
 6015 243e D8       		.byte	0xd8
 6016 243f AE000000 		.4byte	0xae
 6017 2443 00       		.byte	0
 6018 2444 0B       		.uleb128 0xb
 6019 2445 DD300000 		.4byte	.LASF602
 6020 2449 14       		.byte	0x14
 6021 244a DB       		.byte	0xdb
 6022 244b AE000000 		.4byte	0xae
 6023 244f 01       		.byte	0x1
 6024 2450 00       		.byte	0
 6025 2451 04       		.uleb128 0x4
 6026 2452 FD500000 		.4byte	.LASF846
 6027 2456 14       		.byte	0x14
 6028 2457 DD       		.byte	0xdd
 6029 2458 30240000 		.4byte	0x2430
 6030 245c 04       		.uleb128 0x4
 6031 245d A14B0000 		.4byte	.LASF847
 6032 2461 15       		.byte	0x15
 6033 2462 40       		.byte	0x40
 6034 2463 67240000 		.4byte	0x2467
 6035 2467 18       		.uleb128 0x18
 6036 2468 04       		.byte	0x4
 6037 2469 6D240000 		.4byte	0x246d
 6038 246d 1E       		.uleb128 0x1e
 6039 246e 7D240000 		.4byte	0x247d
 6040 2472 1F       		.uleb128 0x1f
 6041 2473 CF000000 		.4byte	0xcf
 6042 2477 1F       		.uleb128 0x1f
 6043 2478 A5000000 		.4byte	0xa5
 6044 247c 00       		.byte	0
 6045 247d 03       		.uleb128 0x3
 6046 247e 01       		.byte	0x1
 6047 247f 02       		.byte	0x2
 6048 2480 D0160000 		.4byte	.LASF848
 6049 2484 13       		.uleb128 0x13
 6050 2485 31       		.byte	0x31
 6051 2486 15       		.byte	0x15
 6052 2487 DE01     		.2byte	0x1de
 6053 2489 C2240000 		.4byte	0x24c2
 6054 248d 14       		.uleb128 0x14
 6055 248e BB200000 		.4byte	.LASF849
 6056 2492 15       		.byte	0x15
 6057 2493 E101     		.2byte	0x1e1
 6058 2495 C2240000 		.4byte	0x24c2
 6059 2499 00       		.byte	0
 6060 249a 14       		.uleb128 0x14
 6061 249b 271F0000 		.4byte	.LASF850
ARM GAS  C:\Users\Smaug\AppData\Local\Temp\ccVZzAJS.s 			page 142


 6062 249f 15       		.byte	0x15
 6063 24a0 E401     		.2byte	0x1e4
 6064 24a2 D2240000 		.4byte	0x24d2
 6065 24a6 2A       		.byte	0x2a
 6066 24a7 14       		.uleb128 0x14
 6067 24a8 724A0000 		.4byte	.LASF851
 6068 24ac 15       		.byte	0x15
 6069 24ad E701     		.2byte	0x1e7
 6070 24af AE000000 		.4byte	0xae
 6071 24b3 2F       		.byte	0x2f
 6072 24b4 14       		.uleb128 0x14
 6073 24b5 4B1D0000 		.4byte	.LASF852
 6074 24b9 15       		.byte	0x15
 6075 24ba EA01     		.2byte	0x1ea
 6076 24bc AE000000 		.4byte	0xae
 6077 24c0 30       		.byte	0x30
 6078 24c1 00       		.byte	0
 6079 24c2 08       		.uleb128 0x8
 6080 24c3 AE000000 		.4byte	0xae
 6081 24c7 D2240000 		.4byte	0x24d2
 6082 24cb 09       		.uleb128 0x9
 6083 24cc 9E000000 		.4byte	0x9e
 6084 24d0 29       		.byte	0x29
 6085 24d1 00       		.byte	0
 6086 24d2 08       		.uleb128 0x8
 6087 24d3 AE000000 		.4byte	0xae
 6088 24d7 E8240000 		.4byte	0x24e8
 6089 24db 09       		.uleb128 0x9
 6090 24dc 9E000000 		.4byte	0x9e
 6091 24e0 00       		.byte	0
 6092 24e1 09       		.uleb128 0x9
 6093 24e2 9E000000 		.4byte	0x9e
 6094 24e6 04       		.byte	0x4
 6095 24e7 00       		.byte	0
 6096 24e8 12       		.uleb128 0x12
 6097 24e9 0B0E0000 		.4byte	.LASF853
 6098 24ed 15       		.byte	0x15
 6099 24ee EB01     		.2byte	0x1eb
 6100 24f0 84240000 		.4byte	0x2484
 6101 24f4 13       		.uleb128 0x13
 6102 24f5 08       		.byte	0x8
 6103 24f6 15       		.byte	0x15
 6104 24f7 EE01     		.2byte	0x1ee
 6105 24f9 4C250000 		.4byte	0x254c
 6106 24fd 14       		.uleb128 0x14
 6107 24fe 662F0000 		.4byte	.LASF854
 6108 2502 15       		.byte	0x15
 6109 2503 F101     		.2byte	0x1f1
 6110 2505 C7170000 		.4byte	0x17c7
 6111 2509 00       		.byte	0
 6112 250a 14       		.uleb128 0x14
 6113 250b D6000000 		.4byte	.LASF855
 6114 250f 15       		.byte	0x15
 6115 2510 F401     		.2byte	0x1f4
 6116 2512 C7170000 		.4byte	0x17c7
 6117 2516 01       		.byte	0x1
 6118 2517 14       		.uleb128 0x14
ARM GAS  C:\Users\Smaug\AppData\Local\Temp\ccVZzAJS.s 			page 143


 6119 2518 713C0000 		.4byte	.LASF856
 6120 251c 15       		.byte	0x15
 6121 251d F701     		.2byte	0x1f7
 6122 251f 4B1D0000 		.4byte	0x1d4b
 6123 2523 02       		.byte	0x2
 6124 2524 14       		.uleb128 0x14
 6125 2525 624F0000 		.4byte	.LASF857
 6126 2529 15       		.byte	0x15
 6127 252a FA01     		.2byte	0x1fa
 6128 252c AE000000 		.4byte	0xae
 6129 2530 03       		.byte	0x3
 6130 2531 14       		.uleb128 0x14
 6131 2532 7C050000 		.4byte	.LASF858
 6132 2536 15       		.byte	0x15
 6133 2537 FD01     		.2byte	0x1fd
 6134 2539 AE000000 		.4byte	0xae
 6135 253d 04       		.byte	0x4
 6136 253e 14       		.uleb128 0x14
 6137 253f 00410000 		.4byte	.LASF859
 6138 2543 15       		.byte	0x15
 6139 2544 0002     		.2byte	0x200
 6140 2546 C4000000 		.4byte	0xc4
 6141 254a 06       		.byte	0x6
 6142 254b 00       		.byte	0
 6143 254c 12       		.uleb128 0x12
 6144 254d A6320000 		.4byte	.LASF860
 6145 2551 15       		.byte	0x15
 6146 2552 0102     		.2byte	0x201
 6147 2554 F4240000 		.4byte	0x24f4
 6148 2558 13       		.uleb128 0x13
 6149 2559 3C       		.byte	0x3c
 6150 255a 15       		.byte	0x15
 6151 255b 0502     		.2byte	0x205
 6152 255d 25260000 		.4byte	0x2625
 6153 2561 14       		.uleb128 0x14
 6154 2562 71090000 		.4byte	.LASF861
 6155 2566 15       		.byte	0x15
 6156 2567 0902     		.2byte	0x209
 6157 2569 25260000 		.4byte	0x2625
 6158 256d 00       		.byte	0
 6159 256e 14       		.uleb128 0x14
 6160 256f 503E0000 		.4byte	.LASF862
 6161 2573 15       		.byte	0x15
 6162 2574 0C02     		.2byte	0x20c
 6163 2576 2B260000 		.4byte	0x262b
 6164 257a 04       		.byte	0x4
 6165 257b 14       		.uleb128 0x14
 6166 257c 7F350000 		.4byte	.LASF863
 6167 2580 15       		.byte	0x15
 6168 2581 0F02     		.2byte	0x20f
 6169 2583 31260000 		.4byte	0x2631
 6170 2587 08       		.byte	0x8
 6171 2588 14       		.uleb128 0x14
 6172 2589 F14E0000 		.4byte	.LASF864
 6173 258d 15       		.byte	0x15
 6174 258e 1202     		.2byte	0x212
 6175 2590 37260000 		.4byte	0x2637
ARM GAS  C:\Users\Smaug\AppData\Local\Temp\ccVZzAJS.s 			page 144


 6176 2594 0C       		.byte	0xc
 6177 2595 14       		.uleb128 0x14
 6178 2596 94300000 		.4byte	.LASF865
 6179 259a 15       		.byte	0x15
 6180 259b 1502     		.2byte	0x215
 6181 259d 3D260000 		.4byte	0x263d
 6182 25a1 10       		.byte	0x10
 6183 25a2 14       		.uleb128 0x14
 6184 25a3 E1490000 		.4byte	.LASF866
 6185 25a7 15       		.byte	0x15
 6186 25a8 1802     		.2byte	0x218
 6187 25aa 48260000 		.4byte	0x2648
 6188 25ae 14       		.byte	0x14
 6189 25af 14       		.uleb128 0x14
 6190 25b0 FE1F0000 		.4byte	.LASF867
 6191 25b4 15       		.byte	0x15
 6192 25b5 1B02     		.2byte	0x21b
 6193 25b7 53260000 		.4byte	0x2653
 6194 25bb 18       		.byte	0x18
 6195 25bc 14       		.uleb128 0x14
 6196 25bd 78310000 		.4byte	.LASF868
 6197 25c1 15       		.byte	0x15
 6198 25c2 1E02     		.2byte	0x21e
 6199 25c4 8F170000 		.4byte	0x178f
 6200 25c8 1C       		.byte	0x1c
 6201 25c9 14       		.uleb128 0x14
 6202 25ca 66380000 		.4byte	.LASF869
 6203 25ce 15       		.byte	0x15
 6204 25cf 2102     		.2byte	0x221
 6205 25d1 ED230000 		.4byte	0x23ed
 6206 25d5 20       		.byte	0x20
 6207 25d6 14       		.uleb128 0x14
 6208 25d7 0D220000 		.4byte	.LASF870
 6209 25db 15       		.byte	0x15
 6210 25dc 2402     		.2byte	0x224
 6211 25de 5E260000 		.4byte	0x265e
 6212 25e2 24       		.byte	0x24
 6213 25e3 14       		.uleb128 0x14
 6214 25e4 093D0000 		.4byte	.LASF871
 6215 25e8 15       		.byte	0x15
 6216 25e9 2702     		.2byte	0x227
 6217 25eb 64260000 		.4byte	0x2664
 6218 25ef 28       		.byte	0x28
 6219 25f0 14       		.uleb128 0x14
 6220 25f1 64090000 		.4byte	.LASF872
 6221 25f5 15       		.byte	0x15
 6222 25f6 2B02     		.2byte	0x22b
 6223 25f8 5C240000 		.4byte	0x245c
 6224 25fc 2C       		.byte	0x2c
 6225 25fd 14       		.uleb128 0x14
 6226 25fe AE490000 		.4byte	.LASF873
 6227 2602 15       		.byte	0x15
 6228 2603 2E02     		.2byte	0x22e
 6229 2605 6F260000 		.4byte	0x266f
 6230 2609 30       		.byte	0x30
 6231 260a 14       		.uleb128 0x14
 6232 260b E4540000 		.4byte	.LASF874
ARM GAS  C:\Users\Smaug\AppData\Local\Temp\ccVZzAJS.s 			page 145


 6233 260f 15       		.byte	0x15
 6234 2610 3202     		.2byte	0x232
 6235 2612 75260000 		.4byte	0x2675
 6236 2616 34       		.byte	0x34
 6237 2617 14       		.uleb128 0x14
 6238 2618 83090000 		.4byte	.LASF875
 6239 261c 15       		.byte	0x15
 6240 261d 3502     		.2byte	0x235
 6241 261f 80260000 		.4byte	0x2680
 6242 2623 38       		.byte	0x38
 6243 2624 00       		.byte	0
 6244 2625 18       		.uleb128 0x18
 6245 2626 04       		.byte	0x4
 6246 2627 AD200000 		.4byte	0x20ad
 6247 262b 18       		.uleb128 0x18
 6248 262c 04       		.byte	0x4
 6249 262d 1B220000 		.4byte	0x221b
 6250 2631 18       		.uleb128 0x18
 6251 2632 04       		.byte	0x4
 6252 2633 391F0000 		.4byte	0x1f39
 6253 2637 18       		.uleb128 0x18
 6254 2638 04       		.byte	0x4
 6255 2639 C0220000 		.4byte	0x22c0
 6256 263d 18       		.uleb128 0x18
 6257 263e 04       		.byte	0x4
 6258 263f 43260000 		.4byte	0x2643
 6259 2643 07       		.uleb128 0x7
 6260 2644 E8240000 		.4byte	0x24e8
 6261 2648 18       		.uleb128 0x18
 6262 2649 04       		.byte	0x4
 6263 264a 4E260000 		.4byte	0x264e
 6264 264e 07       		.uleb128 0x7
 6265 264f 25240000 		.4byte	0x2425
 6266 2653 18       		.uleb128 0x18
 6267 2654 04       		.byte	0x4
 6268 2655 59260000 		.4byte	0x2659
 6269 2659 07       		.uleb128 0x7
 6270 265a AB210000 		.4byte	0x21ab
 6271 265e 18       		.uleb128 0x18
 6272 265f 04       		.byte	0x4
 6273 2660 391E0000 		.4byte	0x1e39
 6274 2664 18       		.uleb128 0x18
 6275 2665 04       		.byte	0x4
 6276 2666 6A260000 		.4byte	0x266a
 6277 266a 07       		.uleb128 0x7
 6278 266b 4C250000 		.4byte	0x254c
 6279 266f 18       		.uleb128 0x18
 6280 2670 04       		.byte	0x4
 6281 2671 D51D0000 		.4byte	0x1dd5
 6282 2675 18       		.uleb128 0x18
 6283 2676 04       		.byte	0x4
 6284 2677 7B260000 		.4byte	0x267b
 6285 267b 07       		.uleb128 0x7
 6286 267c 5B120000 		.4byte	0x125b
 6287 2680 18       		.uleb128 0x18
 6288 2681 04       		.byte	0x4
 6289 2682 83170000 		.4byte	0x1783
ARM GAS  C:\Users\Smaug\AppData\Local\Temp\ccVZzAJS.s 			page 146


 6290 2686 12       		.uleb128 0x12
 6291 2687 7A3B0000 		.4byte	.LASF876
 6292 268b 15       		.byte	0x15
 6293 268c 4C02     		.2byte	0x24c
 6294 268e 58250000 		.4byte	0x2558
 6295 2692 12       		.uleb128 0x12
 6296 2693 B8270000 		.4byte	.LASF877
 6297 2697 16       		.byte	0x16
 6298 2698 4709     		.2byte	0x947
 6299 269a 9E260000 		.4byte	0x269e
 6300 269e 18       		.uleb128 0x18
 6301 269f 04       		.byte	0x4
 6302 26a0 A4260000 		.4byte	0x26a4
 6303 26a4 20       		.uleb128 0x20
 6304 26a5 841B0000 		.4byte	0x1b84
 6305 26a9 B8260000 		.4byte	0x26b8
 6306 26ad 1F       		.uleb128 0x1f
 6307 26ae CF000000 		.4byte	0xcf
 6308 26b2 1F       		.uleb128 0x1f
 6309 26b3 A5000000 		.4byte	0xa5
 6310 26b7 00       		.byte	0
 6311 26b8 13       		.uleb128 0x13
 6312 26b9 08       		.byte	0x8
 6313 26ba 16       		.byte	0x16
 6314 26bb 4A09     		.2byte	0x94a
 6315 26bd DC260000 		.4byte	0x26dc
 6316 26c1 14       		.uleb128 0x14
 6317 26c2 C1540000 		.4byte	.LASF878
 6318 26c6 16       		.byte	0x16
 6319 26c7 4D09     		.2byte	0x94d
 6320 26c9 DC260000 		.4byte	0x26dc
 6321 26cd 00       		.byte	0
 6322 26ce 14       		.uleb128 0x14
 6323 26cf C33B0000 		.4byte	.LASF879
 6324 26d3 16       		.byte	0x16
 6325 26d4 5009     		.2byte	0x950
 6326 26d6 AE000000 		.4byte	0xae
 6327 26da 04       		.byte	0x4
 6328 26db 00       		.byte	0
 6329 26dc 08       		.uleb128 0x8
 6330 26dd 92260000 		.4byte	0x2692
 6331 26e1 EC260000 		.4byte	0x26ec
 6332 26e5 09       		.uleb128 0x9
 6333 26e6 9E000000 		.4byte	0x9e
 6334 26ea 00       		.byte	0
 6335 26eb 00       		.byte	0
 6336 26ec 12       		.uleb128 0x12
 6337 26ed A23E0000 		.4byte	.LASF880
 6338 26f1 16       		.byte	0x16
 6339 26f2 5109     		.2byte	0x951
 6340 26f4 B8260000 		.4byte	0x26b8
 6341 26f8 21       		.uleb128 0x21
 6342 26f9 6A340000 		.4byte	.LASF895
 6343 26fd 02       		.byte	0x2
 6344 26fe 6C03     		.2byte	0x36c
 6345 2700 4F210000 		.4byte	0x214f
 6346 2704 03       		.byte	0x3
ARM GAS  C:\Users\Smaug\AppData\Local\Temp\ccVZzAJS.s 			page 147


 6347 2705 16270000 		.4byte	0x2716
 6348 2709 22       		.uleb128 0x22
 6349 270a CF410000 		.4byte	.LASF613
 6350 270e 02       		.byte	0x2
 6351 270f 6C03     		.2byte	0x36c
 6352 2711 B8180000 		.4byte	0x18b8
 6353 2715 00       		.byte	0
 6354 2716 23       		.uleb128 0x23
 6355 2717 AB2A0000 		.4byte	.LASF882
 6356 271b 02       		.byte	0x2
 6357 271c F902     		.2byte	0x2f9
 6358 271e 03       		.byte	0x3
 6359 271f 30270000 		.4byte	0x2730
 6360 2723 22       		.uleb128 0x22
 6361 2724 AE060000 		.4byte	.LASF881
 6362 2728 02       		.byte	0x2
 6363 2729 F902     		.2byte	0x2f9
 6364 272b 07210000 		.4byte	0x2107
 6365 272f 00       		.byte	0
 6366 2730 24       		.uleb128 0x24
 6367 2731 7A1B0000 		.4byte	.LASF946
 6368 2735 02       		.byte	0x2
 6369 2736 E702     		.2byte	0x2e7
 6370 2738 07210000 		.4byte	0x2107
 6371 273c 03       		.byte	0x3
 6372 273d 23       		.uleb128 0x23
 6373 273e 8C470000 		.4byte	.LASF883
 6374 2742 02       		.byte	0x2
 6375 2743 7C03     		.2byte	0x37c
 6376 2745 03       		.byte	0x3
 6377 2746 63270000 		.4byte	0x2763
 6378 274a 22       		.uleb128 0x22
 6379 274b CF410000 		.4byte	.LASF613
 6380 274f 02       		.byte	0x2
 6381 2750 7C03     		.2byte	0x37c
 6382 2752 B8180000 		.4byte	0x18b8
 6383 2756 22       		.uleb128 0x22
 6384 2757 AE060000 		.4byte	.LASF881
 6385 275b 02       		.byte	0x2
 6386 275c 7D03     		.2byte	0x37d
 6387 275e 4F210000 		.4byte	0x214f
 6388 2762 00       		.byte	0
 6389 2763 25       		.uleb128 0x25
 6390 2764 E03B0000 		.4byte	.LASF947
 6391 2768 01       		.byte	0x1
 6392 2769 A7       		.byte	0xa7
 6393 276a 00000000 		.4byte	.LFB169
 6394 276e 44000000 		.4byte	.LFE169-.LFB169
 6395 2772 01       		.uleb128 0x1
 6396 2773 9C       		.byte	0x9c
 6397 2774 E0270000 		.4byte	0x27e0
 6398 2778 26       		.uleb128 0x26
 6399 2779 45030000 		.4byte	.LASF884
 6400 277d 01       		.byte	0x1
 6401 277e A7       		.byte	0xa7
 6402 277f E0270000 		.4byte	0x27e0
 6403 2783 00000000 		.4byte	.LLST0
ARM GAS  C:\Users\Smaug\AppData\Local\Temp\ccVZzAJS.s 			page 148


 6404 2787 26       		.uleb128 0x26
 6405 2788 B24F0000 		.4byte	.LASF885
 6406 278c 01       		.byte	0x1
 6407 278d A8       		.byte	0xa8
 6408 278e 841B0000 		.4byte	0x1b84
 6409 2792 2C000000 		.4byte	.LLST1
 6410 2796 27       		.uleb128 0x27
 6411 2797 74420000 		.4byte	.LASF887
 6412 279b 01       		.byte	0x1
 6413 279c AA       		.byte	0xaa
 6414 279d CA1C0000 		.4byte	0x1cca
 6415 27a1 02       		.uleb128 0x2
 6416 27a2 91       		.byte	0x91
 6417 27a3 68       		.sleb128 -24
 6418 27a4 28       		.uleb128 0x28
 6419 27a5 12000000 		.4byte	.LVL3
 6420 27a9 D3320000 		.4byte	0x32d3
 6421 27ad C2270000 		.4byte	0x27c2
 6422 27b1 29       		.uleb128 0x29
 6423 27b2 01       		.uleb128 0x1
 6424 27b3 50       		.byte	0x50
 6425 27b4 02       		.uleb128 0x2
 6426 27b5 7D       		.byte	0x7d
 6427 27b6 00       		.sleb128 0
 6428 27b7 29       		.uleb128 0x29
 6429 27b8 01       		.uleb128 0x1
 6430 27b9 51       		.byte	0x51
 6431 27ba 01       		.uleb128 0x1
 6432 27bb 30       		.byte	0x30
 6433 27bc 29       		.uleb128 0x29
 6434 27bd 01       		.uleb128 0x1
 6435 27be 52       		.byte	0x52
 6436 27bf 01       		.uleb128 0x1
 6437 27c0 36       		.byte	0x36
 6438 27c1 00       		.byte	0
 6439 27c2 28       		.uleb128 0x28
 6440 27c3 34000000 		.4byte	.LVL4
 6441 27c7 DC320000 		.4byte	0x32dc
 6442 27cb D6270000 		.4byte	0x27d6
 6443 27cf 29       		.uleb128 0x29
 6444 27d0 01       		.uleb128 0x1
 6445 27d1 50       		.byte	0x50
 6446 27d2 02       		.uleb128 0x2
 6447 27d3 7D       		.byte	0x7d
 6448 27d4 00       		.sleb128 0
 6449 27d5 00       		.byte	0
 6450 27d6 2A       		.uleb128 0x2a
 6451 27d7 3C000000 		.4byte	.LVL5
 6452 27db E8320000 		.4byte	0x32e8
 6453 27df 00       		.byte	0
 6454 27e0 18       		.uleb128 0x18
 6455 27e1 04       		.byte	0x4
 6456 27e2 E6270000 		.4byte	0x27e6
 6457 27e6 07       		.uleb128 0x7
 6458 27e7 CC220000 		.4byte	0x22cc
 6459 27eb 2B       		.uleb128 0x2b
 6460 27ec 1E2B0000 		.4byte	.LASF890
ARM GAS  C:\Users\Smaug\AppData\Local\Temp\ccVZzAJS.s 			page 149


 6461 27f0 01       		.byte	0x1
 6462 27f1 55       		.byte	0x55
 6463 27f2 CC160000 		.4byte	0x16cc
 6464 27f6 00000000 		.4byte	.LFB167
 6465 27fa 60000000 		.4byte	.LFE167-.LFB167
 6466 27fe 01       		.uleb128 0x1
 6467 27ff 9C       		.byte	0x9c
 6468 2800 47280000 		.4byte	0x2847
 6469 2804 26       		.uleb128 0x26
 6470 2805 810D0000 		.4byte	.LASF886
 6471 2809 01       		.byte	0x1
 6472 280a 55       		.byte	0x55
 6473 280b 92260000 		.4byte	0x2692
 6474 280f 4D000000 		.4byte	.LLST2
 6475 2813 2C       		.uleb128 0x2c
 6476 2814 13440000 		.4byte	.LASF888
 6477 2818 01       		.byte	0x1
 6478 2819 57       		.byte	0x57
 6479 281a CC160000 		.4byte	0x16cc
 6480 281e 6E000000 		.4byte	.LLST3
 6481 2822 2C       		.uleb128 0x2c
 6482 2823 C04E0000 		.4byte	.LASF889
 6483 2827 01       		.byte	0x1
 6484 2828 58       		.byte	0x58
 6485 2829 AE000000 		.4byte	0xae
 6486 282d 8D000000 		.4byte	.LLST4
 6487 2831 2D       		.uleb128 0x2d
 6488 2832 00000000 		.4byte	.Ldebug_ranges0+0
 6489 2836 2E       		.uleb128 0x2e
 6490 2837 69647800 		.ascii	"idx\000"
 6491 283b 01       		.byte	0x1
 6492 283c 61       		.byte	0x61
 6493 283d CF000000 		.4byte	0xcf
 6494 2841 CE000000 		.4byte	.LLST5
 6495 2845 00       		.byte	0
 6496 2846 00       		.byte	0
 6497 2847 2B       		.uleb128 0x2b
 6498 2848 590F0000 		.4byte	.LASF891
 6499 284c 01       		.byte	0x1
 6500 284d 88       		.byte	0x88
 6501 284e 841B0000 		.4byte	0x1b84
 6502 2852 00000000 		.4byte	.LFB168
 6503 2856 34000000 		.4byte	.LFE168-.LFB168
 6504 285a 01       		.uleb128 0x1
 6505 285b 9C       		.byte	0x9c
 6506 285c AF280000 		.4byte	0x28af
 6507 2860 26       		.uleb128 0x26
 6508 2861 004E0000 		.4byte	.LASF892
 6509 2865 01       		.byte	0x1
 6510 2866 88       		.byte	0x88
 6511 2867 CF000000 		.4byte	0xcf
 6512 286b EC000000 		.4byte	.LLST6
 6513 286f 26       		.uleb128 0x26
 6514 2870 45030000 		.4byte	.LASF884
 6515 2874 01       		.byte	0x1
 6516 2875 89       		.byte	0x89
 6517 2876 A5000000 		.4byte	0xa5
ARM GAS  C:\Users\Smaug\AppData\Local\Temp\ccVZzAJS.s 			page 150


 6518 287a 18010000 		.4byte	.LLST7
 6519 287e 2E       		.uleb128 0x2e
 6520 287f 69647800 		.ascii	"idx\000"
 6521 2883 01       		.byte	0x1
 6522 2884 8B       		.byte	0x8b
 6523 2885 CF000000 		.4byte	0xcf
 6524 2889 44010000 		.4byte	.LLST8
 6525 288d 2C       		.uleb128 0x2c
 6526 288e B24F0000 		.4byte	.LASF885
 6527 2892 01       		.byte	0x1
 6528 2893 8C       		.byte	0x8c
 6529 2894 841B0000 		.4byte	0x1b84
 6530 2898 63010000 		.4byte	.LLST9
 6531 289c 2F       		.uleb128 0x2f
 6532 289d 18000000 		.4byte	.LVL25
 6533 28a1 29       		.uleb128 0x29
 6534 28a2 01       		.uleb128 0x1
 6535 28a3 50       		.byte	0x50
 6536 28a4 02       		.uleb128 0x2
 6537 28a5 76       		.byte	0x76
 6538 28a6 00       		.sleb128 0
 6539 28a7 29       		.uleb128 0x29
 6540 28a8 01       		.uleb128 0x1
 6541 28a9 51       		.byte	0x51
 6542 28aa 02       		.uleb128 0x2
 6543 28ab 75       		.byte	0x75
 6544 28ac 00       		.sleb128 0
 6545 28ad 00       		.byte	0
 6546 28ae 00       		.byte	0
 6547 28af 30       		.uleb128 0x30
 6548 28b0 B4210000 		.4byte	.LASF893
 6549 28b4 01       		.byte	0x1
 6550 28b5 1401     		.2byte	0x114
 6551 28b7 AE000000 		.4byte	0xae
 6552 28bb 00000000 		.4byte	.LFB171
 6553 28bf 22000000 		.4byte	.LFE171-.LFB171
 6554 28c3 01       		.uleb128 0x1
 6555 28c4 9C       		.byte	0x9c
 6556 28c5 F8280000 		.4byte	0x28f8
 6557 28c9 31       		.uleb128 0x31
 6558 28ca AE490000 		.4byte	.LASF873
 6559 28ce 01       		.byte	0x1
 6560 28cf 1401     		.2byte	0x114
 6561 28d1 F8280000 		.4byte	0x28f8
 6562 28d5 8D010000 		.4byte	.LLST10
 6563 28d9 32       		.uleb128 0x32
 6564 28da 5B060000 		.4byte	.LASF894
 6565 28de 01       		.byte	0x1
 6566 28df 1601     		.2byte	0x116
 6567 28e1 AE000000 		.4byte	0xae
 6568 28e5 E0010000 		.4byte	.LLST11
 6569 28e9 33       		.uleb128 0x33
 6570 28ea 6900     		.ascii	"i\000"
 6571 28ec 01       		.byte	0x1
 6572 28ed 1701     		.2byte	0x117
 6573 28ef CF000000 		.4byte	0xcf
 6574 28f3 FF010000 		.4byte	.LLST12
ARM GAS  C:\Users\Smaug\AppData\Local\Temp\ccVZzAJS.s 			page 151


 6575 28f7 00       		.byte	0
 6576 28f8 18       		.uleb128 0x18
 6577 28f9 04       		.byte	0x4
 6578 28fa FE280000 		.4byte	0x28fe
 6579 28fe 07       		.uleb128 0x7
 6580 28ff D51D0000 		.4byte	0x1dd5
 6581 2903 21       		.uleb128 0x21
 6582 2904 0D250000 		.4byte	.LASF896
 6583 2908 02       		.byte	0x2
 6584 2909 B503     		.2byte	0x3b5
 6585 290b B8180000 		.4byte	0x18b8
 6586 290f 03       		.byte	0x3
 6587 2910 37290000 		.4byte	0x2937
 6588 2914 22       		.uleb128 0x22
 6589 2915 DD300000 		.4byte	.LASF602
 6590 2919 02       		.byte	0x2
 6591 291a B503     		.2byte	0x3b5
 6592 291c AE000000 		.4byte	0xae
 6593 2920 34       		.uleb128 0x34
 6594 2921 6900     		.ascii	"i\000"
 6595 2923 02       		.byte	0x2
 6596 2924 B703     		.2byte	0x3b7
 6597 2926 CF000000 		.4byte	0xcf
 6598 292a 35       		.uleb128 0x35
 6599 292b 1D3E0000 		.4byte	.LASF897
 6600 292f 02       		.byte	0x2
 6601 2930 B803     		.2byte	0x3b8
 6602 2932 B8180000 		.4byte	0x18b8
 6603 2936 00       		.byte	0
 6604 2937 36       		.uleb128 0x36
 6605 2938 260E0000 		.4byte	.LASF948
 6606 293c 01       		.byte	0x1
 6607 293d 3601     		.2byte	0x136
 6608 293f 00000000 		.4byte	.LFB172
 6609 2943 A8060000 		.4byte	.LFE172-.LFB172
 6610 2947 01       		.uleb128 0x1
 6611 2948 9C       		.byte	0x9c
 6612 2949 67310000 		.4byte	0x3167
 6613 294d 31       		.uleb128 0x31
 6614 294e 20300000 		.4byte	.LASF898
 6615 2952 01       		.byte	0x1
 6616 2953 3601     		.2byte	0x136
 6617 2955 A7150000 		.4byte	0x15a7
 6618 2959 1D020000 		.4byte	.LLST13
 6619 295d 31       		.uleb128 0x31
 6620 295e EB0F0000 		.4byte	.LASF899
 6621 2962 01       		.byte	0x1
 6622 2963 3701     		.2byte	0x137
 6623 2965 A5000000 		.4byte	0xa5
 6624 2969 19040000 		.4byte	.LLST14
 6625 296d 37       		.uleb128 0x37
 6626 296e F2000000 		.4byte	.LBB82
 6627 2972 10000000 		.4byte	.LBE82-.LBB82
 6628 2976 9B290000 		.4byte	0x299b
 6629 297a 32       		.uleb128 0x32
 6630 297b 83080000 		.4byte	.LASF900
 6631 297f 01       		.byte	0x1
ARM GAS  C:\Users\Smaug\AppData\Local\Temp\ccVZzAJS.s 			page 152


 6632 2980 4401     		.2byte	0x144
 6633 2982 67310000 		.4byte	0x3167
 6634 2986 45040000 		.4byte	.LLST15
 6635 298a 38       		.uleb128 0x38
 6636 298b F8000000 		.4byte	.LVL43
 6637 298f F4320000 		.4byte	0x32f4
 6638 2993 29       		.uleb128 0x29
 6639 2994 01       		.uleb128 0x1
 6640 2995 50       		.byte	0x50
 6641 2996 02       		.uleb128 0x2
 6642 2997 75       		.byte	0x75
 6643 2998 00       		.sleb128 0
 6644 2999 00       		.byte	0
 6645 299a 00       		.byte	0
 6646 299b 37       		.uleb128 0x37
 6647 299c 38010000 		.4byte	.LBB83
 6648 29a0 46000000 		.4byte	.LBE83-.LBB83
 6649 29a4 B9290000 		.4byte	0x29b9
 6650 29a8 32       		.uleb128 0x32
 6651 29a9 1E270000 		.4byte	.LASF901
 6652 29ad 01       		.byte	0x1
 6653 29ae 5E01     		.2byte	0x15e
 6654 29b0 CF000000 		.4byte	0xcf
 6655 29b4 58040000 		.4byte	.LLST16
 6656 29b8 00       		.byte	0
 6657 29b9 37       		.uleb128 0x37
 6658 29ba A8010000 		.4byte	.LBB84
 6659 29be 10000000 		.4byte	.LBE84-.LBB84
 6660 29c2 082A0000 		.4byte	0x2a08
 6661 29c6 39       		.uleb128 0x39
 6662 29c7 3E450000 		.4byte	.LASF902
 6663 29cb 01       		.byte	0x1
 6664 29cc 7801     		.2byte	0x178
 6665 29ce F4110000 		.4byte	0x11f4
 6666 29d2 02       		.uleb128 0x2
 6667 29d3 91       		.byte	0x91
 6668 29d4 50       		.sleb128 -48
 6669 29d5 28       		.uleb128 0x28
 6670 29d6 B2010000 		.4byte	.LVL56
 6671 29da 00330000 		.4byte	0x3300
 6672 29de F7290000 		.4byte	0x29f7
 6673 29e2 29       		.uleb128 0x29
 6674 29e3 01       		.uleb128 0x1
 6675 29e4 50       		.byte	0x50
 6676 29e5 02       		.uleb128 0x2
 6677 29e6 91       		.byte	0x91
 6678 29e7 50       		.sleb128 -48
 6679 29e8 29       		.uleb128 0x29
 6680 29e9 01       		.uleb128 0x1
 6681 29ea 51       		.byte	0x51
 6682 29eb 05       		.uleb128 0x5
 6683 29ec 03       		.byte	0x3
 6684 29ed 00000000 		.4byte	.LANCHOR0
 6685 29f1 29       		.uleb128 0x29
 6686 29f2 01       		.uleb128 0x1
 6687 29f3 52       		.byte	0x52
 6688 29f4 01       		.uleb128 0x1
ARM GAS  C:\Users\Smaug\AppData\Local\Temp\ccVZzAJS.s 			page 153


 6689 29f5 38       		.byte	0x38
 6690 29f6 00       		.byte	0
 6691 29f7 38       		.uleb128 0x38
 6692 29f8 B8010000 		.4byte	.LVL57
 6693 29fc 09330000 		.4byte	0x3309
 6694 2a00 29       		.uleb128 0x29
 6695 2a01 01       		.uleb128 0x1
 6696 2a02 50       		.byte	0x50
 6697 2a03 02       		.uleb128 0x2
 6698 2a04 91       		.byte	0x91
 6699 2a05 50       		.sleb128 -48
 6700 2a06 00       		.byte	0
 6701 2a07 00       		.byte	0
 6702 2a08 3A       		.uleb128 0x3a
 6703 2a09 16270000 		.4byte	0x2716
 6704 2a0d C6010000 		.4byte	.LBB85
 6705 2a11 04000000 		.4byte	.LBE85-.LBB85
 6706 2a15 01       		.byte	0x1
 6707 2a16 8901     		.2byte	0x189
 6708 2a18 262A0000 		.4byte	0x2a26
 6709 2a1c 3B       		.uleb128 0x3b
 6710 2a1d 23270000 		.4byte	0x2723
 6711 2a21 6B040000 		.4byte	.LLST17
 6712 2a25 00       		.byte	0
 6713 2a26 37       		.uleb128 0x37
 6714 2a27 E6010000 		.4byte	.LBB87
 6715 2a2b 40000000 		.4byte	.LBE87-.LBB87
 6716 2a2f 852A0000 		.4byte	0x2a85
 6717 2a33 39       		.uleb128 0x39
 6718 2a34 A74E0000 		.4byte	.LASF903
 6719 2a38 01       		.byte	0x1
 6720 2a39 A801     		.2byte	0x1a8
 6721 2a3b 18190000 		.4byte	0x1918
 6722 2a3f 02       		.uleb128 0x2
 6723 2a40 91       		.byte	0x91
 6724 2a41 50       		.sleb128 -48
 6725 2a42 28       		.uleb128 0x28
 6726 2a43 F2010000 		.4byte	.LVL64
 6727 2a47 D3320000 		.4byte	0x32d3
 6728 2a4b 602A0000 		.4byte	0x2a60
 6729 2a4f 29       		.uleb128 0x29
 6730 2a50 01       		.uleb128 0x1
 6731 2a51 50       		.byte	0x50
 6732 2a52 02       		.uleb128 0x2
 6733 2a53 76       		.byte	0x76
 6734 2a54 00       		.sleb128 0
 6735 2a55 29       		.uleb128 0x29
 6736 2a56 01       		.uleb128 0x1
 6737 2a57 51       		.byte	0x51
 6738 2a58 01       		.uleb128 0x1
 6739 2a59 30       		.byte	0x30
 6740 2a5a 29       		.uleb128 0x29
 6741 2a5b 01       		.uleb128 0x1
 6742 2a5c 52       		.byte	0x52
 6743 2a5d 01       		.uleb128 0x1
 6744 2a5e 33       		.byte	0x33
 6745 2a5f 00       		.byte	0
ARM GAS  C:\Users\Smaug\AppData\Local\Temp\ccVZzAJS.s 			page 154


 6746 2a60 28       		.uleb128 0x28
 6747 2a61 04020000 		.4byte	.LVL65
 6748 2a65 15330000 		.4byte	0x3315
 6749 2a69 742A0000 		.4byte	0x2a74
 6750 2a6d 29       		.uleb128 0x29
 6751 2a6e 01       		.uleb128 0x1
 6752 2a6f 50       		.byte	0x50
 6753 2a70 02       		.uleb128 0x2
 6754 2a71 76       		.byte	0x76
 6755 2a72 00       		.sleb128 0
 6756 2a73 00       		.byte	0
 6757 2a74 38       		.uleb128 0x38
 6758 2a75 1C020000 		.4byte	.LVL66
 6759 2a79 15330000 		.4byte	0x3315
 6760 2a7d 29       		.uleb128 0x29
 6761 2a7e 01       		.uleb128 0x1
 6762 2a7f 50       		.byte	0x50
 6763 2a80 02       		.uleb128 0x2
 6764 2a81 76       		.byte	0x76
 6765 2a82 00       		.sleb128 0
 6766 2a83 00       		.byte	0
 6767 2a84 00       		.byte	0
 6768 2a85 3A       		.uleb128 0x3a
 6769 2a86 03290000 		.4byte	0x2903
 6770 2a8a 32020000 		.4byte	.LBB88
 6771 2a8e 6E000000 		.4byte	.LBE88-.LBB88
 6772 2a92 01       		.byte	0x1
 6773 2a93 C401     		.2byte	0x1c4
 6774 2a95 302B0000 		.4byte	0x2b30
 6775 2a99 3B       		.uleb128 0x3b
 6776 2a9a 14290000 		.4byte	0x2914
 6777 2a9e 7F040000 		.4byte	.LLST18
 6778 2aa2 3C       		.uleb128 0x3c
 6779 2aa3 32020000 		.4byte	.LBB89
 6780 2aa7 6E000000 		.4byte	.LBE89-.LBB89
 6781 2aab 3D       		.uleb128 0x3d
 6782 2aac 20290000 		.4byte	0x2920
 6783 2ab0 92040000 		.4byte	.LLST19
 6784 2ab4 3E       		.uleb128 0x3e
 6785 2ab5 2A290000 		.4byte	0x292a
 6786 2ab9 02       		.uleb128 0x2
 6787 2aba 91       		.byte	0x91
 6788 2abb 50       		.sleb128 -48
 6789 2abc 3A       		.uleb128 0x3a
 6790 2abd F8260000 		.4byte	0x26f8
 6791 2ac1 52020000 		.4byte	.LBB90
 6792 2ac5 0E000000 		.4byte	.LBE90-.LBB90
 6793 2ac9 02       		.byte	0x2
 6794 2aca C003     		.2byte	0x3c0
 6795 2acc D92A0000 		.4byte	0x2ad9
 6796 2ad0 3F       		.uleb128 0x3f
 6797 2ad1 09270000 		.4byte	0x2709
 6798 2ad5 02       		.uleb128 0x2
 6799 2ad6 91       		.byte	0x91
 6800 2ad7 48       		.sleb128 -56
 6801 2ad8 00       		.byte	0
 6802 2ad9 28       		.uleb128 0x28
ARM GAS  C:\Users\Smaug\AppData\Local\Temp\ccVZzAJS.s 			page 155


 6803 2ada 3E020000 		.4byte	.LVL72
 6804 2ade 00330000 		.4byte	0x3300
 6805 2ae2 FB2A0000 		.4byte	0x2afb
 6806 2ae6 29       		.uleb128 0x29
 6807 2ae7 01       		.uleb128 0x1
 6808 2ae8 50       		.byte	0x50
 6809 2ae9 02       		.uleb128 0x2
 6810 2aea 91       		.byte	0x91
 6811 2aeb 50       		.sleb128 -48
 6812 2aec 29       		.uleb128 0x29
 6813 2aed 01       		.uleb128 0x1
 6814 2aee 51       		.byte	0x51
 6815 2aef 05       		.uleb128 0x5
 6816 2af0 03       		.byte	0x3
 6817 2af1 08000000 		.4byte	.LANCHOR0+8
 6818 2af5 29       		.uleb128 0x29
 6819 2af6 01       		.uleb128 0x1
 6820 2af7 52       		.byte	0x52
 6821 2af8 01       		.uleb128 0x1
 6822 2af9 32       		.byte	0x32
 6823 2afa 00       		.byte	0
 6824 2afb 28       		.uleb128 0x28
 6825 2afc 7A020000 		.4byte	.LVL76
 6826 2b00 00330000 		.4byte	0x3300
 6827 2b04 142B0000 		.4byte	0x2b14
 6828 2b08 29       		.uleb128 0x29
 6829 2b09 01       		.uleb128 0x1
 6830 2b0a 50       		.byte	0x50
 6831 2b0b 02       		.uleb128 0x2
 6832 2b0c 91       		.byte	0x91
 6833 2b0d 50       		.sleb128 -48
 6834 2b0e 29       		.uleb128 0x29
 6835 2b0f 01       		.uleb128 0x1
 6836 2b10 52       		.byte	0x52
 6837 2b11 01       		.uleb128 0x1
 6838 2b12 32       		.byte	0x32
 6839 2b13 00       		.byte	0
 6840 2b14 38       		.uleb128 0x38
 6841 2b15 94020000 		.4byte	.LVL80
 6842 2b19 21330000 		.4byte	0x3321
 6843 2b1d 29       		.uleb128 0x29
 6844 2b1e 01       		.uleb128 0x1
 6845 2b1f 50       		.byte	0x50
 6846 2b20 05       		.uleb128 0x5
 6847 2b21 03       		.byte	0x3
 6848 2b22 00000000 		.4byte	.LC16
 6849 2b26 29       		.uleb128 0x29
 6850 2b27 01       		.uleb128 0x1
 6851 2b28 51       		.byte	0x51
 6852 2b29 03       		.uleb128 0x3
 6853 2b2a 0A       		.byte	0xa
 6854 2b2b CA03     		.2byte	0x3ca
 6855 2b2d 00       		.byte	0
 6856 2b2e 00       		.byte	0
 6857 2b2f 00       		.byte	0
 6858 2b30 37       		.uleb128 0x37
 6859 2b31 AA020000 		.4byte	.LBB92
ARM GAS  C:\Users\Smaug\AppData\Local\Temp\ccVZzAJS.s 			page 156


 6860 2b35 2A000000 		.4byte	.LBE92-.LBB92
 6861 2b39 6A2B0000 		.4byte	0x2b6a
 6862 2b3d 32       		.uleb128 0x32
 6863 2b3e 412B0000 		.4byte	.LASF904
 6864 2b42 01       		.byte	0x1
 6865 2b43 CC01     		.2byte	0x1cc
 6866 2b45 6D310000 		.4byte	0x316d
 6867 2b49 BC040000 		.4byte	.LLST20
 6868 2b4d 3C       		.uleb128 0x3c
 6869 2b4e B8020000 		.4byte	.LBB93
 6870 2b52 10000000 		.4byte	.LBE93-.LBB93
 6871 2b56 39       		.uleb128 0x39
 6872 2b57 59340000 		.4byte	.LASF905
 6873 2b5b 01       		.byte	0x1
 6874 2b5c D301     		.2byte	0x1d3
 6875 2b5e 141D0000 		.4byte	0x1d14
 6876 2b62 05       		.uleb128 0x5
 6877 2b63 03       		.byte	0x3
 6878 2b64 00000000 		.4byte	gPrepWriteReqMem.13604
 6879 2b68 00       		.byte	0
 6880 2b69 00       		.byte	0
 6881 2b6a 37       		.uleb128 0x37
 6882 2b6b DC020000 		.4byte	.LBB94
 6883 2b6f 20010000 		.4byte	.LBE94-.LBB94
 6884 2b73 2E2C0000 		.4byte	0x2c2e
 6885 2b77 39       		.uleb128 0x39
 6886 2b78 F1410000 		.4byte	.LASF906
 6887 2b7c 01       		.byte	0x1
 6888 2b7d F601     		.2byte	0x1f6
 6889 2b7f B8180000 		.4byte	0x18b8
 6890 2b83 02       		.uleb128 0x2
 6891 2b84 91       		.byte	0x91
 6892 2b85 50       		.sleb128 -48
 6893 2b86 40       		.uleb128 0x40
 6894 2b87 03290000 		.4byte	0x2903
 6895 2b8b E0020000 		.4byte	.LBB95
 6896 2b8f 12010000 		.4byte	.LBE95-.LBB95
 6897 2b93 01       		.byte	0x1
 6898 2b94 F701     		.2byte	0x1f7
 6899 2b96 3B       		.uleb128 0x3b
 6900 2b97 14290000 		.4byte	0x2914
 6901 2b9b CF040000 		.4byte	.LLST21
 6902 2b9f 3C       		.uleb128 0x3c
 6903 2ba0 E0020000 		.4byte	.LBB96
 6904 2ba4 12010000 		.4byte	.LBE96-.LBB96
 6905 2ba8 3D       		.uleb128 0x3d
 6906 2ba9 20290000 		.4byte	0x2920
 6907 2bad E2040000 		.4byte	.LLST22
 6908 2bb1 3E       		.uleb128 0x3e
 6909 2bb2 2A290000 		.4byte	0x292a
 6910 2bb6 02       		.uleb128 0x2
 6911 2bb7 91       		.byte	0x91
 6912 2bb8 50       		.sleb128 -48
 6913 2bb9 3A       		.uleb128 0x3a
 6914 2bba F8260000 		.4byte	0x26f8
 6915 2bbe 00030000 		.4byte	.LBB97
 6916 2bc2 0E000000 		.4byte	.LBE97-.LBB97
ARM GAS  C:\Users\Smaug\AppData\Local\Temp\ccVZzAJS.s 			page 157


 6917 2bc6 02       		.byte	0x2
 6918 2bc7 C003     		.2byte	0x3c0
 6919 2bc9 D62B0000 		.4byte	0x2bd6
 6920 2bcd 3F       		.uleb128 0x3f
 6921 2bce 09270000 		.4byte	0x2709
 6922 2bd2 02       		.uleb128 0x2
 6923 2bd3 91       		.byte	0x91
 6924 2bd4 4C       		.sleb128 -52
 6925 2bd5 00       		.byte	0
 6926 2bd6 28       		.uleb128 0x28
 6927 2bd7 EC020000 		.4byte	.LVL86
 6928 2bdb 00330000 		.4byte	0x3300
 6929 2bdf F82B0000 		.4byte	0x2bf8
 6930 2be3 29       		.uleb128 0x29
 6931 2be4 01       		.uleb128 0x1
 6932 2be5 50       		.byte	0x50
 6933 2be6 02       		.uleb128 0x2
 6934 2be7 91       		.byte	0x91
 6935 2be8 50       		.sleb128 -48
 6936 2be9 29       		.uleb128 0x29
 6937 2bea 01       		.uleb128 0x1
 6938 2beb 51       		.byte	0x51
 6939 2bec 05       		.uleb128 0x5
 6940 2bed 03       		.byte	0x3
 6941 2bee 08000000 		.4byte	.LANCHOR0+8
 6942 2bf2 29       		.uleb128 0x29
 6943 2bf3 01       		.uleb128 0x1
 6944 2bf4 52       		.byte	0x52
 6945 2bf5 01       		.uleb128 0x1
 6946 2bf6 32       		.byte	0x32
 6947 2bf7 00       		.byte	0
 6948 2bf8 28       		.uleb128 0x28
 6949 2bf9 28030000 		.4byte	.LVL90
 6950 2bfd 00330000 		.4byte	0x3300
 6951 2c01 112C0000 		.4byte	0x2c11
 6952 2c05 29       		.uleb128 0x29
 6953 2c06 01       		.uleb128 0x1
 6954 2c07 50       		.byte	0x50
 6955 2c08 02       		.uleb128 0x2
 6956 2c09 91       		.byte	0x91
 6957 2c0a 50       		.sleb128 -48
 6958 2c0b 29       		.uleb128 0x29
 6959 2c0c 01       		.uleb128 0x1
 6960 2c0d 52       		.byte	0x52
 6961 2c0e 01       		.uleb128 0x1
 6962 2c0f 32       		.byte	0x32
 6963 2c10 00       		.byte	0
 6964 2c11 38       		.uleb128 0x38
 6965 2c12 E8030000 		.4byte	.LVL94
 6966 2c16 21330000 		.4byte	0x3321
 6967 2c1a 29       		.uleb128 0x29
 6968 2c1b 01       		.uleb128 0x1
 6969 2c1c 50       		.byte	0x50
 6970 2c1d 05       		.uleb128 0x5
 6971 2c1e 03       		.byte	0x3
 6972 2c1f 00000000 		.4byte	.LC16
 6973 2c23 29       		.uleb128 0x29
ARM GAS  C:\Users\Smaug\AppData\Local\Temp\ccVZzAJS.s 			page 158


 6974 2c24 01       		.uleb128 0x1
 6975 2c25 51       		.byte	0x51
 6976 2c26 03       		.uleb128 0x3
 6977 2c27 0A       		.byte	0xa
 6978 2c28 CA03     		.2byte	0x3ca
 6979 2c2a 00       		.byte	0
 6980 2c2b 00       		.byte	0
 6981 2c2c 00       		.byte	0
 6982 2c2d 00       		.byte	0
 6983 2c2e 37       		.uleb128 0x37
 6984 2c2f 04040000 		.4byte	.LBB99
 6985 2c33 94000000 		.4byte	.LBE99-.LBB99
 6986 2c37 2A2D0000 		.4byte	0x2d2a
 6987 2c3b 32       		.uleb128 0x32
 6988 2c3c AE0E0000 		.4byte	.LASF907
 6989 2c40 01       		.byte	0x1
 6990 2c41 0A02     		.2byte	0x20a
 6991 2c43 73310000 		.4byte	0x3173
 6992 2c47 0C050000 		.4byte	.LLST23
 6993 2c4b 3A       		.uleb128 0x3a
 6994 2c4c 16270000 		.4byte	0x2716
 6995 2c50 10040000 		.4byte	.LBB100
 6996 2c54 06000000 		.4byte	.LBE100-.LBB100
 6997 2c58 01       		.byte	0x1
 6998 2c59 1302     		.2byte	0x213
 6999 2c5b 692C0000 		.4byte	0x2c69
 7000 2c5f 3B       		.uleb128 0x3b
 7001 2c60 23270000 		.4byte	0x2723
 7002 2c64 1F050000 		.4byte	.LLST24
 7003 2c68 00       		.byte	0
 7004 2c69 3C       		.uleb128 0x3c
 7005 2c6a 16040000 		.4byte	.LBB102
 7006 2c6e 7C000000 		.4byte	.LBE102-.LBB102
 7007 2c72 39       		.uleb128 0x39
 7008 2c73 7F000000 		.4byte	.LASF908
 7009 2c77 01       		.byte	0x1
 7010 2c78 2202     		.2byte	0x222
 7011 2c7a B8180000 		.4byte	0x18b8
 7012 2c7e 02       		.uleb128 0x2
 7013 2c7f 91       		.byte	0x91
 7014 2c80 4C       		.sleb128 -52
 7015 2c81 40       		.uleb128 0x40
 7016 2c82 03290000 		.4byte	0x2903
 7017 2c86 1A040000 		.4byte	.LBB103
 7018 2c8a 6C000000 		.4byte	.LBE103-.LBB103
 7019 2c8e 01       		.byte	0x1
 7020 2c8f 2202     		.2byte	0x222
 7021 2c91 3B       		.uleb128 0x3b
 7022 2c92 14290000 		.4byte	0x2914
 7023 2c96 33050000 		.4byte	.LLST25
 7024 2c9a 3C       		.uleb128 0x3c
 7025 2c9b 1A040000 		.4byte	.LBB104
 7026 2c9f 6C000000 		.4byte	.LBE104-.LBB104
 7027 2ca3 3D       		.uleb128 0x3d
 7028 2ca4 20290000 		.4byte	0x2920
 7029 2ca8 46050000 		.4byte	.LLST26
 7030 2cac 3E       		.uleb128 0x3e
ARM GAS  C:\Users\Smaug\AppData\Local\Temp\ccVZzAJS.s 			page 159


 7031 2cad 2A290000 		.4byte	0x292a
 7032 2cb1 02       		.uleb128 0x2
 7033 2cb2 91       		.byte	0x91
 7034 2cb3 4C       		.sleb128 -52
 7035 2cb4 3A       		.uleb128 0x3a
 7036 2cb5 F8260000 		.4byte	0x26f8
 7037 2cb9 3A040000 		.4byte	.LBB105
 7038 2cbd 0E000000 		.4byte	.LBE105-.LBB105
 7039 2cc1 02       		.byte	0x2
 7040 2cc2 C003     		.2byte	0x3c0
 7041 2cc4 D12C0000 		.4byte	0x2cd1
 7042 2cc8 3F       		.uleb128 0x3f
 7043 2cc9 09270000 		.4byte	0x2709
 7044 2ccd 02       		.uleb128 0x2
 7045 2cce 91       		.byte	0x91
 7046 2ccf 50       		.sleb128 -48
 7047 2cd0 00       		.byte	0
 7048 2cd1 28       		.uleb128 0x28
 7049 2cd2 26040000 		.4byte	.LVL103
 7050 2cd6 00330000 		.4byte	0x3300
 7051 2cda F32C0000 		.4byte	0x2cf3
 7052 2cde 29       		.uleb128 0x29
 7053 2cdf 01       		.uleb128 0x1
 7054 2ce0 50       		.byte	0x50
 7055 2ce1 02       		.uleb128 0x2
 7056 2ce2 91       		.byte	0x91
 7057 2ce3 4C       		.sleb128 -52
 7058 2ce4 29       		.uleb128 0x29
 7059 2ce5 01       		.uleb128 0x1
 7060 2ce6 51       		.byte	0x51
 7061 2ce7 05       		.uleb128 0x5
 7062 2ce8 03       		.byte	0x3
 7063 2ce9 08000000 		.4byte	.LANCHOR0+8
 7064 2ced 29       		.uleb128 0x29
 7065 2cee 01       		.uleb128 0x1
 7066 2cef 52       		.byte	0x52
 7067 2cf0 01       		.uleb128 0x1
 7068 2cf1 32       		.byte	0x32
 7069 2cf2 00       		.byte	0
 7070 2cf3 28       		.uleb128 0x28
 7071 2cf4 62040000 		.4byte	.LVL107
 7072 2cf8 00330000 		.4byte	0x3300
 7073 2cfc 0C2D0000 		.4byte	0x2d0c
 7074 2d00 29       		.uleb128 0x29
 7075 2d01 01       		.uleb128 0x1
 7076 2d02 50       		.byte	0x50
 7077 2d03 02       		.uleb128 0x2
 7078 2d04 91       		.byte	0x91
 7079 2d05 4C       		.sleb128 -52
 7080 2d06 29       		.uleb128 0x29
 7081 2d07 01       		.uleb128 0x1
 7082 2d08 52       		.byte	0x52
 7083 2d09 01       		.uleb128 0x1
 7084 2d0a 32       		.byte	0x32
 7085 2d0b 00       		.byte	0
 7086 2d0c 38       		.uleb128 0x38
 7087 2d0d 7C040000 		.4byte	.LVL111
ARM GAS  C:\Users\Smaug\AppData\Local\Temp\ccVZzAJS.s 			page 160


 7088 2d11 21330000 		.4byte	0x3321
 7089 2d15 29       		.uleb128 0x29
 7090 2d16 01       		.uleb128 0x1
 7091 2d17 50       		.byte	0x50
 7092 2d18 05       		.uleb128 0x5
 7093 2d19 03       		.byte	0x3
 7094 2d1a 00000000 		.4byte	.LC16
 7095 2d1e 29       		.uleb128 0x29
 7096 2d1f 01       		.uleb128 0x1
 7097 2d20 51       		.byte	0x51
 7098 2d21 03       		.uleb128 0x3
 7099 2d22 0A       		.byte	0xa
 7100 2d23 CA03     		.2byte	0x3ca
 7101 2d25 00       		.byte	0
 7102 2d26 00       		.byte	0
 7103 2d27 00       		.byte	0
 7104 2d28 00       		.byte	0
 7105 2d29 00       		.byte	0
 7106 2d2a 41       		.uleb128 0x41
 7107 2d2b 30270000 		.4byte	0x2730
 7108 2d2f B2040000 		.4byte	.LBB107
 7109 2d33 04000000 		.4byte	.LBE107-.LBB107
 7110 2d37 01       		.byte	0x1
 7111 2d38 3B02     		.2byte	0x23b
 7112 2d3a 3A       		.uleb128 0x3a
 7113 2d3b 16270000 		.4byte	0x2716
 7114 2d3f BA040000 		.4byte	.LBB109
 7115 2d43 08000000 		.4byte	.LBE109-.LBB109
 7116 2d47 01       		.byte	0x1
 7117 2d48 3D02     		.2byte	0x23d
 7118 2d4a 582D0000 		.4byte	0x2d58
 7119 2d4e 3B       		.uleb128 0x3b
 7120 2d4f 23270000 		.4byte	0x2723
 7121 2d53 70050000 		.4byte	.LLST27
 7122 2d57 00       		.byte	0
 7123 2d58 3A       		.uleb128 0x3a
 7124 2d59 16270000 		.4byte	0x2716
 7125 2d5d C6040000 		.4byte	.LBB111
 7126 2d61 08000000 		.4byte	.LBE111-.LBB111
 7127 2d65 01       		.byte	0x1
 7128 2d66 4202     		.2byte	0x242
 7129 2d68 762D0000 		.4byte	0x2d76
 7130 2d6c 3B       		.uleb128 0x3b
 7131 2d6d 23270000 		.4byte	0x2723
 7132 2d71 84050000 		.4byte	.LLST28
 7133 2d75 00       		.byte	0
 7134 2d76 3A       		.uleb128 0x3a
 7135 2d77 16270000 		.4byte	0x2716
 7136 2d7b D4040000 		.4byte	.LBB113
 7137 2d7f 06000000 		.4byte	.LBE113-.LBB113
 7138 2d83 01       		.byte	0x1
 7139 2d84 4802     		.2byte	0x248
 7140 2d86 942D0000 		.4byte	0x2d94
 7141 2d8a 3B       		.uleb128 0x3b
 7142 2d8b 23270000 		.4byte	0x2723
 7143 2d8f 98050000 		.4byte	.LLST29
 7144 2d93 00       		.byte	0
ARM GAS  C:\Users\Smaug\AppData\Local\Temp\ccVZzAJS.s 			page 161


 7145 2d94 3A       		.uleb128 0x3a
 7146 2d95 16270000 		.4byte	0x2716
 7147 2d99 12050000 		.4byte	.LBB115
 7148 2d9d 08000000 		.4byte	.LBE115-.LBB115
 7149 2da1 01       		.byte	0x1
 7150 2da2 5202     		.2byte	0x252
 7151 2da4 B22D0000 		.4byte	0x2db2
 7152 2da8 3B       		.uleb128 0x3b
 7153 2da9 23270000 		.4byte	0x2723
 7154 2dad AC050000 		.4byte	.LLST30
 7155 2db1 00       		.byte	0
 7156 2db2 3A       		.uleb128 0x3a
 7157 2db3 3D270000 		.4byte	0x273d
 7158 2db7 2C050000 		.4byte	.LBB117
 7159 2dbb 1C000000 		.4byte	.LBE117-.LBB117
 7160 2dbf 01       		.byte	0x1
 7161 2dc0 A302     		.2byte	0x2a3
 7162 2dc2 F22D0000 		.4byte	0x2df2
 7163 2dc6 3B       		.uleb128 0x3b
 7164 2dc7 56270000 		.4byte	0x2756
 7165 2dcb C0050000 		.4byte	.LLST31
 7166 2dcf 3F       		.uleb128 0x3f
 7167 2dd0 4A270000 		.4byte	0x274a
 7168 2dd4 02       		.uleb128 0x2
 7169 2dd5 91       		.byte	0x91
 7170 2dd6 40       		.sleb128 -64
 7171 2dd7 38       		.uleb128 0x38
 7172 2dd8 48050000 		.4byte	.LVL128
 7173 2ddc 21330000 		.4byte	0x3321
 7174 2de0 29       		.uleb128 0x29
 7175 2de1 01       		.uleb128 0x1
 7176 2de2 50       		.byte	0x50
 7177 2de3 05       		.uleb128 0x5
 7178 2de4 03       		.byte	0x3
 7179 2de5 00000000 		.4byte	.LC16
 7180 2de9 29       		.uleb128 0x29
 7181 2dea 01       		.uleb128 0x1
 7182 2deb 51       		.byte	0x51
 7183 2dec 03       		.uleb128 0x3
 7184 2ded 0A       		.byte	0xa
 7185 2dee 8603     		.2byte	0x386
 7186 2df0 00       		.byte	0
 7187 2df1 00       		.byte	0
 7188 2df2 3A       		.uleb128 0x3a
 7189 2df3 3D270000 		.4byte	0x273d
 7190 2df7 76050000 		.4byte	.LBB119
 7191 2dfb 1A000000 		.4byte	.LBE119-.LBB119
 7192 2dff 01       		.byte	0x1
 7193 2e00 D102     		.2byte	0x2d1
 7194 2e02 322E0000 		.4byte	0x2e32
 7195 2e06 3B       		.uleb128 0x3b
 7196 2e07 56270000 		.4byte	0x2756
 7197 2e0b D4050000 		.4byte	.LLST32
 7198 2e0f 3F       		.uleb128 0x3f
 7199 2e10 4A270000 		.4byte	0x274a
 7200 2e14 02       		.uleb128 0x2
 7201 2e15 91       		.byte	0x91
ARM GAS  C:\Users\Smaug\AppData\Local\Temp\ccVZzAJS.s 			page 162


 7202 2e16 44       		.sleb128 -60
 7203 2e17 38       		.uleb128 0x38
 7204 2e18 90050000 		.4byte	.LVL134
 7205 2e1c 21330000 		.4byte	0x3321
 7206 2e20 29       		.uleb128 0x29
 7207 2e21 01       		.uleb128 0x1
 7208 2e22 50       		.byte	0x50
 7209 2e23 05       		.uleb128 0x5
 7210 2e24 03       		.byte	0x3
 7211 2e25 00000000 		.4byte	.LC16
 7212 2e29 29       		.uleb128 0x29
 7213 2e2a 01       		.uleb128 0x1
 7214 2e2b 51       		.byte	0x51
 7215 2e2c 03       		.uleb128 0x3
 7216 2e2d 0A       		.byte	0xa
 7217 2e2e 8603     		.2byte	0x386
 7218 2e30 00       		.byte	0
 7219 2e31 00       		.byte	0
 7220 2e32 37       		.uleb128 0x37
 7221 2e33 A2050000 		.4byte	.LBB121
 7222 2e37 0E000000 		.4byte	.LBE121-.LBB121
 7223 2e3b 5F2E0000 		.4byte	0x2e5f
 7224 2e3f 39       		.uleb128 0x39
 7225 2e40 B3440000 		.4byte	.LASF909
 7226 2e44 01       		.byte	0x1
 7227 2e45 E002     		.2byte	0x2e0
 7228 2e47 2D1C0000 		.4byte	0x1c2d
 7229 2e4b 02       		.uleb128 0x2
 7230 2e4c 91       		.byte	0x91
 7231 2e4d 50       		.sleb128 -48
 7232 2e4e 38       		.uleb128 0x38
 7233 2e4f B0050000 		.4byte	.LVL138
 7234 2e53 2D330000 		.4byte	0x332d
 7235 2e57 29       		.uleb128 0x29
 7236 2e58 01       		.uleb128 0x1
 7237 2e59 50       		.byte	0x50
 7238 2e5a 02       		.uleb128 0x2
 7239 2e5b 91       		.byte	0x91
 7240 2e5c 50       		.sleb128 -48
 7241 2e5d 00       		.byte	0
 7242 2e5e 00       		.byte	0
 7243 2e5f 37       		.uleb128 0x37
 7244 2e60 B2050000 		.4byte	.LBB122
 7245 2e64 5E000000 		.4byte	.LBE122-.LBB122
 7246 2e68 0E2F0000 		.4byte	0x2f0e
 7247 2e6c 32       		.uleb128 0x32
 7248 2e6d B24F0000 		.4byte	.LASF885
 7249 2e71 01       		.byte	0x1
 7250 2e72 F202     		.2byte	0x2f2
 7251 2e74 841B0000 		.4byte	0x1b84
 7252 2e78 E8050000 		.4byte	.LLST33
 7253 2e7c 32       		.uleb128 0x32
 7254 2e7d 89300000 		.4byte	.LASF692
 7255 2e81 01       		.byte	0x1
 7256 2e82 F302     		.2byte	0x2f3
 7257 2e84 901B0000 		.4byte	0x1b90
 7258 2e88 06060000 		.4byte	.LLST34
ARM GAS  C:\Users\Smaug\AppData\Local\Temp\ccVZzAJS.s 			page 163


 7259 2e8c 37       		.uleb128 0x37
 7260 2e8d F2050000 		.4byte	.LBB123
 7261 2e91 14000000 		.4byte	.LBE123-.LBB123
 7262 2e95 B92E0000 		.4byte	0x2eb9
 7263 2e99 39       		.uleb128 0x39
 7264 2e9a 74420000 		.4byte	.LASF887
 7265 2e9e 01       		.byte	0x1
 7266 2e9f 0C03     		.2byte	0x30c
 7267 2ea1 CA1C0000 		.4byte	0x1cca
 7268 2ea5 02       		.uleb128 0x2
 7269 2ea6 91       		.byte	0x91
 7270 2ea7 50       		.sleb128 -48
 7271 2ea8 38       		.uleb128 0x38
 7272 2ea9 06060000 		.4byte	.LVL149
 7273 2ead DC320000 		.4byte	0x32dc
 7274 2eb1 29       		.uleb128 0x29
 7275 2eb2 01       		.uleb128 0x1
 7276 2eb3 50       		.byte	0x50
 7277 2eb4 02       		.uleb128 0x2
 7278 2eb5 91       		.byte	0x91
 7279 2eb6 50       		.sleb128 -48
 7280 2eb7 00       		.byte	0
 7281 2eb8 00       		.byte	0
 7282 2eb9 28       		.uleb128 0x28
 7283 2eba B8050000 		.4byte	.LVL141
 7284 2ebe 39330000 		.4byte	0x3339
 7285 2ec2 CD2E0000 		.4byte	0x2ecd
 7286 2ec6 29       		.uleb128 0x29
 7287 2ec7 01       		.uleb128 0x1
 7288 2ec8 50       		.byte	0x50
 7289 2ec9 02       		.uleb128 0x2
 7290 2eca 75       		.byte	0x75
 7291 2ecb 00       		.sleb128 0
 7292 2ecc 00       		.byte	0
 7293 2ecd 28       		.uleb128 0x28
 7294 2ece C4050000 		.4byte	.LVL144
 7295 2ed2 47280000 		.4byte	0x2847
 7296 2ed6 E72E0000 		.4byte	0x2ee7
 7297 2eda 29       		.uleb128 0x29
 7298 2edb 01       		.uleb128 0x1
 7299 2edc 50       		.byte	0x50
 7300 2edd 02       		.uleb128 0x2
 7301 2ede 74       		.byte	0x74
 7302 2edf 00       		.sleb128 0
 7303 2ee0 29       		.uleb128 0x29
 7304 2ee1 01       		.uleb128 0x1
 7305 2ee2 51       		.byte	0x51
 7306 2ee3 02       		.uleb128 0x2
 7307 2ee4 75       		.byte	0x75
 7308 2ee5 00       		.sleb128 0
 7309 2ee6 00       		.byte	0
 7310 2ee7 28       		.uleb128 0x28
 7311 2ee8 CC050000 		.4byte	.LVL146
 7312 2eec 63270000 		.4byte	0x2763
 7313 2ef0 FB2E0000 		.4byte	0x2efb
 7314 2ef4 29       		.uleb128 0x29
 7315 2ef5 01       		.uleb128 0x1
ARM GAS  C:\Users\Smaug\AppData\Local\Temp\ccVZzAJS.s 			page 164


 7316 2ef6 50       		.byte	0x50
 7317 2ef7 02       		.uleb128 0x2
 7318 2ef8 75       		.byte	0x75
 7319 2ef9 00       		.sleb128 0
 7320 2efa 00       		.byte	0
 7321 2efb 2F       		.uleb128 0x2f
 7322 2efc E0050000 		.4byte	.LVL147
 7323 2f00 29       		.uleb128 0x29
 7324 2f01 01       		.uleb128 0x1
 7325 2f02 50       		.byte	0x50
 7326 2f03 02       		.uleb128 0x2
 7327 2f04 74       		.byte	0x74
 7328 2f05 00       		.sleb128 0
 7329 2f06 29       		.uleb128 0x29
 7330 2f07 01       		.uleb128 0x1
 7331 2f08 51       		.byte	0x51
 7332 2f09 02       		.uleb128 0x2
 7333 2f0a 75       		.byte	0x75
 7334 2f0b 00       		.sleb128 0
 7335 2f0c 00       		.byte	0
 7336 2f0d 00       		.byte	0
 7337 2f0e 28       		.uleb128 0x28
 7338 2f0f 0E010000 		.4byte	.LVL46
 7339 2f13 AF280000 		.4byte	0x28af
 7340 2f17 222F0000 		.4byte	0x2f22
 7341 2f1b 29       		.uleb128 0x29
 7342 2f1c 01       		.uleb128 0x1
 7343 2f1d 50       		.byte	0x50
 7344 2f1e 02       		.uleb128 0x2
 7345 2f1f 76       		.byte	0x76
 7346 2f20 00       		.sleb128 0
 7347 2f21 00       		.byte	0
 7348 2f22 28       		.uleb128 0x28
 7349 2f23 18010000 		.4byte	.LVL47
 7350 2f27 44330000 		.4byte	0x3344
 7351 2f2b 362F0000 		.4byte	0x2f36
 7352 2f2f 29       		.uleb128 0x29
 7353 2f30 01       		.uleb128 0x1
 7354 2f31 50       		.byte	0x50
 7355 2f32 02       		.uleb128 0x2
 7356 2f33 76       		.byte	0x76
 7357 2f34 00       		.sleb128 0
 7358 2f35 00       		.byte	0
 7359 2f36 28       		.uleb128 0x28
 7360 2f37 22010000 		.4byte	.LVL48
 7361 2f3b 50330000 		.4byte	0x3350
 7362 2f3f 492F0000 		.4byte	0x2f49
 7363 2f43 29       		.uleb128 0x29
 7364 2f44 01       		.uleb128 0x1
 7365 2f45 51       		.byte	0x51
 7366 2f46 01       		.uleb128 0x1
 7367 2f47 30       		.byte	0x30
 7368 2f48 00       		.byte	0
 7369 2f49 28       		.uleb128 0x28
 7370 2f4a 2A010000 		.4byte	.LVL49
 7371 2f4e 50330000 		.4byte	0x3350
 7372 2f52 5C2F0000 		.4byte	0x2f5c
ARM GAS  C:\Users\Smaug\AppData\Local\Temp\ccVZzAJS.s 			page 165


 7373 2f56 29       		.uleb128 0x29
 7374 2f57 01       		.uleb128 0x1
 7375 2f58 51       		.byte	0x51
 7376 2f59 01       		.uleb128 0x1
 7377 2f5a 31       		.byte	0x31
 7378 2f5b 00       		.byte	0
 7379 2f5c 2A       		.uleb128 0x2a
 7380 2f5d 88010000 		.4byte	.LVL52
 7381 2f61 44330000 		.4byte	0x3344
 7382 2f65 28       		.uleb128 0x28
 7383 2f66 92010000 		.4byte	.LVL53
 7384 2f6a 50330000 		.4byte	0x3350
 7385 2f6e 782F0000 		.4byte	0x2f78
 7386 2f72 29       		.uleb128 0x29
 7387 2f73 01       		.uleb128 0x1
 7388 2f74 51       		.byte	0x51
 7389 2f75 01       		.uleb128 0x1
 7390 2f76 30       		.byte	0x30
 7391 2f77 00       		.byte	0
 7392 2f78 28       		.uleb128 0x28
 7393 2f79 9C010000 		.4byte	.LVL54
 7394 2f7d 50330000 		.4byte	0x3350
 7395 2f81 8B2F0000 		.4byte	0x2f8b
 7396 2f85 29       		.uleb128 0x29
 7397 2f86 01       		.uleb128 0x1
 7398 2f87 51       		.byte	0x51
 7399 2f88 01       		.uleb128 0x1
 7400 2f89 31       		.byte	0x31
 7401 2f8a 00       		.byte	0
 7402 2f8b 2A       		.uleb128 0x2a
 7403 2f8c A8010000 		.4byte	.LVL55
 7404 2f90 5C330000 		.4byte	0x335c
 7405 2f94 2A       		.uleb128 0x2a
 7406 2f95 DA010000 		.4byte	.LVL61
 7407 2f99 68330000 		.4byte	0x3368
 7408 2f9d 28       		.uleb128 0x28
 7409 2f9e 2C020000 		.4byte	.LVL68
 7410 2fa2 47280000 		.4byte	0x2847
 7411 2fa6 B12F0000 		.4byte	0x2fb1
 7412 2faa 29       		.uleb128 0x29
 7413 2fab 01       		.uleb128 0x1
 7414 2fac 51       		.byte	0x51
 7415 2fad 02       		.uleb128 0x2
 7416 2fae 75       		.byte	0x75
 7417 2faf 00       		.sleb128 0
 7418 2fb0 00       		.byte	0
 7419 2fb1 28       		.uleb128 0x28
 7420 2fb2 52020000 		.4byte	.LVL74
 7421 2fb6 00330000 		.4byte	0x3300
 7422 2fba CA2F0000 		.4byte	0x2fca
 7423 2fbe 29       		.uleb128 0x29
 7424 2fbf 01       		.uleb128 0x1
 7425 2fc0 50       		.byte	0x50
 7426 2fc1 02       		.uleb128 0x2
 7427 2fc2 77       		.byte	0x77
 7428 2fc3 00       		.sleb128 0
 7429 2fc4 29       		.uleb128 0x29
ARM GAS  C:\Users\Smaug\AppData\Local\Temp\ccVZzAJS.s 			page 166


 7430 2fc5 01       		.uleb128 0x1
 7431 2fc6 52       		.byte	0x52
 7432 2fc7 01       		.uleb128 0x1
 7433 2fc8 32       		.byte	0x32
 7434 2fc9 00       		.byte	0
 7435 2fca 28       		.uleb128 0x28
 7436 2fcb 00030000 		.4byte	.LVL88
 7437 2fcf 00330000 		.4byte	0x3300
 7438 2fd3 E32F0000 		.4byte	0x2fe3
 7439 2fd7 29       		.uleb128 0x29
 7440 2fd8 01       		.uleb128 0x1
 7441 2fd9 50       		.byte	0x50
 7442 2fda 02       		.uleb128 0x2
 7443 2fdb 77       		.byte	0x77
 7444 2fdc 00       		.sleb128 0
 7445 2fdd 29       		.uleb128 0x29
 7446 2fde 01       		.uleb128 0x1
 7447 2fdf 52       		.byte	0x52
 7448 2fe0 01       		.uleb128 0x1
 7449 2fe1 32       		.byte	0x32
 7450 2fe2 00       		.byte	0
 7451 2fe3 28       		.uleb128 0x28
 7452 2fe4 02040000 		.4byte	.LVL97
 7453 2fe8 47280000 		.4byte	0x2847
 7454 2fec F72F0000 		.4byte	0x2ff7
 7455 2ff0 29       		.uleb128 0x29
 7456 2ff1 01       		.uleb128 0x1
 7457 2ff2 51       		.byte	0x51
 7458 2ff3 02       		.uleb128 0x2
 7459 2ff4 75       		.byte	0x75
 7460 2ff5 00       		.sleb128 0
 7461 2ff6 00       		.byte	0
 7462 2ff7 28       		.uleb128 0x28
 7463 2ff8 3A040000 		.4byte	.LVL105
 7464 2ffc 00330000 		.4byte	0x3300
 7465 3000 10300000 		.4byte	0x3010
 7466 3004 29       		.uleb128 0x29
 7467 3005 01       		.uleb128 0x1
 7468 3006 50       		.byte	0x50
 7469 3007 02       		.uleb128 0x2
 7470 3008 77       		.byte	0x77
 7471 3009 00       		.sleb128 0
 7472 300a 29       		.uleb128 0x29
 7473 300b 01       		.uleb128 0x1
 7474 300c 52       		.byte	0x52
 7475 300d 01       		.uleb128 0x1
 7476 300e 32       		.byte	0x32
 7477 300f 00       		.byte	0
 7478 3010 28       		.uleb128 0x28
 7479 3011 A8040000 		.4byte	.LVL114
 7480 3015 47280000 		.4byte	0x2847
 7481 3019 24300000 		.4byte	0x3024
 7482 301d 29       		.uleb128 0x29
 7483 301e 01       		.uleb128 0x1
 7484 301f 51       		.byte	0x51
 7485 3020 02       		.uleb128 0x2
 7486 3021 75       		.byte	0x75
ARM GAS  C:\Users\Smaug\AppData\Local\Temp\ccVZzAJS.s 			page 167


 7487 3022 00       		.sleb128 0
 7488 3023 00       		.byte	0
 7489 3024 28       		.uleb128 0x28
 7490 3025 0C050000 		.4byte	.LVL121
 7491 3029 74330000 		.4byte	0x3374
 7492 302d 37300000 		.4byte	0x3037
 7493 3031 29       		.uleb128 0x29
 7494 3032 01       		.uleb128 0x1
 7495 3033 50       		.byte	0x50
 7496 3034 01       		.uleb128 0x1
 7497 3035 31       		.byte	0x31
 7498 3036 00       		.byte	0
 7499 3037 28       		.uleb128 0x28
 7500 3038 20050000 		.4byte	.LVL124
 7501 303c 47280000 		.4byte	0x2847
 7502 3040 4B300000 		.4byte	0x304b
 7503 3044 29       		.uleb128 0x29
 7504 3045 01       		.uleb128 0x1
 7505 3046 51       		.byte	0x51
 7506 3047 02       		.uleb128 0x2
 7507 3048 75       		.byte	0x75
 7508 3049 00       		.sleb128 0
 7509 304a 00       		.byte	0
 7510 304b 28       		.uleb128 0x28
 7511 304c 2C050000 		.4byte	.LVL127
 7512 3050 00330000 		.4byte	0x3300
 7513 3054 6A300000 		.4byte	0x306a
 7514 3058 29       		.uleb128 0x29
 7515 3059 01       		.uleb128 0x1
 7516 305a 50       		.byte	0x50
 7517 305b 02       		.uleb128 0x2
 7518 305c 7D       		.byte	0x7d
 7519 305d 00       		.sleb128 0
 7520 305e 29       		.uleb128 0x29
 7521 305f 01       		.uleb128 0x1
 7522 3060 51       		.byte	0x51
 7523 3061 02       		.uleb128 0x2
 7524 3062 75       		.byte	0x75
 7525 3063 00       		.sleb128 0
 7526 3064 29       		.uleb128 0x29
 7527 3065 01       		.uleb128 0x1
 7528 3066 52       		.byte	0x52
 7529 3067 01       		.uleb128 0x1
 7530 3068 32       		.byte	0x32
 7531 3069 00       		.byte	0
 7532 306a 28       		.uleb128 0x28
 7533 306b 58050000 		.4byte	.LVL129
 7534 306f 00330000 		.4byte	0x3300
 7535 3073 83300000 		.4byte	0x3083
 7536 3077 29       		.uleb128 0x29
 7537 3078 01       		.uleb128 0x1
 7538 3079 51       		.byte	0x51
 7539 307a 02       		.uleb128 0x2
 7540 307b 75       		.byte	0x75
 7541 307c 00       		.sleb128 0
 7542 307d 29       		.uleb128 0x29
 7543 307e 01       		.uleb128 0x1
ARM GAS  C:\Users\Smaug\AppData\Local\Temp\ccVZzAJS.s 			page 168


 7544 307f 52       		.byte	0x52
 7545 3080 01       		.uleb128 0x1
 7546 3081 32       		.byte	0x32
 7547 3082 00       		.byte	0
 7548 3083 28       		.uleb128 0x28
 7549 3084 68050000 		.4byte	.LVL130
 7550 3088 47280000 		.4byte	0x2847
 7551 308c 9D300000 		.4byte	0x309d
 7552 3090 29       		.uleb128 0x29
 7553 3091 01       		.uleb128 0x1
 7554 3092 50       		.byte	0x50
 7555 3093 02       		.uleb128 0x2
 7556 3094 74       		.byte	0x74
 7557 3095 00       		.sleb128 0
 7558 3096 29       		.uleb128 0x29
 7559 3097 01       		.uleb128 0x1
 7560 3098 51       		.byte	0x51
 7561 3099 02       		.uleb128 0x2
 7562 309a 75       		.byte	0x75
 7563 309b 00       		.sleb128 0
 7564 309c 00       		.byte	0
 7565 309d 28       		.uleb128 0x28
 7566 309e 76050000 		.4byte	.LVL133
 7567 30a2 00330000 		.4byte	0x3300
 7568 30a6 BC300000 		.4byte	0x30bc
 7569 30aa 29       		.uleb128 0x29
 7570 30ab 01       		.uleb128 0x1
 7571 30ac 50       		.byte	0x50
 7572 30ad 02       		.uleb128 0x2
 7573 30ae 76       		.byte	0x76
 7574 30af 00       		.sleb128 0
 7575 30b0 29       		.uleb128 0x29
 7576 30b1 01       		.uleb128 0x1
 7577 30b2 51       		.byte	0x51
 7578 30b3 02       		.uleb128 0x2
 7579 30b4 75       		.byte	0x75
 7580 30b5 00       		.sleb128 0
 7581 30b6 29       		.uleb128 0x29
 7582 30b7 01       		.uleb128 0x1
 7583 30b8 52       		.byte	0x52
 7584 30b9 01       		.uleb128 0x1
 7585 30ba 32       		.byte	0x32
 7586 30bb 00       		.byte	0
 7587 30bc 28       		.uleb128 0x28
 7588 30bd A0050000 		.4byte	.LVL135
 7589 30c1 47280000 		.4byte	0x2847
 7590 30c5 D6300000 		.4byte	0x30d6
 7591 30c9 29       		.uleb128 0x29
 7592 30ca 01       		.uleb128 0x1
 7593 30cb 50       		.byte	0x50
 7594 30cc 02       		.uleb128 0x2
 7595 30cd 74       		.byte	0x74
 7596 30ce 00       		.sleb128 0
 7597 30cf 29       		.uleb128 0x29
 7598 30d0 01       		.uleb128 0x1
 7599 30d1 51       		.byte	0x51
 7600 30d2 02       		.uleb128 0x2
ARM GAS  C:\Users\Smaug\AppData\Local\Temp\ccVZzAJS.s 			page 169


 7601 30d3 75       		.byte	0x75
 7602 30d4 00       		.sleb128 0
 7603 30d5 00       		.byte	0
 7604 30d6 28       		.uleb128 0x28
 7605 30d7 18060000 		.4byte	.LVL151
 7606 30db 47280000 		.4byte	0x2847
 7607 30df EA300000 		.4byte	0x30ea
 7608 30e3 29       		.uleb128 0x29
 7609 30e4 01       		.uleb128 0x1
 7610 30e5 51       		.byte	0x51
 7611 30e6 02       		.uleb128 0x2
 7612 30e7 75       		.byte	0x75
 7613 30e8 00       		.sleb128 0
 7614 30e9 00       		.byte	0
 7615 30ea 28       		.uleb128 0x28
 7616 30eb 20060000 		.4byte	.LVL153
 7617 30ef 47280000 		.4byte	0x2847
 7618 30f3 FE300000 		.4byte	0x30fe
 7619 30f7 29       		.uleb128 0x29
 7620 30f8 01       		.uleb128 0x1
 7621 30f9 51       		.byte	0x51
 7622 30fa 02       		.uleb128 0x2
 7623 30fb 75       		.byte	0x75
 7624 30fc 00       		.sleb128 0
 7625 30fd 00       		.byte	0
 7626 30fe 28       		.uleb128 0x28
 7627 30ff 28060000 		.4byte	.LVL155
 7628 3103 47280000 		.4byte	0x2847
 7629 3107 12310000 		.4byte	0x3112
 7630 310b 29       		.uleb128 0x29
 7631 310c 01       		.uleb128 0x1
 7632 310d 51       		.byte	0x51
 7633 310e 02       		.uleb128 0x2
 7634 310f 75       		.byte	0x75
 7635 3110 00       		.sleb128 0
 7636 3111 00       		.byte	0
 7637 3112 28       		.uleb128 0x28
 7638 3113 30060000 		.4byte	.LVL157
 7639 3117 47280000 		.4byte	0x2847
 7640 311b 26310000 		.4byte	0x3126
 7641 311f 29       		.uleb128 0x29
 7642 3120 01       		.uleb128 0x1
 7643 3121 51       		.byte	0x51
 7644 3122 02       		.uleb128 0x2
 7645 3123 75       		.byte	0x75
 7646 3124 00       		.sleb128 0
 7647 3125 00       		.byte	0
 7648 3126 28       		.uleb128 0x28
 7649 3127 38060000 		.4byte	.LVL160
 7650 312b 80330000 		.4byte	0x3380
 7651 312f 3A310000 		.4byte	0x313a
 7652 3133 29       		.uleb128 0x29
 7653 3134 01       		.uleb128 0x1
 7654 3135 50       		.byte	0x50
 7655 3136 02       		.uleb128 0x2
 7656 3137 75       		.byte	0x75
 7657 3138 00       		.sleb128 0
ARM GAS  C:\Users\Smaug\AppData\Local\Temp\ccVZzAJS.s 			page 170


 7658 3139 00       		.byte	0
 7659 313a 28       		.uleb128 0x28
 7660 313b 40060000 		.4byte	.LVL161
 7661 313f 47280000 		.4byte	0x2847
 7662 3143 54310000 		.4byte	0x3154
 7663 3147 29       		.uleb128 0x29
 7664 3148 01       		.uleb128 0x1
 7665 3149 50       		.byte	0x50
 7666 314a 02       		.uleb128 0x2
 7667 314b 74       		.byte	0x74
 7668 314c 00       		.sleb128 0
 7669 314d 29       		.uleb128 0x29
 7670 314e 01       		.uleb128 0x1
 7671 314f 51       		.byte	0x51
 7672 3150 02       		.uleb128 0x2
 7673 3151 75       		.byte	0x75
 7674 3152 00       		.sleb128 0
 7675 3153 00       		.byte	0
 7676 3154 2F       		.uleb128 0x2f
 7677 3155 5E060000 		.4byte	.LVL162
 7678 3159 29       		.uleb128 0x29
 7679 315a 01       		.uleb128 0x1
 7680 315b 50       		.byte	0x50
 7681 315c 02       		.uleb128 0x2
 7682 315d 74       		.byte	0x74
 7683 315e 00       		.sleb128 0
 7684 315f 29       		.uleb128 0x29
 7685 3160 01       		.uleb128 0x1
 7686 3161 51       		.byte	0x51
 7687 3162 02       		.uleb128 0x2
 7688 3163 75       		.byte	0x75
 7689 3164 00       		.sleb128 0
 7690 3165 00       		.byte	0
 7691 3166 00       		.byte	0
 7692 3167 18       		.uleb128 0x18
 7693 3168 04       		.byte	0x4
 7694 3169 30180000 		.4byte	0x1830
 7695 316d 18       		.uleb128 0x18
 7696 316e 04       		.byte	0x4
 7697 316f 62190000 		.4byte	0x1962
 7698 3173 18       		.uleb128 0x18
 7699 3174 04       		.byte	0x4
 7700 3175 C41E0000 		.4byte	0x1ec4
 7701 3179 42       		.uleb128 0x42
 7702 317a 1B450000 		.4byte	.LASF910
 7703 317e 06       		.byte	0x6
 7704 317f A7       		.byte	0xa7
 7705 3180 84310000 		.4byte	0x3184
 7706 3184 18       		.uleb128 0x18
 7707 3185 04       		.byte	0x4
 7708 3186 8A310000 		.4byte	0x318a
 7709 318a 07       		.uleb128 0x7
 7710 318b 560D0000 		.4byte	0xd56
 7711 318f 43       		.uleb128 0x43
 7712 3190 4F110000 		.4byte	.LASF911
 7713 3194 01       		.byte	0x1
 7714 3195 2E       		.byte	0x2e
ARM GAS  C:\Users\Smaug\AppData\Local\Temp\ccVZzAJS.s 			page 171


 7715 3196 0A070000 		.4byte	0x70a
 7716 319a 05       		.uleb128 0x5
 7717 319b 03       		.byte	0x3
 7718 319c 00000000 		.4byte	cy_ble_eventHandlerFlag
 7719 31a0 44       		.uleb128 0x44
 7720 31a1 E12F0000 		.4byte	.LASF912
 7721 31a5 02       		.byte	0x2
 7722 31a6 1902     		.2byte	0x219
 7723 31a8 6F260000 		.4byte	0x266f
 7724 31ac 44       		.uleb128 0x44
 7725 31ad AB340000 		.4byte	.LASF913
 7726 31b1 02       		.byte	0x2
 7727 31b2 1B02     		.2byte	0x21b
 7728 31b4 D7200000 		.4byte	0x20d7
 7729 31b8 44       		.uleb128 0x44
 7730 31b9 BC0A0000 		.4byte	.LASF914
 7731 31bd 02       		.byte	0x2
 7732 31be 2202     		.2byte	0x222
 7733 31c0 07210000 		.4byte	0x2107
 7734 31c4 44       		.uleb128 0x44
 7735 31c5 402D0000 		.4byte	.LASF915
 7736 31c9 02       		.byte	0x2
 7737 31ca 2302     		.2byte	0x223
 7738 31cc AE000000 		.4byte	0xae
 7739 31d0 08       		.uleb128 0x8
 7740 31d1 B8180000 		.4byte	0x18b8
 7741 31d5 E0310000 		.4byte	0x31e0
 7742 31d9 09       		.uleb128 0x9
 7743 31da 9E000000 		.4byte	0x9e
 7744 31de 00       		.byte	0
 7745 31df 00       		.byte	0
 7746 31e0 44       		.uleb128 0x44
 7747 31e1 61160000 		.4byte	.LASF916
 7748 31e5 02       		.byte	0x2
 7749 31e6 2C02     		.2byte	0x22c
 7750 31e8 D0310000 		.4byte	0x31d0
 7751 31ec 08       		.uleb128 0x8
 7752 31ed 4F210000 		.4byte	0x214f
 7753 31f1 FC310000 		.4byte	0x31fc
 7754 31f5 09       		.uleb128 0x9
 7755 31f6 9E000000 		.4byte	0x9e
 7756 31fa 00       		.byte	0
 7757 31fb 00       		.byte	0
 7758 31fc 44       		.uleb128 0x44
 7759 31fd 444A0000 		.4byte	.LASF917
 7760 3201 02       		.byte	0x2
 7761 3202 2D02     		.2byte	0x22d
 7762 3204 EC310000 		.4byte	0x31ec
 7763 3208 08       		.uleb128 0x8
 7764 3209 0A070000 		.4byte	0x70a
 7765 320d 18320000 		.4byte	0x3218
 7766 3211 09       		.uleb128 0x9
 7767 3212 9E000000 		.4byte	0x9e
 7768 3216 00       		.byte	0
 7769 3217 00       		.byte	0
 7770 3218 44       		.uleb128 0x44
 7771 3219 D4150000 		.4byte	.LASF918
ARM GAS  C:\Users\Smaug\AppData\Local\Temp\ccVZzAJS.s 			page 172


 7772 321d 02       		.byte	0x2
 7773 321e 2F02     		.2byte	0x22f
 7774 3220 24320000 		.4byte	0x3224
 7775 3224 06       		.uleb128 0x6
 7776 3225 08320000 		.4byte	0x3208
 7777 3229 08       		.uleb128 0x8
 7778 322a 39320000 		.4byte	0x3239
 7779 322e 39320000 		.4byte	0x3239
 7780 3232 09       		.uleb128 0x9
 7781 3233 9E000000 		.4byte	0x9e
 7782 3237 00       		.byte	0
 7783 3238 00       		.byte	0
 7784 3239 06       		.uleb128 0x6
 7785 323a 7D240000 		.4byte	0x247d
 7786 323e 44       		.uleb128 0x44
 7787 323f B3170000 		.4byte	.LASF919
 7788 3243 02       		.byte	0x2
 7789 3244 3002     		.2byte	0x230
 7790 3246 4A320000 		.4byte	0x324a
 7791 324a 06       		.uleb128 0x6
 7792 324b 29320000 		.4byte	0x3229
 7793 324f 44       		.uleb128 0x44
 7794 3250 01020000 		.4byte	.LASF920
 7795 3254 15       		.byte	0x15
 7796 3255 8202     		.2byte	0x282
 7797 3257 5C240000 		.4byte	0x245c
 7798 325b 08       		.uleb128 0x8
 7799 325c AE000000 		.4byte	0xae
 7800 3260 6C320000 		.4byte	0x326c
 7801 3264 0D       		.uleb128 0xd
 7802 3265 9E000000 		.4byte	0x9e
 7803 3269 6B26     		.2byte	0x266b
 7804 326b 00       		.byte	0
 7805 326c 44       		.uleb128 0x44
 7806 326d DA4C0000 		.4byte	.LASF921
 7807 3271 15       		.byte	0x15
 7808 3272 8802     		.2byte	0x288
 7809 3274 5B320000 		.4byte	0x325b
 7810 3278 44       		.uleb128 0x44
 7811 3279 16330000 		.4byte	.LASF922
 7812 327d 15       		.byte	0x15
 7813 327e 8D02     		.2byte	0x28d
 7814 3280 84320000 		.4byte	0x3284
 7815 3284 18       		.uleb128 0x18
 7816 3285 04       		.byte	0x4
 7817 3286 86260000 		.4byte	0x2686
 7818 328a 43       		.uleb128 0x43
 7819 328b 57400000 		.4byte	.LASF923
 7820 328f 01       		.byte	0x1
 7821 3290 3F       		.byte	0x3f
 7822 3291 EC260000 		.4byte	0x26ec
 7823 3295 05       		.uleb128 0x5
 7824 3296 03       		.byte	0x3
 7825 3297 00000000 		.4byte	cy_ble_eventHandler
 7826 329b 43       		.uleb128 0x43
 7827 329c 854D0000 		.4byte	.LASF924
 7828 32a0 01       		.byte	0x1
ARM GAS  C:\Users\Smaug\AppData\Local\Temp\ccVZzAJS.s 			page 173


 7829 32a1 2D       		.byte	0x2d
 7830 32a2 AC320000 		.4byte	0x32ac
 7831 32a6 05       		.uleb128 0x5
 7832 32a7 03       		.byte	0x3
 7833 32a8 00000000 		.4byte	cy_ble_busyStatus
 7834 32ac 06       		.uleb128 0x6
 7835 32ad 08320000 		.4byte	0x3208
 7836 32b1 43       		.uleb128 0x43
 7837 32b2 252A0000 		.4byte	.LASF925
 7838 32b6 01       		.byte	0x1
 7839 32b7 2F       		.byte	0x2f
 7840 32b8 DA000000 		.4byte	0xda
 7841 32bc 05       		.uleb128 0x5
 7842 32bd 03       		.byte	0x3
 7843 32be 00000000 		.4byte	cy_ble_cmdStatus
 7844 32c2 43       		.uleb128 0x43
 7845 32c3 14230000 		.4byte	.LASF926
 7846 32c7 01       		.byte	0x1
 7847 32c8 32       		.byte	0x32
 7848 32c9 AE000000 		.4byte	0xae
 7849 32cd 05       		.uleb128 0x5
 7850 32ce 03       		.byte	0x3
 7851 32cf 00000000 		.4byte	cy_ble_advertisingIntervalType
 7852 32d3 45       		.uleb128 0x45
 7853 32d4 4F410000 		.4byte	.LASF930
 7854 32d8 4F410000 		.4byte	.LASF930
 7855 32dc 46       		.uleb128 0x46
 7856 32dd DA440000 		.4byte	.LASF927
 7857 32e1 DA440000 		.4byte	.LASF927
 7858 32e5 11       		.byte	0x11
 7859 32e6 1101     		.2byte	0x111
 7860 32e8 46       		.uleb128 0x46
 7861 32e9 15020000 		.4byte	.LASF928
 7862 32ed 15020000 		.4byte	.LASF928
 7863 32f1 11       		.byte	0x11
 7864 32f2 5F01     		.2byte	0x15f
 7865 32f4 46       		.uleb128 0x46
 7866 32f5 CD130000 		.4byte	.LASF929
 7867 32f9 CD130000 		.4byte	.LASF929
 7868 32fd 17       		.byte	0x17
 7869 32fe 3C01     		.2byte	0x13c
 7870 3300 45       		.uleb128 0x45
 7871 3301 7F2C0000 		.4byte	.LASF931
 7872 3305 7F2C0000 		.4byte	.LASF931
 7873 3309 46       		.uleb128 0x46
 7874 330a FB3A0000 		.4byte	.LASF932
 7875 330e FB3A0000 		.4byte	.LASF932
 7876 3312 0C       		.byte	0xc
 7877 3313 1D05     		.2byte	0x51d
 7878 3315 46       		.uleb128 0x46
 7879 3316 44430000 		.4byte	.LASF933
 7880 331a 44430000 		.4byte	.LASF933
 7881 331e 0C       		.byte	0xc
 7882 331f 5604     		.2byte	0x456
 7883 3321 46       		.uleb128 0x46
 7884 3322 D9180000 		.4byte	.LASF934
 7885 3326 D9180000 		.4byte	.LASF934
ARM GAS  C:\Users\Smaug\AppData\Local\Temp\ccVZzAJS.s 			page 174


 7886 332a 09       		.byte	0x9
 7887 332b 9203     		.2byte	0x392
 7888 332d 46       		.uleb128 0x46
 7889 332e 28270000 		.4byte	.LASF935
 7890 3332 28270000 		.4byte	.LASF935
 7891 3336 11       		.byte	0x11
 7892 3337 3B01     		.2byte	0x13b
 7893 3339 47       		.uleb128 0x47
 7894 333a FD1C0000 		.4byte	.LASF936
 7895 333e FD1C0000 		.4byte	.LASF936
 7896 3342 13       		.byte	0x13
 7897 3343 EC       		.byte	0xec
 7898 3344 46       		.uleb128 0x46
 7899 3345 81540000 		.4byte	.LASF937
 7900 3349 81540000 		.4byte	.LASF937
 7901 334d 0E       		.byte	0xe
 7902 334e A406     		.2byte	0x6a4
 7903 3350 46       		.uleb128 0x46
 7904 3351 33220000 		.4byte	.LASF938
 7905 3355 33220000 		.4byte	.LASF938
 7906 3359 02       		.byte	0x2
 7907 335a FD01     		.2byte	0x1fd
 7908 335c 46       		.uleb128 0x46
 7909 335d 09460000 		.4byte	.LASF939
 7910 3361 09460000 		.4byte	.LASF939
 7911 3365 0E       		.byte	0xe
 7912 3366 AD03     		.2byte	0x3ad
 7913 3368 46       		.uleb128 0x46
 7914 3369 7D500000 		.4byte	.LASF940
 7915 336d 7D500000 		.4byte	.LASF940
 7916 3371 15       		.byte	0x15
 7917 3372 6202     		.2byte	0x262
 7918 3374 46       		.uleb128 0x46
 7919 3375 C12B0000 		.4byte	.LASF941
 7920 3379 C12B0000 		.4byte	.LASF941
 7921 337d 02       		.byte	0x2
 7922 337e F901     		.2byte	0x1f9
 7923 3380 47       		.uleb128 0x47
 7924 3381 B4140000 		.4byte	.LASF942
 7925 3385 B4140000 		.4byte	.LASF942
 7926 3389 13       		.byte	0x13
 7927 338a ED       		.byte	0xed
 7928 338b 00       		.byte	0
 7929              		.section	.debug_abbrev,"",%progbits
 7930              	.Ldebug_abbrev0:
 7931 0000 01       		.uleb128 0x1
 7932 0001 11       		.uleb128 0x11
 7933 0002 01       		.byte	0x1
 7934 0003 25       		.uleb128 0x25
 7935 0004 0E       		.uleb128 0xe
 7936 0005 13       		.uleb128 0x13
 7937 0006 0B       		.uleb128 0xb
 7938 0007 03       		.uleb128 0x3
 7939 0008 0E       		.uleb128 0xe
 7940 0009 1B       		.uleb128 0x1b
 7941 000a 0E       		.uleb128 0xe
 7942 000b 55       		.uleb128 0x55
ARM GAS  C:\Users\Smaug\AppData\Local\Temp\ccVZzAJS.s 			page 175


 7943 000c 17       		.uleb128 0x17
 7944 000d 11       		.uleb128 0x11
 7945 000e 01       		.uleb128 0x1
 7946 000f 10       		.uleb128 0x10
 7947 0010 17       		.uleb128 0x17
 7948 0011 00       		.byte	0
 7949 0012 00       		.byte	0
 7950 0013 02       		.uleb128 0x2
 7951 0014 24       		.uleb128 0x24
 7952 0015 00       		.byte	0
 7953 0016 0B       		.uleb128 0xb
 7954 0017 0B       		.uleb128 0xb
 7955 0018 3E       		.uleb128 0x3e
 7956 0019 0B       		.uleb128 0xb
 7957 001a 03       		.uleb128 0x3
 7958 001b 08       		.uleb128 0x8
 7959 001c 00       		.byte	0
 7960 001d 00       		.byte	0
 7961 001e 03       		.uleb128 0x3
 7962 001f 24       		.uleb128 0x24
 7963 0020 00       		.byte	0
 7964 0021 0B       		.uleb128 0xb
 7965 0022 0B       		.uleb128 0xb
 7966 0023 3E       		.uleb128 0x3e
 7967 0024 0B       		.uleb128 0xb
 7968 0025 03       		.uleb128 0x3
 7969 0026 0E       		.uleb128 0xe
 7970 0027 00       		.byte	0
 7971 0028 00       		.byte	0
 7972 0029 04       		.uleb128 0x4
 7973 002a 16       		.uleb128 0x16
 7974 002b 00       		.byte	0
 7975 002c 03       		.uleb128 0x3
 7976 002d 0E       		.uleb128 0xe
 7977 002e 3A       		.uleb128 0x3a
 7978 002f 0B       		.uleb128 0xb
 7979 0030 3B       		.uleb128 0x3b
 7980 0031 0B       		.uleb128 0xb
 7981 0032 49       		.uleb128 0x49
 7982 0033 13       		.uleb128 0x13
 7983 0034 00       		.byte	0
 7984 0035 00       		.byte	0
 7985 0036 05       		.uleb128 0x5
 7986 0037 0F       		.uleb128 0xf
 7987 0038 00       		.byte	0
 7988 0039 0B       		.uleb128 0xb
 7989 003a 0B       		.uleb128 0xb
 7990 003b 00       		.byte	0
 7991 003c 00       		.byte	0
 7992 003d 06       		.uleb128 0x6
 7993 003e 35       		.uleb128 0x35
 7994 003f 00       		.byte	0
 7995 0040 49       		.uleb128 0x49
 7996 0041 13       		.uleb128 0x13
 7997 0042 00       		.byte	0
 7998 0043 00       		.byte	0
 7999 0044 07       		.uleb128 0x7
ARM GAS  C:\Users\Smaug\AppData\Local\Temp\ccVZzAJS.s 			page 176


 8000 0045 26       		.uleb128 0x26
 8001 0046 00       		.byte	0
 8002 0047 49       		.uleb128 0x49
 8003 0048 13       		.uleb128 0x13
 8004 0049 00       		.byte	0
 8005 004a 00       		.byte	0
 8006 004b 08       		.uleb128 0x8
 8007 004c 01       		.uleb128 0x1
 8008 004d 01       		.byte	0x1
 8009 004e 49       		.uleb128 0x49
 8010 004f 13       		.uleb128 0x13
 8011 0050 01       		.uleb128 0x1
 8012 0051 13       		.uleb128 0x13
 8013 0052 00       		.byte	0
 8014 0053 00       		.byte	0
 8015 0054 09       		.uleb128 0x9
 8016 0055 21       		.uleb128 0x21
 8017 0056 00       		.byte	0
 8018 0057 49       		.uleb128 0x49
 8019 0058 13       		.uleb128 0x13
 8020 0059 2F       		.uleb128 0x2f
 8021 005a 0B       		.uleb128 0xb
 8022 005b 00       		.byte	0
 8023 005c 00       		.byte	0
 8024 005d 0A       		.uleb128 0xa
 8025 005e 13       		.uleb128 0x13
 8026 005f 01       		.byte	0x1
 8027 0060 0B       		.uleb128 0xb
 8028 0061 05       		.uleb128 0x5
 8029 0062 3A       		.uleb128 0x3a
 8030 0063 0B       		.uleb128 0xb
 8031 0064 3B       		.uleb128 0x3b
 8032 0065 0B       		.uleb128 0xb
 8033 0066 01       		.uleb128 0x1
 8034 0067 13       		.uleb128 0x13
 8035 0068 00       		.byte	0
 8036 0069 00       		.byte	0
 8037 006a 0B       		.uleb128 0xb
 8038 006b 0D       		.uleb128 0xd
 8039 006c 00       		.byte	0
 8040 006d 03       		.uleb128 0x3
 8041 006e 0E       		.uleb128 0xe
 8042 006f 3A       		.uleb128 0x3a
 8043 0070 0B       		.uleb128 0xb
 8044 0071 3B       		.uleb128 0x3b
 8045 0072 0B       		.uleb128 0xb
 8046 0073 49       		.uleb128 0x49
 8047 0074 13       		.uleb128 0x13
 8048 0075 38       		.uleb128 0x38
 8049 0076 0B       		.uleb128 0xb
 8050 0077 00       		.byte	0
 8051 0078 00       		.byte	0
 8052 0079 0C       		.uleb128 0xc
 8053 007a 0D       		.uleb128 0xd
 8054 007b 00       		.byte	0
 8055 007c 03       		.uleb128 0x3
 8056 007d 0E       		.uleb128 0xe
ARM GAS  C:\Users\Smaug\AppData\Local\Temp\ccVZzAJS.s 			page 177


 8057 007e 3A       		.uleb128 0x3a
 8058 007f 0B       		.uleb128 0xb
 8059 0080 3B       		.uleb128 0x3b
 8060 0081 0B       		.uleb128 0xb
 8061 0082 49       		.uleb128 0x49
 8062 0083 13       		.uleb128 0x13
 8063 0084 38       		.uleb128 0x38
 8064 0085 05       		.uleb128 0x5
 8065 0086 00       		.byte	0
 8066 0087 00       		.byte	0
 8067 0088 0D       		.uleb128 0xd
 8068 0089 21       		.uleb128 0x21
 8069 008a 00       		.byte	0
 8070 008b 49       		.uleb128 0x49
 8071 008c 13       		.uleb128 0x13
 8072 008d 2F       		.uleb128 0x2f
 8073 008e 05       		.uleb128 0x5
 8074 008f 00       		.byte	0
 8075 0090 00       		.byte	0
 8076 0091 0E       		.uleb128 0xe
 8077 0092 13       		.uleb128 0x13
 8078 0093 01       		.byte	0x1
 8079 0094 0B       		.uleb128 0xb
 8080 0095 0B       		.uleb128 0xb
 8081 0096 3A       		.uleb128 0x3a
 8082 0097 0B       		.uleb128 0xb
 8083 0098 3B       		.uleb128 0x3b
 8084 0099 0B       		.uleb128 0xb
 8085 009a 01       		.uleb128 0x1
 8086 009b 13       		.uleb128 0x13
 8087 009c 00       		.byte	0
 8088 009d 00       		.byte	0
 8089 009e 0F       		.uleb128 0xf
 8090 009f 04       		.uleb128 0x4
 8091 00a0 01       		.byte	0x1
 8092 00a1 0B       		.uleb128 0xb
 8093 00a2 0B       		.uleb128 0xb
 8094 00a3 49       		.uleb128 0x49
 8095 00a4 13       		.uleb128 0x13
 8096 00a5 3A       		.uleb128 0x3a
 8097 00a6 0B       		.uleb128 0xb
 8098 00a7 3B       		.uleb128 0x3b
 8099 00a8 0B       		.uleb128 0xb
 8100 00a9 01       		.uleb128 0x1
 8101 00aa 13       		.uleb128 0x13
 8102 00ab 00       		.byte	0
 8103 00ac 00       		.byte	0
 8104 00ad 10       		.uleb128 0x10
 8105 00ae 28       		.uleb128 0x28
 8106 00af 00       		.byte	0
 8107 00b0 03       		.uleb128 0x3
 8108 00b1 0E       		.uleb128 0xe
 8109 00b2 1C       		.uleb128 0x1c
 8110 00b3 0D       		.uleb128 0xd
 8111 00b4 00       		.byte	0
 8112 00b5 00       		.byte	0
 8113 00b6 11       		.uleb128 0x11
ARM GAS  C:\Users\Smaug\AppData\Local\Temp\ccVZzAJS.s 			page 178


 8114 00b7 28       		.uleb128 0x28
 8115 00b8 00       		.byte	0
 8116 00b9 03       		.uleb128 0x3
 8117 00ba 0E       		.uleb128 0xe
 8118 00bb 1C       		.uleb128 0x1c
 8119 00bc 0B       		.uleb128 0xb
 8120 00bd 00       		.byte	0
 8121 00be 00       		.byte	0
 8122 00bf 12       		.uleb128 0x12
 8123 00c0 16       		.uleb128 0x16
 8124 00c1 00       		.byte	0
 8125 00c2 03       		.uleb128 0x3
 8126 00c3 0E       		.uleb128 0xe
 8127 00c4 3A       		.uleb128 0x3a
 8128 00c5 0B       		.uleb128 0xb
 8129 00c6 3B       		.uleb128 0x3b
 8130 00c7 05       		.uleb128 0x5
 8131 00c8 49       		.uleb128 0x49
 8132 00c9 13       		.uleb128 0x13
 8133 00ca 00       		.byte	0
 8134 00cb 00       		.byte	0
 8135 00cc 13       		.uleb128 0x13
 8136 00cd 13       		.uleb128 0x13
 8137 00ce 01       		.byte	0x1
 8138 00cf 0B       		.uleb128 0xb
 8139 00d0 0B       		.uleb128 0xb
 8140 00d1 3A       		.uleb128 0x3a
 8141 00d2 0B       		.uleb128 0xb
 8142 00d3 3B       		.uleb128 0x3b
 8143 00d4 05       		.uleb128 0x5
 8144 00d5 01       		.uleb128 0x1
 8145 00d6 13       		.uleb128 0x13
 8146 00d7 00       		.byte	0
 8147 00d8 00       		.byte	0
 8148 00d9 14       		.uleb128 0x14
 8149 00da 0D       		.uleb128 0xd
 8150 00db 00       		.byte	0
 8151 00dc 03       		.uleb128 0x3
 8152 00dd 0E       		.uleb128 0xe
 8153 00de 3A       		.uleb128 0x3a
 8154 00df 0B       		.uleb128 0xb
 8155 00e0 3B       		.uleb128 0x3b
 8156 00e1 05       		.uleb128 0x5
 8157 00e2 49       		.uleb128 0x49
 8158 00e3 13       		.uleb128 0x13
 8159 00e4 38       		.uleb128 0x38
 8160 00e5 0B       		.uleb128 0xb
 8161 00e6 00       		.byte	0
 8162 00e7 00       		.byte	0
 8163 00e8 15       		.uleb128 0x15
 8164 00e9 04       		.uleb128 0x4
 8165 00ea 01       		.byte	0x1
 8166 00eb 0B       		.uleb128 0xb
 8167 00ec 0B       		.uleb128 0xb
 8168 00ed 49       		.uleb128 0x49
 8169 00ee 13       		.uleb128 0x13
 8170 00ef 3A       		.uleb128 0x3a
ARM GAS  C:\Users\Smaug\AppData\Local\Temp\ccVZzAJS.s 			page 179


 8171 00f0 0B       		.uleb128 0xb
 8172 00f1 3B       		.uleb128 0x3b
 8173 00f2 05       		.uleb128 0x5
 8174 00f3 01       		.uleb128 0x1
 8175 00f4 13       		.uleb128 0x13
 8176 00f5 00       		.byte	0
 8177 00f6 00       		.byte	0
 8178 00f7 16       		.uleb128 0x16
 8179 00f8 28       		.uleb128 0x28
 8180 00f9 00       		.byte	0
 8181 00fa 03       		.uleb128 0x3
 8182 00fb 0E       		.uleb128 0xe
 8183 00fc 1C       		.uleb128 0x1c
 8184 00fd 05       		.uleb128 0x5
 8185 00fe 00       		.byte	0
 8186 00ff 00       		.byte	0
 8187 0100 17       		.uleb128 0x17
 8188 0101 28       		.uleb128 0x28
 8189 0102 00       		.byte	0
 8190 0103 03       		.uleb128 0x3
 8191 0104 0E       		.uleb128 0xe
 8192 0105 1C       		.uleb128 0x1c
 8193 0106 06       		.uleb128 0x6
 8194 0107 00       		.byte	0
 8195 0108 00       		.byte	0
 8196 0109 18       		.uleb128 0x18
 8197 010a 0F       		.uleb128 0xf
 8198 010b 00       		.byte	0
 8199 010c 0B       		.uleb128 0xb
 8200 010d 0B       		.uleb128 0xb
 8201 010e 49       		.uleb128 0x49
 8202 010f 13       		.uleb128 0x13
 8203 0110 00       		.byte	0
 8204 0111 00       		.byte	0
 8205 0112 19       		.uleb128 0x19
 8206 0113 17       		.uleb128 0x17
 8207 0114 01       		.byte	0x1
 8208 0115 0B       		.uleb128 0xb
 8209 0116 0B       		.uleb128 0xb
 8210 0117 3A       		.uleb128 0x3a
 8211 0118 0B       		.uleb128 0xb
 8212 0119 3B       		.uleb128 0x3b
 8213 011a 05       		.uleb128 0x5
 8214 011b 01       		.uleb128 0x1
 8215 011c 13       		.uleb128 0x13
 8216 011d 00       		.byte	0
 8217 011e 00       		.byte	0
 8218 011f 1A       		.uleb128 0x1a
 8219 0120 0D       		.uleb128 0xd
 8220 0121 00       		.byte	0
 8221 0122 03       		.uleb128 0x3
 8222 0123 0E       		.uleb128 0xe
 8223 0124 3A       		.uleb128 0x3a
 8224 0125 0B       		.uleb128 0xb
 8225 0126 3B       		.uleb128 0x3b
 8226 0127 05       		.uleb128 0x5
 8227 0128 49       		.uleb128 0x49
ARM GAS  C:\Users\Smaug\AppData\Local\Temp\ccVZzAJS.s 			page 180


 8228 0129 13       		.uleb128 0x13
 8229 012a 00       		.byte	0
 8230 012b 00       		.byte	0
 8231 012c 1B       		.uleb128 0x1b
 8232 012d 0D       		.uleb128 0xd
 8233 012e 00       		.byte	0
 8234 012f 03       		.uleb128 0x3
 8235 0130 08       		.uleb128 0x8
 8236 0131 3A       		.uleb128 0x3a
 8237 0132 0B       		.uleb128 0xb
 8238 0133 3B       		.uleb128 0x3b
 8239 0134 05       		.uleb128 0x5
 8240 0135 49       		.uleb128 0x49
 8241 0136 13       		.uleb128 0x13
 8242 0137 38       		.uleb128 0x38
 8243 0138 0B       		.uleb128 0xb
 8244 0139 00       		.byte	0
 8245 013a 00       		.byte	0
 8246 013b 1C       		.uleb128 0x1c
 8247 013c 17       		.uleb128 0x17
 8248 013d 01       		.byte	0x1
 8249 013e 0B       		.uleb128 0xb
 8250 013f 0B       		.uleb128 0xb
 8251 0140 3A       		.uleb128 0x3a
 8252 0141 0B       		.uleb128 0xb
 8253 0142 3B       		.uleb128 0x3b
 8254 0143 0B       		.uleb128 0xb
 8255 0144 01       		.uleb128 0x1
 8256 0145 13       		.uleb128 0x13
 8257 0146 00       		.byte	0
 8258 0147 00       		.byte	0
 8259 0148 1D       		.uleb128 0x1d
 8260 0149 0D       		.uleb128 0xd
 8261 014a 00       		.byte	0
 8262 014b 03       		.uleb128 0x3
 8263 014c 0E       		.uleb128 0xe
 8264 014d 3A       		.uleb128 0x3a
 8265 014e 0B       		.uleb128 0xb
 8266 014f 3B       		.uleb128 0x3b
 8267 0150 0B       		.uleb128 0xb
 8268 0151 49       		.uleb128 0x49
 8269 0152 13       		.uleb128 0x13
 8270 0153 00       		.byte	0
 8271 0154 00       		.byte	0
 8272 0155 1E       		.uleb128 0x1e
 8273 0156 15       		.uleb128 0x15
 8274 0157 01       		.byte	0x1
 8275 0158 27       		.uleb128 0x27
 8276 0159 19       		.uleb128 0x19
 8277 015a 01       		.uleb128 0x1
 8278 015b 13       		.uleb128 0x13
 8279 015c 00       		.byte	0
 8280 015d 00       		.byte	0
 8281 015e 1F       		.uleb128 0x1f
 8282 015f 05       		.uleb128 0x5
 8283 0160 00       		.byte	0
 8284 0161 49       		.uleb128 0x49
ARM GAS  C:\Users\Smaug\AppData\Local\Temp\ccVZzAJS.s 			page 181


 8285 0162 13       		.uleb128 0x13
 8286 0163 00       		.byte	0
 8287 0164 00       		.byte	0
 8288 0165 20       		.uleb128 0x20
 8289 0166 15       		.uleb128 0x15
 8290 0167 01       		.byte	0x1
 8291 0168 27       		.uleb128 0x27
 8292 0169 19       		.uleb128 0x19
 8293 016a 49       		.uleb128 0x49
 8294 016b 13       		.uleb128 0x13
 8295 016c 01       		.uleb128 0x1
 8296 016d 13       		.uleb128 0x13
 8297 016e 00       		.byte	0
 8298 016f 00       		.byte	0
 8299 0170 21       		.uleb128 0x21
 8300 0171 2E       		.uleb128 0x2e
 8301 0172 01       		.byte	0x1
 8302 0173 03       		.uleb128 0x3
 8303 0174 0E       		.uleb128 0xe
 8304 0175 3A       		.uleb128 0x3a
 8305 0176 0B       		.uleb128 0xb
 8306 0177 3B       		.uleb128 0x3b
 8307 0178 05       		.uleb128 0x5
 8308 0179 27       		.uleb128 0x27
 8309 017a 19       		.uleb128 0x19
 8310 017b 49       		.uleb128 0x49
 8311 017c 13       		.uleb128 0x13
 8312 017d 20       		.uleb128 0x20
 8313 017e 0B       		.uleb128 0xb
 8314 017f 01       		.uleb128 0x1
 8315 0180 13       		.uleb128 0x13
 8316 0181 00       		.byte	0
 8317 0182 00       		.byte	0
 8318 0183 22       		.uleb128 0x22
 8319 0184 05       		.uleb128 0x5
 8320 0185 00       		.byte	0
 8321 0186 03       		.uleb128 0x3
 8322 0187 0E       		.uleb128 0xe
 8323 0188 3A       		.uleb128 0x3a
 8324 0189 0B       		.uleb128 0xb
 8325 018a 3B       		.uleb128 0x3b
 8326 018b 05       		.uleb128 0x5
 8327 018c 49       		.uleb128 0x49
 8328 018d 13       		.uleb128 0x13
 8329 018e 00       		.byte	0
 8330 018f 00       		.byte	0
 8331 0190 23       		.uleb128 0x23
 8332 0191 2E       		.uleb128 0x2e
 8333 0192 01       		.byte	0x1
 8334 0193 03       		.uleb128 0x3
 8335 0194 0E       		.uleb128 0xe
 8336 0195 3A       		.uleb128 0x3a
 8337 0196 0B       		.uleb128 0xb
 8338 0197 3B       		.uleb128 0x3b
 8339 0198 05       		.uleb128 0x5
 8340 0199 27       		.uleb128 0x27
 8341 019a 19       		.uleb128 0x19
ARM GAS  C:\Users\Smaug\AppData\Local\Temp\ccVZzAJS.s 			page 182


 8342 019b 20       		.uleb128 0x20
 8343 019c 0B       		.uleb128 0xb
 8344 019d 01       		.uleb128 0x1
 8345 019e 13       		.uleb128 0x13
 8346 019f 00       		.byte	0
 8347 01a0 00       		.byte	0
 8348 01a1 24       		.uleb128 0x24
 8349 01a2 2E       		.uleb128 0x2e
 8350 01a3 00       		.byte	0
 8351 01a4 03       		.uleb128 0x3
 8352 01a5 0E       		.uleb128 0xe
 8353 01a6 3A       		.uleb128 0x3a
 8354 01a7 0B       		.uleb128 0xb
 8355 01a8 3B       		.uleb128 0x3b
 8356 01a9 05       		.uleb128 0x5
 8357 01aa 27       		.uleb128 0x27
 8358 01ab 19       		.uleb128 0x19
 8359 01ac 49       		.uleb128 0x49
 8360 01ad 13       		.uleb128 0x13
 8361 01ae 20       		.uleb128 0x20
 8362 01af 0B       		.uleb128 0xb
 8363 01b0 00       		.byte	0
 8364 01b1 00       		.byte	0
 8365 01b2 25       		.uleb128 0x25
 8366 01b3 2E       		.uleb128 0x2e
 8367 01b4 01       		.byte	0x1
 8368 01b5 03       		.uleb128 0x3
 8369 01b6 0E       		.uleb128 0xe
 8370 01b7 3A       		.uleb128 0x3a
 8371 01b8 0B       		.uleb128 0xb
 8372 01b9 3B       		.uleb128 0x3b
 8373 01ba 0B       		.uleb128 0xb
 8374 01bb 27       		.uleb128 0x27
 8375 01bc 19       		.uleb128 0x19
 8376 01bd 11       		.uleb128 0x11
 8377 01be 01       		.uleb128 0x1
 8378 01bf 12       		.uleb128 0x12
 8379 01c0 06       		.uleb128 0x6
 8380 01c1 40       		.uleb128 0x40
 8381 01c2 18       		.uleb128 0x18
 8382 01c3 9742     		.uleb128 0x2117
 8383 01c5 19       		.uleb128 0x19
 8384 01c6 01       		.uleb128 0x1
 8385 01c7 13       		.uleb128 0x13
 8386 01c8 00       		.byte	0
 8387 01c9 00       		.byte	0
 8388 01ca 26       		.uleb128 0x26
 8389 01cb 05       		.uleb128 0x5
 8390 01cc 00       		.byte	0
 8391 01cd 03       		.uleb128 0x3
 8392 01ce 0E       		.uleb128 0xe
 8393 01cf 3A       		.uleb128 0x3a
 8394 01d0 0B       		.uleb128 0xb
 8395 01d1 3B       		.uleb128 0x3b
 8396 01d2 0B       		.uleb128 0xb
 8397 01d3 49       		.uleb128 0x49
 8398 01d4 13       		.uleb128 0x13
ARM GAS  C:\Users\Smaug\AppData\Local\Temp\ccVZzAJS.s 			page 183


 8399 01d5 02       		.uleb128 0x2
 8400 01d6 17       		.uleb128 0x17
 8401 01d7 00       		.byte	0
 8402 01d8 00       		.byte	0
 8403 01d9 27       		.uleb128 0x27
 8404 01da 34       		.uleb128 0x34
 8405 01db 00       		.byte	0
 8406 01dc 03       		.uleb128 0x3
 8407 01dd 0E       		.uleb128 0xe
 8408 01de 3A       		.uleb128 0x3a
 8409 01df 0B       		.uleb128 0xb
 8410 01e0 3B       		.uleb128 0x3b
 8411 01e1 0B       		.uleb128 0xb
 8412 01e2 49       		.uleb128 0x49
 8413 01e3 13       		.uleb128 0x13
 8414 01e4 02       		.uleb128 0x2
 8415 01e5 18       		.uleb128 0x18
 8416 01e6 00       		.byte	0
 8417 01e7 00       		.byte	0
 8418 01e8 28       		.uleb128 0x28
 8419 01e9 898201   		.uleb128 0x4109
 8420 01ec 01       		.byte	0x1
 8421 01ed 11       		.uleb128 0x11
 8422 01ee 01       		.uleb128 0x1
 8423 01ef 31       		.uleb128 0x31
 8424 01f0 13       		.uleb128 0x13
 8425 01f1 01       		.uleb128 0x1
 8426 01f2 13       		.uleb128 0x13
 8427 01f3 00       		.byte	0
 8428 01f4 00       		.byte	0
 8429 01f5 29       		.uleb128 0x29
 8430 01f6 8A8201   		.uleb128 0x410a
 8431 01f9 00       		.byte	0
 8432 01fa 02       		.uleb128 0x2
 8433 01fb 18       		.uleb128 0x18
 8434 01fc 9142     		.uleb128 0x2111
 8435 01fe 18       		.uleb128 0x18
 8436 01ff 00       		.byte	0
 8437 0200 00       		.byte	0
 8438 0201 2A       		.uleb128 0x2a
 8439 0202 898201   		.uleb128 0x4109
 8440 0205 00       		.byte	0
 8441 0206 11       		.uleb128 0x11
 8442 0207 01       		.uleb128 0x1
 8443 0208 31       		.uleb128 0x31
 8444 0209 13       		.uleb128 0x13
 8445 020a 00       		.byte	0
 8446 020b 00       		.byte	0
 8447 020c 2B       		.uleb128 0x2b
 8448 020d 2E       		.uleb128 0x2e
 8449 020e 01       		.byte	0x1
 8450 020f 3F       		.uleb128 0x3f
 8451 0210 19       		.uleb128 0x19
 8452 0211 03       		.uleb128 0x3
 8453 0212 0E       		.uleb128 0xe
 8454 0213 3A       		.uleb128 0x3a
 8455 0214 0B       		.uleb128 0xb
ARM GAS  C:\Users\Smaug\AppData\Local\Temp\ccVZzAJS.s 			page 184


 8456 0215 3B       		.uleb128 0x3b
 8457 0216 0B       		.uleb128 0xb
 8458 0217 27       		.uleb128 0x27
 8459 0218 19       		.uleb128 0x19
 8460 0219 49       		.uleb128 0x49
 8461 021a 13       		.uleb128 0x13
 8462 021b 11       		.uleb128 0x11
 8463 021c 01       		.uleb128 0x1
 8464 021d 12       		.uleb128 0x12
 8465 021e 06       		.uleb128 0x6
 8466 021f 40       		.uleb128 0x40
 8467 0220 18       		.uleb128 0x18
 8468 0221 9742     		.uleb128 0x2117
 8469 0223 19       		.uleb128 0x19
 8470 0224 01       		.uleb128 0x1
 8471 0225 13       		.uleb128 0x13
 8472 0226 00       		.byte	0
 8473 0227 00       		.byte	0
 8474 0228 2C       		.uleb128 0x2c
 8475 0229 34       		.uleb128 0x34
 8476 022a 00       		.byte	0
 8477 022b 03       		.uleb128 0x3
 8478 022c 0E       		.uleb128 0xe
 8479 022d 3A       		.uleb128 0x3a
 8480 022e 0B       		.uleb128 0xb
 8481 022f 3B       		.uleb128 0x3b
 8482 0230 0B       		.uleb128 0xb
 8483 0231 49       		.uleb128 0x49
 8484 0232 13       		.uleb128 0x13
 8485 0233 02       		.uleb128 0x2
 8486 0234 17       		.uleb128 0x17
 8487 0235 00       		.byte	0
 8488 0236 00       		.byte	0
 8489 0237 2D       		.uleb128 0x2d
 8490 0238 0B       		.uleb128 0xb
 8491 0239 01       		.byte	0x1
 8492 023a 55       		.uleb128 0x55
 8493 023b 17       		.uleb128 0x17
 8494 023c 00       		.byte	0
 8495 023d 00       		.byte	0
 8496 023e 2E       		.uleb128 0x2e
 8497 023f 34       		.uleb128 0x34
 8498 0240 00       		.byte	0
 8499 0241 03       		.uleb128 0x3
 8500 0242 08       		.uleb128 0x8
 8501 0243 3A       		.uleb128 0x3a
 8502 0244 0B       		.uleb128 0xb
 8503 0245 3B       		.uleb128 0x3b
 8504 0246 0B       		.uleb128 0xb
 8505 0247 49       		.uleb128 0x49
 8506 0248 13       		.uleb128 0x13
 8507 0249 02       		.uleb128 0x2
 8508 024a 17       		.uleb128 0x17
 8509 024b 00       		.byte	0
 8510 024c 00       		.byte	0
 8511 024d 2F       		.uleb128 0x2f
 8512 024e 898201   		.uleb128 0x4109
ARM GAS  C:\Users\Smaug\AppData\Local\Temp\ccVZzAJS.s 			page 185


 8513 0251 01       		.byte	0x1
 8514 0252 11       		.uleb128 0x11
 8515 0253 01       		.uleb128 0x1
 8516 0254 00       		.byte	0
 8517 0255 00       		.byte	0
 8518 0256 30       		.uleb128 0x30
 8519 0257 2E       		.uleb128 0x2e
 8520 0258 01       		.byte	0x1
 8521 0259 3F       		.uleb128 0x3f
 8522 025a 19       		.uleb128 0x19
 8523 025b 03       		.uleb128 0x3
 8524 025c 0E       		.uleb128 0xe
 8525 025d 3A       		.uleb128 0x3a
 8526 025e 0B       		.uleb128 0xb
 8527 025f 3B       		.uleb128 0x3b
 8528 0260 05       		.uleb128 0x5
 8529 0261 27       		.uleb128 0x27
 8530 0262 19       		.uleb128 0x19
 8531 0263 49       		.uleb128 0x49
 8532 0264 13       		.uleb128 0x13
 8533 0265 11       		.uleb128 0x11
 8534 0266 01       		.uleb128 0x1
 8535 0267 12       		.uleb128 0x12
 8536 0268 06       		.uleb128 0x6
 8537 0269 40       		.uleb128 0x40
 8538 026a 18       		.uleb128 0x18
 8539 026b 9742     		.uleb128 0x2117
 8540 026d 19       		.uleb128 0x19
 8541 026e 01       		.uleb128 0x1
 8542 026f 13       		.uleb128 0x13
 8543 0270 00       		.byte	0
 8544 0271 00       		.byte	0
 8545 0272 31       		.uleb128 0x31
 8546 0273 05       		.uleb128 0x5
 8547 0274 00       		.byte	0
 8548 0275 03       		.uleb128 0x3
 8549 0276 0E       		.uleb128 0xe
 8550 0277 3A       		.uleb128 0x3a
 8551 0278 0B       		.uleb128 0xb
 8552 0279 3B       		.uleb128 0x3b
 8553 027a 05       		.uleb128 0x5
 8554 027b 49       		.uleb128 0x49
 8555 027c 13       		.uleb128 0x13
 8556 027d 02       		.uleb128 0x2
 8557 027e 17       		.uleb128 0x17
 8558 027f 00       		.byte	0
 8559 0280 00       		.byte	0
 8560 0281 32       		.uleb128 0x32
 8561 0282 34       		.uleb128 0x34
 8562 0283 00       		.byte	0
 8563 0284 03       		.uleb128 0x3
 8564 0285 0E       		.uleb128 0xe
 8565 0286 3A       		.uleb128 0x3a
 8566 0287 0B       		.uleb128 0xb
 8567 0288 3B       		.uleb128 0x3b
 8568 0289 05       		.uleb128 0x5
 8569 028a 49       		.uleb128 0x49
ARM GAS  C:\Users\Smaug\AppData\Local\Temp\ccVZzAJS.s 			page 186


 8570 028b 13       		.uleb128 0x13
 8571 028c 02       		.uleb128 0x2
 8572 028d 17       		.uleb128 0x17
 8573 028e 00       		.byte	0
 8574 028f 00       		.byte	0
 8575 0290 33       		.uleb128 0x33
 8576 0291 34       		.uleb128 0x34
 8577 0292 00       		.byte	0
 8578 0293 03       		.uleb128 0x3
 8579 0294 08       		.uleb128 0x8
 8580 0295 3A       		.uleb128 0x3a
 8581 0296 0B       		.uleb128 0xb
 8582 0297 3B       		.uleb128 0x3b
 8583 0298 05       		.uleb128 0x5
 8584 0299 49       		.uleb128 0x49
 8585 029a 13       		.uleb128 0x13
 8586 029b 02       		.uleb128 0x2
 8587 029c 17       		.uleb128 0x17
 8588 029d 00       		.byte	0
 8589 029e 00       		.byte	0
 8590 029f 34       		.uleb128 0x34
 8591 02a0 34       		.uleb128 0x34
 8592 02a1 00       		.byte	0
 8593 02a2 03       		.uleb128 0x3
 8594 02a3 08       		.uleb128 0x8
 8595 02a4 3A       		.uleb128 0x3a
 8596 02a5 0B       		.uleb128 0xb
 8597 02a6 3B       		.uleb128 0x3b
 8598 02a7 05       		.uleb128 0x5
 8599 02a8 49       		.uleb128 0x49
 8600 02a9 13       		.uleb128 0x13
 8601 02aa 00       		.byte	0
 8602 02ab 00       		.byte	0
 8603 02ac 35       		.uleb128 0x35
 8604 02ad 34       		.uleb128 0x34
 8605 02ae 00       		.byte	0
 8606 02af 03       		.uleb128 0x3
 8607 02b0 0E       		.uleb128 0xe
 8608 02b1 3A       		.uleb128 0x3a
 8609 02b2 0B       		.uleb128 0xb
 8610 02b3 3B       		.uleb128 0x3b
 8611 02b4 05       		.uleb128 0x5
 8612 02b5 49       		.uleb128 0x49
 8613 02b6 13       		.uleb128 0x13
 8614 02b7 00       		.byte	0
 8615 02b8 00       		.byte	0
 8616 02b9 36       		.uleb128 0x36
 8617 02ba 2E       		.uleb128 0x2e
 8618 02bb 01       		.byte	0x1
 8619 02bc 3F       		.uleb128 0x3f
 8620 02bd 19       		.uleb128 0x19
 8621 02be 03       		.uleb128 0x3
 8622 02bf 0E       		.uleb128 0xe
 8623 02c0 3A       		.uleb128 0x3a
 8624 02c1 0B       		.uleb128 0xb
 8625 02c2 3B       		.uleb128 0x3b
 8626 02c3 05       		.uleb128 0x5
ARM GAS  C:\Users\Smaug\AppData\Local\Temp\ccVZzAJS.s 			page 187


 8627 02c4 27       		.uleb128 0x27
 8628 02c5 19       		.uleb128 0x19
 8629 02c6 11       		.uleb128 0x11
 8630 02c7 01       		.uleb128 0x1
 8631 02c8 12       		.uleb128 0x12
 8632 02c9 06       		.uleb128 0x6
 8633 02ca 40       		.uleb128 0x40
 8634 02cb 18       		.uleb128 0x18
 8635 02cc 9742     		.uleb128 0x2117
 8636 02ce 19       		.uleb128 0x19
 8637 02cf 01       		.uleb128 0x1
 8638 02d0 13       		.uleb128 0x13
 8639 02d1 00       		.byte	0
 8640 02d2 00       		.byte	0
 8641 02d3 37       		.uleb128 0x37
 8642 02d4 0B       		.uleb128 0xb
 8643 02d5 01       		.byte	0x1
 8644 02d6 11       		.uleb128 0x11
 8645 02d7 01       		.uleb128 0x1
 8646 02d8 12       		.uleb128 0x12
 8647 02d9 06       		.uleb128 0x6
 8648 02da 01       		.uleb128 0x1
 8649 02db 13       		.uleb128 0x13
 8650 02dc 00       		.byte	0
 8651 02dd 00       		.byte	0
 8652 02de 38       		.uleb128 0x38
 8653 02df 898201   		.uleb128 0x4109
 8654 02e2 01       		.byte	0x1
 8655 02e3 11       		.uleb128 0x11
 8656 02e4 01       		.uleb128 0x1
 8657 02e5 31       		.uleb128 0x31
 8658 02e6 13       		.uleb128 0x13
 8659 02e7 00       		.byte	0
 8660 02e8 00       		.byte	0
 8661 02e9 39       		.uleb128 0x39
 8662 02ea 34       		.uleb128 0x34
 8663 02eb 00       		.byte	0
 8664 02ec 03       		.uleb128 0x3
 8665 02ed 0E       		.uleb128 0xe
 8666 02ee 3A       		.uleb128 0x3a
 8667 02ef 0B       		.uleb128 0xb
 8668 02f0 3B       		.uleb128 0x3b
 8669 02f1 05       		.uleb128 0x5
 8670 02f2 49       		.uleb128 0x49
 8671 02f3 13       		.uleb128 0x13
 8672 02f4 02       		.uleb128 0x2
 8673 02f5 18       		.uleb128 0x18
 8674 02f6 00       		.byte	0
 8675 02f7 00       		.byte	0
 8676 02f8 3A       		.uleb128 0x3a
 8677 02f9 1D       		.uleb128 0x1d
 8678 02fa 01       		.byte	0x1
 8679 02fb 31       		.uleb128 0x31
 8680 02fc 13       		.uleb128 0x13
 8681 02fd 11       		.uleb128 0x11
 8682 02fe 01       		.uleb128 0x1
 8683 02ff 12       		.uleb128 0x12
ARM GAS  C:\Users\Smaug\AppData\Local\Temp\ccVZzAJS.s 			page 188


 8684 0300 06       		.uleb128 0x6
 8685 0301 58       		.uleb128 0x58
 8686 0302 0B       		.uleb128 0xb
 8687 0303 59       		.uleb128 0x59
 8688 0304 05       		.uleb128 0x5
 8689 0305 01       		.uleb128 0x1
 8690 0306 13       		.uleb128 0x13
 8691 0307 00       		.byte	0
 8692 0308 00       		.byte	0
 8693 0309 3B       		.uleb128 0x3b
 8694 030a 05       		.uleb128 0x5
 8695 030b 00       		.byte	0
 8696 030c 31       		.uleb128 0x31
 8697 030d 13       		.uleb128 0x13
 8698 030e 02       		.uleb128 0x2
 8699 030f 17       		.uleb128 0x17
 8700 0310 00       		.byte	0
 8701 0311 00       		.byte	0
 8702 0312 3C       		.uleb128 0x3c
 8703 0313 0B       		.uleb128 0xb
 8704 0314 01       		.byte	0x1
 8705 0315 11       		.uleb128 0x11
 8706 0316 01       		.uleb128 0x1
 8707 0317 12       		.uleb128 0x12
 8708 0318 06       		.uleb128 0x6
 8709 0319 00       		.byte	0
 8710 031a 00       		.byte	0
 8711 031b 3D       		.uleb128 0x3d
 8712 031c 34       		.uleb128 0x34
 8713 031d 00       		.byte	0
 8714 031e 31       		.uleb128 0x31
 8715 031f 13       		.uleb128 0x13
 8716 0320 02       		.uleb128 0x2
 8717 0321 17       		.uleb128 0x17
 8718 0322 00       		.byte	0
 8719 0323 00       		.byte	0
 8720 0324 3E       		.uleb128 0x3e
 8721 0325 34       		.uleb128 0x34
 8722 0326 00       		.byte	0
 8723 0327 31       		.uleb128 0x31
 8724 0328 13       		.uleb128 0x13
 8725 0329 02       		.uleb128 0x2
 8726 032a 18       		.uleb128 0x18
 8727 032b 00       		.byte	0
 8728 032c 00       		.byte	0
 8729 032d 3F       		.uleb128 0x3f
 8730 032e 05       		.uleb128 0x5
 8731 032f 00       		.byte	0
 8732 0330 31       		.uleb128 0x31
 8733 0331 13       		.uleb128 0x13
 8734 0332 02       		.uleb128 0x2
 8735 0333 18       		.uleb128 0x18
 8736 0334 00       		.byte	0
 8737 0335 00       		.byte	0
 8738 0336 40       		.uleb128 0x40
 8739 0337 1D       		.uleb128 0x1d
 8740 0338 01       		.byte	0x1
ARM GAS  C:\Users\Smaug\AppData\Local\Temp\ccVZzAJS.s 			page 189


 8741 0339 31       		.uleb128 0x31
 8742 033a 13       		.uleb128 0x13
 8743 033b 11       		.uleb128 0x11
 8744 033c 01       		.uleb128 0x1
 8745 033d 12       		.uleb128 0x12
 8746 033e 06       		.uleb128 0x6
 8747 033f 58       		.uleb128 0x58
 8748 0340 0B       		.uleb128 0xb
 8749 0341 59       		.uleb128 0x59
 8750 0342 05       		.uleb128 0x5
 8751 0343 00       		.byte	0
 8752 0344 00       		.byte	0
 8753 0345 41       		.uleb128 0x41
 8754 0346 1D       		.uleb128 0x1d
 8755 0347 00       		.byte	0
 8756 0348 31       		.uleb128 0x31
 8757 0349 13       		.uleb128 0x13
 8758 034a 11       		.uleb128 0x11
 8759 034b 01       		.uleb128 0x1
 8760 034c 12       		.uleb128 0x12
 8761 034d 06       		.uleb128 0x6
 8762 034e 58       		.uleb128 0x58
 8763 034f 0B       		.uleb128 0xb
 8764 0350 59       		.uleb128 0x59
 8765 0351 05       		.uleb128 0x5
 8766 0352 00       		.byte	0
 8767 0353 00       		.byte	0
 8768 0354 42       		.uleb128 0x42
 8769 0355 34       		.uleb128 0x34
 8770 0356 00       		.byte	0
 8771 0357 03       		.uleb128 0x3
 8772 0358 0E       		.uleb128 0xe
 8773 0359 3A       		.uleb128 0x3a
 8774 035a 0B       		.uleb128 0xb
 8775 035b 3B       		.uleb128 0x3b
 8776 035c 0B       		.uleb128 0xb
 8777 035d 49       		.uleb128 0x49
 8778 035e 13       		.uleb128 0x13
 8779 035f 3F       		.uleb128 0x3f
 8780 0360 19       		.uleb128 0x19
 8781 0361 3C       		.uleb128 0x3c
 8782 0362 19       		.uleb128 0x19
 8783 0363 00       		.byte	0
 8784 0364 00       		.byte	0
 8785 0365 43       		.uleb128 0x43
 8786 0366 34       		.uleb128 0x34
 8787 0367 00       		.byte	0
 8788 0368 03       		.uleb128 0x3
 8789 0369 0E       		.uleb128 0xe
 8790 036a 3A       		.uleb128 0x3a
 8791 036b 0B       		.uleb128 0xb
 8792 036c 3B       		.uleb128 0x3b
 8793 036d 0B       		.uleb128 0xb
 8794 036e 49       		.uleb128 0x49
 8795 036f 13       		.uleb128 0x13
 8796 0370 3F       		.uleb128 0x3f
 8797 0371 19       		.uleb128 0x19
ARM GAS  C:\Users\Smaug\AppData\Local\Temp\ccVZzAJS.s 			page 190


 8798 0372 02       		.uleb128 0x2
 8799 0373 18       		.uleb128 0x18
 8800 0374 00       		.byte	0
 8801 0375 00       		.byte	0
 8802 0376 44       		.uleb128 0x44
 8803 0377 34       		.uleb128 0x34
 8804 0378 00       		.byte	0
 8805 0379 03       		.uleb128 0x3
 8806 037a 0E       		.uleb128 0xe
 8807 037b 3A       		.uleb128 0x3a
 8808 037c 0B       		.uleb128 0xb
 8809 037d 3B       		.uleb128 0x3b
 8810 037e 05       		.uleb128 0x5
 8811 037f 49       		.uleb128 0x49
 8812 0380 13       		.uleb128 0x13
 8813 0381 3F       		.uleb128 0x3f
 8814 0382 19       		.uleb128 0x19
 8815 0383 3C       		.uleb128 0x3c
 8816 0384 19       		.uleb128 0x19
 8817 0385 00       		.byte	0
 8818 0386 00       		.byte	0
 8819 0387 45       		.uleb128 0x45
 8820 0388 2E       		.uleb128 0x2e
 8821 0389 00       		.byte	0
 8822 038a 3F       		.uleb128 0x3f
 8823 038b 19       		.uleb128 0x19
 8824 038c 3C       		.uleb128 0x3c
 8825 038d 19       		.uleb128 0x19
 8826 038e 6E       		.uleb128 0x6e
 8827 038f 0E       		.uleb128 0xe
 8828 0390 03       		.uleb128 0x3
 8829 0391 0E       		.uleb128 0xe
 8830 0392 00       		.byte	0
 8831 0393 00       		.byte	0
 8832 0394 46       		.uleb128 0x46
 8833 0395 2E       		.uleb128 0x2e
 8834 0396 00       		.byte	0
 8835 0397 3F       		.uleb128 0x3f
 8836 0398 19       		.uleb128 0x19
 8837 0399 3C       		.uleb128 0x3c
 8838 039a 19       		.uleb128 0x19
 8839 039b 6E       		.uleb128 0x6e
 8840 039c 0E       		.uleb128 0xe
 8841 039d 03       		.uleb128 0x3
 8842 039e 0E       		.uleb128 0xe
 8843 039f 3A       		.uleb128 0x3a
 8844 03a0 0B       		.uleb128 0xb
 8845 03a1 3B       		.uleb128 0x3b
 8846 03a2 05       		.uleb128 0x5
 8847 03a3 00       		.byte	0
 8848 03a4 00       		.byte	0
 8849 03a5 47       		.uleb128 0x47
 8850 03a6 2E       		.uleb128 0x2e
 8851 03a7 00       		.byte	0
 8852 03a8 3F       		.uleb128 0x3f
 8853 03a9 19       		.uleb128 0x19
 8854 03aa 3C       		.uleb128 0x3c
ARM GAS  C:\Users\Smaug\AppData\Local\Temp\ccVZzAJS.s 			page 191


 8855 03ab 19       		.uleb128 0x19
 8856 03ac 6E       		.uleb128 0x6e
 8857 03ad 0E       		.uleb128 0xe
 8858 03ae 03       		.uleb128 0x3
 8859 03af 0E       		.uleb128 0xe
 8860 03b0 3A       		.uleb128 0x3a
 8861 03b1 0B       		.uleb128 0xb
 8862 03b2 3B       		.uleb128 0x3b
 8863 03b3 0B       		.uleb128 0xb
 8864 03b4 00       		.byte	0
 8865 03b5 00       		.byte	0
 8866 03b6 00       		.byte	0
 8867              		.section	.debug_loc,"",%progbits
 8868              	.Ldebug_loc0:
 8869              	.LLST0:
 8870 0000 00000000 		.4byte	.LVL0
 8871 0004 0E000000 		.4byte	.LVL2
 8872 0008 0100     		.2byte	0x1
 8873 000a 50       		.byte	0x50
 8874 000b 0E000000 		.4byte	.LVL2
 8875 000f 3E000000 		.4byte	.LVL6
 8876 0013 0100     		.2byte	0x1
 8877 0015 54       		.byte	0x54
 8878 0016 3E000000 		.4byte	.LVL6
 8879 001a 44000000 		.4byte	.LFE169
 8880 001e 0400     		.2byte	0x4
 8881 0020 F3       		.byte	0xf3
 8882 0021 01       		.uleb128 0x1
 8883 0022 50       		.byte	0x50
 8884 0023 9F       		.byte	0x9f
 8885 0024 00000000 		.4byte	0
 8886 0028 00000000 		.4byte	0
 8887              	.LLST1:
 8888 002c 00000000 		.4byte	.LVL0
 8889 0030 0C000000 		.4byte	.LVL1
 8890 0034 0100     		.2byte	0x1
 8891 0036 51       		.byte	0x51
 8892 0037 0C000000 		.4byte	.LVL1
 8893 003b 44000000 		.4byte	.LFE169
 8894 003f 0400     		.2byte	0x4
 8895 0041 F3       		.byte	0xf3
 8896 0042 01       		.uleb128 0x1
 8897 0043 51       		.byte	0x51
 8898 0044 9F       		.byte	0x9f
 8899 0045 00000000 		.4byte	0
 8900 0049 00000000 		.4byte	0
 8901              	.LLST2:
 8902 004d 00000000 		.4byte	.LVL7
 8903 0051 52000000 		.4byte	.LVL19
 8904 0055 0100     		.2byte	0x1
 8905 0057 50       		.byte	0x50
 8906 0058 52000000 		.4byte	.LVL19
 8907 005c 60000000 		.4byte	.LFE167
 8908 0060 0400     		.2byte	0x4
 8909 0062 F3       		.byte	0xf3
 8910 0063 01       		.uleb128 0x1
 8911 0064 50       		.byte	0x50
ARM GAS  C:\Users\Smaug\AppData\Local\Temp\ccVZzAJS.s 			page 192


 8912 0065 9F       		.byte	0x9f
 8913 0066 00000000 		.4byte	0
 8914 006a 00000000 		.4byte	0
 8915              	.LLST3:
 8916 006e 02000000 		.4byte	.LVL8
 8917 0072 32000000 		.4byte	.LVL15
 8918 0076 0200     		.2byte	0x2
 8919 0078 30       		.byte	0x30
 8920 0079 9F       		.byte	0x9f
 8921 007a 32000000 		.4byte	.LVL15
 8922 007e 60000000 		.4byte	.LFE167
 8923 0082 0100     		.2byte	0x1
 8924 0084 53       		.byte	0x53
 8925 0085 00000000 		.4byte	0
 8926 0089 00000000 		.4byte	0
 8927              	.LLST4:
 8928 008d 02000000 		.4byte	.LVL8
 8929 0091 0C000000 		.4byte	.LVL9
 8930 0095 0200     		.2byte	0x2
 8931 0097 30       		.byte	0x30
 8932 0098 9F       		.byte	0x9f
 8933 0099 0C000000 		.4byte	.LVL9
 8934 009d 2A000000 		.4byte	.LVL13
 8935 00a1 0100     		.2byte	0x1
 8936 00a3 54       		.byte	0x54
 8937 00a4 2A000000 		.4byte	.LVL13
 8938 00a8 30000000 		.4byte	.LVL14
 8939 00ac 0200     		.2byte	0x2
 8940 00ae 30       		.byte	0x30
 8941 00af 9F       		.byte	0x9f
 8942 00b0 30000000 		.4byte	.LVL14
 8943 00b4 46000000 		.4byte	.LVL16
 8944 00b8 0100     		.2byte	0x1
 8945 00ba 54       		.byte	0x54
 8946 00bb 4E000000 		.4byte	.LVL17
 8947 00bf 50000000 		.4byte	.LVL18
 8948 00c3 0100     		.2byte	0x1
 8949 00c5 54       		.byte	0x54
 8950 00c6 00000000 		.4byte	0
 8951 00ca 00000000 		.4byte	0
 8952              	.LLST5:
 8953 00ce 0C000000 		.4byte	.LVL9
 8954 00d2 28000000 		.4byte	.LVL12
 8955 00d6 0100     		.2byte	0x1
 8956 00d8 53       		.byte	0x53
 8957 00d9 30000000 		.4byte	.LVL14
 8958 00dd 32000000 		.4byte	.LVL15
 8959 00e1 0100     		.2byte	0x1
 8960 00e3 53       		.byte	0x53
 8961 00e4 00000000 		.4byte	0
 8962 00e8 00000000 		.4byte	0
 8963              	.LLST6:
 8964 00ec 00000000 		.4byte	.LVL20
 8965 00f0 08000000 		.4byte	.LVL22
 8966 00f4 0100     		.2byte	0x1
 8967 00f6 50       		.byte	0x50
 8968 00f7 08000000 		.4byte	.LVL22
ARM GAS  C:\Users\Smaug\AppData\Local\Temp\ccVZzAJS.s 			page 193


 8969 00fb 2A000000 		.4byte	.LVL29
 8970 00ff 0100     		.2byte	0x1
 8971 0101 56       		.byte	0x56
 8972 0102 2A000000 		.4byte	.LVL29
 8973 0106 34000000 		.4byte	.LFE168
 8974 010a 0400     		.2byte	0x4
 8975 010c F3       		.byte	0xf3
 8976 010d 01       		.uleb128 0x1
 8977 010e 50       		.byte	0x50
 8978 010f 9F       		.byte	0x9f
 8979 0110 00000000 		.4byte	0
 8980 0114 00000000 		.4byte	0
 8981              	.LLST7:
 8982 0118 00000000 		.4byte	.LVL20
 8983 011c 0C000000 		.4byte	.LVL23
 8984 0120 0100     		.2byte	0x1
 8985 0122 51       		.byte	0x51
 8986 0123 0C000000 		.4byte	.LVL23
 8987 0127 2A000000 		.4byte	.LVL28
 8988 012b 0100     		.2byte	0x1
 8989 012d 55       		.byte	0x55
 8990 012e 2A000000 		.4byte	.LVL28
 8991 0132 34000000 		.4byte	.LFE168
 8992 0136 0400     		.2byte	0x4
 8993 0138 F3       		.byte	0xf3
 8994 0139 01       		.uleb128 0x1
 8995 013a 51       		.byte	0x51
 8996 013b 9F       		.byte	0x9f
 8997 013c 00000000 		.4byte	0
 8998 0140 00000000 		.4byte	0
 8999              	.LLST8:
 9000 0144 06000000 		.4byte	.LVL21
 9001 0148 0C000000 		.4byte	.LVL23
 9002 014c 0200     		.2byte	0x2
 9003 014e 30       		.byte	0x30
 9004 014f 9F       		.byte	0x9f
 9005 0150 0C000000 		.4byte	.LVL23
 9006 0154 2A000000 		.4byte	.LVL27
 9007 0158 0100     		.2byte	0x1
 9008 015a 54       		.byte	0x54
 9009 015b 00000000 		.4byte	0
 9010 015f 00000000 		.4byte	0
 9011              	.LLST9:
 9012 0163 06000000 		.4byte	.LVL21
 9013 0167 0C000000 		.4byte	.LVL23
 9014 016b 0200     		.2byte	0x2
 9015 016d 30       		.byte	0x30
 9016 016e 9F       		.byte	0x9f
 9017 016f 0C000000 		.4byte	.LVL23
 9018 0173 16000000 		.4byte	.LVL24
 9019 0177 0100     		.2byte	0x1
 9020 0179 50       		.byte	0x50
 9021 017a 18000000 		.4byte	.LVL25
 9022 017e 34000000 		.4byte	.LFE168
 9023 0182 0100     		.2byte	0x1
 9024 0184 50       		.byte	0x50
 9025 0185 00000000 		.4byte	0
ARM GAS  C:\Users\Smaug\AppData\Local\Temp\ccVZzAJS.s 			page 194


 9026 0189 00000000 		.4byte	0
 9027              	.LLST10:
 9028 018d 00000000 		.4byte	.LVL30
 9029 0191 08000000 		.4byte	.LVL31
 9030 0195 0100     		.2byte	0x1
 9031 0197 50       		.byte	0x50
 9032 0198 08000000 		.4byte	.LVL31
 9033 019c 0A000000 		.4byte	.LVL32
 9034 01a0 0400     		.2byte	0x4
 9035 01a2 F3       		.byte	0xf3
 9036 01a3 01       		.uleb128 0x1
 9037 01a4 50       		.byte	0x50
 9038 01a5 9F       		.byte	0x9f
 9039 01a6 0A000000 		.4byte	.LVL32
 9040 01aa 1C000000 		.4byte	.LVL36
 9041 01ae 0100     		.2byte	0x1
 9042 01b0 50       		.byte	0x50
 9043 01b1 1C000000 		.4byte	.LVL36
 9044 01b5 1E000000 		.4byte	.LVL37
 9045 01b9 0400     		.2byte	0x4
 9046 01bb F3       		.byte	0xf3
 9047 01bc 01       		.uleb128 0x1
 9048 01bd 50       		.byte	0x50
 9049 01be 9F       		.byte	0x9f
 9050 01bf 1E000000 		.4byte	.LVL37
 9051 01c3 20000000 		.4byte	.LVL38
 9052 01c7 0100     		.2byte	0x1
 9053 01c9 50       		.byte	0x50
 9054 01ca 20000000 		.4byte	.LVL38
 9055 01ce 22000000 		.4byte	.LFE171
 9056 01d2 0400     		.2byte	0x4
 9057 01d4 F3       		.byte	0xf3
 9058 01d5 01       		.uleb128 0x1
 9059 01d6 50       		.byte	0x50
 9060 01d7 9F       		.byte	0x9f
 9061 01d8 00000000 		.4byte	0
 9062 01dc 00000000 		.4byte	0
 9063              	.LLST11:
 9064 01e0 00000000 		.4byte	.LVL30
 9065 01e4 20000000 		.4byte	.LVL38
 9066 01e8 0200     		.2byte	0x2
 9067 01ea 30       		.byte	0x30
 9068 01eb 9F       		.byte	0x9f
 9069 01ec 20000000 		.4byte	.LVL38
 9070 01f0 22000000 		.4byte	.LFE171
 9071 01f4 0100     		.2byte	0x1
 9072 01f6 50       		.byte	0x50
 9073 01f7 00000000 		.4byte	0
 9074 01fb 00000000 		.4byte	0
 9075              	.LLST12:
 9076 01ff 0A000000 		.4byte	.LVL32
 9077 0203 14000000 		.4byte	.LVL34
 9078 0207 0100     		.2byte	0x1
 9079 0209 53       		.byte	0x53
 9080 020a 16000000 		.4byte	.LVL35
 9081 020e 20000000 		.4byte	.LVL38
 9082 0212 0100     		.2byte	0x1
ARM GAS  C:\Users\Smaug\AppData\Local\Temp\ccVZzAJS.s 			page 195


 9083 0214 53       		.byte	0x53
 9084 0215 00000000 		.4byte	0
 9085 0219 00000000 		.4byte	0
 9086              	.LLST13:
 9087 021d 00000000 		.4byte	.LVL39
 9088 0221 F4000000 		.4byte	.LVL42
 9089 0225 0100     		.2byte	0x1
 9090 0227 50       		.byte	0x50
 9091 0228 F4000000 		.4byte	.LVL42
 9092 022c 04010000 		.4byte	.LVL44
 9093 0230 0400     		.2byte	0x4
 9094 0232 F3       		.byte	0xf3
 9095 0233 01       		.uleb128 0x1
 9096 0234 50       		.byte	0x50
 9097 0235 9F       		.byte	0x9f
 9098 0236 04010000 		.4byte	.LVL44
 9099 023a 0A010000 		.4byte	.LVL45
 9100 023e 0100     		.2byte	0x1
 9101 0240 50       		.byte	0x50
 9102 0241 0A010000 		.4byte	.LVL45
 9103 0245 C0010000 		.4byte	.LVL58
 9104 0249 0400     		.2byte	0x4
 9105 024b F3       		.byte	0xf3
 9106 024c 01       		.uleb128 0x1
 9107 024d 50       		.byte	0x50
 9108 024e 9F       		.byte	0x9f
 9109 024f C0010000 		.4byte	.LVL58
 9110 0253 D9010000 		.4byte	.LVL61-1
 9111 0257 0100     		.2byte	0x1
 9112 0259 50       		.byte	0x50
 9113 025a D9010000 		.4byte	.LVL61-1
 9114 025e DC010000 		.4byte	.LVL62
 9115 0262 0400     		.2byte	0x4
 9116 0264 F3       		.byte	0xf3
 9117 0265 01       		.uleb128 0x1
 9118 0266 50       		.byte	0x50
 9119 0267 9F       		.byte	0x9f
 9120 0268 DC010000 		.4byte	.LVL62
 9121 026c EE010000 		.4byte	.LVL63
 9122 0270 0100     		.2byte	0x1
 9123 0272 50       		.byte	0x50
 9124 0273 EE010000 		.4byte	.LVL63
 9125 0277 26020000 		.4byte	.LVL67
 9126 027b 0400     		.2byte	0x4
 9127 027d F3       		.byte	0xf3
 9128 027e 01       		.uleb128 0x1
 9129 027f 50       		.byte	0x50
 9130 0280 9F       		.byte	0x9f
 9131 0281 26020000 		.4byte	.LVL67
 9132 0285 2B020000 		.4byte	.LVL68-1
 9133 0289 0100     		.2byte	0x1
 9134 028b 50       		.byte	0x50
 9135 028c 2B020000 		.4byte	.LVL68-1
 9136 0290 2E020000 		.4byte	.LVL69
 9137 0294 0400     		.2byte	0x4
 9138 0296 F3       		.byte	0xf3
 9139 0297 01       		.uleb128 0x1
ARM GAS  C:\Users\Smaug\AppData\Local\Temp\ccVZzAJS.s 			page 196


 9140 0298 50       		.byte	0x50
 9141 0299 9F       		.byte	0x9f
 9142 029a 2E020000 		.4byte	.LVL69
 9143 029e 3A020000 		.4byte	.LVL71
 9144 02a2 0100     		.2byte	0x1
 9145 02a4 50       		.byte	0x50
 9146 02a5 3A020000 		.4byte	.LVL71
 9147 02a9 AA020000 		.4byte	.LVL82
 9148 02ad 0400     		.2byte	0x4
 9149 02af F3       		.byte	0xf3
 9150 02b0 01       		.uleb128 0x1
 9151 02b1 50       		.byte	0x50
 9152 02b2 9F       		.byte	0x9f
 9153 02b3 AA020000 		.4byte	.LVL82
 9154 02b7 E8020000 		.4byte	.LVL85
 9155 02bb 0100     		.2byte	0x1
 9156 02bd 50       		.byte	0x50
 9157 02be E8020000 		.4byte	.LVL85
 9158 02c2 FC030000 		.4byte	.LVL96
 9159 02c6 0400     		.2byte	0x4
 9160 02c8 F3       		.byte	0xf3
 9161 02c9 01       		.uleb128 0x1
 9162 02ca 50       		.byte	0x50
 9163 02cb 9F       		.byte	0x9f
 9164 02cc FC030000 		.4byte	.LVL96
 9165 02d0 01040000 		.4byte	.LVL97-1
 9166 02d4 0100     		.2byte	0x1
 9167 02d6 50       		.byte	0x50
 9168 02d7 01040000 		.4byte	.LVL97-1
 9169 02db 04040000 		.4byte	.LVL98
 9170 02df 0400     		.2byte	0x4
 9171 02e1 F3       		.byte	0xf3
 9172 02e2 01       		.uleb128 0x1
 9173 02e3 50       		.byte	0x50
 9174 02e4 9F       		.byte	0x9f
 9175 02e5 04040000 		.4byte	.LVL98
 9176 02e9 22040000 		.4byte	.LVL102
 9177 02ed 0100     		.2byte	0x1
 9178 02ef 50       		.byte	0x50
 9179 02f0 22040000 		.4byte	.LVL102
 9180 02f4 9A040000 		.4byte	.LVL113
 9181 02f8 0400     		.2byte	0x4
 9182 02fa F3       		.byte	0xf3
 9183 02fb 01       		.uleb128 0x1
 9184 02fc 50       		.byte	0x50
 9185 02fd 9F       		.byte	0x9f
 9186 02fe 9A040000 		.4byte	.LVL113
 9187 0302 A7040000 		.4byte	.LVL114-1
 9188 0306 0100     		.2byte	0x1
 9189 0308 50       		.byte	0x50
 9190 0309 A7040000 		.4byte	.LVL114-1
 9191 030d 1A050000 		.4byte	.LVL123
 9192 0311 0400     		.2byte	0x4
 9193 0313 F3       		.byte	0xf3
 9194 0314 01       		.uleb128 0x1
 9195 0315 50       		.byte	0x50
 9196 0316 9F       		.byte	0x9f
ARM GAS  C:\Users\Smaug\AppData\Local\Temp\ccVZzAJS.s 			page 197


 9197 0317 1A050000 		.4byte	.LVL123
 9198 031b 1F050000 		.4byte	.LVL124-1
 9199 031f 0100     		.2byte	0x1
 9200 0321 50       		.byte	0x50
 9201 0322 1F050000 		.4byte	.LVL124-1
 9202 0326 22050000 		.4byte	.LVL125
 9203 032a 0400     		.2byte	0x4
 9204 032c F3       		.byte	0xf3
 9205 032d 01       		.uleb128 0x1
 9206 032e 50       		.byte	0x50
 9207 032f 9F       		.byte	0x9f
 9208 0330 22050000 		.4byte	.LVL125
 9209 0334 28050000 		.4byte	.LVL126
 9210 0338 0100     		.2byte	0x1
 9211 033a 50       		.byte	0x50
 9212 033b 28050000 		.4byte	.LVL126
 9213 033f 6A050000 		.4byte	.LVL131
 9214 0343 0400     		.2byte	0x4
 9215 0345 F3       		.byte	0xf3
 9216 0346 01       		.uleb128 0x1
 9217 0347 50       		.byte	0x50
 9218 0348 9F       		.byte	0x9f
 9219 0349 6A050000 		.4byte	.LVL131
 9220 034d 72050000 		.4byte	.LVL132
 9221 0351 0100     		.2byte	0x1
 9222 0353 50       		.byte	0x50
 9223 0354 72050000 		.4byte	.LVL132
 9224 0358 A2050000 		.4byte	.LVL136
 9225 035c 0400     		.2byte	0x4
 9226 035e F3       		.byte	0xf3
 9227 035f 01       		.uleb128 0x1
 9228 0360 50       		.byte	0x50
 9229 0361 9F       		.byte	0x9f
 9230 0362 A2050000 		.4byte	.LVL136
 9231 0366 A4050000 		.4byte	.LVL137
 9232 036a 0100     		.2byte	0x1
 9233 036c 50       		.byte	0x50
 9234 036d A4050000 		.4byte	.LVL137
 9235 0371 B2050000 		.4byte	.LVL139
 9236 0375 0400     		.2byte	0x4
 9237 0377 F3       		.byte	0xf3
 9238 0378 01       		.uleb128 0x1
 9239 0379 50       		.byte	0x50
 9240 037a 9F       		.byte	0x9f
 9241 037b B2050000 		.4byte	.LVL139
 9242 037f B4050000 		.4byte	.LVL140
 9243 0383 0100     		.2byte	0x1
 9244 0385 50       		.byte	0x50
 9245 0386 B4050000 		.4byte	.LVL140
 9246 038a 12060000 		.4byte	.LVL150
 9247 038e 0400     		.2byte	0x4
 9248 0390 F3       		.byte	0xf3
 9249 0391 01       		.uleb128 0x1
 9250 0392 50       		.byte	0x50
 9251 0393 9F       		.byte	0x9f
 9252 0394 12060000 		.4byte	.LVL150
 9253 0398 17060000 		.4byte	.LVL151-1
ARM GAS  C:\Users\Smaug\AppData\Local\Temp\ccVZzAJS.s 			page 198


 9254 039c 0100     		.2byte	0x1
 9255 039e 50       		.byte	0x50
 9256 039f 17060000 		.4byte	.LVL151-1
 9257 03a3 1A060000 		.4byte	.LVL152
 9258 03a7 0400     		.2byte	0x4
 9259 03a9 F3       		.byte	0xf3
 9260 03aa 01       		.uleb128 0x1
 9261 03ab 50       		.byte	0x50
 9262 03ac 9F       		.byte	0x9f
 9263 03ad 1A060000 		.4byte	.LVL152
 9264 03b1 1F060000 		.4byte	.LVL153-1
 9265 03b5 0100     		.2byte	0x1
 9266 03b7 50       		.byte	0x50
 9267 03b8 1F060000 		.4byte	.LVL153-1
 9268 03bc 22060000 		.4byte	.LVL154
 9269 03c0 0400     		.2byte	0x4
 9270 03c2 F3       		.byte	0xf3
 9271 03c3 01       		.uleb128 0x1
 9272 03c4 50       		.byte	0x50
 9273 03c5 9F       		.byte	0x9f
 9274 03c6 22060000 		.4byte	.LVL154
 9275 03ca 27060000 		.4byte	.LVL155-1
 9276 03ce 0100     		.2byte	0x1
 9277 03d0 50       		.byte	0x50
 9278 03d1 27060000 		.4byte	.LVL155-1
 9279 03d5 2A060000 		.4byte	.LVL156
 9280 03d9 0400     		.2byte	0x4
 9281 03db F3       		.byte	0xf3
 9282 03dc 01       		.uleb128 0x1
 9283 03dd 50       		.byte	0x50
 9284 03de 9F       		.byte	0x9f
 9285 03df 2A060000 		.4byte	.LVL156
 9286 03e3 2F060000 		.4byte	.LVL157-1
 9287 03e7 0100     		.2byte	0x1
 9288 03e9 50       		.byte	0x50
 9289 03ea 2F060000 		.4byte	.LVL157-1
 9290 03ee 32060000 		.4byte	.LVL158
 9291 03f2 0400     		.2byte	0x4
 9292 03f4 F3       		.byte	0xf3
 9293 03f5 01       		.uleb128 0x1
 9294 03f6 50       		.byte	0x50
 9295 03f7 9F       		.byte	0x9f
 9296 03f8 32060000 		.4byte	.LVL158
 9297 03fc 34060000 		.4byte	.LVL159
 9298 0400 0100     		.2byte	0x1
 9299 0402 50       		.byte	0x50
 9300 0403 34060000 		.4byte	.LVL159
 9301 0407 A8060000 		.4byte	.LFE172
 9302 040b 0400     		.2byte	0x4
 9303 040d F3       		.byte	0xf3
 9304 040e 01       		.uleb128 0x1
 9305 040f 50       		.byte	0x50
 9306 0410 9F       		.byte	0x9f
 9307 0411 00000000 		.4byte	0
 9308 0415 00000000 		.4byte	0
 9309              	.LLST14:
 9310 0419 00000000 		.4byte	.LVL39
ARM GAS  C:\Users\Smaug\AppData\Local\Temp\ccVZzAJS.s 			page 199


 9311 041d 10000000 		.4byte	.LVL40
 9312 0421 0100     		.2byte	0x1
 9313 0423 51       		.byte	0x51
 9314 0424 10000000 		.4byte	.LVL40
 9315 0428 60060000 		.4byte	.LVL163
 9316 042c 0100     		.2byte	0x1
 9317 042e 55       		.byte	0x55
 9318 042f 60060000 		.4byte	.LVL163
 9319 0433 A8060000 		.4byte	.LFE172
 9320 0437 0400     		.2byte	0x4
 9321 0439 F3       		.byte	0xf3
 9322 043a 01       		.uleb128 0x1
 9323 043b 51       		.byte	0x51
 9324 043c 9F       		.byte	0x9f
 9325 043d 00000000 		.4byte	0
 9326 0441 00000000 		.4byte	0
 9327              	.LLST15:
 9328 0445 F2000000 		.4byte	.LVL41
 9329 0449 04010000 		.4byte	.LVL44
 9330 044d 0100     		.2byte	0x1
 9331 044f 55       		.byte	0x55
 9332 0450 00000000 		.4byte	0
 9333 0454 00000000 		.4byte	0
 9334              	.LLST16:
 9335 0458 68010000 		.4byte	.LVL50
 9336 045c 7C010000 		.4byte	.LVL51
 9337 0460 0100     		.2byte	0x1
 9338 0462 53       		.byte	0x53
 9339 0463 00000000 		.4byte	0
 9340 0467 00000000 		.4byte	0
 9341              	.LLST17:
 9342 046b C6010000 		.4byte	.LVL59
 9343 046f CA010000 		.4byte	.LVL60
 9344 0473 0200     		.2byte	0x2
 9345 0475 30       		.byte	0x30
 9346 0476 9F       		.byte	0x9f
 9347 0477 00000000 		.4byte	0
 9348 047b 00000000 		.4byte	0
 9349              	.LLST18:
 9350 047f 32020000 		.4byte	.LVL70
 9351 0483 A0020000 		.4byte	.LVL81
 9352 0487 0100     		.2byte	0x1
 9353 0489 58       		.byte	0x58
 9354 048a 00000000 		.4byte	0
 9355 048e 00000000 		.4byte	0
 9356              	.LLST19:
 9357 0492 3E020000 		.4byte	.LVL72
 9358 0496 42020000 		.4byte	.LVL73
 9359 049a 0200     		.2byte	0x2
 9360 049c 30       		.byte	0x30
 9361 049d 9F       		.byte	0x9f
 9362 049e 42020000 		.4byte	.LVL73
 9363 04a2 70020000 		.4byte	.LVL75
 9364 04a6 0100     		.2byte	0x1
 9365 04a8 56       		.byte	0x56
 9366 04a9 7C020000 		.4byte	.LVL77
 9367 04ad 82020000 		.4byte	.LVL79
ARM GAS  C:\Users\Smaug\AppData\Local\Temp\ccVZzAJS.s 			page 200


 9368 04b1 0100     		.2byte	0x1
 9369 04b3 56       		.byte	0x56
 9370 04b4 00000000 		.4byte	0
 9371 04b8 00000000 		.4byte	0
 9372              	.LLST20:
 9373 04bc AA020000 		.4byte	.LVL82
 9374 04c0 D4020000 		.4byte	.LVL83
 9375 04c4 0100     		.2byte	0x1
 9376 04c6 55       		.byte	0x55
 9377 04c7 00000000 		.4byte	0
 9378 04cb 00000000 		.4byte	0
 9379              	.LLST21:
 9380 04cf E0020000 		.4byte	.LVL84
 9381 04d3 F2030000 		.4byte	.LVL95
 9382 04d7 0100     		.2byte	0x1
 9383 04d9 58       		.byte	0x58
 9384 04da 00000000 		.4byte	0
 9385 04de 00000000 		.4byte	0
 9386              	.LLST22:
 9387 04e2 EC020000 		.4byte	.LVL86
 9388 04e6 F0020000 		.4byte	.LVL87
 9389 04ea 0200     		.2byte	0x2
 9390 04ec 30       		.byte	0x30
 9391 04ed 9F       		.byte	0x9f
 9392 04ee F0020000 		.4byte	.LVL87
 9393 04f2 1E030000 		.4byte	.LVL89
 9394 04f6 0100     		.2byte	0x1
 9395 04f8 56       		.byte	0x56
 9396 04f9 D0030000 		.4byte	.LVL91
 9397 04fd D6030000 		.4byte	.LVL93
 9398 0501 0100     		.2byte	0x1
 9399 0503 56       		.byte	0x56
 9400 0504 00000000 		.4byte	0
 9401 0508 00000000 		.4byte	0
 9402              	.LLST23:
 9403 050c 04040000 		.4byte	.LVL98
 9404 0510 9A040000 		.4byte	.LVL113
 9405 0514 0100     		.2byte	0x1
 9406 0516 55       		.byte	0x55
 9407 0517 00000000 		.4byte	0
 9408 051b 00000000 		.4byte	0
 9409              	.LLST24:
 9410 051f 10040000 		.4byte	.LVL99
 9411 0523 16040000 		.4byte	.LVL100
 9412 0527 0200     		.2byte	0x2
 9413 0529 30       		.byte	0x30
 9414 052a 9F       		.byte	0x9f
 9415 052b 00000000 		.4byte	0
 9416 052f 00000000 		.4byte	0
 9417              	.LLST25:
 9418 0533 1A040000 		.4byte	.LVL101
 9419 0537 86040000 		.4byte	.LVL112
 9420 053b 0100     		.2byte	0x1
 9421 053d 58       		.byte	0x58
 9422 053e 00000000 		.4byte	0
 9423 0542 00000000 		.4byte	0
 9424              	.LLST26:
ARM GAS  C:\Users\Smaug\AppData\Local\Temp\ccVZzAJS.s 			page 201


 9425 0546 26040000 		.4byte	.LVL103
 9426 054a 2A040000 		.4byte	.LVL104
 9427 054e 0200     		.2byte	0x2
 9428 0550 30       		.byte	0x30
 9429 0551 9F       		.byte	0x9f
 9430 0552 2A040000 		.4byte	.LVL104
 9431 0556 58040000 		.4byte	.LVL106
 9432 055a 0100     		.2byte	0x1
 9433 055c 56       		.byte	0x56
 9434 055d 64040000 		.4byte	.LVL108
 9435 0561 6A040000 		.4byte	.LVL110
 9436 0565 0100     		.2byte	0x1
 9437 0567 56       		.byte	0x56
 9438 0568 00000000 		.4byte	0
 9439 056c 00000000 		.4byte	0
 9440              	.LLST27:
 9441 0570 BA040000 		.4byte	.LVL115
 9442 0574 C2040000 		.4byte	.LVL116
 9443 0578 0200     		.2byte	0x2
 9444 057a 32       		.byte	0x32
 9445 057b 9F       		.byte	0x9f
 9446 057c 00000000 		.4byte	0
 9447 0580 00000000 		.4byte	0
 9448              	.LLST28:
 9449 0584 C6040000 		.4byte	.LVL117
 9450 0588 CE040000 		.4byte	.LVL118
 9451 058c 0200     		.2byte	0x2
 9452 058e 30       		.byte	0x30
 9453 058f 9F       		.byte	0x9f
 9454 0590 00000000 		.4byte	0
 9455 0594 00000000 		.4byte	0
 9456              	.LLST29:
 9457 0598 D4040000 		.4byte	.LVL119
 9458 059c DA040000 		.4byte	.LVL120
 9459 05a0 0200     		.2byte	0x2
 9460 05a2 30       		.byte	0x30
 9461 05a3 9F       		.byte	0x9f
 9462 05a4 00000000 		.4byte	0
 9463 05a8 00000000 		.4byte	0
 9464              	.LLST30:
 9465 05ac 12050000 		.4byte	.LVL122
 9466 05b0 1A050000 		.4byte	.LVL123
 9467 05b4 0200     		.2byte	0x2
 9468 05b6 31       		.byte	0x31
 9469 05b7 9F       		.byte	0x9f
 9470 05b8 00000000 		.4byte	0
 9471 05bc 00000000 		.4byte	0
 9472              	.LLST31:
 9473 05c0 2C050000 		.4byte	.LVL127
 9474 05c4 48050000 		.4byte	.LVL128
 9475 05c8 0200     		.2byte	0x2
 9476 05ca 32       		.byte	0x32
 9477 05cb 9F       		.byte	0x9f
 9478 05cc 00000000 		.4byte	0
 9479 05d0 00000000 		.4byte	0
 9480              	.LLST32:
 9481 05d4 76050000 		.4byte	.LVL133
ARM GAS  C:\Users\Smaug\AppData\Local\Temp\ccVZzAJS.s 			page 202


 9482 05d8 90050000 		.4byte	.LVL134
 9483 05dc 0200     		.2byte	0x2
 9484 05de 30       		.byte	0x30
 9485 05df 9F       		.byte	0x9f
 9486 05e0 00000000 		.4byte	0
 9487 05e4 00000000 		.4byte	0
 9488              	.LLST33:
 9489 05e8 BA050000 		.4byte	.LVL142
 9490 05ec C0050000 		.4byte	.LVL143
 9491 05f0 0100     		.2byte	0x1
 9492 05f2 50       		.byte	0x50
 9493 05f3 C6050000 		.4byte	.LVL145
 9494 05f7 CB050000 		.4byte	.LVL146-1
 9495 05fb 0100     		.2byte	0x1
 9496 05fd 51       		.byte	0x51
 9497 05fe 00000000 		.4byte	0
 9498 0602 00000000 		.4byte	0
 9499              	.LLST34:
 9500 0606 E2050000 		.4byte	.LVL148
 9501 060a 05060000 		.4byte	.LVL149-1
 9502 060e 0100     		.2byte	0x1
 9503 0610 52       		.byte	0x52
 9504 0611 00000000 		.4byte	0
 9505 0615 00000000 		.4byte	0
 9506              		.section	.debug_aranges,"",%progbits
 9507 0000 3C000000 		.4byte	0x3c
 9508 0004 0200     		.2byte	0x2
 9509 0006 00000000 		.4byte	.Ldebug_info0
 9510 000a 04       		.byte	0x4
 9511 000b 00       		.byte	0
 9512 000c 0000     		.2byte	0
 9513 000e 0000     		.2byte	0
 9514 0010 00000000 		.4byte	.LFB169
 9515 0014 44000000 		.4byte	.LFE169-.LFB169
 9516 0018 00000000 		.4byte	.LFB167
 9517 001c 60000000 		.4byte	.LFE167-.LFB167
 9518 0020 00000000 		.4byte	.LFB168
 9519 0024 34000000 		.4byte	.LFE168-.LFB168
 9520 0028 00000000 		.4byte	.LFB171
 9521 002c 22000000 		.4byte	.LFE171-.LFB171
 9522 0030 00000000 		.4byte	.LFB172
 9523 0034 A8060000 		.4byte	.LFE172-.LFB172
 9524 0038 00000000 		.4byte	0
 9525 003c 00000000 		.4byte	0
 9526              		.section	.debug_ranges,"",%progbits
 9527              	.Ldebug_ranges0:
 9528 0000 0C000000 		.4byte	.LBB38
 9529 0004 26000000 		.4byte	.LBE38
 9530 0008 28000000 		.4byte	.LBB39
 9531 000c 2A000000 		.4byte	.LBE39
 9532 0010 00000000 		.4byte	0
 9533 0014 00000000 		.4byte	0
 9534 0018 00000000 		.4byte	.LFB169
 9535 001c 44000000 		.4byte	.LFE169
 9536 0020 00000000 		.4byte	.LFB167
 9537 0024 60000000 		.4byte	.LFE167
 9538 0028 00000000 		.4byte	.LFB168
ARM GAS  C:\Users\Smaug\AppData\Local\Temp\ccVZzAJS.s 			page 203


 9539 002c 34000000 		.4byte	.LFE168
 9540 0030 00000000 		.4byte	.LFB171
 9541 0034 22000000 		.4byte	.LFE171
 9542 0038 00000000 		.4byte	.LFB172
 9543 003c A8060000 		.4byte	.LFE172
 9544 0040 00000000 		.4byte	0
 9545 0044 00000000 		.4byte	0
 9546              		.section	.debug_line,"",%progbits
 9547              	.Ldebug_line0:
 9548 0000 1A060000 		.section	.debug_str,"MS",%progbits,1
 9548      02000504 
 9548      00000201 
 9548      FB0E0D00 
 9548      01010101 
 9549              	.LASF318:
 9550 0000 63707573 		.ascii	"cpuss_interrupts_dw0_4_IRQn\000"
 9550      735F696E 
 9550      74657272 
 9550      75707473 
 9550      5F647730 
 9551              	.LASF426:
 9552 001c 43595F42 		.ascii	"CY_BLE_EVT_PENDING_FLASH_WRITE\000"
 9552      4C455F45 
 9552      56545F50 
 9552      454E4449 
 9552      4E475F46 
 9553              	.LASF389:
 9554 003b 7564625F 		.ascii	"udb_interrupts_3_IRQn\000"
 9554      696E7465 
 9554      72727570 
 9554      74735F33 
 9554      5F495251 
 9555              	.LASF62:
 9556 0051 43534456 		.ascii	"CSDV2_CSD0_ADC_VREF1\000"
 9556      325F4353 
 9556      44305F41 
 9556      44435F56 
 9556      52454631 
 9557              	.LASF146:
 9558 0066 63727970 		.ascii	"cryptoBase\000"
 9558      746F4261 
 9558      736500
 9559              	.LASF4:
 9560 0071 756E7369 		.ascii	"unsigned char\000"
 9560      676E6564 
 9560      20636861 
 9560      7200
 9561              	.LASF908:
 9562 007f 74636F6E 		.ascii	"tconnHandle\000"
 9562      6E48616E 
 9562      646C6500 
 9563              	.LASF210:
 9564 008b 63707573 		.ascii	"cpussCm0StatusOffset\000"
 9564      73436D30 
 9564      53746174 
 9564      75734F66 
 9564      66736574 
ARM GAS  C:\Users\Smaug\AppData\Local\Temp\ccVZzAJS.s 			page 204


 9565              	.LASF772:
 9566 00a0 7363616E 		.ascii	"scanRspData\000"
 9566      52737044 
 9566      61746100 
 9567              	.LASF256:
 9568 00ac 4E766963 		.ascii	"NvicMux26_IRQn\000"
 9568      4D757832 
 9568      365F4952 
 9568      516E00
 9569              	.LASF177:
 9570 00bb 666C6173 		.ascii	"flashProgramDelay\000"
 9570      6850726F 
 9570      6772616D 
 9570      44656C61 
 9570      7900
 9571              	.LASF14:
 9572 00cd 73697A65 		.ascii	"sizetype\000"
 9572      74797065 
 9572      00
 9573              	.LASF855:
 9574 00d6 7478506F 		.ascii	"txPowerLevelConn\000"
 9574      7765724C 
 9574      6576656C 
 9574      436F6E6E 
 9574      00
 9575              	.LASF179:
 9576 00e7 666C6173 		.ascii	"flashCtlMainWs0Freq\000"
 9576      6843746C 
 9576      4D61696E 
 9576      57733046 
 9576      72657100 
 9577              	.LASF121:
 9578 00fb 544F4332 		.ascii	"TOC2_CRC_ADDR\000"
 9578      5F435243 
 9578      5F414444 
 9578      5200
 9579              	.LASF460:
 9580 0109 43595F42 		.ascii	"CY_BLE_EVT_SET_CLK_CONFIG_COMPLETE\000"
 9580      4C455F45 
 9580      56545F53 
 9580      45545F43 
 9580      4C4B5F43 
 9581              	.LASF549:
 9582 012c 43595F42 		.ascii	"CY_BLE_ERROR_REPEATED_ATTEMPTS\000"
 9582      4C455F45 
 9582      52524F52 
 9582      5F524550 
 9582      45415445 
 9583              	.LASF717:
 9584 014b 43595F42 		.ascii	"CY_BLE_GAP_AUTH_ERROR_PAIRING_NOT_SUPPORTED\000"
 9584      4C455F47 
 9584      41505F41 
 9584      5554485F 
 9584      4552524F 
 9585              	.LASF454:
 9586 0177 43595F42 		.ascii	"CY_BLE_EVT_SET_DEVICE_ADDR_COMPLETE\000"
 9586      4C455F45 
ARM GAS  C:\Users\Smaug\AppData\Local\Temp\ccVZzAJS.s 			page 205


 9586      56545F53 
 9586      45545F44 
 9586      45564943 
 9587              	.LASF733:
 9588 019b 656B6579 		.ascii	"ekeySize\000"
 9588      53697A65 
 9588      00
 9589              	.LASF535:
 9590 01a4 43595F42 		.ascii	"CY_BLE_EVT_L2CAP_CBFC_TX_CREDIT_IND\000"
 9590      4C455F45 
 9590      56545F4C 
 9590      32434150 
 9590      5F434246 
 9591              	.LASF231:
 9592 01c8 4E766963 		.ascii	"NvicMux1_IRQn\000"
 9592      4D757831 
 9592      5F495251 
 9592      6E00
 9593              	.LASF713:
 9594 01d6 43595F42 		.ascii	"CY_BLE_GAP_AUTH_ERROR_PASSKEY_ENTRY_FAILED\000"
 9594      4C455F47 
 9594      41505F41 
 9594      5554485F 
 9594      4552524F 
 9595              	.LASF920:
 9596 0201 43795F42 		.ascii	"Cy_BLE_ApplCallback\000"
 9596      4C455F41 
 9596      70706C43 
 9596      616C6C62 
 9596      61636B00 
 9597              	.LASF928:
 9598 0215 43795F42 		.ascii	"Cy_BLE_GATTS_WriteRsp\000"
 9598      4C455F47 
 9598      41545453 
 9598      5F577269 
 9598      74655273 
 9599              	.LASF277:
 9600 022b 696F7373 		.ascii	"ioss_interrupts_gpio_13_IRQn\000"
 9600      5F696E74 
 9600      65727275 
 9600      7074735F 
 9600      6770696F 
 9601              	.LASF668:
 9602 0248 43595F42 		.ascii	"CY_BLE_GATT_ERR_USER_DATA_ACCESS_NOT_PERMITTED\000"
 9602      4C455F47 
 9602      4154545F 
 9602      4552525F 
 9602      55534552 
 9603              	.LASF576:
 9604 0277 63616C56 		.ascii	"calValLimit\000"
 9604      616C4C69 
 9604      6D697400 
 9605              	.LASF559:
 9606 0283 43595F42 		.ascii	"CY_BLE_ERROR_FLASH_WRITE\000"
 9606      4C455F45 
 9606      52524F52 
 9606      5F464C41 
ARM GAS  C:\Users\Smaug\AppData\Local\Temp\ccVZzAJS.s 			page 206


 9606      53485F57 
 9607              	.LASF61:
 9608 029c 43534456 		.ascii	"CSDV2_CSD0_ADC_VREF0\000"
 9608      325F4353 
 9608      44305F41 
 9608      44435F56 
 9608      52454630 
 9609              	.LASF283:
 9610 02b1 73727373 		.ascii	"srss_interrupt_mcwdt_0_IRQn\000"
 9610      5F696E74 
 9610      65727275 
 9610      70745F6D 
 9610      63776474 
 9611              	.LASF63:
 9612 02cd 43534456 		.ascii	"CSDV2_CSD0_ADC_VREF2\000"
 9612      325F4353 
 9612      44305F41 
 9612      44435F56 
 9612      52454632 
 9613              	.LASF453:
 9614 02e2 43595F42 		.ascii	"CY_BLE_EVT_SOFT_RESET_COMPLETE\000"
 9614      4C455F45 
 9614      56545F53 
 9614      4F46545F 
 9614      52455345 
 9615              	.LASF173:
 9616 0301 63727970 		.ascii	"cryptoMemSize\000"
 9616      746F4D65 
 9616      6D53697A 
 9616      6500
 9617              	.LASF610:
 9618 030f 72657175 		.ascii	"request\000"
 9618      65737400 
 9619              	.LASF716:
 9620 0317 43595F42 		.ascii	"CY_BLE_GAP_AUTH_ERROR_CONFIRM_VALUE_NOT_MATCH\000"
 9620      4C455F47 
 9620      41505F41 
 9620      5554485F 
 9620      4552524F 
 9621              	.LASF884:
 9622 0345 6576656E 		.ascii	"eventParam\000"
 9622      74506172 
 9622      616D00
 9623              	.LASF631:
 9624 0350 43595F42 		.ascii	"CY_BLE_GATT_READ_BLOB_RSP\000"
 9624      4C455F47 
 9624      4154545F 
 9624      52454144 
 9624      5F424C4F 
 9625              	.LASF516:
 9626 036a 43595F42 		.ascii	"CY_BLE_EVT_GATTS_PREP_WRITE_REQ\000"
 9626      4C455F45 
 9626      56545F47 
 9626      41545453 
 9626      5F505245 
 9627              	.LASF585:
 9628 038a 63795F65 		.ascii	"cy_en_ble_bless_pwr_lvl_t\000"
ARM GAS  C:\Users\Smaug\AppData\Local\Temp\ccVZzAJS.s 			page 207


 9628      6E5F626C 
 9628      655F626C 
 9628      6573735F 
 9628      7077725F 
 9629              	.LASF142:
 9630 03a4 6873696F 		.ascii	"hsiomBase\000"
 9630      6D426173 
 9630      6500
 9631              	.LASF355:
 9632 03ae 74637077 		.ascii	"tcpwm_0_interrupts_1_IRQn\000"
 9632      6D5F305F 
 9632      696E7465 
 9632      72727570 
 9632      74735F31 
 9633              	.LASF237:
 9634 03c8 4E766963 		.ascii	"NvicMux7_IRQn\000"
 9634      4D757837 
 9634      5F495251 
 9634      6E00
 9635              	.LASF540:
 9636 03d6 43595F42 		.ascii	"CY_BLE_INFO_FLASH_WRITE_IN_PROGRESS\000"
 9636      4C455F49 
 9636      4E464F5F 
 9636      464C4153 
 9636      485F5752 
 9637              	.LASF163:
 9638 03fa 73727373 		.ascii	"srssNumClkpath\000"
 9638      4E756D43 
 9638      6C6B7061 
 9638      746800
 9639              	.LASF260:
 9640 0409 4E766963 		.ascii	"NvicMux30_IRQn\000"
 9640      4D757833 
 9640      305F4952 
 9640      516E00
 9641              	.LASF459:
 9642 0418 43595F42 		.ascii	"CY_BLE_EVT_GET_CLK_CONFIG_COMPLETE\000"
 9642      4C455F45 
 9642      56545F47 
 9642      45545F43 
 9642      4C4B5F43 
 9643              	.LASF794:
 9644 043b 43595F42 		.ascii	"CY_BLE_CONN_STATE_CLIENT_DESCR_DISCOVERING\000"
 9644      4C455F43 
 9644      4F4E4E5F 
 9644      53544154 
 9644      455F434C 
 9645              	.LASF638:
 9646 0466 43595F42 		.ascii	"CY_BLE_GATT_WRITE_CMD\000"
 9646      4C455F47 
 9646      4154545F 
 9646      57524954 
 9646      455F434D 
 9647              	.LASF655:
 9648 047c 43595F42 		.ascii	"CY_BLE_GATT_ERR_REQUEST_NOT_SUPPORTED\000"
 9648      4C455F47 
 9648      4154545F 
ARM GAS  C:\Users\Smaug\AppData\Local\Temp\ccVZzAJS.s 			page 208


 9648      4552525F 
 9648      52455155 
 9649              	.LASF785:
 9650 04a2 43595F42 		.ascii	"CY_BLE_ADV_STATE_ADVERTISING\000"
 9650      4C455F41 
 9650      44565F53 
 9650      54415445 
 9650      5F414456 
 9651              	.LASF432:
 9652 04bf 43595F42 		.ascii	"CY_BLE_EVT_LE_SET_EVENT_MASK_COMPLETE\000"
 9652      4C455F45 
 9652      56545F4C 
 9652      455F5345 
 9652      545F4556 
 9653              	.LASF92:
 9654 04e5 544F4331 		.ascii	"TOC1_UNIQUE_ID_ADDR\000"
 9654      5F554E49 
 9654      5155455F 
 9654      49445F41 
 9654      44445200 
 9655              	.LASF361:
 9656 04f9 74637077 		.ascii	"tcpwm_0_interrupts_7_IRQn\000"
 9656      6D5F305F 
 9656      696E7465 
 9656      72727570 
 9656      74735F37 
 9657              	.LASF269:
 9658 0513 696F7373 		.ascii	"ioss_interrupts_gpio_5_IRQn\000"
 9658      5F696E74 
 9658      65727275 
 9658      7074735F 
 9658      6770696F 
 9659              	.LASF782:
 9660 052f 63795F65 		.ascii	"cy_en_ble_state_t\000"
 9660      6E5F626C 
 9660      655F7374 
 9660      6174655F 
 9660      7400
 9661              	.LASF575:
 9662 0541 6C6F6275 		.ascii	"lobuffLimit\000"
 9662      66664C69 
 9662      6D697400 
 9663              	.LASF428:
 9664 054d 43595F42 		.ascii	"CY_BLE_EVT_HARDWARE_ERROR\000"
 9664      4C455F45 
 9664      56545F48 
 9664      41524457 
 9664      4152455F 
 9665              	.LASF310:
 9666 0567 7363625F 		.ascii	"scb_5_interrupt_IRQn\000"
 9666      355F696E 
 9666      74657272 
 9666      7570745F 
 9666      4952516E 
 9667              	.LASF858:
 9668 057c 73696C69 		.ascii	"siliconDeviceAddressEnabled\000"
 9668      636F6E44 
ARM GAS  C:\Users\Smaug\AppData\Local\Temp\ccVZzAJS.s 			page 209


 9668      65766963 
 9668      65416464 
 9668      72657373 
 9669              	.LASF429:
 9670 0598 43595F42 		.ascii	"CY_BLE_EVT_WRITE_AUTH_PAYLOAD_TO_COMPLETE\000"
 9670      4C455F45 
 9670      56545F57 
 9670      52495445 
 9670      5F415554 
 9671              	.LASF775:
 9672 05c2 64697363 		.ascii	"discMode\000"
 9672      4D6F6465 
 9672      00
 9673              	.LASF774:
 9674 05cb 63795F73 		.ascii	"cy_stc_ble_gapp_scan_rsp_data_t\000"
 9674      74635F62 
 9674      6C655F67 
 9674      6170705F 
 9674      7363616E 
 9675              	.LASF286:
 9676 05eb 73727373 		.ascii	"srss_interrupt_IRQn\000"
 9676      5F696E74 
 9676      65727275 
 9676      70745F49 
 9676      52516E00 
 9677              	.LASF625:
 9678 05ff 43595F42 		.ascii	"CY_BLE_GATT_FIND_BY_TYPE_VALUE_RSP\000"
 9678      4C455F47 
 9678      4154545F 
 9678      46494E44 
 9678      5F42595F 
 9679              	.LASF649:
 9680 0622 43595F42 		.ascii	"CY_BLE_GATT_ERR_NONE\000"
 9680      4C455F47 
 9680      4154545F 
 9680      4552525F 
 9680      4E4F4E45 
 9681              	.LASF652:
 9682 0637 43595F42 		.ascii	"CY_BLE_GATT_ERR_WRITE_NOT_PERMITTED\000"
 9682      4C455F47 
 9682      4154545F 
 9682      4552525F 
 9682      57524954 
 9683              	.LASF894:
 9684 065b 61646472 		.ascii	"addressValid\000"
 9684      65737356 
 9684      616C6964 
 9684      00
 9685              	.LASF368:
 9686 0668 74637077 		.ascii	"tcpwm_1_interrupts_6_IRQn\000"
 9686      6D5F315F 
 9686      696E7465 
 9686      72727570 
 9686      74735F36 
 9687              	.LASF110:
 9688 0682 544F4332 		.ascii	"TOC2_KEY_BLOCK_ADDR\000"
 9688      5F4B4559 
ARM GAS  C:\Users\Smaug\AppData\Local\Temp\ccVZzAJS.s 			page 210


 9688      5F424C4F 
 9688      434B5F41 
 9688      44445200 
 9689              	.LASF349:
 9690 0696 63707573 		.ascii	"cpuss_interrupt_fm_IRQn\000"
 9690      735F696E 
 9690      74657272 
 9690      7570745F 
 9690      666D5F49 
 9691              	.LASF881:
 9692 06ae 73746174 		.ascii	"state\000"
 9692      6500
 9693              	.LASF75:
 9694 06b4 43505553 		.ascii	"CPUSS_TRIM_RAM_CTL_HALF_LP\000"
 9694      535F5452 
 9694      494D5F52 
 9694      414D5F43 
 9694      544C5F48 
 9695              	.LASF710:
 9696 06cf 43595F42 		.ascii	"CY_BLE_GAP_IOCAP_KEYBOARD_DISPLAY\000"
 9696      4C455F47 
 9696      41505F49 
 9696      4F434150 
 9696      5F4B4559 
 9697              	.LASF228:
 9698 06f1 50656E64 		.ascii	"PendSV_IRQn\000"
 9698      53565F49 
 9698      52516E00 
 9699              	.LASF738:
 9700 06fd 726F6C65 		.ascii	"role\000"
 9700      00
 9701              	.LASF44:
 9702 0702 4C444F5F 		.ascii	"LDO_1P1V_TRIM\000"
 9702      31503156 
 9702      5F545249 
 9702      4D00
 9703              	.LASF203:
 9704 0710 6770696F 		.ascii	"gpioPrtCfgOffset\000"
 9704      50727443 
 9704      66674F66 
 9704      66736574 
 9704      00
 9705              	.LASF813:
 9706 0721 66617374 		.ascii	"fastScanWindow\000"
 9706      5363616E 
 9706      57696E64 
 9706      6F7700
 9707              	.LASF806:
 9708 0730 66617374 		.ascii	"fastAdvTimeOut\000"
 9708      41647654 
 9708      696D654F 
 9708      757400
 9709              	.LASF658:
 9710 073f 43595F42 		.ascii	"CY_BLE_GATT_ERR_PREPARE_WRITE_QUEUE_FULL\000"
 9710      4C455F47 
 9710      4154545F 
 9710      4552525F 
ARM GAS  C:\Users\Smaug\AppData\Local\Temp\ccVZzAJS.s 			page 211


 9710      50524550 
 9711              	.LASF362:
 9712 0768 74637077 		.ascii	"tcpwm_1_interrupts_0_IRQn\000"
 9712      6D5F315F 
 9712      696E7465 
 9712      72727570 
 9712      74735F30 
 9713              	.LASF527:
 9714 0782 43595F42 		.ascii	"CY_BLE_EVT_L2CAP_CONN_PARAM_UPDATE_RSP\000"
 9714      4C455F45 
 9714      56545F4C 
 9714      32434150 
 9714      5F434F4E 
 9715              	.LASF67:
 9716 07a9 43505553 		.ascii	"CPUSS_TRIM_ROM_CTL_ULP\000"
 9716      535F5452 
 9716      494D5F52 
 9716      4F4D5F43 
 9716      544C5F55 
 9717              	.LASF165:
 9718 07c0 73727373 		.ascii	"srssNumHfroot\000"
 9718      4E756D48 
 9718      66726F6F 
 9718      7400
 9719              	.LASF720:
 9720 07ce 43595F42 		.ascii	"CY_BLE_GAP_AUTH_ERROR_UNSPECIFIED_REASON\000"
 9720      4C455F47 
 9720      41505F41 
 9720      5554485F 
 9720      4552524F 
 9721              	.LASF28:
 9722 07f7 4449455F 		.ascii	"DIE_LOT\000"
 9722      4C4F5400 
 9723              	.LASF838:
 9724 07ff 7065726D 		.ascii	"permission\000"
 9724      69737369 
 9724      6F6E00
 9725              	.LASF276:
 9726 080a 696F7373 		.ascii	"ioss_interrupts_gpio_12_IRQn\000"
 9726      5F696E74 
 9726      65727275 
 9726      7074735F 
 9726      6770696F 
 9727              	.LASF571:
 9728 0827 74797065 		.ascii	"type\000"
 9728      00
 9729              	.LASF325:
 9730 082c 63707573 		.ascii	"cpuss_interrupts_dw0_11_IRQn\000"
 9730      735F696E 
 9730      74657272 
 9730      75707473 
 9730      5F647730 
 9731              	.LASF758:
 9732 0849 43595F42 		.ascii	"CY_BLE_GAPP_NON_CONNECTABLE_UNDIRECTED_ADV\000"
 9732      4C455F47 
 9732      4150505F 
 9732      4E4F4E5F 
ARM GAS  C:\Users\Smaug\AppData\Local\Temp\ccVZzAJS.s 			page 212


 9732      434F4E4E 
 9733              	.LASF252:
 9734 0874 4E766963 		.ascii	"NvicMux22_IRQn\000"
 9734      4D757832 
 9734      325F4952 
 9734      516E00
 9735              	.LASF900:
 9736 0883 48636950 		.ascii	"HciPktParams\000"
 9736      6B745061 
 9736      72616D73 
 9736      00
 9737              	.LASF411:
 9738 0890 64697363 		.ascii	"disconnected_IRQn\000"
 9738      6F6E6E65 
 9738      63746564 
 9738      5F495251 
 9738      6E00
 9739              	.LASF406:
 9740 08a2 736D6966 		.ascii	"smif_interrupt_IRQn\000"
 9740      5F696E74 
 9740      65727275 
 9740      70745F49 
 9740      52516E00 
 9741              	.LASF376:
 9742 08b6 74637077 		.ascii	"tcpwm_1_interrupts_14_IRQn\000"
 9742      6D5F315F 
 9742      696E7465 
 9742      72727570 
 9742      74735F31 
 9743              	.LASF452:
 9744 08d1 43595F42 		.ascii	"CY_BLE_EVT_LL_CNTRL_PROC_PENDING_COMPLETE\000"
 9744      4C455F45 
 9744      56545F4C 
 9744      4C5F434E 
 9744      54524C5F 
 9745              	.LASF345:
 9746 08fb 63707573 		.ascii	"cpuss_interrupts_dw1_15_IRQn\000"
 9746      735F696E 
 9746      74657272 
 9746      75707473 
 9746      5F647731 
 9747              	.LASF128:
 9748 0918 52544F43 		.ascii	"RTOC2_SECOND_USER_APP_ADDR\000"
 9748      325F5345 
 9748      434F4E44 
 9748      5F555345 
 9748      525F4150 
 9749              	.LASF188:
 9750 0933 64775374 		.ascii	"dwStatusChIdxPos\000"
 9750      61747573 
 9750      43684964 
 9750      78506F73 
 9750      00
 9751              	.LASF518:
 9752 0944 43595F42 		.ascii	"CY_BLE_EVT_GATTC_EXEC_WRITE_RSP\000"
 9752      4C455F45 
 9752      56545F47 
ARM GAS  C:\Users\Smaug\AppData\Local\Temp\ccVZzAJS.s 			page 213


 9752      41545443 
 9752      5F455845 
 9753              	.LASF872:
 9754 0964 63616C6C 		.ascii	"callbackFunc\000"
 9754      6261636B 
 9754      46756E63 
 9754      00
 9755              	.LASF861:
 9756 0971 64697363 		.ascii	"discoveryModeInfo\000"
 9756      6F766572 
 9756      794D6F64 
 9756      65496E66 
 9756      6F00
 9757              	.LASF875:
 9758 0983 70614361 		.ascii	"paCalConfig\000"
 9758      6C436F6E 
 9758      66696700 
 9759              	.LASF781:
 9760 098f 43595F42 		.ascii	"CY_BLE_STATE_ON\000"
 9760      4C455F53 
 9760      54415445 
 9760      5F4F4E00 
 9761              	.LASF496:
 9762 099f 43595F42 		.ascii	"CY_BLE_EVT_GAP_GEN_SET_LOCAL_P256_KEYS_COMPLETE\000"
 9762      4C455F45 
 9762      56545F47 
 9762      41505F47 
 9762      454E5F53 
 9763              	.LASF292:
 9764 09cf 63707573 		.ascii	"cpuss_interrupts_ipc_3_IRQn\000"
 9764      735F696E 
 9764      74657272 
 9764      75707473 
 9764      5F697063 
 9765              	.LASF360:
 9766 09eb 74637077 		.ascii	"tcpwm_0_interrupts_6_IRQn\000"
 9766      6D5F305F 
 9766      696E7465 
 9766      72727570 
 9766      74735F36 
 9767              	.LASF393:
 9768 0a05 7564625F 		.ascii	"udb_interrupts_7_IRQn\000"
 9768      696E7465 
 9768      72727570 
 9768      74735F37 
 9768      5F495251 
 9769              	.LASF268:
 9770 0a1b 696F7373 		.ascii	"ioss_interrupts_gpio_4_IRQn\000"
 9770      5F696E74 
 9770      65727275 
 9770      7074735F 
 9770      6770696F 
 9771              	.LASF525:
 9772 0a37 43595F42 		.ascii	"CY_BLE_EVT_GATTC_LONG_PROCEDURE_END\000"
 9772      4C455F45 
 9772      56545F47 
 9772      41545443 
ARM GAS  C:\Users\Smaug\AppData\Local\Temp\ccVZzAJS.s 			page 214


 9772      5F4C4F4E 
 9773              	.LASF56:
 9774 0a5b 5354414E 		.ascii	"STANDARD_MPU_STRUCT\000"
 9774      44415244 
 9774      5F4D5055 
 9774      5F535452 
 9774      55435400 
 9775              	.LASF656:
 9776 0a6f 43595F42 		.ascii	"CY_BLE_GATT_ERR_INVALID_OFFSET\000"
 9776      4C455F47 
 9776      4154545F 
 9776      4552525F 
 9776      494E5641 
 9777              	.LASF530:
 9778 0a8e 43595F42 		.ascii	"CY_BLE_EVT_L2CAP_CBFC_CONN_CNF\000"
 9778      4C455F45 
 9778      56545F4C 
 9778      32434150 
 9778      5F434246 
 9779              	.LASF107:
 9780 0aad 52544F43 		.ascii	"RTOC1_CRC_ADDR\000"
 9780      315F4352 
 9780      435F4144 
 9780      445200
 9781              	.LASF914:
 9782 0abc 63795F62 		.ascii	"cy_ble_advState\000"
 9782      6C655F61 
 9782      64765374 
 9782      61746500 
 9783              	.LASF150:
 9784 0acc 666C6173 		.ascii	"flashcVersion\000"
 9784      68635665 
 9784      7273696F 
 9784      6E00
 9785              	.LASF5:
 9786 0ada 5F5F7569 		.ascii	"__uint8_t\000"
 9786      6E74385F 
 9786      7400
 9787              	.LASF620:
 9788 0ae4 43595F42 		.ascii	"CY_BLE_GATT_XCNHG_MTU_REQ\000"
 9788      4C455F47 
 9788      4154545F 
 9788      58434E48 
 9788      475F4D54 
 9789              	.LASF333:
 9790 0afe 63707573 		.ascii	"cpuss_interrupts_dw1_3_IRQn\000"
 9790      735F696E 
 9790      74657272 
 9790      75707473 
 9790      5F647731 
 9791              	.LASF417:
 9792 0b1a 696E7472 		.ascii	"intrSrc\000"
 9792      53726300 
 9793              	.LASF51:
 9794 0b22 44455649 		.ascii	"DEVICE_UID\000"
 9794      43455F55 
 9794      494400
ARM GAS  C:\Users\Smaug\AppData\Local\Temp\ccVZzAJS.s 			page 215


 9795              	.LASF608:
 9796 0b2d 70777243 		.ascii	"pwrConfigParam\000"
 9796      6F6E6669 
 9796      67506172 
 9796      616D00
 9797              	.LASF768:
 9798 0b3c 63795F73 		.ascii	"cy_stc_ble_gapp_disc_param_t\000"
 9798      74635F62 
 9798      6C655F67 
 9798      6170705F 
 9798      64697363 
 9799              	.LASF724:
 9800 0b59 43595F42 		.ascii	"CY_BLE_GAP_AUTH_ERROR_NUMERIC_COMPARISON_FAILED\000"
 9800      4C455F47 
 9800      41505F41 
 9800      5554485F 
 9800      4552524F 
 9801              	.LASF596:
 9802 0b89 43595F42 		.ascii	"CY_BLE_GATT_RSP_TO\000"
 9802      4C455F47 
 9802      4154545F 
 9802      5253505F 
 9802      544F00
 9803              	.LASF520:
 9804 0b9c 43595F42 		.ascii	"CY_BLE_EVT_GATTC_HANDLE_VALUE_IND\000"
 9804      4C455F45 
 9804      56545F47 
 9804      41545443 
 9804      5F48414E 
 9805              	.LASF729:
 9806 0bbe 63795F65 		.ascii	"cy_en_ble_gap_auth_failed_reason_t\000"
 9806      6E5F626C 
 9806      655F6761 
 9806      705F6175 
 9806      74685F66 
 9807              	.LASF664:
 9808 0be1 43595F42 		.ascii	"CY_BLE_GATT_ERR_INSUFFICIENT_ENCRYPTION\000"
 9808      4C455F47 
 9808      4154545F 
 9808      4552525F 
 9808      494E5355 
 9809              	.LASF424:
 9810 0c09 43595F42 		.ascii	"CY_BLE_EVT_STACK_BUSY_STATUS\000"
 9810      4C455F45 
 9810      56545F53 
 9810      5441434B 
 9810      5F425553 
 9811              	.LASF632:
 9812 0c26 43595F42 		.ascii	"CY_BLE_GATT_READ_MULTIPLE_REQ\000"
 9812      4C455F47 
 9812      4154545F 
 9812      52454144 
 9812      5F4D554C 
 9813              	.LASF10:
 9814 0c44 6C6F6E67 		.ascii	"long int\000"
 9814      20696E74 
 9814      00
ARM GAS  C:\Users\Smaug\AppData\Local\Temp\ccVZzAJS.s 			page 216


 9815              	.LASF504:
 9816 0c4d 43595F42 		.ascii	"CY_BLE_EVT_GATTS_XCNHG_MTU_REQ\000"
 9816      4C455F45 
 9816      56545F47 
 9816      41545453 
 9816      5F58434E 
 9817              	.LASF629:
 9818 0c6c 43595F42 		.ascii	"CY_BLE_GATT_READ_RSP\000"
 9818      4C455F47 
 9818      4154545F 
 9818      52454144 
 9818      5F525350 
 9819              	.LASF470:
 9820 0c81 43595F42 		.ascii	"CY_BLE_EVT_SET_EVENT_MASK_COMPLETE\000"
 9820      4C455F45 
 9820      56545F53 
 9820      45545F45 
 9820      56454E54 
 9821              	.LASF795:
 9822 0ca4 43595F42 		.ascii	"CY_BLE_CONN_STATE_CLIENT_DISCOVERED\000"
 9822      4C455F43 
 9822      4F4E4E5F 
 9822      53544154 
 9822      455F434C 
 9823              	.LASF809:
 9824 0cc8 736C6F77 		.ascii	"slowAdvIntervalMax\000"
 9824      41647649 
 9824      6E746572 
 9824      76616C4D 
 9824      617800
 9825              	.LASF654:
 9826 0cdb 43595F42 		.ascii	"CY_BLE_GATT_ERR_INSUFFICIENT_AUTHENTICATION\000"
 9826      4C455F47 
 9826      4154545F 
 9826      4552525F 
 9826      494E5355 
 9827              	.LASF386:
 9828 0d07 7564625F 		.ascii	"udb_interrupts_0_IRQn\000"
 9828      696E7465 
 9828      72727570 
 9828      74735F30 
 9828      5F495251 
 9829              	.LASF155:
 9830 0d1d 70726F74 		.ascii	"protVersion\000"
 9830      56657273 
 9830      696F6E00 
 9831              	.LASF375:
 9832 0d29 74637077 		.ascii	"tcpwm_1_interrupts_13_IRQn\000"
 9832      6D5F315F 
 9832      696E7465 
 9832      72727570 
 9832      74735F31 
 9833              	.LASF513:
 9834 0d44 43595F42 		.ascii	"CY_BLE_EVT_GATTS_WRITE_REQ\000"
 9834      4C455F45 
 9834      56545F47 
 9834      41545453 
ARM GAS  C:\Users\Smaug\AppData\Local\Temp\ccVZzAJS.s 			page 217


 9834      5F575249 
 9835              	.LASF691:
 9836 0d5f 76616C75 		.ascii	"value\000"
 9836      6500
 9837              	.LASF170:
 9838 0d65 75646250 		.ascii	"udbPresent\000"
 9838      72657365 
 9838      6E7400
 9839              	.LASF108:
 9840 0d70 544F4332 		.ascii	"TOC2_OBJECT_SIZE\000"
 9840      5F4F424A 
 9840      4543545F 
 9840      53495A45 
 9840      00
 9841              	.LASF886:
 9842 0d81 6576656E 		.ascii	"eventHandlerFunc\000"
 9842      7448616E 
 9842      646C6572 
 9842      46756E63 
 9842      00
 9843              	.LASF35:
 9844 0d92 4449455F 		.ascii	"DIE_MONTH\000"
 9844      4D4F4E54 
 9844      4800
 9845              	.LASF253:
 9846 0d9c 4E766963 		.ascii	"NvicMux23_IRQn\000"
 9846      4D757832 
 9846      335F4952 
 9846      516E00
 9847              	.LASF607:
 9848 0dab 626C6550 		.ascii	"blePwrLevel\000"
 9848      77724C65 
 9848      76656C00 
 9849              	.LASF679:
 9850 0db7 43595F42 		.ascii	"CY_BLE_GATT_ERR_ANS_COMMAND_NOT_SUPPORTED\000"
 9850      4C455F47 
 9850      4154545F 
 9850      4552525F 
 9850      414E535F 
 9851              	.LASF690:
 9852 0de1 63795F73 		.ascii	"cy_stc_ble_gatt_value_t\000"
 9852      74635F62 
 9852      6C655F67 
 9852      6174745F 
 9852      76616C75 
 9853              	.LASF198:
 9854 0df9 70657269 		.ascii	"periDiv8CtlOffset\000"
 9854      44697638 
 9854      43746C4F 
 9854      66667365 
 9854      7400
 9855              	.LASF853:
 9856 0e0b 63795F73 		.ascii	"cy_stc_ble_flash_storage_t\000"
 9856      74635F62 
 9856      6C655F66 
 9856      6C617368 
 9856      5F73746F 
ARM GAS  C:\Users\Smaug\AppData\Local\Temp\ccVZzAJS.s 			page 218


 9857              	.LASF948:
 9858 0e26 43795F42 		.ascii	"Cy_BLE_EventHandler\000"
 9858      4C455F45 
 9858      76656E74 
 9858      48616E64 
 9858      6C657200 
 9859              	.LASF747:
 9860 0e3a 7363616E 		.ascii	"scanType\000"
 9860      54797065 
 9860      00
 9861              	.LASF9:
 9862 0e43 73686F72 		.ascii	"short unsigned int\000"
 9862      7420756E 
 9862      7369676E 
 9862      65642069 
 9862      6E7400
 9863              	.LASF650:
 9864 0e56 43595F42 		.ascii	"CY_BLE_GATT_ERR_INVALID_HANDLE\000"
 9864      4C455F47 
 9864      4154545F 
 9864      4552525F 
 9864      494E5641 
 9865              	.LASF660:
 9866 0e75 43595F42 		.ascii	"CY_BLE_GATT_ERR_ATTRIBUTE_NOT_LONG\000"
 9866      4C455F47 
 9866      4154545F 
 9866      4552525F 
 9866      41545452 
 9867              	.LASF392:
 9868 0e98 7564625F 		.ascii	"udb_interrupts_6_IRQn\000"
 9868      696E7465 
 9868      72727570 
 9868      74735F36 
 9868      5F495251 
 9869              	.LASF907:
 9870 0eae 74457650 		.ascii	"tEvParam\000"
 9870      6172616D 
 9870      00
 9871              	.LASF451:
 9872 0eb7 43595F42 		.ascii	"CY_BLE_EVT_SET_PRIVACY_MODE_COMPLETE\000"
 9872      4C455F45 
 9872      56545F53 
 9872      45545F50 
 9872      52495641 
 9873              	.LASF779:
 9874 0edc 43595F42 		.ascii	"CY_BLE_STATE_STOPPED\000"
 9874      4C455F53 
 9874      54415445 
 9874      5F53544F 
 9874      50504544 
 9875              	.LASF300:
 9876 0ef1 63707573 		.ascii	"cpuss_interrupts_ipc_11_IRQn\000"
 9876      735F696E 
 9876      74657272 
 9876      75707473 
 9876      5F697063 
 9877              	.LASF727:
ARM GAS  C:\Users\Smaug\AppData\Local\Temp\ccVZzAJS.s 			page 219


 9878 0f0e 43595F42 		.ascii	"CY_BLE_GAP_AUTH_ERROR_AUTHENTICATION_TIMEOUT\000"
 9878      4C455F47 
 9878      41505F41 
 9878      5554485F 
 9878      4552524F 
 9879              	.LASF483:
 9880 0f3b 43595F42 		.ascii	"CY_BLE_EVT_GAP_ENCRYPT_CHANGE\000"
 9880      4C455F45 
 9880      56545F47 
 9880      41505F45 
 9880      4E435259 
 9881              	.LASF891:
 9882 0f59 43795F42 		.ascii	"Cy_BLE_InvokeServiceEventHandler\000"
 9882      4C455F49 
 9882      6E766F6B 
 9882      65536572 
 9882      76696365 
 9883              	.LASF442:
 9884 0f7a 43595F42 		.ascii	"CY_BLE_EVT_SET_HOST_CHANNEL_COMPLETE\000"
 9884      4C455F45 
 9884      56545F53 
 9884      45545F48 
 9884      4F53545F 
 9885              	.LASF803:
 9886 0f9f 63795F73 		.ascii	"cy_stc_ble_gaps_t\000"
 9886      74635F62 
 9886      6C655F67 
 9886      6170735F 
 9886      7400
 9887              	.LASF221:
 9888 0fb1 69706353 		.ascii	"ipcStructSize\000"
 9888      74727563 
 9888      7453697A 
 9888      6500
 9889              	.LASF590:
 9890 0fbf 64617461 		.ascii	"data\000"
 9890      00
 9891              	.LASF784:
 9892 0fc4 43595F42 		.ascii	"CY_BLE_ADV_STATE_ADV_INITIATED\000"
 9892      4C455F41 
 9892      44565F53 
 9892      54415445 
 9892      5F414456 
 9893              	.LASF837:
 9894 0fe3 61747454 		.ascii	"attType\000"
 9894      79706500 
 9895              	.LASF899:
 9896 0feb 65765061 		.ascii	"evParam\000"
 9896      72616D00 
 9897              	.LASF332:
 9898 0ff3 63707573 		.ascii	"cpuss_interrupts_dw1_2_IRQn\000"
 9898      735F696E 
 9898      74657272 
 9898      75707473 
 9898      5F647731 
 9899              	.LASF605:
 9900 100f 626C6553 		.ascii	"bleSsChId\000"
ARM GAS  C:\Users\Smaug\AppData\Local\Temp\ccVZzAJS.s 			page 220


 9900      73436849 
 9900      6400
 9901              	.LASF243:
 9902 1019 4E766963 		.ascii	"NvicMux13_IRQn\000"
 9902      4D757831 
 9902      335F4952 
 9902      516E00
 9903              	.LASF475:
 9904 1028 43595F42 		.ascii	"CY_BLE_EVT_GAP_AUTH_REQ\000"
 9904      4C455F45 
 9904      56545F47 
 9904      41505F41 
 9904      5554485F 
 9905              	.LASF97:
 9906 1040 544F4331 		.ascii	"TOC1_CRC_ADDR\000"
 9906      5F435243 
 9906      5F414444 
 9906      5200
 9907              	.LASF229:
 9908 104e 53797354 		.ascii	"SysTick_IRQn\000"
 9908      69636B5F 
 9908      4952516E 
 9908      00
 9909              	.LASF102:
 9910 105b 52544F43 		.ascii	"RTOC1_UNIQUE_ID_ADDR\000"
 9910      315F554E 
 9910      49515545 
 9910      5F49445F 
 9910      41444452 
 9911              	.LASF444:
 9912 1070 43595F42 		.ascii	"CY_BLE_EVT_REMOVE_DEVICE_FROM_RPA_LIST_COMPLETE\000"
 9912      4C455F45 
 9912      56545F52 
 9912      454D4F56 
 9912      455F4445 
 9913              	.LASF77:
 9914 10a0 464C4153 		.ascii	"FLASH_BOOT_OBJECT_SIZE\000"
 9914      485F424F 
 9914      4F545F4F 
 9914      424A4543 
 9914      545F5349 
 9915              	.LASF313:
 9916 10b7 6373645F 		.ascii	"csd_interrupt_IRQn\000"
 9916      696E7465 
 9916      72727570 
 9916      745F4952 
 9916      516E00
 9917              	.LASF599:
 9918 10ca 43595F42 		.ascii	"CY_BLE_PREPARED_WRITE_REQUEST\000"
 9918      4C455F50 
 9918      52455041 
 9918      5245445F 
 9918      57524954 
 9919              	.LASF582:
 9920 10e8 43595F42 		.ascii	"CY_BLE_LL_PWR_LVL_NEG_6_DBM\000"
 9920      4C455F4C 
 9920      4C5F5057 
ARM GAS  C:\Users\Smaug\AppData\Local\Temp\ccVZzAJS.s 			page 221


 9920      525F4C56 
 9920      4C5F4E45 
 9921              	.LASF712:
 9922 1104 43595F42 		.ascii	"CY_BLE_GAP_AUTH_ERROR_NONE\000"
 9922      4C455F47 
 9922      41505F41 
 9922      5554485F 
 9922      4552524F 
 9923              	.LASF565:
 9924 111f 43595F42 		.ascii	"CY_BLE_ERROR_CHAR_IS_NOT_DISCOVERED\000"
 9924      4C455F45 
 9924      52524F52 
 9924      5F434841 
 9924      525F4953 
 9925              	.LASF166:
 9926 1143 70657269 		.ascii	"periClockNr\000"
 9926      436C6F63 
 9926      6B4E7200 
 9927              	.LASF911:
 9928 114f 63795F62 		.ascii	"cy_ble_eventHandlerFlag\000"
 9928      6C655F65 
 9928      76656E74 
 9928      48616E64 
 9928      6C657246 
 9929              	.LASF491:
 9930 1167 43595F42 		.ascii	"CY_BLE_EVT_GAPC_DIRECT_ADV_REPORT\000"
 9930      4C455F45 
 9930      56545F47 
 9930      4150435F 
 9930      44495245 
 9931              	.LASF16:
 9932 1189 75696E74 		.ascii	"uint8_t\000"
 9932      385F7400 
 9933              	.LASF473:
 9934 1191 43595F42 		.ascii	"CY_BLE_EVT_HCI_PKT_RCVD\000"
 9934      4C455F45 
 9934      56545F48 
 9934      43495F50 
 9934      4B545F52 
 9935              	.LASF116:
 9936 11a9 544F4332 		.ascii	"TOC2_SHASH_OBJECTS\000"
 9936      5F534841 
 9936      53485F4F 
 9936      424A4543 
 9936      545300
 9937              	.LASF815:
 9938 11bc 736C6F77 		.ascii	"slowScanEnabled\000"
 9938      5363616E 
 9938      456E6162 
 9938      6C656400 
 9939              	.LASF101:
 9940 11cc 52544F43 		.ascii	"RTOC1_GENERAL_TRIM_ADDR_UNUSED\000"
 9940      315F4745 
 9940      4E455241 
 9940      4C5F5452 
 9940      494D5F41 
 9941              	.LASF465:
ARM GAS  C:\Users\Smaug\AppData\Local\Temp\ccVZzAJS.s 			page 222


 9942 11eb 43595F42 		.ascii	"CY_BLE_EVT_SET_SLAVE_LATENCY_MODE_COMPLETE\000"
 9942      4C455F45 
 9942      56545F53 
 9942      45545F53 
 9942      4C415645 
 9943              	.LASF425:
 9944 1216 43595F42 		.ascii	"CY_BLE_EVT_MEMORY_REQUEST\000"
 9944      4C455F45 
 9944      56545F4D 
 9944      454D4F52 
 9944      595F5245 
 9945              	.LASF943:
 9946 1230 474E5520 		.ascii	"GNU C11 5.4.1 20160609 (release) [ARM/embedded-5-br"
 9946      43313120 
 9946      352E342E 
 9946      31203230 
 9946      31363036 
 9947 1263 616E6368 		.ascii	"anch revision 237715] -mcpu=cortex-m0plus -mthumb -"
 9947      20726576 
 9947      6973696F 
 9947      6E203233 
 9947      37373135 
 9948 1296 67202D4F 		.ascii	"g -Og -ffunction-sections -ffat-lto-objects\000"
 9948      67202D66 
 9948      66756E63 
 9948      74696F6E 
 9948      2D736563 
 9949              	.LASF688:
 9950 12c2 63795F62 		.ascii	"cy_ble_gatt_db_attr_handle_t\000"
 9950      6C655F67 
 9950      6174745F 
 9950      64625F61 
 9950      7474725F 
 9951              	.LASF196:
 9952 12df 70657269 		.ascii	"periDivCmdPaDivSelPos\000"
 9952      44697643 
 9952      6D645061 
 9952      44697653 
 9952      656C506F 
 9953              	.LASF69:
 9954 12f5 43505553 		.ascii	"CPUSS_TRIM_ROM_CTL_LP\000"
 9954      535F5452 
 9954      494D5F52 
 9954      4F4D5F43 
 9954      544C5F4C 
 9955              	.LASF217:
 9956 130b 63707573 		.ascii	"cpussRomCtl\000"
 9956      73526F6D 
 9956      43746C00 
 9957              	.LASF296:
 9958 1317 63707573 		.ascii	"cpuss_interrupts_ipc_7_IRQn\000"
 9958      735F696E 
 9958      74657272 
 9958      75707473 
 9958      5F697063 
 9959              	.LASF534:
 9960 1333 43595F42 		.ascii	"CY_BLE_EVT_L2CAP_CBFC_RX_CREDIT_IND\000"
ARM GAS  C:\Users\Smaug\AppData\Local\Temp\ccVZzAJS.s 			page 223


 9960      4C455F45 
 9960      56545F4C 
 9960      32434150 
 9960      5F434246 
 9961              	.LASF521:
 9962 1357 43595F42 		.ascii	"CY_BLE_EVT_GATTS_HANDLE_VALUE_CNF\000"
 9962      4C455F45 
 9962      56545F47 
 9962      41545453 
 9962      5F48414E 
 9963              	.LASF272:
 9964 1379 696F7373 		.ascii	"ioss_interrupts_gpio_8_IRQn\000"
 9964      5F696E74 
 9964      65727275 
 9964      7074735F 
 9964      6770696F 
 9965              	.LASF312:
 9966 1395 7363625F 		.ascii	"scb_7_interrupt_IRQn\000"
 9966      375F696E 
 9966      74657272 
 9966      7570745F 
 9966      4952516E 
 9967              	.LASF138:
 9968 13aa 666C6173 		.ascii	"flashcBase\000"
 9968      68634261 
 9968      736500
 9969              	.LASF800:
 9970 13b5 70726566 		.ascii	"prefConnParamCharHandle\000"
 9970      436F6E6E 
 9970      50617261 
 9970      6D436861 
 9970      7248616E 
 9971              	.LASF929:
 9972 13cd 43795F42 		.ascii	"Cy_BLE_HAL_SoftHciHostReceiveControllerPkt\000"
 9972      4C455F48 
 9972      414C5F53 
 9972      6F667448 
 9972      6369486F 
 9973              	.LASF352:
 9974 13f8 63707573 		.ascii	"cpuss_interrupts_cm4_cti_0_IRQn\000"
 9974      735F696E 
 9974      74657272 
 9974      75707473 
 9974      5F636D34 
 9975              	.LASF23:
 9976 1418 52455345 		.ascii	"RESERVED1\000"
 9976      52564544 
 9976      3100
 9977              	.LASF113:
 9978 1422 544F4332 		.ascii	"TOC2_FIRST_USER_APP_FORMAT\000"
 9978      5F464952 
 9978      53545F55 
 9978      5345525F 
 9978      4150505F 
 9979              	.LASF27:
 9980 143d 52455345 		.ascii	"RESERVED3\000"
 9980      52564544 
ARM GAS  C:\Users\Smaug\AppData\Local\Temp\ccVZzAJS.s 			page 224


 9980      3300
 9981              	.LASF37:
 9982 1447 52455345 		.ascii	"RESERVED4\000"
 9982      52564544 
 9982      3400
 9983              	.LASF40:
 9984 1451 52455345 		.ascii	"RESERVED5\000"
 9984      52564544 
 9984      3500
 9985              	.LASF42:
 9986 145b 52455345 		.ascii	"RESERVED6\000"
 9986      52564544 
 9986      3600
 9987              	.LASF45:
 9988 1465 52455345 		.ascii	"RESERVED7\000"
 9988      52564544 
 9988      3700
 9989              	.LASF50:
 9990 146f 52455345 		.ascii	"RESERVED8\000"
 9990      52564544 
 9990      3800
 9991              	.LASF58:
 9992 1479 52455345 		.ascii	"RESERVED9\000"
 9992      52564544 
 9992      3900
 9993              	.LASF841:
 9994 1483 63795F73 		.ascii	"cy_stc_ble_gatts_db_t\000"
 9994      74635F62 
 9994      6C655F67 
 9994      61747473 
 9994      5F64625F 
 9995              	.LASF618:
 9996 1499 63795F73 		.ascii	"cy_stc_ble_timeout_param_t\000"
 9996      74635F62 
 9996      6C655F74 
 9996      696D656F 
 9996      75745F70 
 9997              	.LASF942:
 9998 14b4 43795F42 		.ascii	"Cy_BLE_GATTS_ReadAttributeValueCCCDReqHandler\000"
 9998      4C455F47 
 9998      41545453 
 9998      5F526561 
 9998      64417474 
 9999              	.LASF493:
 10000 14e2 43595F42 		.ascii	"CY_BLE_EVT_GAP_DEVICE_ADDR_GEN_COMPLETE\000"
 10000      4C455F45 
 10000      56545F47 
 10000      41505F44 
 10000      45564943 
 10001              	.LASF793:
 10002 150a 43595F42 		.ascii	"CY_BLE_CONN_STATE_CLIENT_CHAR_DISCOVERING\000"
 10002      4C455F43 
 10002      4F4E4E5F 
 10002      53544154 
 10002      455F434C 
 10003              	.LASF409:
 10004 1534 7573625F 		.ascii	"usb_interrupt_lo_IRQn\000"
ARM GAS  C:\Users\Smaug\AppData\Local\Temp\ccVZzAJS.s 			page 225


 10004      696E7465 
 10004      72727570 
 10004      745F6C6F 
 10004      5F495251 
 10005              	.LASF739:
 10006 154a 70656572 		.ascii	"peerAddrType\000"
 10006      41646472 
 10006      54797065 
 10006      00
 10007              	.LASF836:
 10008 1557 61747448 		.ascii	"attHandle\000"
 10008      616E646C 
 10008      6500
 10009              	.LASF508:
 10010 1561 43595F42 		.ascii	"CY_BLE_EVT_GATTC_FIND_INFO_RSP\000"
 10010      4C455F45 
 10010      56545F47 
 10010      41545443 
 10010      5F46494E 
 10011              	.LASF609:
 10012 1580 63795F73 		.ascii	"cy_stc_ble_tx_pwr_lvl_info_t\000"
 10012      74635F62 
 10012      6C655F74 
 10012      785F7077 
 10012      725F6C76 
 10013              	.LASF476:
 10014 159d 43595F42 		.ascii	"CY_BLE_EVT_GAP_PASSKEY_ENTRY_REQUEST\000"
 10014      4C455F45 
 10014      56545F47 
 10014      41505F50 
 10014      4153534B 
 10015              	.LASF122:
 10016 15c2 52544F43 		.ascii	"RTOC2_OBJECT_SIZE\000"
 10016      325F4F42 
 10016      4A454354 
 10016      5F53495A 
 10016      4500
 10017              	.LASF918:
 10018 15d4 63795F62 		.ascii	"cy_ble_devConnRole\000"
 10018      6C655F64 
 10018      6576436F 
 10018      6E6E526F 
 10018      6C6500
 10019              	.LASF722:
 10020 15e7 43595F42 		.ascii	"CY_BLE_GAP_AUTH_ERROR_INVALID_PARAMETERS\000"
 10020      4C455F47 
 10020      41505F41 
 10020      5554485F 
 10020      4552524F 
 10021              	.LASF104:
 10022 1610 52544F43 		.ascii	"RTOC1_SYSCALL_TABLE_ADDR_UNUSED\000"
 10022      315F5359 
 10022      5343414C 
 10022      4C5F5441 
 10022      424C455F 
 10023              	.LASF567:
 10024 1630 43595F42 		.ascii	"CY_BLE_ERROR_INVALID_STATE\000"
ARM GAS  C:\Users\Smaug\AppData\Local\Temp\ccVZzAJS.s 			page 226


 10024      4C455F45 
 10024      52524F52 
 10024      5F494E56 
 10024      414C4944 
 10025              	.LASF212:
 10026 164b 63707573 		.ascii	"cpussTrimRamCtlOffset\000"
 10026      73547269 
 10026      6D52616D 
 10026      43746C4F 
 10026      66667365 
 10027              	.LASF916:
 10028 1661 63795F62 		.ascii	"cy_ble_connHandle\000"
 10028      6C655F63 
 10028      6F6E6E48 
 10028      616E646C 
 10028      6500
 10029              	.LASF262:
 10030 1673 756E636F 		.ascii	"unconnected_IRQn\000"
 10030      6E6E6563 
 10030      7465645F 
 10030      4952516E 
 10030      00
 10031              	.LASF519:
 10032 1684 43595F42 		.ascii	"CY_BLE_EVT_GATTC_HANDLE_VALUE_NTF\000"
 10032      4C455F45 
 10032      56545F47 
 10032      41545443 
 10032      5F48414E 
 10033              	.LASF647:
 10034 16a6 43595F42 		.ascii	"CY_BLE_GATT_UNKNOWN_PDU_IND\000"
 10034      4C455F47 
 10034      4154545F 
 10034      554E4B4E 
 10034      4F574E5F 
 10035              	.LASF233:
 10036 16c2 4E766963 		.ascii	"NvicMux3_IRQn\000"
 10036      4D757833 
 10036      5F495251 
 10036      6E00
 10037              	.LASF848:
 10038 16d0 5F426F6F 		.ascii	"_Bool\000"
 10038      6C00
 10039              	.LASF144:
 10040 16d6 70617373 		.ascii	"passBase\000"
 10040      42617365 
 10040      00
 10041              	.LASF211:
 10042 16df 63707573 		.ascii	"cpussCm4PwrCtlOffset\000"
 10042      73436D34 
 10042      50777243 
 10042      746C4F66 
 10042      66736574 
 10043              	.LASF611:
 10044 16f4 636F6E66 		.ascii	"configMemory\000"
 10044      69674D65 
 10044      6D6F7279 
 10044      00
ARM GAS  C:\Users\Smaug\AppData\Local\Temp\ccVZzAJS.s 			page 227


 10045              	.LASF213:
 10046 1701 63707573 		.ascii	"cpussTrimRomCtlOffset\000"
 10046      73547269 
 10046      6D526F6D 
 10046      43746C4F 
 10046      66667365 
 10047              	.LASF328:
 10048 1717 63707573 		.ascii	"cpuss_interrupts_dw0_14_IRQn\000"
 10048      735F696E 
 10048      74657272 
 10048      75707473 
 10048      5F647730 
 10049              	.LASF645:
 10050 1734 43595F42 		.ascii	"CY_BLE_GATT_HANDLE_VALUE_CNF\000"
 10050      4C455F47 
 10050      4154545F 
 10050      48414E44 
 10050      4C455F56 
 10051              	.LASF726:
 10052 1751 43595F42 		.ascii	"CY_BLE_GAP_AUTH_ERROR_CROSS_TRANSPORT_KEY_GEN_DER_N"
 10052      4C455F47 
 10052      41505F41 
 10052      5554485F 
 10052      4552524F 
 10053 1784 4F545F41 		.ascii	"OT_ALLOWED\000"
 10053      4C4C4F57 
 10053      454400
 10054              	.LASF832:
 10055 178f 63795F73 		.ascii	"cy_stc_ble_gatts_att_pack_val_len_t\000"
 10055      74635F62 
 10055      6C655F67 
 10055      61747473 
 10055      5F617474 
 10056              	.LASF919:
 10057 17b3 63795F62 		.ascii	"cy_ble_pairStatus\000"
 10057      6C655F70 
 10057      61697253 
 10057      74617475 
 10057      7300
 10058              	.LASF94:
 10059 17c5 544F4331 		.ascii	"TOC1_SYSCALL_TABLE_ADDR_UNUSED\000"
 10059      5F535953 
 10059      43414C4C 
 10059      5F544142 
 10059      4C455F41 
 10060              	.LASF85:
 10061 17e4 5055424C 		.ascii	"PUBLIC_KEY\000"
 10061      49435F4B 
 10061      455900
 10062              	.LASF15:
 10063 17ef 63686172 		.ascii	"char\000"
 10063      00
 10064              	.LASF523:
 10065 17f4 43595F42 		.ascii	"CY_BLE_EVT_GATTC_STOP_CMD_COMPLETE\000"
 10065      4C455F45 
 10065      56545F47 
 10065      41545443 
ARM GAS  C:\Users\Smaug\AppData\Local\Temp\ccVZzAJS.s 			page 228


 10065      5F53544F 
 10066              	.LASF131:
 10067 1817 52544F43 		.ascii	"RTOC2_SIGNATURE_VERIF_KEY\000"
 10067      325F5349 
 10067      474E4154 
 10067      5552455F 
 10067      56455249 
 10068              	.LASF533:
 10069 1831 43595F42 		.ascii	"CY_BLE_EVT_L2CAP_CBFC_DATA_READ\000"
 10069      4C455F45 
 10069      56545F4C 
 10069      32434150 
 10069      5F434246 
 10070              	.LASF637:
 10071 1851 43595F42 		.ascii	"CY_BLE_GATT_WRITE_RSP\000"
 10071      4C455F47 
 10071      4154545F 
 10071      57524954 
 10071      455F5253 
 10072              	.LASF683:
 10073 1867 43595F42 		.ascii	"CY_BLE_GATT_ERR_ANCS_ACTION_FAILED\000"
 10073      4C455F47 
 10073      4154545F 
 10073      4552525F 
 10073      414E4353 
 10074              	.LASF569:
 10075 188a 63795F65 		.ascii	"cy_en_ble_api_result_t\000"
 10075      6E5F626C 
 10075      655F6170 
 10075      695F7265 
 10075      73756C74 
 10076              	.LASF321:
 10077 18a1 63707573 		.ascii	"cpuss_interrupts_dw0_7_IRQn\000"
 10077      735F696E 
 10077      74657272 
 10077      75707473 
 10077      5F647730 
 10078              	.LASF447:
 10079 18bd 43595F42 		.ascii	"CY_BLE_EVT_GET_PHY_COMPLETE\000"
 10079      4C455F45 
 10079      56545F47 
 10079      45545F50 
 10079      48595F43 
 10080              	.LASF934:
 10081 18d9 43795F53 		.ascii	"Cy_SysLib_AssertFailed\000"
 10081      79734C69 
 10081      625F4173 
 10081      73657274 
 10081      4661696C 
 10082              	.LASF464:
 10083 18f0 43595F42 		.ascii	"CY_BLE_EVT_AES_CCM_DECRYPT_COMPLETE\000"
 10083      4C455F45 
 10083      56545F41 
 10083      45535F43 
 10083      434D5F44 
 10084              	.LASF364:
 10085 1914 74637077 		.ascii	"tcpwm_1_interrupts_2_IRQn\000"
ARM GAS  C:\Users\Smaug\AppData\Local\Temp\ccVZzAJS.s 			page 229


 10085      6D5F315F 
 10085      696E7465 
 10085      72727570 
 10085      74735F32 
 10086              	.LASF666:
 10087 192e 43595F42 		.ascii	"CY_BLE_GATT_ERR_INSUFFICIENT_RESOURCE\000"
 10087      4C455F47 
 10087      4154545F 
 10087      4552525F 
 10087      494E5355 
 10088              	.LASF558:
 10089 1954 43595F42 		.ascii	"CY_BLE_ERROR_FLASH_WRITE_NOT_PERMITED\000"
 10089      4C455F45 
 10089      52524F52 
 10089      5F464C41 
 10089      53485F57 
 10090              	.LASF759:
 10091 197a 43595F42 		.ascii	"CY_BLE_GAPP_CONNECTABLE_LOW_DC_DIRECTED_ADV\000"
 10091      4C455F47 
 10091      4150505F 
 10091      434F4E4E 
 10091      45435441 
 10092              	.LASF246:
 10093 19a6 4E766963 		.ascii	"NvicMux16_IRQn\000"
 10093      4D757831 
 10093      365F4952 
 10093      516E00
 10094              	.LASF8:
 10095 19b5 5F5F7569 		.ascii	"__uint16_t\000"
 10095      6E743136 
 10095      5F7400
 10096              	.LASF757:
 10097 19c0 43595F42 		.ascii	"CY_BLE_GAPP_SCANNABLE_UNDIRECTED_ADV\000"
 10097      4C455F47 
 10097      4150505F 
 10097      5343414E 
 10097      4E41424C 
 10098              	.LASF72:
 10099 19e5 43505553 		.ascii	"CPUSS_TRIM_ROM_CTL_HALF_ULP\000"
 10099      535F5452 
 10099      494D5F52 
 10099      4F4D5F43 
 10099      544C5F48 
 10100              	.LASF474:
 10101 1a01 43595F42 		.ascii	"CY_BLE_EVT_GAPC_SCAN_PROGRESS_RESULT\000"
 10101      4C455F45 
 10101      56545F47 
 10101      4150435F 
 10101      5343414E 
 10102              	.LASF25:
 10103 1a26 52455345 		.ascii	"RESERVED2\000"
 10103      52564544 
 10103      3200
 10104              	.LASF336:
 10105 1a30 63707573 		.ascii	"cpuss_interrupts_dw1_6_IRQn\000"
 10105      735F696E 
 10105      74657272 
ARM GAS  C:\Users\Smaug\AppData\Local\Temp\ccVZzAJS.s 			page 230


 10105      75707473 
 10105      5F647731 
 10106              	.LASF490:
 10107 1a4c 43595F42 		.ascii	"CY_BLE_EVT_GAP_ENHANCE_CONN_COMPLETE\000"
 10107      4C455F45 
 10107      56545F47 
 10107      41505F45 
 10107      4E48414E 
 10108              	.LASF305:
 10109 1a71 7363625F 		.ascii	"scb_0_interrupt_IRQn\000"
 10109      305F696E 
 10109      74657272 
 10109      7570745F 
 10109      4952516E 
 10110              	.LASF526:
 10111 1a86 43595F42 		.ascii	"CY_BLE_EVT_L2CAP_CONN_PARAM_UPDATE_REQ\000"
 10111      4C455F45 
 10111      56545F4C 
 10111      32434150 
 10111      5F434F4E 
 10112              	.LASF684:
 10113 1aad 43595F42 		.ascii	"CY_BLE_GATT_ERR_CCCD_IMPROPERLY_CONFIGURED\000"
 10113      4C455F47 
 10113      4154545F 
 10113      4552525F 
 10113      43434344 
 10114              	.LASF648:
 10115 1ad8 63795F65 		.ascii	"cy_en_ble_gatt_pdu_t\000"
 10115      6E5F626C 
 10115      655F6761 
 10115      74745F70 
 10115      64755F74 
 10116              	.LASF134:
 10117 1aed 52544F43 		.ascii	"RTOC2_FLAGS\000"
 10117      325F464C 
 10117      41475300 
 10118              	.LASF372:
 10119 1af9 74637077 		.ascii	"tcpwm_1_interrupts_10_IRQn\000"
 10119      6D5F315F 
 10119      696E7465 
 10119      72727570 
 10119      74735F31 
 10120              	.LASF191:
 10121 1b14 70657269 		.ascii	"periTrCmdGrSelMsk\000"
 10121      5472436D 
 10121      64477253 
 10121      656C4D73 
 10121      6B00
 10122              	.LASF240:
 10123 1b26 4E766963 		.ascii	"NvicMux10_IRQn\000"
 10123      4D757831 
 10123      305F4952 
 10123      516E00
 10124              	.LASF776:
 10125 1b35 61647650 		.ascii	"advParam\000"
 10125      6172616D 
 10125      00
ARM GAS  C:\Users\Smaug\AppData\Local\Temp\ccVZzAJS.s 			page 231


 10126              	.LASF730:
 10127 1b3e 63795F73 		.ascii	"cy_stc_ble_gap_bd_addr_t\000"
 10127      74635F62 
 10127      6C655F67 
 10127      61705F62 
 10127      645F6164 
 10128              	.LASF341:
 10129 1b57 63707573 		.ascii	"cpuss_interrupts_dw1_11_IRQn\000"
 10129      735F696E 
 10129      74657272 
 10129      75707473 
 10129      5F647731 
 10130              	.LASF777:
 10131 1b74 61647654 		.ascii	"advTo\000"
 10131      6F00
 10132              	.LASF946:
 10133 1b7a 43795F42 		.ascii	"Cy_BLE_GetAdvertisementState\000"
 10133      4C455F47 
 10133      65744164 
 10133      76657274 
 10133      6973656D 
 10134              	.LASF293:
 10135 1b97 63707573 		.ascii	"cpuss_interrupts_ipc_4_IRQn\000"
 10135      735F696E 
 10135      74657272 
 10135      75707473 
 10135      5F697063 
 10136              	.LASF140:
 10137 1bb3 75646242 		.ascii	"udbBase\000"
 10137      61736500 
 10138              	.LASF314:
 10139 1bbb 63707573 		.ascii	"cpuss_interrupts_dw0_0_IRQn\000"
 10139      735F696E 
 10139      74657272 
 10139      75707473 
 10139      5F647730 
 10140              	.LASF814:
 10141 1bd7 66617374 		.ascii	"fastScanTimeOut\000"
 10141      5363616E 
 10141      54696D65 
 10141      4F757400 
 10142              	.LASF619:
 10143 1be7 43595F42 		.ascii	"CY_BLE_GATT_ERROR_RSP\000"
 10143      4C455F47 
 10143      4154545F 
 10143      4552524F 
 10143      525F5253 
 10144              	.LASF583:
 10145 1bfd 43595F42 		.ascii	"CY_BLE_LL_PWR_LVL_0_DBM\000"
 10145      4C455F4C 
 10145      4C5F5057 
 10145      525F4C56 
 10145      4C5F305F 
 10146              	.LASF514:
 10147 1c15 43595F42 		.ascii	"CY_BLE_EVT_GATTC_WRITE_RSP\000"
 10147      4C455F45 
 10147      56545F47 
ARM GAS  C:\Users\Smaug\AppData\Local\Temp\ccVZzAJS.s 			page 232


 10147      41545443 
 10147      5F575249 
 10148              	.LASF264:
 10149 1c30 696F7373 		.ascii	"ioss_interrupts_gpio_0_IRQn\000"
 10149      5F696E74 
 10149      65727275 
 10149      7074735F 
 10149      6770696F 
 10150              	.LASF377:
 10151 1c4c 74637077 		.ascii	"tcpwm_1_interrupts_15_IRQn\000"
 10151      6D5F315F 
 10151      696E7465 
 10151      72727570 
 10151      74735F31 
 10152              	.LASF378:
 10153 1c67 74637077 		.ascii	"tcpwm_1_interrupts_16_IRQn\000"
 10153      6D5F315F 
 10153      696E7465 
 10153      72727570 
 10153      74735F31 
 10154              	.LASF685:
 10155 1c82 43595F42 		.ascii	"CY_BLE_GATT_ERR_PROCEDURE_ALREADY_IN_PROGRESS\000"
 10155      4C455F47 
 10155      4154545F 
 10155      4552525F 
 10155      50524F43 
 10156              	.LASF207:
 10157 1cb0 63707573 		.ascii	"cpussCm0ClockCtlOffset\000"
 10157      73436D30 
 10157      436C6F63 
 10157      6B43746C 
 10157      4F666673 
 10158              	.LASF230:
 10159 1cc7 4E766963 		.ascii	"NvicMux0_IRQn\000"
 10159      4D757830 
 10159      5F495251 
 10159      6E00
 10160              	.LASF192:
 10161 1cd5 70657269 		.ascii	"periTrGrOffset\000"
 10161      54724772 
 10161      4F666673 
 10161      657400
 10162              	.LASF287:
 10163 1ce4 70617373 		.ascii	"pass_interrupt_ctbs_IRQn\000"
 10163      5F696E74 
 10163      65727275 
 10163      70745F63 
 10163      7462735F 
 10164              	.LASF936:
 10165 1cfd 43795F42 		.ascii	"Cy_BLE_GATTS_WriteEventHandler\000"
 10165      4C455F47 
 10165      41545453 
 10165      5F577269 
 10165      74654576 
 10166              	.LASF734:
 10167 1d1c 61757468 		.ascii	"authErr\000"
 10167      45727200 
ARM GAS  C:\Users\Smaug\AppData\Local\Temp\ccVZzAJS.s 			page 233


 10168              	.LASF845:
 10169 1d24 666C6F77 		.ascii	"flowState\000"
 10169      53746174 
 10169      6500
 10170              	.LASF627:
 10171 1d2e 43595F42 		.ascii	"CY_BLE_GATT_READ_BY_TYPE_RSP\000"
 10171      4C455F47 
 10171      4154545F 
 10171      52454144 
 10171      5F42595F 
 10172              	.LASF852:
 10173 1d4b 626F756E 		.ascii	"boundedDevCount\000"
 10173      64656444 
 10173      6576436F 
 10173      756E7400 
 10174              	.LASF222:
 10175 1d5b 6970634C 		.ascii	"ipcLockStatusOffset\000"
 10175      6F636B53 
 10175      74617475 
 10175      734F6666 
 10175      73657400 
 10176              	.LASF52:
 10177 1d6f 4D415354 		.ascii	"MASTER_KEY\000"
 10177      45525F4B 
 10177      455900
 10178              	.LASF304:
 10179 1d7a 63707573 		.ascii	"cpuss_interrupts_ipc_15_IRQn\000"
 10179      735F696E 
 10179      74657272 
 10179      75707473 
 10179      5F697063 
 10180              	.LASF551:
 10181 1d97 43595F42 		.ascii	"CY_BLE_ERROR_SEC_FAILED\000"
 10181      4C455F45 
 10181      52524F52 
 10181      5F534543 
 10181      5F464149 
 10182              	.LASF489:
 10183 1daf 43595F42 		.ascii	"CY_BLE_EVT_GAP_OOB_GENERATED_NOTIFICATION\000"
 10183      4C455F45 
 10183      56545F47 
 10183      41505F4F 
 10183      4F425F47 
 10184              	.LASF39:
 10185 1dd9 5341525F 		.ascii	"SAR_TEMP_OFFSET\000"
 10185      54454D50 
 10185      5F4F4646 
 10185      53455400 
 10186              	.LASF706:
 10187 1de9 43595F42 		.ascii	"CY_BLE_GAP_IOCAP_DISPLAY_ONLY\000"
 10187      4C455F47 
 10187      41505F49 
 10187      4F434150 
 10187      5F444953 
 10188              	.LASF472:
 10189 1e07 43595F42 		.ascii	"CY_BLE_EVT_SET_CONN_PRIORITY_COMPLETE\000"
 10189      4C455F45 
ARM GAS  C:\Users\Smaug\AppData\Local\Temp\ccVZzAJS.s 			page 234


 10189      56545F53 
 10189      45545F43 
 10189      4F4E4E5F 
 10190              	.LASF395:
 10191 1e2d 7564625F 		.ascii	"udb_interrupts_9_IRQn\000"
 10191      696E7465 
 10191      72727570 
 10191      74735F39 
 10191      5F495251 
 10192              	.LASF561:
 10193 1e43 43595F42 		.ascii	"CY_BLE_ERROR_HARDWARE_FAILURE\000"
 10193      4C455F45 
 10193      52524F52 
 10193      5F484152 
 10193      44574152 
 10194              	.LASF135:
 10195 1e61 52544F43 		.ascii	"RTOC2_CRC_ADDR\000"
 10195      325F4352 
 10195      435F4144 
 10195      445200
 10196              	.LASF704:
 10197 1e70 70726570 		.ascii	"prepareWriteQueueSize\000"
 10197      61726557 
 10197      72697465 
 10197      51756575 
 10197      6553697A 
 10198              	.LASF303:
 10199 1e86 63707573 		.ascii	"cpuss_interrupts_ipc_14_IRQn\000"
 10199      735F696E 
 10199      74657272 
 10199      75707473 
 10199      5F697063 
 10200              	.LASF448:
 10201 1ea3 43595F42 		.ascii	"CY_BLE_EVT_SET_DEFAULT_PHY_COMPLETE\000"
 10201      4C455F45 
 10201      56545F53 
 10201      45545F44 
 10201      45464155 
 10202              	.LASF420:
 10203 1ec7 63795F73 		.ascii	"cy_stc_sysint_t\000"
 10203      74635F73 
 10203      7973696E 
 10203      745F7400 
 10204              	.LASF11:
 10205 1ed7 5F5F7569 		.ascii	"__uint32_t\000"
 10205      6E743332 
 10205      5F7400
 10206              	.LASF208:
 10207 1ee2 63707573 		.ascii	"cpussCm4ClockCtlOffset\000"
 10207      73436D34 
 10207      436C6F63 
 10207      6B43746C 
 10207      4F666673 
 10208              	.LASF383:
 10209 1ef9 74637077 		.ascii	"tcpwm_1_interrupts_21_IRQn\000"
 10209      6D5F315F 
 10209      696E7465 
ARM GAS  C:\Users\Smaug\AppData\Local\Temp\ccVZzAJS.s 			page 235


 10209      72727570 
 10209      74735F32 
 10210              	.LASF86:
 10211 1f14 424F4F54 		.ascii	"BOOT_PROT_SETTINGS\000"
 10211      5F50524F 
 10211      545F5345 
 10211      5454494E 
 10211      475300
 10212              	.LASF850:
 10213 1f27 61747456 		.ascii	"attValuesCCCDFlashMemory\000"
 10213      616C7565 
 10213      73434343 
 10213      44466C61 
 10213      73684D65 
 10214              	.LASF382:
 10215 1f40 74637077 		.ascii	"tcpwm_1_interrupts_20_IRQn\000"
 10215      6D5F315F 
 10215      696E7465 
 10215      72727570 
 10215      74735F32 
 10216              	.LASF410:
 10217 1f5b 70617373 		.ascii	"pass_interrupt_dacs_IRQn\000"
 10217      5F696E74 
 10217      65727275 
 10217      70745F64 
 10217      6163735F 
 10218              	.LASF20:
 10219 1f74 52455345 		.ascii	"RESERVED\000"
 10219      52564544 
 10219      00
 10220              	.LASF335:
 10221 1f7d 63707573 		.ascii	"cpuss_interrupts_dw1_5_IRQn\000"
 10221      735F696E 
 10221      74657272 
 10221      75707473 
 10221      5F647731 
 10222              	.LASF105:
 10223 1f99 52544F43 		.ascii	"RTOC1_OBJECT_ADDR_UNUSED\000"
 10223      315F4F42 
 10223      4A454354 
 10223      5F414444 
 10223      525F554E 
 10224              	.LASF347:
 10225 1fb2 63707573 		.ascii	"cpuss_interrupts_fault_1_IRQn\000"
 10225      735F696E 
 10225      74657272 
 10225      75707473 
 10225      5F666175 
 10226              	.LASF36:
 10227 1fd0 4449455F 		.ascii	"DIE_YEAR\000"
 10227      59454152 
 10227      00
 10228              	.LASF700:
 10229 1fd9 65727249 		.ascii	"errInfo\000"
 10229      6E666F00 
 10230              	.LASF560:
 10231 1fe1 43595F42 		.ascii	"CY_BLE_ERROR_MIC_AUTH_FAILED\000"
ARM GAS  C:\Users\Smaug\AppData\Local\Temp\ccVZzAJS.s 			page 236


 10231      4C455F45 
 10231      52524F52 
 10231      5F4D4943 
 10231      5F415554 
 10232              	.LASF867:
 10233 1ffe 67617073 		.ascii	"gaps\000"
 10233      00
 10234              	.LASF436:
 10235 2003 43595F42 		.ascii	"CY_BLE_EVT_GET_DATA_LENGTH_COMPLETE\000"
 10235      4C455F45 
 10235      56545F47 
 10235      45545F44 
 10235      4154415F 
 10236              	.LASF183:
 10237 2027 666C6173 		.ascii	"flashCtlMainWs4Freq\000"
 10237      6843746C 
 10237      4D61696E 
 10237      57733446 
 10237      72657100 
 10238              	.LASF24:
 10239 203b 46414D49 		.ascii	"FAMILY_ID\000"
 10239      4C595F49 
 10239      4400
 10240              	.LASF450:
 10241 2045 43595F42 		.ascii	"CY_BLE_EVT_PHY_UPDATE_COMPLETE\000"
 10241      4C455F45 
 10241      56545F50 
 10241      48595F55 
 10241      50444154 
 10242              	.LASF587:
 10243 2064 43595F42 		.ascii	"CY_BLE_LL_CONN_CH_TYPE\000"
 10243      4C455F4C 
 10243      4C5F434F 
 10243      4E4E5F43 
 10243      485F5459 
 10244              	.LASF399:
 10245 207b 7564625F 		.ascii	"udb_interrupts_13_IRQn\000"
 10245      696E7465 
 10245      72727570 
 10245      74735F31 
 10245      335F4952 
 10246              	.LASF744:
 10247 2092 6D617374 		.ascii	"masterClockAccuracy\000"
 10247      6572436C 
 10247      6F636B41 
 10247      63637572 
 10247      61637900 
 10248              	.LASF162:
 10249 20a6 63707573 		.ascii	"cpussNotConnectedIrq\000"
 10249      734E6F74 
 10249      436F6E6E 
 10249      65637465 
 10249      64497271 
 10250              	.LASF849:
 10251 20bb 73746163 		.ascii	"stackFlashptr\000"
 10251      6B466C61 
 10251      73687074 
ARM GAS  C:\Users\Smaug\AppData\Local\Temp\ccVZzAJS.s 			page 237


 10251      7200
 10252              	.LASF693:
 10253 20c9 63795F73 		.ascii	"cy_stc_ble_gatt_handle_value_pair_t\000"
 10253      74635F62 
 10253      6C655F67 
 10253      6174745F 
 10253      68616E64 
 10254              	.LASF725:
 10255 20ed 43595F42 		.ascii	"CY_BLE_GAP_AUTH_ERROR_BR_EDR_PAIRING_IN_PROGRESS\000"
 10255      4C455F47 
 10255      41505F41 
 10255      5554485F 
 10255      4552524F 
 10256              	.LASF736:
 10257 211e 63795F73 		.ascii	"cy_stc_ble_gap_auth_info_t\000"
 10257      74635F62 
 10257      6C655F67 
 10257      61705F61 
 10257      7574685F 
 10258              	.LASF388:
 10259 2139 7564625F 		.ascii	"udb_interrupts_2_IRQn\000"
 10259      696E7465 
 10259      72727570 
 10259      74735F32 
 10259      5F495251 
 10260              	.LASF707:
 10261 214f 43595F42 		.ascii	"CY_BLE_GAP_IOCAP_DISPLAY_YESNO\000"
 10261      4C455F47 
 10261      41505F49 
 10261      4F434150 
 10261      5F444953 
 10262              	.LASF22:
 10263 216e 53494C49 		.ascii	"SILICON_ID\000"
 10263      434F4E5F 
 10263      494400
 10264              	.LASF204:
 10265 2179 6770696F 		.ascii	"gpioPrtCfgInOffset\000"
 10265      50727443 
 10265      6667496E 
 10265      4F666673 
 10265      657400
 10266              	.LASF139:
 10267 218c 70657269 		.ascii	"periBase\000"
 10267      42617365 
 10267      00
 10268              	.LASF529:
 10269 2195 43595F42 		.ascii	"CY_BLE_EVT_L2CAP_CBFC_CONN_IND\000"
 10269      4C455F45 
 10269      56545F4C 
 10269      32434150 
 10269      5F434246 
 10270              	.LASF893:
 10271 21b4 43795F42 		.ascii	"Cy_BLE_IsDeviceAddressValid\000"
 10271      4C455F49 
 10271      73446576 
 10271      69636541 
 10271      64647265 
ARM GAS  C:\Users\Smaug\AppData\Local\Temp\ccVZzAJS.s 			page 238


 10272              	.LASF746:
 10273 21d0 64697363 		.ascii	"discProcedure\000"
 10273      50726F63 
 10273      65647572 
 10273      6500
 10274              	.LASF103:
 10275 21de 52544F43 		.ascii	"RTOC1_FB_OBJECT_ADDR\000"
 10275      315F4642 
 10275      5F4F424A 
 10275      4543545F 
 10275      41444452 
 10276              	.LASF356:
 10277 21f3 74637077 		.ascii	"tcpwm_0_interrupts_2_IRQn\000"
 10277      6D5F305F 
 10277      696E7465 
 10277      72727570 
 10277      74735F32 
 10278              	.LASF870:
 10279 220d 61757468 		.ascii	"authInfo\000"
 10279      496E666F 
 10279      00
 10280              	.LASF456:
 10281 2216 43595F42 		.ascii	"CY_BLE_EVT_GET_RSSI_COMPLETE\000"
 10281      4C455F45 
 10281      56545F47 
 10281      45545F52 
 10281      5353495F 
 10282              	.LASF938:
 10283 2233 43795F42 		.ascii	"Cy_BLE_ChangeAdDeviceAddress\000"
 10283      4C455F43 
 10283      68616E67 
 10283      65416444 
 10283      65766963 
 10284              	.LASF449:
 10285 2250 43595F42 		.ascii	"CY_BLE_EVT_SET_PHY_COMPLETE\000"
 10285      4C455F45 
 10285      56545F53 
 10285      45545F50 
 10285      48595F43 
 10286              	.LASF705:
 10287 226c 63795F73 		.ascii	"cy_stc_ble_prepare_write_request_memory_t\000"
 10287      74635F62 
 10287      6C655F70 
 10287      72657061 
 10287      72655F77 
 10288              	.LASF612:
 10289 2296 616C6C6F 		.ascii	"allocFree\000"
 10289      63467265 
 10289      6500
 10290              	.LASF225:
 10291 22a0 4E6F6E4D 		.ascii	"NonMaskableInt_IRQn\000"
 10291      61736B61 
 10291      626C6549 
 10291      6E745F49 
 10291      52516E00 
 10292              	.LASF763:
 10293 22b4 61647654 		.ascii	"advType\000"
ARM GAS  C:\Users\Smaug\AppData\Local\Temp\ccVZzAJS.s 			page 239


 10293      79706500 
 10294              	.LASF201:
 10295 22bc 70657269 		.ascii	"periDiv24_5CtlOffset\000"
 10295      44697632 
 10295      345F3543 
 10295      746C4F66 
 10295      66736574 
 10296              	.LASF136:
 10297 22d1 53464C41 		.ascii	"SFLASH_V1_Type\000"
 10297      53485F56 
 10297      315F5479 
 10297      706500
 10298              	.LASF423:
 10299 22e0 43595F42 		.ascii	"CY_BLE_EVT_TIMEOUT\000"
 10299      4C455F45 
 10299      56545F54 
 10299      494D454F 
 10299      555400
 10300              	.LASF43:
 10301 22f3 4C444F5F 		.ascii	"LDO_0P9V_TRIM\000"
 10301      30503956 
 10301      5F545249 
 10301      4D00
 10302              	.LASF808:
 10303 2301 736C6F77 		.ascii	"slowAdvIntervalMin\000"
 10303      41647649 
 10303      6E746572 
 10303      76616C4D 
 10303      696E00
 10304              	.LASF926:
 10305 2314 63795F62 		.ascii	"cy_ble_advertisingIntervalType\000"
 10305      6C655F61 
 10305      64766572 
 10305      74697369 
 10305      6E67496E 
 10306              	.LASF506:
 10307 2333 43595F42 		.ascii	"CY_BLE_EVT_GATTC_READ_BY_GROUP_TYPE_RSP\000"
 10307      4C455F45 
 10307      56545F47 
 10307      41545443 
 10307      5F524541 
 10308              	.LASF12:
 10309 235b 6C6F6E67 		.ascii	"long unsigned int\000"
 10309      20756E73 
 10309      69676E65 
 10309      6420696E 
 10309      7400
 10310              	.LASF507:
 10311 236d 43595F42 		.ascii	"CY_BLE_EVT_GATTC_READ_BY_TYPE_RSP\000"
 10311      4C455F45 
 10311      56545F47 
 10311      41545443 
 10311      5F524541 
 10312              	.LASF662:
 10313 238f 43595F42 		.ascii	"CY_BLE_GATT_ERR_INVALID_ATTRIBUTE_LEN\000"
 10313      4C455F47 
 10313      4154545F 
ARM GAS  C:\Users\Smaug\AppData\Local\Temp\ccVZzAJS.s 			page 240


 10313      4552525F 
 10313      494E5641 
 10314              	.LASF771:
 10315 23b5 63795F73 		.ascii	"cy_stc_ble_gapp_disc_data_t\000"
 10315      74635F62 
 10315      6C655F67 
 10315      6170705F 
 10315      64697363 
 10316              	.LASF485:
 10317 23d1 43595F42 		.ascii	"CY_BLE_EVT_GAPC_SCAN_START_STOP\000"
 10317      4C455F45 
 10317      56545F47 
 10317      4150435F 
 10317      5343414E 
 10318              	.LASF680:
 10319 23f1 43595F42 		.ascii	"CY_BLE_GATT_ERR_ANCS_UNKNOWN_COMMAND\000"
 10319      4C455F47 
 10319      4154545F 
 10319      4552525F 
 10319      414E4353 
 10320              	.LASF737:
 10321 2416 73746174 		.ascii	"status\000"
 10321      757300
 10322              	.LASF285:
 10323 241d 73727373 		.ascii	"srss_interrupt_backup_IRQn\000"
 10323      5F696E74 
 10323      65727275 
 10323      70745F62 
 10323      61636B75 
 10324              	.LASF236:
 10325 2438 4E766963 		.ascii	"NvicMux6_IRQn\000"
 10325      4D757836 
 10325      5F495251 
 10325      6E00
 10326              	.LASF359:
 10327 2446 74637077 		.ascii	"tcpwm_0_interrupts_5_IRQn\000"
 10327      6D5F305F 
 10327      696E7465 
 10327      72727570 
 10327      74735F35 
 10328              	.LASF169:
 10329 2460 65704D6F 		.ascii	"epMonitorNr\000"
 10329      6E69746F 
 10329      724E7200 
 10330              	.LASF542:
 10331 246c 43595F42 		.ascii	"CY_BLE_ERROR_INVALID_OPERATION\000"
 10331      4C455F45 
 10331      52524F52 
 10331      5F494E56 
 10331      414C4944 
 10332              	.LASF440:
 10333 248b 43595F42 		.ascii	"CY_BLE_EVT_SET_RPA_TO_COMPLETE\000"
 10333      4C455F45 
 10333      56545F53 
 10333      45545F52 
 10333      50415F54 
 10334              	.LASF220:
ARM GAS  C:\Users\Smaug\AppData\Local\Temp\ccVZzAJS.s 			page 241


 10335 24aa 63707573 		.ascii	"cpussRam2Ctl0\000"
 10335      7352616D 
 10335      3243746C 
 10335      3000
 10336              	.LASF606:
 10337 24b8 63795F73 		.ascii	"cy_stc_ble_tx_pwr_config_param_t\000"
 10337      74635F62 
 10337      6C655F74 
 10337      785F7077 
 10337      725F636F 
 10338              	.LASF557:
 10339 24d9 43595F42 		.ascii	"CY_BLE_ERROR_UNSUPPORTED_FEATURE_OR_PARAMETER_VALUE"
 10339      4C455F45 
 10339      52524F52 
 10339      5F554E53 
 10339      5550504F 
 10340 250c 00       		.ascii	"\000"
 10341              	.LASF896:
 10342 250d 43795F42 		.ascii	"Cy_BLE_GetConnHandleByBdHandle\000"
 10342      4C455F47 
 10342      6574436F 
 10342      6E6E4861 
 10342      6E646C65 
 10343              	.LASF711:
 10344 252c 63795F65 		.ascii	"cy_en_ble_gap_iocap_t\000"
 10344      6E5F626C 
 10344      655F6761 
 10344      705F696F 
 10344      6361705F 
 10345              	.LASF263:
 10346 2542 4952516E 		.ascii	"IRQn_Type\000"
 10346      5F547970 
 10346      6500
 10347              	.LASF147:
 10348 254c 63707573 		.ascii	"cpussVersion\000"
 10348      73566572 
 10348      73696F6E 
 10348      00
 10349              	.LASF84:
 10350 2559 464C4153 		.ascii	"FLASH_BOOT_CODE\000"
 10350      485F424F 
 10350      4F545F43 
 10350      4F444500 
 10351              	.LASF422:
 10352 2569 43595F42 		.ascii	"CY_BLE_EVT_STACK_ON\000"
 10352      4C455F45 
 10352      56545F53 
 10352      5441434B 
 10352      5F4F4E00 
 10353              	.LASF351:
 10354 257d 63707573 		.ascii	"cpuss_interrupts_cm0_cti_1_IRQn\000"
 10354      735F696E 
 10354      74657272 
 10354      75707473 
 10354      5F636D30 
 10355              	.LASF528:
 10356 259d 43595F42 		.ascii	"CY_BLE_EVT_L2CAP_COMMAND_REJ\000"
ARM GAS  C:\Users\Smaug\AppData\Local\Temp\ccVZzAJS.s 			page 242


 10356      4C455F45 
 10356      56545F4C 
 10356      32434150 
 10356      5F434F4D 
 10357              	.LASF594:
 10358 25ba 43595F42 		.ascii	"CY_BLE_GAP_ADV_TO\000"
 10358      4C455F47 
 10358      41505F41 
 10358      44565F54 
 10358      4F00
 10359              	.LASF463:
 10360 25cc 43595F42 		.ascii	"CY_BLE_EVT_AES_CCM_ENCRYPT_COMPLETE\000"
 10360      4C455F45 
 10360      56545F41 
 10360      45535F43 
 10360      434D5F45 
 10361              	.LASF802:
 10362 25f0 7265736F 		.ascii	"resolvablePrivateAddressOnly\000"
 10362      6C766162 
 10362      6C655072 
 10362      69766174 
 10362      65416464 
 10363              	.LASF161:
 10364 260d 63707573 		.ascii	"cpussFmIrq\000"
 10364      73466D49 
 10364      727100
 10365              	.LASF651:
 10366 2618 43595F42 		.ascii	"CY_BLE_GATT_ERR_READ_NOT_PERMITTED\000"
 10366      4C455F47 
 10366      4154545F 
 10366      4552525F 
 10366      52454144 
 10367              	.LASF29:
 10368 263b 4449455F 		.ascii	"DIE_WAFER\000"
 10368      57414645 
 10368      5200
 10369              	.LASF503:
 10370 2645 43595F42 		.ascii	"CY_BLE_EVT_GATT_DISCONNECT_IND\000"
 10370      4C455F45 
 10370      56545F47 
 10370      4154545F 
 10370      44495343 
 10371              	.LASF185:
 10372 2664 64774368 		.ascii	"dwChSize\000"
 10372      53697A65 
 10372      00
 10373              	.LASF657:
 10374 266d 43595F42 		.ascii	"CY_BLE_GATT_ERR_INSUFFICIENT_AUTHORIZATION\000"
 10374      4C455F47 
 10374      4154545F 
 10374      4552525F 
 10374      494E5355 
 10375              	.LASF834:
 10376 2698 61747456 		.ascii	"attValueUuid\000"
 10376      616C7565 
 10376      55756964 
 10376      00
ARM GAS  C:\Users\Smaug\AppData\Local\Temp\ccVZzAJS.s 			page 243


 10377              	.LASF589:
 10378 26a5 63795F65 		.ascii	"cy_en_ble_bless_phy_ch_grp_id_t\000"
 10378      6E5F626C 
 10378      655F626C 
 10378      6573735F 
 10378      7068795F 
 10379              	.LASF398:
 10380 26c5 7564625F 		.ascii	"udb_interrupts_12_IRQn\000"
 10380      696E7465 
 10380      72727570 
 10380      74735F31 
 10380      325F4952 
 10381              	.LASF509:
 10382 26dc 43595F42 		.ascii	"CY_BLE_EVT_GATTC_FIND_BY_TYPE_VALUE_RSP\000"
 10382      4C455F45 
 10382      56545F47 
 10382      41545443 
 10382      5F46494E 
 10383              	.LASF367:
 10384 2704 74637077 		.ascii	"tcpwm_1_interrupts_5_IRQn\000"
 10384      6D5F315F 
 10384      696E7465 
 10384      72727570 
 10384      74735F35 
 10385              	.LASF901:
 10386 271e 62644164 		.ascii	"bdAddrLoc\000"
 10386      64724C6F 
 10386      6300
 10387              	.LASF935:
 10388 2728 43795F42 		.ascii	"Cy_BLE_GATTS_ExchangeMtuRsp\000"
 10388      4C455F47 
 10388      41545453 
 10388      5F457863 
 10388      68616E67 
 10389              	.LASF455:
 10390 2744 43595F42 		.ascii	"CY_BLE_EVT_GET_DEVICE_ADDR_COMPLETE\000"
 10390      4C455F45 
 10390      56545F47 
 10390      45545F44 
 10390      45564943 
 10391              	.LASF665:
 10392 2768 43595F42 		.ascii	"CY_BLE_GATT_ERR_UNSUPPORTED_GROUP_TYPE\000"
 10392      4C455F47 
 10392      4154545F 
 10392      4552525F 
 10392      554E5355 
 10393              	.LASF249:
 10394 278f 4E766963 		.ascii	"NvicMux19_IRQn\000"
 10394      4D757831 
 10394      395F4952 
 10394      516E00
 10395              	.LASF510:
 10396 279e 43595F42 		.ascii	"CY_BLE_EVT_GATTC_READ_RSP\000"
 10396      4C455F45 
 10396      56545F47 
 10396      41545443 
 10396      5F524541 
ARM GAS  C:\Users\Smaug\AppData\Local\Temp\ccVZzAJS.s 			page 244


 10397              	.LASF877:
 10398 27b8 63795F62 		.ascii	"cy_ble_event_handle_t\000"
 10398      6C655F65 
 10398      76656E74 
 10398      5F68616E 
 10398      646C655F 
 10399              	.LASF642:
 10400 27ce 43595F42 		.ascii	"CY_BLE_GATT_EXECUTE_WRITE_RSP\000"
 10400      4C455F47 
 10400      4154545F 
 10400      45584543 
 10400      5554455F 
 10401              	.LASF167:
 10402 27ec 736D6966 		.ascii	"smifDeviceNr\000"
 10402      44657669 
 10402      63654E72 
 10402      00
 10403              	.LASF778:
 10404 27f9 63795F73 		.ascii	"cy_stc_ble_gapp_disc_mode_info_t\000"
 10404      74635F62 
 10404      6C655F67 
 10404      6170705F 
 10404      64697363 
 10405              	.LASF193:
 10406 281a 70657269 		.ascii	"periTrGrSize\000"
 10406      54724772 
 10406      53697A65 
 10406      00
 10407              	.LASF564:
 10408 2827 43595F42 		.ascii	"CY_BLE_ERROR_IND_DISABLED\000"
 10408      4C455F45 
 10408      52524F52 
 10408      5F494E44 
 10408      5F444953 
 10409              	.LASF563:
 10410 2841 43595F42 		.ascii	"CY_BLE_ERROR_NTF_DISABLED\000"
 10410      4C455F45 
 10410      52524F52 
 10410      5F4E5446 
 10410      5F444953 
 10411              	.LASF715:
 10412 285b 43595F42 		.ascii	"CY_BLE_GAP_AUTH_ERROR_AUTHENTICATION_REQ_NOT_MET\000"
 10412      4C455F47 
 10412      41505F41 
 10412      5554485F 
 10412      4552524F 
 10413              	.LASF307:
 10414 288c 7363625F 		.ascii	"scb_2_interrupt_IRQn\000"
 10414      325F696E 
 10414      74657272 
 10414      7570745F 
 10414      4952516E 
 10415              	.LASF634:
 10416 28a1 43595F42 		.ascii	"CY_BLE_GATT_READ_BY_GROUP_REQ\000"
 10416      4C455F47 
 10416      4154545F 
 10416      52454144 
ARM GAS  C:\Users\Smaug\AppData\Local\Temp\ccVZzAJS.s 			page 245


 10416      5F42595F 
 10417              	.LASF339:
 10418 28bf 63707573 		.ascii	"cpuss_interrupts_dw1_9_IRQn\000"
 10418      735F696E 
 10418      74657272 
 10418      75707473 
 10418      5F647731 
 10419              	.LASF745:
 10420 28db 63795F73 		.ascii	"cy_stc_ble_gap_connected_param_t\000"
 10420      74635F62 
 10420      6C655F67 
 10420      61705F63 
 10420      6F6E6E65 
 10421              	.LASF644:
 10422 28fc 43595F42 		.ascii	"CY_BLE_GATT_HANDLE_VALUE_IND\000"
 10422      4C455F47 
 10422      4154545F 
 10422      48414E44 
 10422      4C455F56 
 10423              	.LASF461:
 10424 2919 43595F42 		.ascii	"CY_BLE_EVT_RANDOM_NUM_GEN_COMPLETE\000"
 10424      4C455F45 
 10424      56545F52 
 10424      414E444F 
 10424      4D5F4E55 
 10425              	.LASF275:
 10426 293c 696F7373 		.ascii	"ioss_interrupts_gpio_11_IRQn\000"
 10426      5F696E74 
 10426      65727275 
 10426      7074735F 
 10426      6770696F 
 10427              	.LASF199:
 10428 2959 70657269 		.ascii	"periDiv16CtlOffset\000"
 10428      44697631 
 10428      3643746C 
 10428      4F666673 
 10428      657400
 10429              	.LASF574:
 10430 296c 74617267 		.ascii	"targetTable\000"
 10430      65745461 
 10430      626C6500 
 10431              	.LASF324:
 10432 2978 63707573 		.ascii	"cpuss_interrupts_dw0_10_IRQn\000"
 10432      735F696E 
 10432      74657272 
 10432      75707473 
 10432      5F647730 
 10433              	.LASF214:
 10434 2995 63707573 		.ascii	"cpussSysTickCtlOffset\000"
 10434      73537973 
 10434      5469636B 
 10434      43746C4F 
 10434      66667365 
 10435              	.LASF114:
 10436 29ab 544F4332 		.ascii	"TOC2_SECOND_USER_APP_ADDR\000"
 10436      5F534543 
 10436      4F4E445F 
ARM GAS  C:\Users\Smaug\AppData\Local\Temp\ccVZzAJS.s 			page 246


 10436      55534552 
 10436      5F415050 
 10437              	.LASF822:
 10438 29c5 67617063 		.ascii	"gapcConnectionTimeOut\000"
 10438      436F6E6E 
 10438      65637469 
 10438      6F6E5469 
 10438      6D654F75 
 10439              	.LASF825:
 10440 29db 67617474 		.ascii	"gattErrorCode\000"
 10440      4572726F 
 10440      72436F64 
 10440      6500
 10441              	.LASF195:
 10442 29e9 70657269 		.ascii	"periDivCmdTypeSelPos\000"
 10442      44697643 
 10442      6D645479 
 10442      70655365 
 10442      6C506F73 
 10443              	.LASF344:
 10444 29fe 63707573 		.ascii	"cpuss_interrupts_dw1_14_IRQn\000"
 10444      735F696E 
 10444      74657272 
 10444      75707473 
 10444      5F647731 
 10445              	.LASF137:
 10446 2a1b 63707573 		.ascii	"cpussBase\000"
 10446      73426173 
 10446      6500
 10447              	.LASF925:
 10448 2a25 63795F62 		.ascii	"cy_ble_cmdStatus\000"
 10448      6C655F63 
 10448      6D645374 
 10448      61747573 
 10448      00
 10449              	.LASF501:
 10450 2a36 43595F42 		.ascii	"CY_BLE_EVT_GATTC_ERROR_RSP\000"
 10450      4C455F45 
 10450      56545F47 
 10450      41545443 
 10450      5F455252 
 10451              	.LASF117:
 10452 2a51 544F4332 		.ascii	"TOC2_SIGNATURE_VERIF_KEY\000"
 10452      5F534947 
 10452      4E415455 
 10452      52455F56 
 10452      45524946 
 10453              	.LASF141:
 10454 2a6a 70726F74 		.ascii	"protBase\000"
 10454      42617365 
 10454      00
 10455              	.LASF153:
 10456 2a73 69706356 		.ascii	"ipcVersion\000"
 10456      65727369 
 10456      6F6E00
 10457              	.LASF47:
 10458 2a7e 55534552 		.ascii	"USER_FREE_ROW1\000"
ARM GAS  C:\Users\Smaug\AppData\Local\Temp\ccVZzAJS.s 			page 247


 10458      5F465245 
 10458      455F524F 
 10458      573100
 10459              	.LASF48:
 10460 2a8d 55534552 		.ascii	"USER_FREE_ROW2\000"
 10460      5F465245 
 10460      455F524F 
 10460      573200
 10461              	.LASF49:
 10462 2a9c 55534552 		.ascii	"USER_FREE_ROW3\000"
 10462      5F465245 
 10462      455F524F 
 10462      573300
 10463              	.LASF882:
 10464 2aab 43795F42 		.ascii	"Cy_BLE_SetAdvertisementState\000"
 10464      4C455F53 
 10464      65744164 
 10464      76657274 
 10464      6973656D 
 10465              	.LASF291:
 10466 2ac8 63707573 		.ascii	"cpuss_interrupts_ipc_2_IRQn\000"
 10466      735F696E 
 10466      74657272 
 10466      75707473 
 10466      5F697063 
 10467              	.LASF168:
 10468 2ae4 70617373 		.ascii	"passSarChannels\000"
 10468      53617243 
 10468      68616E6E 
 10468      656C7300 
 10469              	.LASF1:
 10470 2af4 6C6F6E67 		.ascii	"long long int\000"
 10470      206C6F6E 
 10470      6720696E 
 10470      7400
 10471              	.LASF267:
 10472 2b02 696F7373 		.ascii	"ioss_interrupts_gpio_3_IRQn\000"
 10472      5F696E74 
 10472      65727275 
 10472      7074735F 
 10472      6770696F 
 10473              	.LASF890:
 10474 2b1e 43795F42 		.ascii	"Cy_BLE_RegisterServiceEventHandler\000"
 10474      4C455F52 
 10474      65676973 
 10474      74657253 
 10474      65727669 
 10475              	.LASF904:
 10476 2b41 6D656D52 		.ascii	"memReq\000"
 10476      657100
 10477              	.LASF381:
 10478 2b48 74637077 		.ascii	"tcpwm_1_interrupts_19_IRQn\000"
 10478      6D5F315F 
 10478      696E7465 
 10478      72727570 
 10478      74735F31 
 10479              	.LASF512:
ARM GAS  C:\Users\Smaug\AppData\Local\Temp\ccVZzAJS.s 			page 248


 10480 2b63 43595F42 		.ascii	"CY_BLE_EVT_GATTC_READ_MULTI_RSP\000"
 10480      4C455F45 
 10480      56545F47 
 10480      41545443 
 10480      5F524541 
 10481              	.LASF839:
 10482 2b83 61747445 		.ascii	"attEndHandle\000"
 10482      6E644861 
 10482      6E646C65 
 10482      00
 10483              	.LASF532:
 10484 2b90 43595F42 		.ascii	"CY_BLE_EVT_L2CAP_CBFC_DISCONN_CNF\000"
 10484      4C455F45 
 10484      56545F4C 
 10484      32434150 
 10484      5F434246 
 10485              	.LASF186:
 10486 2bb2 64774368 		.ascii	"dwChCtlPrioPos\000"
 10486      43746C50 
 10486      72696F50 
 10486      6F7300
 10487              	.LASF941:
 10488 2bc1 43795F42 		.ascii	"Cy_BLE_GAPP_StartAdvertisement\000"
 10488      4C455F47 
 10488      4150505F 
 10488      53746172 
 10488      74416476 
 10489              	.LASF259:
 10490 2be0 4E766963 		.ascii	"NvicMux29_IRQn\000"
 10490      4D757832 
 10490      395F4952 
 10490      516E00
 10491              	.LASF223:
 10492 2bef 63795F73 		.ascii	"cy_stc_device_t\000"
 10492      74635F64 
 10492      65766963 
 10492      655F7400 
 10493              	.LASF646:
 10494 2bff 43595F42 		.ascii	"CY_BLE_GATT_SIGNED_WRITE_CMD\000"
 10494      4C455F47 
 10494      4154545F 
 10494      5349474E 
 10494      45445F57 
 10495              	.LASF601:
 10496 2c1c 63795F65 		.ascii	"cy_en_ble_protocol_req_t\000"
 10496      6E5F626C 
 10496      655F7072 
 10496      6F746F63 
 10496      6F6C5F72 
 10497              	.LASF600:
 10498 2c35 43595F42 		.ascii	"CY_BLE_INVALID_REQUEST\000"
 10498      4C455F49 
 10498      4E56414C 
 10498      49445F52 
 10498      45515545 
 10499              	.LASF323:
 10500 2c4c 63707573 		.ascii	"cpuss_interrupts_dw0_9_IRQn\000"
ARM GAS  C:\Users\Smaug\AppData\Local\Temp\ccVZzAJS.s 			page 249


 10500      735F696E 
 10500      74657272 
 10500      75707473 
 10500      5F647730 
 10501              	.LASF397:
 10502 2c68 7564625F 		.ascii	"udb_interrupts_11_IRQn\000"
 10502      696E7465 
 10502      72727570 
 10502      74735F31 
 10502      315F4952 
 10503              	.LASF931:
 10504 2c7f 6D656D63 		.ascii	"memcpy\000"
 10504      707900
 10505              	.LASF623:
 10506 2c86 43595F42 		.ascii	"CY_BLE_GATT_FIND_INFO_RSP\000"
 10506      4C455F47 
 10506      4154545F 
 10506      46494E44 
 10506      5F494E46 
 10507              	.LASF34:
 10508 2ca0 4449455F 		.ascii	"DIE_DAY\000"
 10508      44415900 
 10509              	.LASF366:
 10510 2ca8 74637077 		.ascii	"tcpwm_1_interrupts_4_IRQn\000"
 10510      6D5F315F 
 10510      696E7465 
 10510      72727570 
 10510      74735F34 
 10511              	.LASF761:
 10512 2cc2 61647649 		.ascii	"advIntvMin\000"
 10512      6E74764D 
 10512      696E00
 10513              	.LASF416:
 10514 2ccd 646F7562 		.ascii	"double\000"
 10514      6C6500
 10515              	.LASF205:
 10516 2cd4 6770696F 		.ascii	"gpioPrtCfgOutOffset\000"
 10516      50727443 
 10516      66674F75 
 10516      744F6666 
 10516      73657400 
 10517              	.LASF33:
 10518 2ce8 4449455F 		.ascii	"DIE_MINOR\000"
 10518      4D494E4F 
 10518      5200
 10519              	.LASF555:
 10520 2cf2 43595F42 		.ascii	"CY_BLE_ERROR_L2CAP_CONNECTION_ENTITY_NOT_FOUND\000"
 10520      4C455F45 
 10520      52524F52 
 10520      5F4C3243 
 10520      41505F43 
 10521              	.LASF505:
 10522 2d21 43595F42 		.ascii	"CY_BLE_EVT_GATTC_XCHNG_MTU_RSP\000"
 10522      4C455F45 
 10522      56545F47 
 10522      41545443 
 10522      5F584348 
ARM GAS  C:\Users\Smaug\AppData\Local\Temp\ccVZzAJS.s 			page 250


 10523              	.LASF915:
 10524 2d40 63795F62 		.ascii	"cy_ble_advIndex\000"
 10524      6C655F61 
 10524      6476496E 
 10524      64657800 
 10525              	.LASF584:
 10526 2d50 43595F42 		.ascii	"CY_BLE_LL_PWR_LVL_MAX\000"
 10526      4C455F4C 
 10526      4C5F5057 
 10526      525F4C56 
 10526      4C5F4D41 
 10527              	.LASF696:
 10528 2d66 63795F73 		.ascii	"cy_stc_ble_gatt_write_param_t\000"
 10528      74635F62 
 10528      6C655F67 
 10528      6174745F 
 10528      77726974 
 10529              	.LASF546:
 10530 2d84 43595F42 		.ascii	"CY_BLE_ERROR_NO_CONNECTION\000"
 10530      4C455F45 
 10530      52524F52 
 10530      5F4E4F5F 
 10530      434F4E4E 
 10531              	.LASF176:
 10532 2d9f 666C6173 		.ascii	"flashWriteDelay\000"
 10532      68577269 
 10532      74654465 
 10532      6C617900 
 10533              	.LASF174:
 10534 2daf 666C6173 		.ascii	"flashRwwRequired\000"
 10534      68527777 
 10534      52657175 
 10534      69726564 
 10534      00
 10535              	.LASF182:
 10536 2dc0 666C6173 		.ascii	"flashCtlMainWs3Freq\000"
 10536      6843746C 
 10536      4D61696E 
 10536      57733346 
 10536      72657100 
 10537              	.LASF697:
 10538 2dd4 6F70436F 		.ascii	"opCode\000"
 10538      646500
 10539              	.LASF385:
 10540 2ddb 74637077 		.ascii	"tcpwm_1_interrupts_23_IRQn\000"
 10540      6D5F315F 
 10540      696E7465 
 10540      72727570 
 10540      74735F32 
 10541              	.LASF764:
 10542 2df6 64697265 		.ascii	"directAddrType\000"
 10542      63744164 
 10542      64725479 
 10542      706500
 10543              	.LASF338:
 10544 2e05 63707573 		.ascii	"cpuss_interrupts_dw1_8_IRQn\000"
 10544      735F696E 
ARM GAS  C:\Users\Smaug\AppData\Local\Temp\ccVZzAJS.s 			page 251


 10544      74657272 
 10544      75707473 
 10544      5F647731 
 10545              	.LASF200:
 10546 2e21 70657269 		.ascii	"periDiv16_5CtlOffset\000"
 10546      44697631 
 10546      365F3543 
 10546      746C4F66 
 10546      66736574 
 10547              	.LASF640:
 10548 2e36 43595F42 		.ascii	"CY_BLE_GATT_PREPARE_WRITE_RSP\000"
 10548      4C455F47 
 10548      4154545F 
 10548      50524550 
 10548      4152455F 
 10549              	.LASF614:
 10550 2e54 63795F73 		.ascii	"cy_stc_ble_memory_request_t\000"
 10550      74635F62 
 10550      6C655F6D 
 10550      656D6F72 
 10550      795F7265 
 10551              	.LASF80:
 10552 2e70 464C4153 		.ascii	"FLASH_BOOT_N_CORES\000"
 10552      485F424F 
 10552      4F545F4E 
 10552      5F434F52 
 10552      455300
 10553              	.LASF379:
 10554 2e83 74637077 		.ascii	"tcpwm_1_interrupts_17_IRQn\000"
 10554      6D5F315F 
 10554      696E7465 
 10554      72727570 
 10554      74735F31 
 10555              	.LASF748:
 10556 2e9e 7363616E 		.ascii	"scanIntv\000"
 10556      496E7476 
 10556      00
 10557              	.LASF59:
 10558 2ea7 50494C4F 		.ascii	"PILO_FREQ_STEP\000"
 10558      5F465245 
 10558      515F5354 
 10558      455000
 10559              	.LASF791:
 10560 2eb6 43595F42 		.ascii	"CY_BLE_CONN_STATE_CLIENT_SRVC_DISCOVERING\000"
 10560      4C455F43 
 10560      4F4E4E5F 
 10560      53544154 
 10560      455F434C 
 10561              	.LASF944:
 10562 2ee0 47656E65 		.ascii	"Generated_Source\\PSoC6\\pdl\\middleware\\ble\\cy_b"
 10562      72617465 
 10562      645F536F 
 10562      75726365 
 10562      5C50536F 
 10563 2f0e 6C655F65 		.ascii	"le_event_handler.c\000"
 10563      76656E74 
 10563      5F68616E 
ARM GAS  C:\Users\Smaug\AppData\Local\Temp\ccVZzAJS.s 			page 252


 10563      646C6572 
 10563      2E6300
 10564              	.LASF130:
 10565 2f21 52544F43 		.ascii	"RTOC2_SHASH_OBJECTS\000"
 10565      325F5348 
 10565      4153485F 
 10565      4F424A45 
 10565      43545300 
 10566              	.LASF374:
 10567 2f35 74637077 		.ascii	"tcpwm_1_interrupts_12_IRQn\000"
 10567      6D5F315F 
 10567      696E7465 
 10567      72727570 
 10567      74735F31 
 10568              	.LASF597:
 10569 2f50 43595F42 		.ascii	"CY_BLE_GENERIC_APP_TO\000"
 10569      4C455F47 
 10569      454E4552 
 10569      49435F41 
 10569      50505F54 
 10570              	.LASF854:
 10571 2f66 7478506F 		.ascii	"txPowerLevelAdv\000"
 10571      7765724C 
 10571      6576656C 
 10571      41647600 
 10572              	.LASF415:
 10573 2f76 666C6F61 		.ascii	"float\000"
 10573      7400
 10574              	.LASF598:
 10575 2f7c 63795F65 		.ascii	"cy_en_ble_to_reason_code_t\000"
 10575      6E5F626C 
 10575      655F746F 
 10575      5F726561 
 10575      736F6E5F 
 10576              	.LASF498:
 10577 2f97 43595F42 		.ascii	"CY_BLE_EVT_GAP_CONN_ESTB\000"
 10577      4C455F45 
 10577      56545F47 
 10577      41505F43 
 10577      4F4E4E5F 
 10578              	.LASF244:
 10579 2fb0 4E766963 		.ascii	"NvicMux14_IRQn\000"
 10579      4D757831 
 10579      345F4952 
 10579      516E00
 10580              	.LASF709:
 10581 2fbf 43595F42 		.ascii	"CY_BLE_GAP_IOCAP_NOINPUT_NOOUTPUT\000"
 10581      4C455F47 
 10581      41505F49 
 10581      4F434150 
 10581      5F4E4F49 
 10582              	.LASF912:
 10583 2fe1 63795F62 		.ascii	"cy_ble_sflashDeviceAddress\000"
 10583      6C655F73 
 10583      666C6173 
 10583      68446576 
 10583      69636541 
ARM GAS  C:\Users\Smaug\AppData\Local\Temp\ccVZzAJS.s 			page 253


 10584              	.LASF544:
 10585 2ffc 43595F42 		.ascii	"CY_BLE_ERROR_INSUFFICIENT_RESOURCES\000"
 10585      4C455F45 
 10585      52524F52 
 10585      5F494E53 
 10585      55464649 
 10586              	.LASF898:
 10587 3020 6576656E 		.ascii	"event\000"
 10587      7400
 10588              	.LASF156:
 10589 3026 63707573 		.ascii	"cpussIpcNr\000"
 10589      73497063 
 10589      4E7200
 10590              	.LASF753:
 10591 3031 66696C74 		.ascii	"filterDuplicates\000"
 10591      65724475 
 10591      706C6963 
 10591      61746573 
 10591      00
 10592              	.LASF580:
 10593 3042 43595F42 		.ascii	"CY_BLE_LL_PWR_LVL_NEG_16_DBM\000"
 10593      4C455F4C 
 10593      4C5F5057 
 10593      525F4C56 
 10593      4C5F4E45 
 10594              	.LASF316:
 10595 305f 63707573 		.ascii	"cpuss_interrupts_dw0_2_IRQn\000"
 10595      735F696E 
 10595      74657272 
 10595      75707473 
 10595      5F647730 
 10596              	.LASF616:
 10597 307b 43595F42 		.ascii	"CY_BLE_HANDLE\000"
 10597      4C455F48 
 10597      414E444C 
 10597      4500
 10598              	.LASF692:
 10599 3089 61747472 		.ascii	"attrHandle\000"
 10599      48616E64 
 10599      6C6500
 10600              	.LASF865:
 10601 3094 666C6173 		.ascii	"flashStorage\000"
 10601      6853746F 
 10601      72616765 
 10601      00
 10602              	.LASF732:
 10603 30a1 626F6E64 		.ascii	"bonding\000"
 10603      696E6700 
 10604              	.LASF641:
 10605 30a9 43595F42 		.ascii	"CY_BLE_GATT_EXECUTE_WRITE_REQ\000"
 10605      4C455F47 
 10605      4154545F 
 10605      45584543 
 10605      5554455F 
 10606              	.LASF391:
 10607 30c7 7564625F 		.ascii	"udb_interrupts_5_IRQn\000"
 10607      696E7465 
ARM GAS  C:\Users\Smaug\AppData\Local\Temp\ccVZzAJS.s 			page 254


 10607      72727570 
 10607      74735F35 
 10607      5F495251 
 10608              	.LASF602:
 10609 30dd 62644861 		.ascii	"bdHandle\000"
 10609      6E646C65 
 10609      00
 10610              	.LASF767:
 10611 30e6 61647646 		.ascii	"advFilterPolicy\000"
 10611      696C7465 
 10611      72506F6C 
 10611      69637900 
 10612              	.LASF241:
 10613 30f6 4E766963 		.ascii	"NvicMux11_IRQn\000"
 10613      4D757831 
 10613      315F4952 
 10613      516E00
 10614              	.LASF299:
 10615 3105 63707573 		.ascii	"cpuss_interrupts_ipc_10_IRQn\000"
 10615      735F696E 
 10615      74657272 
 10615      75707473 
 10615      5F697063 
 10616              	.LASF687:
 10617 3122 63795F65 		.ascii	"cy_en_ble_gatt_err_code_t\000"
 10617      6E5F626C 
 10617      655F6761 
 10617      74745F65 
 10617      72725F63 
 10618              	.LASF592:
 10619 313c 7061636B 		.ascii	"packetType\000"
 10619      65745479 
 10619      706500
 10620              	.LASF789:
 10621 3147 43595F42 		.ascii	"CY_BLE_CONN_STATE_CLIENT_DISCONNECTED_DISCOVERED\000"
 10621      4C455F43 
 10621      4F4E4E5F 
 10621      53544154 
 10621      455F434C 
 10622              	.LASF868:
 10623 3178 61747456 		.ascii	"attValuesCCCD\000"
 10623      616C7565 
 10623      73434343 
 10623      4400
 10624              	.LASF568:
 10625 3186 43595F42 		.ascii	"CY_BLE_ERROR_MAX\000"
 10625      4C455F45 
 10625      52524F52 
 10625      5F4D4158 
 10625      00
 10626              	.LASF566:
 10627 3197 43595F42 		.ascii	"CY_BLE_ERROR_CONTROLLER_BUSY\000"
 10627      4C455F45 
 10627      52524F52 
 10627      5F434F4E 
 10627      54524F4C 
 10628              	.LASF639:
ARM GAS  C:\Users\Smaug\AppData\Local\Temp\ccVZzAJS.s 			page 255


 10629 31b4 43595F42 		.ascii	"CY_BLE_GATT_PREPARE_WRITE_REQ\000"
 10629      4C455F47 
 10629      4154545F 
 10629      50524550 
 10629      4152455F 
 10630              	.LASF735:
 10631 31d2 70616972 		.ascii	"pairingProperties\000"
 10631      696E6750 
 10631      726F7065 
 10631      72746965 
 10631      7300
 10632              	.LASF93:
 10633 31e4 544F4331 		.ascii	"TOC1_FB_OBJECT_ADDR\000"
 10633      5F46425F 
 10633      4F424A45 
 10633      43545F41 
 10633      44445200 
 10634              	.LASF811:
 10635 31f8 63795F73 		.ascii	"cy_stc_ble_gapp_adv_params_t\000"
 10635      74635F62 
 10635      6C655F67 
 10635      6170705F 
 10635      6164765F 
 10636              	.LASF445:
 10637 3215 43595F42 		.ascii	"CY_BLE_EVT_ADD_DEVICE_TO_WHITE_LIST_COMPLETE\000"
 10637      4C455F45 
 10637      56545F41 
 10637      44445F44 
 10637      45564943 
 10638              	.LASF331:
 10639 3242 63707573 		.ascii	"cpuss_interrupts_dw1_1_IRQn\000"
 10639      735F696E 
 10639      74657272 
 10639      75707473 
 10639      5F647731 
 10640              	.LASF57:
 10641 325e 5354414E 		.ascii	"STANDARD_PPU_STRUCT\000"
 10641      44415244 
 10641      5F505055 
 10641      5F535452 
 10641      55435400 
 10642              	.LASF0:
 10643 3272 756E7369 		.ascii	"unsigned int\000"
 10643      676E6564 
 10643      20696E74 
 10643      00
 10644              	.LASF755:
 10645 327f 43595F42 		.ascii	"CY_BLE_GAPP_CONNECTABLE_UNDIRECTED_ADV\000"
 10645      4C455F47 
 10645      4150505F 
 10645      434F4E4E 
 10645      45435441 
 10646              	.LASF860:
 10647 32a6 63795F73 		.ascii	"cy_stc_ble_params_t\000"
 10647      74635F62 
 10647      6C655F70 
 10647      6172616D 
ARM GAS  C:\Users\Smaug\AppData\Local\Temp\ccVZzAJS.s 			page 256


 10647      735F7400 
 10648              	.LASF488:
 10649 32ba 43595F42 		.ascii	"CY_BLE_EVT_GAP_KEYPRESS_NOTIFICATION\000"
 10649      4C455F45 
 10649      56545F47 
 10649      41505F4B 
 10649      45595052 
 10650              	.LASF630:
 10651 32df 43595F42 		.ascii	"CY_BLE_GATT_READ_BLOB_REQ\000"
 10651      4C455F47 
 10651      4154545F 
 10651      52454144 
 10651      5F424C4F 
 10652              	.LASF835:
 10653 32f9 63795F73 		.ascii	"cy_stc_ble_gatts_att_value_t\000"
 10653      74635F62 
 10653      6C655F67 
 10653      61747473 
 10653      5F617474 
 10654              	.LASF922:
 10655 3316 63795F62 		.ascii	"cy_ble_configPtr\000"
 10655      6C655F63 
 10655      6F6E6669 
 10655      67507472 
 10655      00
 10656              	.LASF21:
 10657 3327 53495F52 		.ascii	"SI_REVISION_ID\000"
 10657      45564953 
 10657      494F4E5F 
 10657      494400
 10658              	.LASF202:
 10659 3336 6770696F 		.ascii	"gpioPrtIntrCfgOffset\000"
 10659      50727449 
 10659      6E747243 
 10659      66674F66 
 10659      66736574 
 10660              	.LASF219:
 10661 334b 63707573 		.ascii	"cpussRam1Ctl0\000"
 10661      7352616D 
 10661      3143746C 
 10661      3000
 10662              	.LASF54:
 10663 3359 5354414E 		.ascii	"STANDARD_SMPU_STRUCT_SLAVE_ATTR\000"
 10663      44415244 
 10663      5F534D50 
 10663      555F5354 
 10663      52554354 
 10664              	.LASF227:
 10665 3379 53564361 		.ascii	"SVCall_IRQn\000"
 10665      6C6C5F49 
 10665      52516E00 
 10666              	.LASF384:
 10667 3385 74637077 		.ascii	"tcpwm_1_interrupts_22_IRQn\000"
 10667      6D5F315F 
 10667      696E7465 
 10667      72727570 
 10667      74735F32 
ARM GAS  C:\Users\Smaug\AppData\Local\Temp\ccVZzAJS.s 			page 257


 10668              	.LASF792:
 10669 33a0 43595F42 		.ascii	"CY_BLE_CONN_STATE_CLIENT_INCL_DISCOVERING\000"
 10669      4C455F43 
 10669      4F4E4E5F 
 10669      53544154 
 10669      455F434C 
 10670              	.LASF298:
 10671 33ca 63707573 		.ascii	"cpuss_interrupts_ipc_9_IRQn\000"
 10671      735F696E 
 10671      74657272 
 10671      75707473 
 10671      5F697063 
 10672              	.LASF502:
 10673 33e6 43595F42 		.ascii	"CY_BLE_EVT_GATT_CONNECT_IND\000"
 10673      4C455F45 
 10673      56545F47 
 10673      4154545F 
 10673      434F4E4E 
 10674              	.LASF239:
 10675 3402 4E766963 		.ascii	"NvicMux9_IRQn\000"
 10675      4D757839 
 10675      5F495251 
 10675      6E00
 10676              	.LASF68:
 10677 3410 43505553 		.ascii	"CPUSS_TRIM_RAM_CTL_ULP\000"
 10677      535F5452 
 10677      494D5F52 
 10677      414D5F43 
 10677      544C5F55 
 10678              	.LASF112:
 10679 3427 544F4332 		.ascii	"TOC2_FIRST_USER_APP_ADDR\000"
 10679      5F464952 
 10679      53545F55 
 10679      5345525F 
 10679      4150505F 
 10680              	.LASF783:
 10681 3440 43595F42 		.ascii	"CY_BLE_ADV_STATE_STOPPED\000"
 10681      4C455F41 
 10681      44565F53 
 10681      54415445 
 10681      5F53544F 
 10682              	.LASF905:
 10683 3459 67507265 		.ascii	"gPrepWriteReqMem\000"
 10683      70577269 
 10683      74655265 
 10683      714D656D 
 10683      00
 10684              	.LASF895:
 10685 346a 43795F42 		.ascii	"Cy_BLE_GetConnectionState\000"
 10685      4C455F47 
 10685      6574436F 
 10685      6E6E6563 
 10685      74696F6E 
 10686              	.LASF833:
 10687 3484 61747446 		.ascii	"attFormatValue\000"
 10687      6F726D61 
 10687      7456616C 
ARM GAS  C:\Users\Smaug\AppData\Local\Temp\ccVZzAJS.s 			page 258


 10687      756500
 10688              	.LASF402:
 10689 3493 70617373 		.ascii	"pass_interrupt_sar_IRQn\000"
 10689      5F696E74 
 10689      65727275 
 10689      70745F73 
 10689      61725F49 
 10690              	.LASF913:
 10691 34ab 63795F62 		.ascii	"cy_ble_state\000"
 10691      6C655F73 
 10691      74617465 
 10691      00
 10692              	.LASF81:
 10693 34b8 464C4153 		.ascii	"FLASH_BOOT_VT_OFFSET\000"
 10693      485F424F 
 10693      4F545F56 
 10693      545F4F46 
 10693      46534554 
 10694              	.LASF624:
 10695 34cd 43595F42 		.ascii	"CY_BLE_GATT_FIND_BY_TYPE_VALUE_REQ\000"
 10695      4C455F47 
 10695      4154545F 
 10695      46494E44 
 10695      5F42595F 
 10696              	.LASF109:
 10697 34f0 544F4332 		.ascii	"TOC2_MAGIC_NUMBER\000"
 10697      5F4D4147 
 10697      49435F4E 
 10697      554D4245 
 10697      5200
 10698              	.LASF633:
 10699 3502 43595F42 		.ascii	"CY_BLE_GATT_READ_MULTIPLE_RSP\000"
 10699      4C455F47 
 10699      4154545F 
 10699      52454144 
 10699      5F4D554C 
 10700              	.LASF787:
 10701 3520 63795F65 		.ascii	"cy_en_ble_adv_state_t\000"
 10701      6E5F626C 
 10701      655F6164 
 10701      765F7374 
 10701      6174655F 
 10702              	.LASF279:
 10703 3536 696F7373 		.ascii	"ioss_interrupt_gpio_IRQn\000"
 10703      5F696E74 
 10703      65727275 
 10703      70745F67 
 10703      70696F5F 
 10704              	.LASF251:
 10705 354f 4E766963 		.ascii	"NvicMux21_IRQn\000"
 10705      4D757832 
 10705      315F4952 
 10705      516E00
 10706              	.LASF469:
 10707 355e 43595F42 		.ascii	"CY_BLE_EVT_AES_CMAC_GEN_COMPLETE\000"
 10707      4C455F45 
 10707      56545F41 
ARM GAS  C:\Users\Smaug\AppData\Local\Temp\ccVZzAJS.s 			page 259


 10707      45535F43 
 10707      4D41435F 
 10708              	.LASF863:
 10709 357f 64697363 		.ascii	"discoveryInfo\000"
 10709      6F766572 
 10709      79496E66 
 10709      6F00
 10710              	.LASF224:
 10711 358d 52657365 		.ascii	"Reset_IRQn\000"
 10711      745F4952 
 10711      516E00
 10712              	.LASF82:
 10713 3598 464C4153 		.ascii	"FLASH_BOOT_CORE_CPUID\000"
 10713      485F424F 
 10713      4F545F43 
 10713      4F52455F 
 10713      43505549 
 10714              	.LASF123:
 10715 35ae 52544F43 		.ascii	"RTOC2_MAGIC_NUMBER\000"
 10715      325F4D41 
 10715      4749435F 
 10715      4E554D42 
 10715      455200
 10716              	.LASF805:
 10717 35c1 66617374 		.ascii	"fastAdvIntervalMax\000"
 10717      41647649 
 10717      6E746572 
 10717      76616C4D 
 10717      617800
 10718              	.LASF421:
 10719 35d4 43595F42 		.ascii	"CY_BLE_EVT_INVALID\000"
 10719      4C455F45 
 10719      56545F49 
 10719      4E56414C 
 10719      494400
 10720              	.LASF401:
 10721 35e7 7564625F 		.ascii	"udb_interrupts_15_IRQn\000"
 10721      696E7465 
 10721      72727570 
 10721      74735F31 
 10721      355F4952 
 10722              	.LASF157:
 10723 35fe 63707573 		.ascii	"cpussIpcIrqNr\000"
 10723      73497063 
 10723      4972714E 
 10723      7200
 10724              	.LASF515:
 10725 360c 43595F42 		.ascii	"CY_BLE_EVT_GATTS_WRITE_CMD_REQ\000"
 10725      4C455F45 
 10725      56545F47 
 10725      41545453 
 10725      5F575249 
 10726              	.LASF370:
 10727 362b 74637077 		.ascii	"tcpwm_1_interrupts_8_IRQn\000"
 10727      6D5F315F 
 10727      696E7465 
 10727      72727570 
ARM GAS  C:\Users\Smaug\AppData\Local\Temp\ccVZzAJS.s 			page 260


 10727      74735F38 
 10728              	.LASF673:
 10729 3645 43595F42 		.ascii	"CY_BLE_GATT_ERR_MISSING_CRC\000"
 10729      4C455F47 
 10729      4154545F 
 10729      4552525F 
 10729      4D495353 
 10730              	.LASF579:
 10731 3661 43595F42 		.ascii	"CY_BLE_LL_PWR_LVL_NEG_20_DBM\000"
 10731      4C455F4C 
 10731      4C5F5057 
 10731      525F4C56 
 10731      4C5F4E45 
 10732              	.LASF189:
 10733 367e 64775374 		.ascii	"dwStatusChIdxMsk\000"
 10733      61747573 
 10733      43684964 
 10733      784D736B 
 10733      00
 10734              	.LASF622:
 10735 368f 43595F42 		.ascii	"CY_BLE_GATT_FIND_INFO_REQ\000"
 10735      4C455F47 
 10735      4154545F 
 10735      46494E44 
 10735      5F494E46 
 10736              	.LASF674:
 10737 36a9 43595F42 		.ascii	"CY_BLE_GATTS_ERR_CCCD_IMPROPERLY_CONFIGURED\000"
 10737      4C455F47 
 10737      41545453 
 10737      5F455252 
 10737      5F434343 
 10738              	.LASF577:
 10739 36d5 6C646F56 		.ascii	"ldoVoltageTable\000"
 10739      6F6C7461 
 10739      67655461 
 10739      626C6500 
 10740              	.LASF677:
 10741 36e5 43595F42 		.ascii	"CY_BLE_GATTS_ERR_HPS_INVALID_REQUEST\000"
 10741      4C455F47 
 10741      41545453 
 10741      5F455252 
 10741      5F485053 
 10742              	.LASF471:
 10743 370a 43595F42 		.ascii	"CY_BLE_EVT_SET_CE_LENGTH_COMPLETE\000"
 10743      4C455F45 
 10743      56545F53 
 10743      45545F43 
 10743      455F4C45 
 10744              	.LASF672:
 10745 372c 43595F42 		.ascii	"CY_BLE_GATT_ERR_OP_CODE_NOT_SUPPORTED\000"
 10745      4C455F47 
 10745      4154545F 
 10745      4552525F 
 10745      4F505F43 
 10746              	.LASF552:
 10747 3752 43595F42 		.ascii	"CY_BLE_ERROR_L2CAP_PSM_WRONG_ENCODING\000"
 10747      4C455F45 
ARM GAS  C:\Users\Smaug\AppData\Local\Temp\ccVZzAJS.s 			page 261


 10747      52524F52 
 10747      5F4C3243 
 10747      41505F50 
 10748              	.LASF178:
 10749 3778 666C6173 		.ascii	"flashEraseDelay\000"
 10749      68457261 
 10749      73654465 
 10749      6C617900 
 10750              	.LASF840:
 10751 3788 61747456 		.ascii	"attValue\000"
 10751      616C7565 
 10751      00
 10752              	.LASF309:
 10753 3791 7363625F 		.ascii	"scb_4_interrupt_IRQn\000"
 10753      345F696E 
 10753      74657272 
 10753      7570745F 
 10753      4952516E 
 10754              	.LASF617:
 10755 37a6 74696D65 		.ascii	"timerHandle\000"
 10755      7248616E 
 10755      646C6500 
 10756              	.LASF770:
 10757 37b2 61647644 		.ascii	"advDataLen\000"
 10757      6174614C 
 10757      656E00
 10758              	.LASF232:
 10759 37bd 4E766963 		.ascii	"NvicMux2_IRQn\000"
 10759      4D757832 
 10759      5F495251 
 10759      6E00
 10760              	.LASF798:
 10761 37cb 64657669 		.ascii	"deviceNameCharHandle\000"
 10761      63654E61 
 10761      6D654368 
 10761      61724861 
 10761      6E646C65 
 10762              	.LASF327:
 10763 37e0 63707573 		.ascii	"cpuss_interrupts_dw0_13_IRQn\000"
 10763      735F696E 
 10763      74657272 
 10763      75707473 
 10763      5F647730 
 10764              	.LASF365:
 10765 37fd 74637077 		.ascii	"tcpwm_1_interrupts_3_IRQn\000"
 10765      6D5F315F 
 10765      696E7465 
 10765      72727570 
 10765      74735F33 
 10766              	.LASF2:
 10767 3817 6C6F6E67 		.ascii	"long double\000"
 10767      20646F75 
 10767      626C6500 
 10768              	.LASF317:
 10769 3823 63707573 		.ascii	"cpuss_interrupts_dw0_3_IRQn\000"
 10769      735F696E 
 10769      74657272 
ARM GAS  C:\Users\Smaug\AppData\Local\Temp\ccVZzAJS.s 			page 262


 10769      75707473 
 10769      5F647730 
 10770              	.LASF120:
 10771 383f 544F4332 		.ascii	"TOC2_FLAGS\000"
 10771      5F464C41 
 10771      475300
 10772              	.LASF284:
 10773 384a 73727373 		.ascii	"srss_interrupt_mcwdt_1_IRQn\000"
 10773      5F696E74 
 10773      65727275 
 10773      70745F6D 
 10773      63776474 
 10774              	.LASF869:
 10775 3866 67617474 		.ascii	"gattDB\000"
 10775      444200
 10776              	.LASF945:
 10777 386d 443A5C48 		.ascii	"D:\\Hackathon-Infineon\\Hackaton.cydsn\000"
 10777      61636B61 
 10777      74686F6E 
 10777      2D496E66 
 10777      696E656F 
 10778              	.LASF615:
 10779 3892 72656173 		.ascii	"reasonCode\000"
 10779      6F6E436F 
 10779      646500
 10780              	.LASF699:
 10781 389d 63795F73 		.ascii	"cy_stc_ble_gatt_err_info_t\000"
 10781      74635F62 
 10781      6C655F67 
 10781      6174745F 
 10781      6572725F 
 10782              	.LASF799:
 10783 38b8 61707065 		.ascii	"appearanceCharHandle\000"
 10783      6172616E 
 10783      63654368 
 10783      61724861 
 10783      6E646C65 
 10784              	.LASF434:
 10785 38cd 43595F42 		.ascii	"CY_BLE_EVT_SET_DATA_LENGTH_COMPLETE\000"
 10785      4C455F45 
 10785      56545F53 
 10785      45545F44 
 10785      4154415F 
 10786              	.LASF517:
 10787 38f1 43595F42 		.ascii	"CY_BLE_EVT_GATTS_EXEC_WRITE_REQ\000"
 10787      4C455F45 
 10787      56545F47 
 10787      41545453 
 10787      5F455845 
 10788              	.LASF721:
 10789 3911 43595F42 		.ascii	"CY_BLE_GAP_AUTH_ERROR_REPEATED_ATTEMPTS\000"
 10789      4C455F47 
 10789      41505F41 
 10789      5554485F 
 10789      4552524F 
 10790              	.LASF556:
 10791 3939 43595F42 		.ascii	"CY_BLE_ERROR_L2CAP_PSM_NOT_IN_RANGE\000"
ARM GAS  C:\Users\Smaug\AppData\Local\Temp\ccVZzAJS.s 			page 263


 10791      4C455F45 
 10791      52524F52 
 10791      5F4C3243 
 10791      41505F50 
 10792              	.LASF320:
 10793 395d 63707573 		.ascii	"cpuss_interrupts_dw0_6_IRQn\000"
 10793      735F696E 
 10793      74657272 
 10793      75707473 
 10793      5F647730 
 10794              	.LASF79:
 10795 3979 464C4153 		.ascii	"FLASH_BOOT_ATTRIBUTE\000"
 10795      485F424F 
 10795      4F545F41 
 10795      54545249 
 10795      42555445 
 10796              	.LASF164:
 10797 398e 73727373 		.ascii	"srssNumPll\000"
 10797      4E756D50 
 10797      6C6C00
 10798              	.LASF363:
 10799 3999 74637077 		.ascii	"tcpwm_1_interrupts_1_IRQn\000"
 10799      6D5F315F 
 10799      696E7465 
 10799      72727570 
 10799      74735F31 
 10800              	.LASF294:
 10801 39b3 63707573 		.ascii	"cpuss_interrupts_ipc_5_IRQn\000"
 10801      735F696E 
 10801      74657272 
 10801      75707473 
 10801      5F697063 
 10802              	.LASF780:
 10803 39cf 43595F42 		.ascii	"CY_BLE_STATE_INITIALIZING\000"
 10803      4C455F53 
 10803      54415445 
 10803      5F494E49 
 10803      5449414C 
 10804              	.LASF553:
 10805 39e9 43595F42 		.ascii	"CY_BLE_ERROR_L2CAP_PSM_ALREADY_REGISTERED\000"
 10805      4C455F45 
 10805      52524F52 
 10805      5F4C3243 
 10805      41505F50 
 10806              	.LASF270:
 10807 3a13 696F7373 		.ascii	"ioss_interrupts_gpio_6_IRQn\000"
 10807      5F696E74 
 10807      65727275 
 10807      7074735F 
 10807      6770696F 
 10808              	.LASF702:
 10809 3a2f 71756575 		.ascii	"queueBuffer\000"
 10809      65427566 
 10809      66657200 
 10810              	.LASF245:
 10811 3a3b 4E766963 		.ascii	"NvicMux15_IRQn\000"
 10811      4D757831 
ARM GAS  C:\Users\Smaug\AppData\Local\Temp\ccVZzAJS.s 			page 264


 10811      355F4952 
 10811      516E00
 10812              	.LASF404:
 10813 3a4a 61756469 		.ascii	"audioss_interrupt_pdm_IRQn\000"
 10813      6F73735F 
 10813      696E7465 
 10813      72727570 
 10813      745F7064 
 10814              	.LASF197:
 10815 3a65 70657269 		.ascii	"periDivCmdPaTypeSelPos\000"
 10815      44697643 
 10815      6D645061 
 10815      54797065 
 10815      53656C50 
 10816              	.LASF278:
 10817 3a7c 696F7373 		.ascii	"ioss_interrupts_gpio_14_IRQn\000"
 10817      5F696E74 
 10817      65727275 
 10817      7074735F 
 10817      6770696F 
 10818              	.LASF441:
 10819 3a99 43595F42 		.ascii	"CY_BLE_EVT_SET_RPA_ENABLE_COMPLETE\000"
 10819      4C455F45 
 10819      56545F53 
 10819      45545F52 
 10819      50415F45 
 10820              	.LASF419:
 10821 3abc 696E7472 		.ascii	"intrPriority\000"
 10821      5072696F 
 10821      72697479 
 10821      00
 10822              	.LASF216:
 10823 3ac9 63707573 		.ascii	"cpussCm4NmiCtlOffset\000"
 10823      73436D34 
 10823      4E6D6943 
 10823      746C4F66 
 10823      66736574 
 10824              	.LASF643:
 10825 3ade 43595F42 		.ascii	"CY_BLE_GATT_HANDLE_VALUE_NTF\000"
 10825      4C455F47 
 10825      4154545F 
 10825      48414E44 
 10825      4C455F56 
 10826              	.LASF932:
 10827 3afb 43795F42 		.ascii	"Cy_BLE_SetLeEventMask\000"
 10827      4C455F53 
 10827      65744C65 
 10827      4576656E 
 10827      744D6173 
 10828              	.LASF820:
 10829 3b11 67617063 		.ascii	"gapcConnectionIntervalMax\000"
 10829      436F6E6E 
 10829      65637469 
 10829      6F6E496E 
 10829      74657276 
 10830              	.LASF288:
 10831 3b2b 626C6573 		.ascii	"bless_interrupt_IRQn\000"
ARM GAS  C:\Users\Smaug\AppData\Local\Temp\ccVZzAJS.s 			page 265


 10831      735F696E 
 10831      74657272 
 10831      7570745F 
 10831      4952516E 
 10832              	.LASF215:
 10833 3b40 63707573 		.ascii	"cpussCm0NmiCtlOffset\000"
 10833      73436D30 
 10833      4E6D6943 
 10833      746C4F66 
 10833      66736574 
 10834              	.LASF486:
 10835 3b55 43595F42 		.ascii	"CY_BLE_EVT_GAP_KEYINFO_EXCHNGE_CMPLT\000"
 10835      4C455F45 
 10835      56545F47 
 10835      41505F4B 
 10835      4559494E 
 10836              	.LASF876:
 10837 3b7a 63795F73 		.ascii	"cy_stc_ble_config_t\000"
 10837      74635F62 
 10837      6C655F63 
 10837      6F6E6669 
 10837      675F7400 
 10838              	.LASF670:
 10839 3b8e 43595F42 		.ascii	"CY_BLE_GATT_ERR_HTS_OUT_OF_RANGE\000"
 10839      4C455F47 
 10839      4154545F 
 10839      4552525F 
 10839      4854535F 
 10840              	.LASF181:
 10841 3baf 666C6173 		.ascii	"flashCtlMainWs2Freq\000"
 10841      6843746C 
 10841      4D61696E 
 10841      57733246 
 10841      72657100 
 10842              	.LASF879:
 10843 3bc3 636F756E 		.ascii	"count\000"
 10843      7400
 10844              	.LASF400:
 10845 3bc9 7564625F 		.ascii	"udb_interrupts_14_IRQn\000"
 10845      696E7465 
 10845      72727570 
 10845      74735F31 
 10845      345F4952 
 10846              	.LASF947:
 10847 3be0 43795F42 		.ascii	"Cy_BLE_SendWriteResponse\000"
 10847      4C455F53 
 10847      656E6457 
 10847      72697465 
 10847      52657370 
 10848              	.LASF369:
 10849 3bf9 74637077 		.ascii	"tcpwm_1_interrupts_7_IRQn\000"
 10849      6D5F315F 
 10849      696E7465 
 10849      72727570 
 10849      74735F37 
 10850              	.LASF484:
 10851 3c13 43595F42 		.ascii	"CY_BLE_EVT_GAP_CONNECTION_UPDATE_COMPLETE\000"
ARM GAS  C:\Users\Smaug\AppData\Local\Temp\ccVZzAJS.s 			page 266


 10851      4C455F45 
 10851      56545F47 
 10851      41505F43 
 10851      4F4E4E45 
 10852              	.LASF749:
 10853 3c3d 7363616E 		.ascii	"scanWindow\000"
 10853      57696E64 
 10853      6F7700
 10854              	.LASF414:
 10855 3c48 63686172 		.ascii	"char_t\000"
 10855      5F7400
 10856              	.LASF531:
 10857 3c4f 43595F42 		.ascii	"CY_BLE_EVT_L2CAP_CBFC_DISCONN_IND\000"
 10857      4C455F45 
 10857      56545F4C 
 10857      32434150 
 10857      5F434246 
 10858              	.LASF856:
 10859 3c71 73656375 		.ascii	"securityIoCapability\000"
 10859      72697479 
 10859      496F4361 
 10859      70616269 
 10859      6C697479 
 10860              	.LASF477:
 10861 3c86 43595F42 		.ascii	"CY_BLE_EVT_GAP_PASSKEY_DISPLAY_REQUEST\000"
 10861      4C455F45 
 10861      56545F47 
 10861      41505F50 
 10861      4153534B 
 10862              	.LASF719:
 10863 3cad 43595F42 		.ascii	"CY_BLE_GAP_AUTH_ERROR_COMMAND_NOT_SUPPORTED\000"
 10863      4C455F47 
 10863      41505F41 
 10863      5554485F 
 10863      4552524F 
 10864              	.LASF125:
 10865 3cd9 52544F43 		.ascii	"RTOC2_SMIF_CFG_STRUCT_ADDR\000"
 10865      325F534D 
 10865      49465F43 
 10865      46475F53 
 10865      54525543 
 10866              	.LASF628:
 10867 3cf4 43595F42 		.ascii	"CY_BLE_GATT_READ_REQ\000"
 10867      4C455F47 
 10867      4154545F 
 10867      52454144 
 10867      5F524551 
 10868              	.LASF871:
 10869 3d09 70617261 		.ascii	"params\000"
 10869      6D7300
 10870              	.LASF671:
 10871 3d10 43595F42 		.ascii	"CY_BLE_GATTS_ERR_PROCEDURE_ALREADY_IN_PROGRESS\000"
 10871      4C455F47 
 10871      41545453 
 10871      5F455252 
 10871      5F50524F 
 10872              	.LASF340:
ARM GAS  C:\Users\Smaug\AppData\Local\Temp\ccVZzAJS.s 			page 267


 10873 3d3f 63707573 		.ascii	"cpuss_interrupts_dw1_10_IRQn\000"
 10873      735F696E 
 10873      74657272 
 10873      75707473 
 10873      5F647731 
 10874              	.LASF433:
 10875 3d5c 43595F42 		.ascii	"CY_BLE_EVT_LE_PING_AUTH_TIMEOUT\000"
 10875      4C455F45 
 10875      56545F4C 
 10875      455F5049 
 10875      4E475F41 
 10876              	.LASF593:
 10877 3d7c 63795F73 		.ascii	"cy_stc_ble_hci_tx_packet_info_t\000"
 10877      74635F62 
 10877      6C655F68 
 10877      63695F74 
 10877      785F7061 
 10878              	.LASF3:
 10879 3d9c 7369676E 		.ascii	"signed char\000"
 10879      65642063 
 10879      68617200 
 10880              	.LASF581:
 10881 3da8 43595F42 		.ascii	"CY_BLE_LL_PWR_LVL_NEG_12_DBM\000"
 10881      4C455F4C 
 10881      4C5F5057 
 10881      525F4C56 
 10881      4C5F4E45 
 10882              	.LASF18:
 10883 3dc5 75696E74 		.ascii	"uint16_t\000"
 10883      31365F74 
 10883      00
 10884              	.LASF73:
 10885 3dce 43505553 		.ascii	"CPUSS_TRIM_RAM_CTL_HALF_ULP\000"
 10885      535F5452 
 10885      494D5F52 
 10885      414D5F43 
 10885      544C5F48 
 10886              	.LASF405:
 10887 3dea 70726F66 		.ascii	"profile_interrupt_IRQn\000"
 10887      696C655F 
 10887      696E7465 
 10887      72727570 
 10887      745F4952 
 10888              	.LASF676:
 10889 3e01 43595F42 		.ascii	"CY_BLE_GATT_ERR_INVALID_CRC\000"
 10889      4C455F47 
 10889      4154545F 
 10889      4552525F 
 10889      494E5641 
 10890              	.LASF897:
 10891 3e1d 6348616E 		.ascii	"cHandle\000"
 10891      646C6500 
 10892              	.LASF126:
 10893 3e25 52544F43 		.ascii	"RTOC2_FIRST_USER_APP_ADDR\000"
 10893      325F4649 
 10893      5253545F 
 10893      55534552 
ARM GAS  C:\Users\Smaug\AppData\Local\Temp\ccVZzAJS.s 			page 268


 10893      5F415050 
 10894              	.LASF159:
 10895 3e3f 63707573 		.ascii	"cpussFlashPaSize\000"
 10895      73466C61 
 10895      73685061 
 10895      53697A65 
 10895      00
 10896              	.LASF862:
 10897 3e50 67617070 		.ascii	"gappAdvParams\000"
 10897      41647650 
 10897      6172616D 
 10897      7300
 10898              	.LASF495:
 10899 3e5e 43595F42 		.ascii	"CY_BLE_EVT_GAP_RESOLVE_DEVICE_COMPLETE\000"
 10899      4C455F45 
 10899      56545F47 
 10899      41505F52 
 10899      45534F4C 
 10900              	.LASF326:
 10901 3e85 63707573 		.ascii	"cpuss_interrupts_dw0_12_IRQn\000"
 10901      735F696E 
 10901      74657272 
 10901      75707473 
 10901      5F647730 
 10902              	.LASF880:
 10903 3ea2 63795F73 		.ascii	"cy_stc_ble_event_handler_t\000"
 10903      74635F62 
 10903      6C655F65 
 10903      76656E74 
 10903      5F68616E 
 10904              	.LASF60:
 10905 3ebd 52455345 		.ascii	"RESERVED10\000"
 10905      52564544 
 10905      313000
 10906              	.LASF65:
 10907 3ec8 52455345 		.ascii	"RESERVED11\000"
 10907      52564544 
 10907      313100
 10908              	.LASF71:
 10909 3ed3 52455345 		.ascii	"RESERVED12\000"
 10909      52564544 
 10909      313200
 10910              	.LASF76:
 10911 3ede 52455345 		.ascii	"RESERVED13\000"
 10911      52564544 
 10911      313300
 10912              	.LASF83:
 10913 3ee9 52455345 		.ascii	"RESERVED14\000"
 10913      52564544 
 10913      313400
 10914              	.LASF87:
 10915 3ef4 52455345 		.ascii	"RESERVED15\000"
 10915      52564544 
 10915      313500
 10916              	.LASF438:
 10917 3eff 43595F42 		.ascii	"CY_BLE_EVT_GET_PEER_RPA_COMPLETE\000"
 10917      4C455F45 
ARM GAS  C:\Users\Smaug\AppData\Local\Temp\ccVZzAJS.s 			page 269


 10917      56545F47 
 10917      45545F50 
 10917      4545525F 
 10918              	.LASF106:
 10919 3f20 52455345 		.ascii	"RESERVED17\000"
 10919      52564544 
 10919      313700
 10920              	.LASF118:
 10921 3f2b 52455345 		.ascii	"RESERVED18\000"
 10921      52564544 
 10921      313800
 10922              	.LASF132:
 10923 3f36 52455345 		.ascii	"RESERVED19\000"
 10923      52564544 
 10923      313900
 10924              	.LASF70:
 10925 3f41 43505553 		.ascii	"CPUSS_TRIM_RAM_CTL_LP\000"
 10925      535F5452 
 10925      494D5F52 
 10925      414D5F43 
 10925      544C5F4C 
 10926              	.LASF703:
 10927 3f57 746F7461 		.ascii	"totalAttrValueLength\000"
 10927      6C417474 
 10927      7256616C 
 10927      75654C65 
 10927      6E677468 
 10928              	.LASF255:
 10929 3f6c 4E766963 		.ascii	"NvicMux25_IRQn\000"
 10929      4D757832 
 10929      355F4952 
 10929      516E00
 10930              	.LASF756:
 10931 3f7b 43595F42 		.ascii	"CY_BLE_GAPP_CONNECTABLE_HIGH_DC_DIRECTED_ADV\000"
 10931      4C455F47 
 10931      4150505F 
 10931      434F4E4E 
 10931      45435441 
 10932              	.LASF306:
 10933 3fa8 7363625F 		.ascii	"scb_1_interrupt_IRQn\000"
 10933      315F696E 
 10933      74657272 
 10933      7570745F 
 10933      4952516E 
 10934              	.LASF796:
 10935 3fbd 63795F65 		.ascii	"cy_en_ble_conn_state_t\000"
 10935      6E5F626C 
 10935      655F636F 
 10935      6E6E5F73 
 10935      74617465 
 10936              	.LASF342:
 10937 3fd4 63707573 		.ascii	"cpuss_interrupts_dw1_12_IRQn\000"
 10937      735F696E 
 10937      74657272 
 10937      75707473 
 10937      5F647731 
 10938              	.LASF500:
ARM GAS  C:\Users\Smaug\AppData\Local\Temp\ccVZzAJS.s 			page 270


 10939 3ff1 43595F42 		.ascii	"CY_BLE_EVT_GAP_ADV_TX\000"
 10939      4C455F45 
 10939      56545F47 
 10939      41505F41 
 10939      44565F54 
 10940              	.LASF78:
 10941 4007 464C4153 		.ascii	"FLASH_BOOT_APP_ID\000"
 10941      485F424F 
 10941      4F545F41 
 10941      50505F49 
 10941      4400
 10942              	.LASF91:
 10943 4019 544F4331 		.ascii	"TOC1_GENERAL_TRIM_ADDR_UNUSED\000"
 10943      5F47454E 
 10943      4552414C 
 10943      5F545249 
 10943      4D5F4144 
 10944              	.LASF786:
 10945 4037 43595F42 		.ascii	"CY_BLE_ADV_STATE_STOP_INITIATED\000"
 10945      4C455F41 
 10945      44565F53 
 10945      54415445 
 10945      5F53544F 
 10946              	.LASF923:
 10947 4057 63795F62 		.ascii	"cy_ble_eventHandler\000"
 10947      6C655F65 
 10947      76656E74 
 10947      48616E64 
 10947      6C657200 
 10948              	.LASF394:
 10949 406b 7564625F 		.ascii	"udb_interrupts_8_IRQn\000"
 10949      696E7465 
 10949      72727570 
 10949      74735F38 
 10949      5F495251 
 10950              	.LASF653:
 10951 4081 43595F42 		.ascii	"CY_BLE_GATT_ERR_INVALID_PDU\000"
 10951      4C455F47 
 10951      4154545F 
 10951      4552525F 
 10951      494E5641 
 10952              	.LASF842:
 10953 409d 73657276 		.ascii	"serviceChangedHandle\000"
 10953      69636543 
 10953      68616E67 
 10953      65644861 
 10953      6E646C65 
 10954              	.LASF536:
 10955 40b2 43595F42 		.ascii	"CY_BLE_EVT_L2CAP_CBFC_DATA_WRITE_IND\000"
 10955      4C455F45 
 10955      56545F4C 
 10955      32434150 
 10955      5F434246 
 10956              	.LASF302:
 10957 40d7 63707573 		.ascii	"cpuss_interrupts_ipc_13_IRQn\000"
 10957      735F696E 
 10957      74657272 
ARM GAS  C:\Users\Smaug\AppData\Local\Temp\ccVZzAJS.s 			page 271


 10957      75707473 
 10957      5F697063 
 10958              	.LASF151:
 10959 40f4 6770696F 		.ascii	"gpioVersion\000"
 10959      56657273 
 10959      696F6E00 
 10960              	.LASF859:
 10961 4100 67617474 		.ascii	"gattDbIndexCount\000"
 10961      4462496E 
 10961      64657843 
 10961      6F756E74 
 10961      00
 10962              	.LASF158:
 10963 4111 63707573 		.ascii	"cpussDwChNr\000"
 10963      73447743 
 10963      684E7200 
 10964              	.LASF218:
 10965 411d 63707573 		.ascii	"cpussRam0Ctl0\000"
 10965      7352616D 
 10965      3043746C 
 10965      3000
 10966              	.LASF659:
 10967 412b 43595F42 		.ascii	"CY_BLE_GATT_ERR_ATTRIBUTE_NOT_FOUND\000"
 10967      4C455F47 
 10967      4154545F 
 10967      4552525F 
 10967      41545452 
 10968              	.LASF930:
 10969 414f 6D656D73 		.ascii	"memset\000"
 10969      657400
 10970              	.LASF350:
 10971 4156 63707573 		.ascii	"cpuss_interrupts_cm0_cti_0_IRQn\000"
 10971      735F696E 
 10971      74657272 
 10971      75707473 
 10971      5F636D30 
 10972              	.LASF334:
 10973 4176 63707573 		.ascii	"cpuss_interrupts_dw1_4_IRQn\000"
 10973      735F696E 
 10973      74657272 
 10973      75707473 
 10973      5F647731 
 10974              	.LASF88:
 10975 4192 544F4331 		.ascii	"TOC1_OBJECT_SIZE\000"
 10975      5F4F424A 
 10975      4543545F 
 10975      53495A45 
 10975      00
 10976              	.LASF119:
 10977 41a3 544F4332 		.ascii	"TOC2_REVISION\000"
 10977      5F524556 
 10977      4953494F 
 10977      4E00
 10978              	.LASF346:
 10979 41b1 63707573 		.ascii	"cpuss_interrupts_fault_0_IRQn\000"
 10979      735F696E 
 10979      74657272 
ARM GAS  C:\Users\Smaug\AppData\Local\Temp\ccVZzAJS.s 			page 272


 10979      75707473 
 10979      5F666175 
 10980              	.LASF613:
 10981 41cf 636F6E6E 		.ascii	"connHandle\000"
 10981      48616E64 
 10981      6C6500
 10982              	.LASF6:
 10983 41da 5F5F696E 		.ascii	"__int16_t\000"
 10983      7431365F 
 10983      7400
 10984              	.LASF41:
 10985 41e4 4353505F 		.ascii	"CSP_PANEL_ID\000"
 10985      50414E45 
 10985      4C5F4944 
 10985      00
 10986              	.LASF906:
 10987 41f1 636F6E6E 		.ascii	"connectedHandle\000"
 10987      65637465 
 10987      6448616E 
 10987      646C6500 
 10988              	.LASF661:
 10989 4201 43595F42 		.ascii	"CY_BLE_GATT_ERR_INSUFFICIENT_ENC_KEY_SIZE\000"
 10989      4C455F47 
 10989      4154545F 
 10989      4552525F 
 10989      494E5355 
 10990              	.LASF827:
 10991 422b 61637475 		.ascii	"actualLength\000"
 10991      616C4C65 
 10991      6E677468 
 10991      00
 10992              	.LASF492:
 10993 4238 43595F42 		.ascii	"CY_BLE_EVT_GAP_SMP_NEGOTIATED_AUTH_INFO\000"
 10993      4C455F45 
 10993      56545F47 
 10993      41505F53 
 10993      4D505F4E 
 10994              	.LASF100:
 10995 4260 52544F43 		.ascii	"RTOC1_FHASH_OBJECTS\000"
 10995      315F4648 
 10995      4153485F 
 10995      4F424A45 
 10995      43545300 
 10996              	.LASF887:
 10997 4274 6572725F 		.ascii	"err_param\000"
 10997      70617261 
 10997      6D00
 10998              	.LASF348:
 10999 427e 63707573 		.ascii	"cpuss_interrupt_crypto_IRQn\000"
 10999      735F696E 
 10999      74657272 
 10999      7570745F 
 10999      63727970 
 11000              	.LASF271:
 11001 429a 696F7373 		.ascii	"ioss_interrupts_gpio_7_IRQn\000"
 11001      5F696E74 
 11001      65727275 
ARM GAS  C:\Users\Smaug\AppData\Local\Temp\ccVZzAJS.s 			page 273


 11001      7074735F 
 11001      6770696F 
 11002              	.LASF678:
 11003 42b6 43595F42 		.ascii	"CY_BLE_GATTS_ERR_NETWORK_NOT_AVAILABLE\000"
 11003      4C455F47 
 11003      41545453 
 11003      5F455252 
 11003      5F4E4554 
 11004              	.LASF714:
 11005 42dd 43595F42 		.ascii	"CY_BLE_GAP_AUTH_ERROR_OOB_DATA_NOT_AVAILABLE\000"
 11005      4C455F47 
 11005      41505F41 
 11005      5554485F 
 11005      4552524F 
 11006              	.LASF708:
 11007 430a 43595F42 		.ascii	"CY_BLE_GAP_IOCAP_KEYBOARD_ONLY\000"
 11007      4C455F47 
 11007      41505F49 
 11007      4F434150 
 11007      5F4B4559 
 11008              	.LASF194:
 11009 4329 70657269 		.ascii	"periDivCmdDivSelMsk\000"
 11009      44697643 
 11009      6D644469 
 11009      7653656C 
 11009      4D736B00 
 11010              	.LASF752:
 11011 433d 7363616E 		.ascii	"scanTo\000"
 11011      546F00
 11012              	.LASF933:
 11013 4344 43795F42 		.ascii	"Cy_BLE_SetTxPowerLevel\000"
 11013      4C455F53 
 11013      65745478 
 11013      506F7765 
 11013      724C6576 
 11014              	.LASF667:
 11015 435b 43595F42 		.ascii	"CY_BLE_GATT_ERR_HEART_RATE_CONTROL_POINT_NOT_SUPPOR"
 11015      4C455F47 
 11015      4154545F 
 11015      4552525F 
 11015      48454152 
 11016 438e 54454400 		.ascii	"TED\000"
 11017              	.LASF760:
 11018 4392 63795F65 		.ascii	"cy_en_ble_gapp_adv_t\000"
 11018      6E5F626C 
 11018      655F6761 
 11018      70705F61 
 11018      64765F74 
 11019              	.LASF663:
 11020 43a7 43595F42 		.ascii	"CY_BLE_GATT_ERR_UNLIKELY_ERROR\000"
 11020      4C455F47 
 11020      4154545F 
 11020      4552525F 
 11020      554E4C49 
 11021              	.LASF149:
 11022 43c6 64775665 		.ascii	"dwVersion\000"
 11022      7273696F 
ARM GAS  C:\Users\Smaug\AppData\Local\Temp\ccVZzAJS.s 			page 274


 11022      6E00
 11023              	.LASF511:
 11024 43d0 43595F42 		.ascii	"CY_BLE_EVT_GATTC_READ_BLOB_RSP\000"
 11024      4C455F45 
 11024      56545F47 
 11024      41545443 
 11024      5F524541 
 11025              	.LASF403:
 11026 43ef 61756469 		.ascii	"audioss_interrupt_i2s_IRQn\000"
 11026      6F73735F 
 11026      696E7465 
 11026      72727570 
 11026      745F6932 
 11027              	.LASF143:
 11028 440a 6770696F 		.ascii	"gpioBase\000"
 11028      42617365 
 11028      00
 11029              	.LASF888:
 11030 4413 61706952 		.ascii	"apiResult\000"
 11030      6573756C 
 11030      7400
 11031              	.LASF354:
 11032 441d 74637077 		.ascii	"tcpwm_0_interrupts_0_IRQn\000"
 11032      6D5F305F 
 11032      696E7465 
 11032      72727570 
 11032      74735F30 
 11033              	.LASF387:
 11034 4437 7564625F 		.ascii	"udb_interrupts_1_IRQn\000"
 11034      696E7465 
 11034      72727570 
 11034      74735F31 
 11034      5F495251 
 11035              	.LASF371:
 11036 444d 74637077 		.ascii	"tcpwm_1_interrupts_9_IRQn\000"
 11036      6D5F315F 
 11036      696E7465 
 11036      72727570 
 11036      74735F39 
 11037              	.LASF723:
 11038 4467 43595F42 		.ascii	"CY_BLE_GAP_AUTH_ERROR_DHKEY_CHECK_FAILED\000"
 11038      4C455F47 
 11038      41505F41 
 11038      5554485F 
 11038      4552524F 
 11039              	.LASF172:
 11040 4490 70726F74 		.ascii	"protBusMasterMask\000"
 11040      4275734D 
 11040      61737465 
 11040      724D6173 
 11040      6B00
 11041              	.LASF171:
 11042 44a2 73797350 		.ascii	"sysPmSimoPresent\000"
 11042      6D53696D 
 11042      6F507265 
 11042      73656E74 
 11042      00
ARM GAS  C:\Users\Smaug\AppData\Local\Temp\ccVZzAJS.s 			page 275


 11043              	.LASF909:
 11044 44b3 6D747550 		.ascii	"mtuParam\000"
 11044      6172616D 
 11044      00
 11045              	.LASF537:
 11046 44bc 43595F42 		.ascii	"CY_BLE_EVT_MAX\000"
 11046      4C455F45 
 11046      56545F4D 
 11046      415800
 11047              	.LASF133:
 11048 44cb 52544F43 		.ascii	"RTOC2_REVISION\000"
 11048      325F5245 
 11048      56495349 
 11048      4F4E00
 11049              	.LASF927:
 11050 44da 43795F42 		.ascii	"Cy_BLE_GATTS_ErrorRsp\000"
 11050      4C455F47 
 11050      41545453 
 11050      5F457272 
 11050      6F725273 
 11051              	.LASF295:
 11052 44f0 63707573 		.ascii	"cpuss_interrupts_ipc_6_IRQn\000"
 11052      735F696E 
 11052      74657272 
 11052      75707473 
 11052      5F697063 
 11053              	.LASF254:
 11054 450c 4E766963 		.ascii	"NvicMux24_IRQn\000"
 11054      4D757832 
 11054      345F4952 
 11054      516E00
 11055              	.LASF910:
 11056 451b 63795F64 		.ascii	"cy_device\000"
 11056      65766963 
 11056      6500
 11057              	.LASF604:
 11058 4525 63795F73 		.ascii	"cy_stc_ble_conn_handle_t\000"
 11058      74635F62 
 11058      6C655F63 
 11058      6F6E6E5F 
 11058      68616E64 
 11059              	.LASF902:
 11060 453e 6C654D61 		.ascii	"leMask\000"
 11060      736B00
 11061              	.LASF160:
 11062 4545 63707573 		.ascii	"cpussIpc0Irq\000"
 11062      73497063 
 11062      30497271 
 11062      00
 11063              	.LASF480:
 11064 4552 43595F42 		.ascii	"CY_BLE_EVT_GAPP_ADVERTISEMENT_START_STOP\000"
 11064      4C455F45 
 11064      56545F47 
 11064      4150505F 
 11064      41445645 
 11065              	.LASF26:
 11066 457b 43505553 		.ascii	"CPUSS_WOUNDING\000"
ARM GAS  C:\Users\Smaug\AppData\Local\Temp\ccVZzAJS.s 			page 276


 11066      535F574F 
 11066      554E4449 
 11066      4E4700
 11067              	.LASF301:
 11068 458a 63707573 		.ascii	"cpuss_interrupts_ipc_12_IRQn\000"
 11068      735F696E 
 11068      74657272 
 11068      75707473 
 11068      5F697063 
 11069              	.LASF790:
 11070 45a7 43595F42 		.ascii	"CY_BLE_CONN_STATE_CONNECTED\000"
 11070      4C455F43 
 11070      4F4E4E5F 
 11070      53544154 
 11070      455F434F 
 11071              	.LASF548:
 11072 45c3 43595F42 		.ascii	"CY_BLE_ERROR_DEVICE_ALREADY_EXISTS\000"
 11072      4C455F45 
 11072      52524F52 
 11072      5F444556 
 11072      4943455F 
 11073              	.LASF311:
 11074 45e6 7363625F 		.ascii	"scb_6_interrupt_IRQn\000"
 11074      365F696E 
 11074      74657272 
 11074      7570745F 
 11074      4952516E 
 11075              	.LASF828:
 11076 45fb 61747447 		.ascii	"attGenericVal\000"
 11076      656E6572 
 11076      69635661 
 11076      6C00
 11077              	.LASF939:
 11078 4609 43795F42 		.ascii	"Cy_BLE_GAP_SetIoCap\000"
 11078      4C455F47 
 11078      41505F53 
 11078      6574496F 
 11078      43617000 
 11079              	.LASF524:
 11080 461d 43595F42 		.ascii	"CY_BLE_EVT_GATTS_READ_CHAR_VAL_ACCESS_REQ\000"
 11080      4C455F45 
 11080      56545F47 
 11080      41545453 
 11080      5F524541 
 11081              	.LASF430:
 11082 4647 43595F42 		.ascii	"CY_BLE_EVT_READ_AUTH_PAYLOAD_TO_COMPLETE\000"
 11082      4C455F45 
 11082      56545F52 
 11082      4541445F 
 11082      41555448 
 11083              	.LASF547:
 11084 4670 43595F42 		.ascii	"CY_BLE_ERROR_NO_DEVICE_ENTITY\000"
 11084      4C455F45 
 11084      52524F52 
 11084      5F4E4F5F 
 11084      44455649 
 11085              	.LASF541:
ARM GAS  C:\Users\Smaug\AppData\Local\Temp\ccVZzAJS.s 			page 277


 11086 468e 43595F42 		.ascii	"CY_BLE_ERROR_INVALID_PARAMETER\000"
 11086      4C455F45 
 11086      52524F52 
 11086      5F494E56 
 11086      414C4944 
 11087              	.LASF235:
 11088 46ad 4E766963 		.ascii	"NvicMux5_IRQn\000"
 11088      4D757835 
 11088      5F495251 
 11088      6E00
 11089              	.LASF431:
 11090 46bb 43595F42 		.ascii	"CY_BLE_EVT_GET_CHANNEL_MAP_COMPLETE\000"
 11090      4C455F45 
 11090      56545F47 
 11090      45545F43 
 11090      48414E4E 
 11091              	.LASF731:
 11092 46df 73656375 		.ascii	"security\000"
 11092      72697479 
 11092      00
 11093              	.LASF636:
 11094 46e8 43595F42 		.ascii	"CY_BLE_GATT_WRITE_REQ\000"
 11094      4C455F47 
 11094      4154545F 
 11094      57524954 
 11094      455F5245 
 11095              	.LASF154:
 11096 46fe 70657269 		.ascii	"periVersion\000"
 11096      56657273 
 11096      696F6E00 
 11097              	.LASF788:
 11098 470a 43595F42 		.ascii	"CY_BLE_CONN_STATE_DISCONNECTED\000"
 11098      4C455F43 
 11098      4F4E4E5F 
 11098      53544154 
 11098      455F4449 
 11099              	.LASF7:
 11100 4729 73686F72 		.ascii	"short int\000"
 11100      7420696E 
 11100      7400
 11101              	.LASF466:
 11102 4733 43595F42 		.ascii	"CY_BLE_EVT_STACK_SHUTDOWN_COMPLETE\000"
 11102      4C455F45 
 11102      56545F53 
 11102      5441434B 
 11102      5F534855 
 11103              	.LASF695:
 11104 4756 68616E64 		.ascii	"handleValPair\000"
 11104      6C655661 
 11104      6C506169 
 11104      7200
 11105              	.LASF740:
 11106 4764 70656572 		.ascii	"peerAddr\000"
 11106      41646472 
 11106      00
 11107              	.LASF457:
 11108 476d 43595F42 		.ascii	"CY_BLE_EVT_GET_TX_PWR_COMPLETE\000"
ARM GAS  C:\Users\Smaug\AppData\Local\Temp\ccVZzAJS.s 			page 278


 11108      4C455F45 
 11108      56545F47 
 11108      45545F54 
 11108      585F5057 
 11109              	.LASF883:
 11110 478c 43795F42 		.ascii	"Cy_BLE_SetConnectionState\000"
 11110      4C455F53 
 11110      6574436F 
 11110      6E6E6563 
 11110      74696F6E 
 11111              	.LASF831:
 11112 47a6 61747447 		.ascii	"attGenericValLen\000"
 11112      656E6572 
 11112      69635661 
 11112      6C4C656E 
 11112      00
 11113              	.LASF89:
 11114 47b7 544F4331 		.ascii	"TOC1_MAGIC_NUMBER\000"
 11114      5F4D4147 
 11114      49435F4E 
 11114      554D4245 
 11114      5200
 11115              	.LASF281:
 11116 47c9 6C70636F 		.ascii	"lpcomp_interrupt_IRQn\000"
 11116      6D705F69 
 11116      6E746572 
 11116      72757074 
 11116      5F495251 
 11117              	.LASF38:
 11118 47df 5341525F 		.ascii	"SAR_TEMP_MULTIPLIER\000"
 11118      54454D50 
 11118      5F4D554C 
 11118      5449504C 
 11118      49455200 
 11119              	.LASF816:
 11120 47f3 736C6F77 		.ascii	"slowScanInterval\000"
 11120      5363616E 
 11120      496E7465 
 11120      7276616C 
 11120      00
 11121              	.LASF98:
 11122 4804 52544F43 		.ascii	"RTOC1_OBJECT_SIZE\000"
 11122      315F4F42 
 11122      4A454354 
 11122      5F53495A 
 11122      4500
 11123              	.LASF773:
 11124 4816 7363616E 		.ascii	"scanRspDataLen\000"
 11124      52737044 
 11124      6174614C 
 11124      656E00
 11125              	.LASF754:
 11126 4825 63795F73 		.ascii	"cy_stc_ble_gapc_disc_info_t\000"
 11126      74635F62 
 11126      6C655F67 
 11126      6170635F 
 11126      64697363 
ARM GAS  C:\Users\Smaug\AppData\Local\Temp\ccVZzAJS.s 			page 279


 11127              	.LASF17:
 11128 4841 696E7431 		.ascii	"int16_t\000"
 11128      365F7400 
 11129              	.LASF675:
 11130 4849 43595F42 		.ascii	"CY_BLE_GATTS_ERR_OPERATION_FAILED\000"
 11130      4C455F47 
 11130      41545453 
 11130      5F455252 
 11130      5F4F5045 
 11131              	.LASF242:
 11132 486b 4E766963 		.ascii	"NvicMux12_IRQn\000"
 11132      4D757831 
 11132      325F4952 
 11132      516E00
 11133              	.LASF53:
 11134 487a 5354414E 		.ascii	"STANDARD_SMPU_STRUCT_SLAVE_ADDR\000"
 11134      44415244 
 11134      5F534D50 
 11134      555F5354 
 11134      52554354 
 11135              	.LASF297:
 11136 489a 63707573 		.ascii	"cpuss_interrupts_ipc_8_IRQn\000"
 11136      735F696E 
 11136      74657272 
 11136      75707473 
 11136      5F697063 
 11137              	.LASF180:
 11138 48b6 666C6173 		.ascii	"flashCtlMainWs1Freq\000"
 11138      6843746C 
 11138      4D61696E 
 11138      57733146 
 11138      72657100 
 11139              	.LASF273:
 11140 48ca 696F7373 		.ascii	"ioss_interrupts_gpio_9_IRQn\000"
 11140      5F696E74 
 11140      65727275 
 11140      7074735F 
 11140      6770696F 
 11141              	.LASF694:
 11142 48e6 63795F73 		.ascii	"cy_stc_ble_gatt_xchg_mtu_param_t\000"
 11142      74635F62 
 11142      6C655F67 
 11142      6174745F 
 11142      78636867 
 11143              	.LASF115:
 11144 4907 544F4332 		.ascii	"TOC2_SECOND_USER_APP_FORMAT\000"
 11144      5F534543 
 11144      4F4E445F 
 11144      55534552 
 11144      5F415050 
 11145              	.LASF248:
 11146 4923 4E766963 		.ascii	"NvicMux18_IRQn\000"
 11146      4D757831 
 11146      385F4952 
 11146      516E00
 11147              	.LASF353:
 11148 4932 63707573 		.ascii	"cpuss_interrupts_cm4_cti_1_IRQn\000"
ARM GAS  C:\Users\Smaug\AppData\Local\Temp\ccVZzAJS.s 			page 280


 11148      735F696E 
 11148      74657272 
 11148      75707473 
 11148      5F636D34 
 11149              	.LASF55:
 11150 4952 5354414E 		.ascii	"STANDARD_SMPU_STRUCT_MASTER_ATTR\000"
 11150      44415244 
 11150      5F534D50 
 11150      555F5354 
 11150      52554354 
 11151              	.LASF127:
 11152 4973 52544F43 		.ascii	"RTOC2_FIRST_USER_APP_FORMAT\000"
 11152      325F4649 
 11152      5253545F 
 11152      55534552 
 11152      5F415050 
 11153              	.LASF99:
 11154 498f 52544F43 		.ascii	"RTOC1_MAGIC_NUMBER\000"
 11154      315F4D41 
 11154      4749435F 
 11154      4E554D42 
 11154      455200
 11155              	.LASF573:
 11156 49a2 6C6F6275 		.ascii	"lobuffTable\000"
 11156      66665461 
 11156      626C6500 
 11157              	.LASF873:
 11158 49ae 64657669 		.ascii	"deviceAddress\000"
 11158      63654164 
 11158      64726573 
 11158      7300
 11159              	.LASF522:
 11160 49bc 43595F42 		.ascii	"CY_BLE_EVT_GATTS_DATA_SIGNED_CMD_REQ\000"
 11160      4C455F45 
 11160      56545F47 
 11160      41545453 
 11160      5F444154 
 11161              	.LASF866:
 11162 49e1 67617474 		.ascii	"gatts\000"
 11162      7300
 11163              	.LASF481:
 11164 49e7 43595F42 		.ascii	"CY_BLE_EVT_GAP_DEVICE_CONNECTED\000"
 11164      4C455F45 
 11164      56545F47 
 11164      41505F44 
 11164      45564943 
 11165              	.LASF468:
 11166 4a07 43595F42 		.ascii	"CY_BLE_EVT_RADIO_VOLTAGE_LEVEL\000"
 11166      4C455F45 
 11166      56545F52 
 11166      4144494F 
 11166      5F564F4C 
 11167              	.LASF823:
 11168 4a26 63795F73 		.ascii	"cy_stc_ble_gapc_scan_params_t\000"
 11168      74635F62 
 11168      6C655F67 
 11168      6170635F 
ARM GAS  C:\Users\Smaug\AppData\Local\Temp\ccVZzAJS.s 			page 281


 11168      7363616E 
 11169              	.LASF917:
 11170 4a44 63795F62 		.ascii	"cy_ble_connState\000"
 11170      6C655F63 
 11170      6F6E6E53 
 11170      74617465 
 11170      00
 11171              	.LASF274:
 11172 4a55 696F7373 		.ascii	"ioss_interrupts_gpio_10_IRQn\000"
 11172      5F696E74 
 11172      65727275 
 11172      7074735F 
 11172      6770696F 
 11173              	.LASF851:
 11174 4a72 63636364 		.ascii	"cccdCount\000"
 11174      436F756E 
 11174      7400
 11175              	.LASF175:
 11176 4a7c 666C6173 		.ascii	"flashPipeRequired\000"
 11176      68506970 
 11176      65526571 
 11176      75697265 
 11176      6400
 11177              	.LASF550:
 11178 4a8e 43595F42 		.ascii	"CY_BLE_ERROR_GAP_ROLE\000"
 11178      4C455F45 
 11178      52524F52 
 11178      5F474150 
 11178      5F524F4C 
 11179              	.LASF439:
 11180 4aa4 43595F42 		.ascii	"CY_BLE_EVT_GET_LOCAL_RPA_COMPLETE\000"
 11180      4C455F45 
 11180      56545F47 
 11180      45545F4C 
 11180      4F43414C 
 11181              	.LASF46:
 11182 4ac6 424C455F 		.ascii	"BLE_DEVICE_ADDRESS\000"
 11182      44455649 
 11182      43455F41 
 11182      44445245 
 11182      535300
 11183              	.LASF343:
 11184 4ad9 63707573 		.ascii	"cpuss_interrupts_dw1_13_IRQn\000"
 11184      735F696E 
 11184      74657272 
 11184      75707473 
 11184      5F647731 
 11185              	.LASF801:
 11186 4af6 63656E74 		.ascii	"centralAddrResolutionCharHandle\000"
 11186      72616C41 
 11186      64647252 
 11186      65736F6C 
 11186      7574696F 
 11187              	.LASF578:
 11188 4b16 63795F73 		.ascii	"cy_stc_ble_mxd_pa_cal_param_t\000"
 11188      74635F62 
 11188      6C655F6D 
ARM GAS  C:\Users\Smaug\AppData\Local\Temp\ccVZzAJS.s 			page 282


 11188      78645F70 
 11188      615F6361 
 11189              	.LASF570:
 11190 4b34 62644164 		.ascii	"bdAddr\000"
 11190      647200
 11191              	.LASF74:
 11192 4b3b 43505553 		.ascii	"CPUSS_TRIM_ROM_CTL_HALF_LP\000"
 11192      535F5452 
 11192      494D5F52 
 11192      4F4D5F43 
 11192      544C5F48 
 11193              	.LASF478:
 11194 4b56 43595F42 		.ascii	"CY_BLE_EVT_GAP_AUTH_COMPLETE\000"
 11194      4C455F45 
 11194      56545F47 
 11194      41505F41 
 11194      5554485F 
 11195              	.LASF206:
 11196 4b73 6770696F 		.ascii	"gpioPrtCfgSioOffset\000"
 11196      50727443 
 11196      66675369 
 11196      6F4F6666 
 11196      73657400 
 11197              	.LASF234:
 11198 4b87 4E766963 		.ascii	"NvicMux4_IRQn\000"
 11198      4D757834 
 11198      5F495251 
 11198      6E00
 11199              	.LASF413:
 11200 4b95 53464C41 		.ascii	"SFLASH_Type\000"
 11200      53485F54 
 11200      79706500 
 11201              	.LASF847:
 11202 4ba1 63795F62 		.ascii	"cy_ble_callback_t\000"
 11202      6C655F63 
 11202      616C6C62 
 11202      61636B5F 
 11202      7400
 11203              	.LASF562:
 11204 4bb3 43595F42 		.ascii	"CY_BLE_ERROR_GATT_DB_INVALID_ATTR_HANDLE\000"
 11204      4C455F45 
 11204      52524F52 
 11204      5F474154 
 11204      545F4442 
 11205              	.LASF804:
 11206 4bdc 66617374 		.ascii	"fastAdvIntervalMin\000"
 11206      41647649 
 11206      6E746572 
 11206      76616C4D 
 11206      696E00
 11207              	.LASF329:
 11208 4bef 63707573 		.ascii	"cpuss_interrupts_dw0_15_IRQn\000"
 11208      735F696E 
 11208      74657272 
 11208      75707473 
 11208      5F647730 
 11209              	.LASF626:
ARM GAS  C:\Users\Smaug\AppData\Local\Temp\ccVZzAJS.s 			page 283


 11210 4c0c 43595F42 		.ascii	"CY_BLE_GATT_READ_BY_TYPE_REQ\000"
 11210      4C455F47 
 11210      4154545F 
 11210      52454144 
 11210      5F42595F 
 11211              	.LASF290:
 11212 4c29 63707573 		.ascii	"cpuss_interrupts_ipc_1_IRQn\000"
 11212      735F696E 
 11212      74657272 
 11212      75707473 
 11212      5F697063 
 11213              	.LASF358:
 11214 4c45 74637077 		.ascii	"tcpwm_0_interrupts_4_IRQn\000"
 11214      6D5F305F 
 11214      696E7465 
 11214      72727570 
 11214      74735F34 
 11215              	.LASF586:
 11216 4c5f 43595F42 		.ascii	"CY_BLE_LL_ADV_CH_TYPE\000"
 11216      4C455F4C 
 11216      4C5F4144 
 11216      565F4348 
 11216      5F545950 
 11217              	.LASF266:
 11218 4c75 696F7373 		.ascii	"ioss_interrupts_gpio_2_IRQn\000"
 11218      5F696E74 
 11218      65727275 
 11218      7074735F 
 11218      6770696F 
 11219              	.LASF812:
 11220 4c91 66617374 		.ascii	"fastScanInterval\000"
 11220      5363616E 
 11220      496E7465 
 11220      7276616C 
 11220      00
 11221              	.LASF380:
 11222 4ca2 74637077 		.ascii	"tcpwm_1_interrupts_18_IRQn\000"
 11222      6D5F315F 
 11222      696E7465 
 11222      72727570 
 11222      74735F31 
 11223              	.LASF686:
 11224 4cbd 43595F42 		.ascii	"CY_BLE_GATT_ERR_OUT_OF_RANGE\000"
 11224      4C455F47 
 11224      4154545F 
 11224      4552525F 
 11224      4F55545F 
 11225              	.LASF921:
 11226 4cda 63795F62 		.ascii	"cy_ble_stackMemoryRam\000"
 11226      6C655F73 
 11226      7461636B 
 11226      4D656D6F 
 11226      72795261 
 11227              	.LASF412:
 11228 4cf0 63795F65 		.ascii	"cy_en_intr_t\000"
 11228      6E5F696E 
 11228      74725F74 
ARM GAS  C:\Users\Smaug\AppData\Local\Temp\ccVZzAJS.s 			page 284


 11228      00
 11229              	.LASF728:
 11230 4cfd 43595F42 		.ascii	"CY_BLE_GAP_AUTH_ERROR_LINK_DISCONNECTED\000"
 11230      4C455F47 
 11230      41505F41 
 11230      5554485F 
 11230      4552524F 
 11231              	.LASF308:
 11232 4d25 7363625F 		.ascii	"scb_3_interrupt_IRQn\000"
 11232      335F696E 
 11232      74657272 
 11232      7570745F 
 11232      4952516E 
 11233              	.LASF258:
 11234 4d3a 4E766963 		.ascii	"NvicMux28_IRQn\000"
 11234      4D757832 
 11234      385F4952 
 11234      516E00
 11235              	.LASF437:
 11236 4d49 43595F42 		.ascii	"CY_BLE_EVT_DATA_LENGTH_CHANGE\000"
 11236      4C455F45 
 11236      56545F44 
 11236      4154415F 
 11236      4C454E47 
 11237              	.LASF817:
 11238 4d67 736C6F77 		.ascii	"slowScanWindow\000"
 11238      5363616E 
 11238      57696E64 
 11238      6F7700
 11239              	.LASF810:
 11240 4d76 736C6F77 		.ascii	"slowAdvTimeOut\000"
 11240      41647654 
 11240      696D654F 
 11240      757400
 11241              	.LASF924:
 11242 4d85 63795F62 		.ascii	"cy_ble_busyStatus\000"
 11242      6C655F62 
 11242      75737953 
 11242      74617475 
 11242      7300
 11243              	.LASF124:
 11244 4d97 52544F43 		.ascii	"RTOC2_KEY_BLOCK_ADDR\000"
 11244      325F4B45 
 11244      595F424C 
 11244      4F434B5F 
 11244      41444452 
 11245              	.LASF396:
 11246 4dac 7564625F 		.ascii	"udb_interrupts_10_IRQn\000"
 11246      696E7465 
 11246      72727570 
 11246      74735F31 
 11246      305F4952 
 11247              	.LASF280:
 11248 4dc3 696F7373 		.ascii	"ioss_interrupt_vdd_IRQn\000"
 11248      5F696E74 
 11248      65727275 
 11248      70745F76 
ARM GAS  C:\Users\Smaug\AppData\Local\Temp\ccVZzAJS.s 			page 285


 11248      64645F49 
 11249              	.LASF830:
 11250 4ddb 6D617841 		.ascii	"maxAttrLength\000"
 11250      7474724C 
 11250      656E6774 
 11250      6800
 11251              	.LASF13:
 11252 4de9 6C6F6E67 		.ascii	"long long unsigned int\000"
 11252      206C6F6E 
 11252      6720756E 
 11252      7369676E 
 11252      65642069 
 11253              	.LASF892:
 11254 4e00 6576656E 		.ascii	"eventCode\000"
 11254      74436F64 
 11254      6500
 11255              	.LASF66:
 11256 4e0a 52414449 		.ascii	"RADIO_LDO_TRIMS\000"
 11256      4F5F4C44 
 11256      4F5F5452 
 11256      494D5300 
 11257              	.LASF595:
 11258 4e1a 43595F42 		.ascii	"CY_BLE_GAP_SCAN_TO\000"
 11258      4C455F47 
 11258      41505F53 
 11258      43414E5F 
 11258      544F00
 11259              	.LASF462:
 11260 4e2d 43595F42 		.ascii	"CY_BLE_EVT_AES_ENCRYPT_COMPLETE\000"
 11260      4C455F45 
 11260      56545F41 
 11260      45535F45 
 11260      4E435259 
 11261              	.LASF247:
 11262 4e4d 4E766963 		.ascii	"NvicMux17_IRQn\000"
 11262      4D757831 
 11262      375F4952 
 11262      516E00
 11263              	.LASF19:
 11264 4e5c 75696E74 		.ascii	"uint32_t\000"
 11264      33325F74 
 11264      00
 11265              	.LASF554:
 11266 4e65 43595F42 		.ascii	"CY_BLE_ERROR_L2CAP_PSM_NOT_REGISTERED\000"
 11266      4C455F45 
 11266      52524F52 
 11266      5F4C3243 
 11266      41505F50 
 11267              	.LASF742:
 11268 4e8b 636F6E6E 		.ascii	"connLatency\000"
 11268      4C617465 
 11268      6E637900 
 11269              	.LASF818:
 11270 4e97 736C6F77 		.ascii	"slowScanTimeOut\000"
 11270      5363616E 
 11270      54696D65 
 11270      4F757400 
ARM GAS  C:\Users\Smaug\AppData\Local\Temp\ccVZzAJS.s 			page 286


 11271              	.LASF903:
 11272 4ea7 626C6553 		.ascii	"bleSsPowerLevel\000"
 11272      73506F77 
 11272      65724C65 
 11272      76656C00 
 11273              	.LASF32:
 11274 4eb7 4449455F 		.ascii	"DIE_SORT\000"
 11274      534F5254 
 11274      00
 11275              	.LASF889:
 11276 4ec0 65786973 		.ascii	"existFlag\000"
 11276      74466C61 
 11276      6700
 11277              	.LASF824:
 11278 4eca 63795F73 		.ascii	"cy_stc_ble_gatts_write_cmd_req_param_t\000"
 11278      74635F62 
 11278      6C655F67 
 11278      61747473 
 11278      5F777269 
 11279              	.LASF864:
 11280 4ef1 67617063 		.ascii	"gapcScanParams\000"
 11280      5363616E 
 11280      50617261 
 11280      6D7300
 11281              	.LASF588:
 11282 4f00 43595F42 		.ascii	"CY_BLE_LL_MAX_CH_TYPE\000"
 11282      4C455F4C 
 11282      4C5F4D41 
 11282      585F4348 
 11282      5F545950 
 11283              	.LASF337:
 11284 4f16 63707573 		.ascii	"cpuss_interrupts_dw1_7_IRQn\000"
 11284      735F696E 
 11284      74657272 
 11284      75707473 
 11284      5F647731 
 11285              	.LASF418:
 11286 4f32 636D3070 		.ascii	"cm0pSrc\000"
 11286      53726300 
 11287              	.LASF64:
 11288 4f3a 5057525F 		.ascii	"PWR_TRIM_WAKE_CTL\000"
 11288      5452494D 
 11288      5F57414B 
 11288      455F4354 
 11288      4C00
 11289              	.LASF407:
 11290 4f4c 7573625F 		.ascii	"usb_interrupt_hi_IRQn\000"
 11290      696E7465 
 11290      72727570 
 11290      745F6869 
 11290      5F495251 
 11291              	.LASF857:
 11292 4f62 73656375 		.ascii	"securityPairingMethod\000"
 11292      72697479 
 11292      50616972 
 11292      696E674D 
 11292      6574686F 
ARM GAS  C:\Users\Smaug\AppData\Local\Temp\ccVZzAJS.s 			page 287


 11293              	.LASF682:
 11294 4f78 43595F42 		.ascii	"CY_BLE_GATT_ERR_ANCS_INVALID_PARAMETER\000"
 11294      4C455F47 
 11294      4154545F 
 11294      4552525F 
 11294      414E4353 
 11295              	.LASF844:
 11296 4f9f 63795F73 		.ascii	"cy_stc_ble_gatts_t\000"
 11296      74635F62 
 11296      6C655F67 
 11296      61747473 
 11296      5F7400
 11297              	.LASF885:
 11298 4fb2 67617474 		.ascii	"gattErr\000"
 11298      45727200 
 11299              	.LASF373:
 11300 4fba 74637077 		.ascii	"tcpwm_1_interrupts_11_IRQn\000"
 11300      6D5F315F 
 11300      696E7465 
 11300      72727570 
 11300      74735F31 
 11301              	.LASF145:
 11302 4fd5 69706342 		.ascii	"ipcBase\000"
 11302      61736500 
 11303              	.LASF390:
 11304 4fdd 7564625F 		.ascii	"udb_interrupts_4_IRQn\000"
 11304      696E7465 
 11304      72727570 
 11304      74735F34 
 11304      5F495251 
 11305              	.LASF635:
 11306 4ff3 43595F42 		.ascii	"CY_BLE_GATT_READ_BY_GROUP_RSP\000"
 11306      4C455F47 
 11306      4154545F 
 11306      52454144 
 11306      5F42595F 
 11307              	.LASF209:
 11308 5011 63707573 		.ascii	"cpussCm4StatusOffset\000"
 11308      73436D34 
 11308      53746174 
 11308      75734F66 
 11308      66736574 
 11309              	.LASF669:
 11310 5026 43595F42 		.ascii	"CY_BLE_GATT_ERR_CPS_INAPPROPRIATE_CONNECTION_PARAME"
 11310      4C455F47 
 11310      4154545F 
 11310      4552525F 
 11310      4350535F 
 11311 5059 54455253 		.ascii	"TERS\000"
 11311      00
 11312              	.LASF187:
 11313 505e 64774368 		.ascii	"dwChCtlPreemptablePos\000"
 11313      43746C50 
 11313      7265656D 
 11313      70746162 
 11313      6C65506F 
 11314              	.LASF741:
ARM GAS  C:\Users\Smaug\AppData\Local\Temp\ccVZzAJS.s 			page 288


 11315 5074 636F6E6E 		.ascii	"connIntv\000"
 11315      496E7476 
 11315      00
 11316              	.LASF940:
 11317 507d 43795F42 		.ascii	"Cy_BLE_UnregisterHostPMCallbacks\000"
 11317      4C455F55 
 11317      6E726567 
 11317      69737465 
 11317      72486F73 
 11318              	.LASF111:
 11319 509e 544F4332 		.ascii	"TOC2_SMIF_CFG_STRUCT_ADDR\000"
 11319      5F534D49 
 11319      465F4346 
 11319      475F5354 
 11319      52554354 
 11320              	.LASF487:
 11321 50b8 43595F42 		.ascii	"CY_BLE_EVT_GAP_NUMERIC_COMPARISON_REQUEST\000"
 11321      4C455F45 
 11321      56545F47 
 11321      41505F4E 
 11321      554D4552 
 11322              	.LASF821:
 11323 50e2 67617063 		.ascii	"gapcConnectionSlaveLatency\000"
 11323      436F6E6E 
 11323      65637469 
 11323      6F6E536C 
 11323      6176654C 
 11324              	.LASF846:
 11325 50fd 63795F73 		.ascii	"cy_stc_ble_l2cap_state_info_t\000"
 11325      74635F62 
 11325      6C655F6C 
 11325      32636170 
 11325      5F737461 
 11326              	.LASF408:
 11327 511b 7573625F 		.ascii	"usb_interrupt_med_IRQn\000"
 11327      696E7465 
 11327      72727570 
 11327      745F6D65 
 11327      645F4952 
 11328              	.LASF819:
 11329 5132 67617063 		.ascii	"gapcConnectionIntervalMin\000"
 11329      436F6E6E 
 11329      65637469 
 11329      6F6E496E 
 11329      74657276 
 11330              	.LASF315:
 11331 514c 63707573 		.ascii	"cpuss_interrupts_dw0_1_IRQn\000"
 11331      735F696E 
 11331      74657272 
 11331      75707473 
 11331      5F647730 
 11332              	.LASF497:
 11333 5168 43595F42 		.ascii	"CY_BLE_EVT_GAP_CREATE_CONN_CANCEL_COMPLETE\000"
 11333      4C455F45 
 11333      56545F47 
 11333      41505F43 
 11333      52454154 
ARM GAS  C:\Users\Smaug\AppData\Local\Temp\ccVZzAJS.s 			page 289


 11334              	.LASF482:
 11335 5193 43595F42 		.ascii	"CY_BLE_EVT_GAP_DEVICE_DISCONNECTED\000"
 11335      4C455F45 
 11335      56545F47 
 11335      41505F44 
 11335      45564943 
 11336              	.LASF539:
 11337 51b6 43595F42 		.ascii	"CY_BLE_SUCCESS\000"
 11337      4C455F53 
 11337      55434345 
 11337      535300
 11338              	.LASF765:
 11339 51c5 64697265 		.ascii	"directAddr\000"
 11339      63744164 
 11339      647200
 11340              	.LASF129:
 11341 51d0 52544F43 		.ascii	"RTOC2_SECOND_USER_APP_FORMAT\000"
 11341      325F5345 
 11341      434F4E44 
 11341      5F555345 
 11341      525F4150 
 11342              	.LASF467:
 11343 51ed 43595F42 		.ascii	"CY_BLE_EVT_RADIO_TEMPERATURE\000"
 11343      4C455F45 
 11343      56545F52 
 11343      4144494F 
 11343      5F54454D 
 11344              	.LASF289:
 11345 520a 63707573 		.ascii	"cpuss_interrupts_ipc_0_IRQn\000"
 11345      735F696E 
 11345      74657272 
 11345      75707473 
 11345      5F697063 
 11346              	.LASF357:
 11347 5226 74637077 		.ascii	"tcpwm_0_interrupts_3_IRQn\000"
 11347      6D5F305F 
 11347      696E7465 
 11347      72727570 
 11347      74735F33 
 11348              	.LASF499:
 11349 5240 43595F42 		.ascii	"CY_BLE_EVT_GAPP_UPDATE_ADV_SCAN_DATA_COMPLETE\000"
 11349      4C455F45 
 11349      56545F47 
 11349      4150505F 
 11349      55504441 
 11350              	.LASF265:
 11351 526e 696F7373 		.ascii	"ioss_interrupts_gpio_1_IRQn\000"
 11351      5F696E74 
 11351      65727275 
 11351      7074735F 
 11351      6770696F 
 11352              	.LASF479:
 11353 528a 43595F42 		.ascii	"CY_BLE_EVT_GAP_AUTH_FAILED\000"
 11353      4C455F45 
 11353      56545F47 
 11353      41505F41 
 11353      5554485F 
ARM GAS  C:\Users\Smaug\AppData\Local\Temp\ccVZzAJS.s 			page 290


 11354              	.LASF689:
 11355 52a5 61637475 		.ascii	"actualLen\000"
 11355      616C4C65 
 11355      6E00
 11356              	.LASF96:
 11357 52af 52455345 		.ascii	"RESERVED16\000"
 11357      52564544 
 11357      313600
 11358              	.LASF681:
 11359 52ba 43595F42 		.ascii	"CY_BLE_GATT_ERR_ANCS_INVALID_COMMAND\000"
 11359      4C455F47 
 11359      4154545F 
 11359      4552525F 
 11359      414E4353 
 11360              	.LASF766:
 11361 52df 61647643 		.ascii	"advChannelMap\000"
 11361      68616E6E 
 11361      656C4D61 
 11361      7000
 11362              	.LASF843:
 11363 52ed 63636364 		.ascii	"cccdHandle\000"
 11363      48616E64 
 11363      6C6500
 11364              	.LASF427:
 11365 52f8 43595F42 		.ascii	"CY_BLE_EVT_FLASH_CORRUPT\000"
 11365      4C455F45 
 11365      56545F46 
 11365      4C415348 
 11365      5F434F52 
 11366              	.LASF322:
 11367 5311 63707573 		.ascii	"cpuss_interrupts_dw0_8_IRQn\000"
 11367      735F696E 
 11367      74657272 
 11367      75707473 
 11367      5F647730 
 11368              	.LASF591:
 11369 532d 64617461 		.ascii	"dataLength\000"
 11369      4C656E67 
 11369      746800
 11370              	.LASF190:
 11371 5338 70657269 		.ascii	"periTrCmdOffset\000"
 11371      5472436D 
 11371      644F6666 
 11371      73657400 
 11372              	.LASF257:
 11373 5348 4E766963 		.ascii	"NvicMux27_IRQn\000"
 11373      4D757832 
 11373      375F4952 
 11373      516E00
 11374              	.LASF698:
 11375 5357 6572726F 		.ascii	"errorCode\000"
 11375      72436F64 
 11375      6500
 11376              	.LASF572:
 11377 5361 63795F73 		.ascii	"cy_stc_ble_bd_addr_t\000"
 11377      74635F62 
 11377      6C655F62 
ARM GAS  C:\Users\Smaug\AppData\Local\Temp\ccVZzAJS.s 			page 291


 11377      645F6164 
 11377      64725F74 
 11378              	.LASF95:
 11379 5376 544F4331 		.ascii	"TOC1_OBJECT_ADDR_UNUSED\000"
 11379      5F4F424A 
 11379      4543545F 
 11379      41444452 
 11379      5F554E55 
 11380              	.LASF330:
 11381 538e 63707573 		.ascii	"cpuss_interrupts_dw1_0_IRQn\000"
 11381      735F696E 
 11381      74657272 
 11381      75707473 
 11381      5F647731 
 11382              	.LASF701:
 11383 53aa 63795F73 		.ascii	"cy_stc_ble_gatt_err_param_t\000"
 11383      74635F62 
 11383      6C655F67 
 11383      6174745F 
 11383      6572725F 
 11384              	.LASF807:
 11385 53c6 736C6F77 		.ascii	"slowAdvEnable\000"
 11385      41647645 
 11385      6E61626C 
 11385      6500
 11386              	.LASF603:
 11387 53d4 61747449 		.ascii	"attId\000"
 11387      6400
 11388              	.LASF538:
 11389 53da 63795F65 		.ascii	"cy_en_ble_event_t\000"
 11389      6E5F626C 
 11389      655F6576 
 11389      656E745F 
 11389      7400
 11390              	.LASF751:
 11391 53ec 7363616E 		.ascii	"scanFilterPolicy\000"
 11391      46696C74 
 11391      6572506F 
 11391      6C696379 
 11391      00
 11392              	.LASF718:
 11393 53fd 43595F42 		.ascii	"CY_BLE_GAP_AUTH_ERROR_INSUFFICIENT_ENCRYPTION_KEY_S"
 11393      4C455F47 
 11393      41505F41 
 11393      5554485F 
 11393      4552524F 
 11394 5430 495A4500 		.ascii	"IZE\000"
 11395              	.LASF797:
 11396 5434 73657276 		.ascii	"serviceHandle\000"
 11396      69636548 
 11396      616E646C 
 11396      6500
 11397              	.LASF743:
 11398 5442 73757065 		.ascii	"supervisionTO\000"
 11398      72766973 
 11398      696F6E54 
 11398      4F00
ARM GAS  C:\Users\Smaug\AppData\Local\Temp\ccVZzAJS.s 			page 292


 11399              	.LASF148:
 11400 5450 63727970 		.ascii	"cryptoVersion\000"
 11400      746F5665 
 11400      7273696F 
 11400      6E00
 11401              	.LASF829:
 11402 545e 63795F73 		.ascii	"cy_stc_ble_gatts_att_gen_val_len_t\000"
 11402      74635F62 
 11402      6C655F67 
 11402      61747473 
 11402      5F617474 
 11403              	.LASF937:
 11404 5481 43795F42 		.ascii	"Cy_BLE_GAP_SetBdAddress\000"
 11404      4C455F47 
 11404      41505F53 
 11404      65744264 
 11404      41646472 
 11405              	.LASF282:
 11406 5499 7363625F 		.ascii	"scb_8_interrupt_IRQn\000"
 11406      385F696E 
 11406      74657272 
 11406      7570745F 
 11406      4952516E 
 11407              	.LASF90:
 11408 54ae 544F4331 		.ascii	"TOC1_FHASH_OBJECTS\000"
 11408      5F464841 
 11408      53485F4F 
 11408      424A4543 
 11408      545300
 11409              	.LASF878:
 11410 54c1 73657276 		.ascii	"serviceEventHandler\000"
 11410      69636545 
 11410      76656E74 
 11410      48616E64 
 11410      6C657200 
 11411              	.LASF226:
 11412 54d5 48617264 		.ascii	"HardFault_IRQn\000"
 11412      4661756C 
 11412      745F4952 
 11412      516E00
 11413              	.LASF874:
 11414 54e4 626C6573 		.ascii	"blessIsrConfig\000"
 11414      73497372 
 11414      436F6E66 
 11414      696700
 11415              	.LASF458:
 11416 54f3 43595F42 		.ascii	"CY_BLE_EVT_SET_TX_PWR_COMPLETE\000"
 11416      4C455F45 
 11416      56545F53 
 11416      45545F54 
 11416      585F5057 
 11417              	.LASF826:
 11418 5512 63795F73 		.ascii	"cy_stc_ble_gatts_char_val_read_req_t\000"
 11418      74635F62 
 11418      6C655F67 
 11418      61747473 
 11418      5F636861 
ARM GAS  C:\Users\Smaug\AppData\Local\Temp\ccVZzAJS.s 			page 293


 11419              	.LASF30:
 11420 5537 4449455F 		.ascii	"DIE_X\000"
 11420      5800
 11421              	.LASF31:
 11422 553d 4449455F 		.ascii	"DIE_Y\000"
 11422      5900
 11423              	.LASF543:
 11424 5543 43595F42 		.ascii	"CY_BLE_ERROR_MEMORY_ALLOCATION_FAILED\000"
 11424      4C455F45 
 11424      52524F52 
 11424      5F4D454D 
 11424      4F52595F 
 11425              	.LASF769:
 11426 5569 61647644 		.ascii	"advData\000"
 11426      61746100 
 11427              	.LASF621:
 11428 5571 43595F42 		.ascii	"CY_BLE_GATT_XCHNG_MTU_RSP\000"
 11428      4C455F47 
 11428      4154545F 
 11428      5843484E 
 11428      475F4D54 
 11429              	.LASF238:
 11430 558b 4E766963 		.ascii	"NvicMux8_IRQn\000"
 11430      4D757838 
 11430      5F495251 
 11430      6E00
 11431              	.LASF446:
 11432 5599 43595F42 		.ascii	"CY_BLE_EVT_REMOVE_DEVICE_FROM_WHITE_LIST_COMPLETE\000"
 11432      4C455F45 
 11432      56545F52 
 11432      454D4F56 
 11432      455F4445 
 11433              	.LASF443:
 11434 55cb 43595F42 		.ascii	"CY_BLE_EVT_ADD_DEVICE_TO_RPA_LIST_COMPLETE\000"
 11434      4C455F45 
 11434      56545F41 
 11434      44445F44 
 11434      45564943 
 11435              	.LASF435:
 11436 55f6 43595F42 		.ascii	"CY_BLE_EVT_SET_SUGGESTED_DATA_LENGTH_COMPLETE\000"
 11436      4C455F45 
 11436      56545F53 
 11436      45545F53 
 11436      55474745 
 11437              	.LASF762:
 11438 5624 61647649 		.ascii	"advIntvMax\000"
 11438      6E74764D 
 11438      617800
 11439              	.LASF750:
 11440 562f 6F776E41 		.ascii	"ownAddrType\000"
 11440      64647254 
 11440      79706500 
 11441              	.LASF261:
 11442 563b 4E766963 		.ascii	"NvicMux31_IRQn\000"
 11442      4D757833 
 11442      315F4952 
 11442      516E00
ARM GAS  C:\Users\Smaug\AppData\Local\Temp\ccVZzAJS.s 			page 294


 11443              	.LASF545:
 11444 564a 43595F42 		.ascii	"CY_BLE_ERROR_OOB_NOT_AVAILABLE\000"
 11444      4C455F45 
 11444      52524F52 
 11444      5F4F4F42 
 11444      5F4E4F54 
 11445              	.LASF319:
 11446 5669 63707573 		.ascii	"cpuss_interrupts_dw0_5_IRQn\000"
 11446      735F696E 
 11446      74657272 
 11446      75707473 
 11446      5F647730 
 11447              	.LASF250:
 11448 5685 4E766963 		.ascii	"NvicMux20_IRQn\000"
 11448      4D757832 
 11448      305F4952 
 11448      516E00
 11449              	.LASF152:
 11450 5694 6873696F 		.ascii	"hsiomVersion\000"
 11450      6D566572 
 11450      73696F6E 
 11450      00
 11451              	.LASF494:
 11452 56a1 43595F42 		.ascii	"CY_BLE_EVT_GAP_KEYS_GEN_COMPLETE\000"
 11452      4C455F45 
 11452      56545F47 
 11452      41505F4B 
 11452      4559535F 
 11453              	.LASF184:
 11454 56c2 64774368 		.ascii	"dwChOffset\000"
 11454      4F666673 
 11454      657400
 11455              		.ident	"GCC: (GNU Tools for ARM Embedded Processors) 5.4.1 20160609 (release) [ARM/embedded-5-bran
