ARM GAS  C:\Users\Nazar\AppData\Local\Temp\ccWQ1kO8.s 			page 1


   1              		.syntax unified
   2              		.cpu cortex-m0plus
   3              		.fpu softvfp
   4              		.eabi_attribute 20, 1
   5              		.eabi_attribute 21, 1
   6              		.eabi_attribute 23, 3
   7              		.eabi_attribute 24, 1
   8              		.eabi_attribute 25, 1
   9              		.eabi_attribute 26, 1
  10              		.eabi_attribute 30, 1
  11              		.eabi_attribute 34, 0
  12              		.eabi_attribute 18, 4
  13              		.thumb
  14              		.syntax unified
  15              		.file	"cy_ble.c"
  16              		.text
  17              	.Ltext0:
  18              		.cfi_sections	.debug_frame
  19              		.section	.text.Cy_BLE_DeepSleepCallback,"ax",%progbits
  20              		.align	2
  21              		.global	Cy_BLE_DeepSleepCallback
  22              		.code	16
  23              		.thumb_func
  24              		.type	Cy_BLE_DeepSleepCallback, %function
  25              	Cy_BLE_DeepSleepCallback:
  26              	.LFB174:
  27              		.file 1 "Generated_Source\\PSoC6\\pdl\\middleware\\ble\\cy_ble.c"
   1:Generated_Source\PSoC6\pdl\middleware\ble/cy_ble.c **** /***************************************************************************//**
   2:Generated_Source\PSoC6\pdl\middleware\ble/cy_ble.c **** * \file cy_ble.c
   3:Generated_Source\PSoC6\pdl\middleware\ble/cy_ble.c **** * \version 2.90
   4:Generated_Source\PSoC6\pdl\middleware\ble/cy_ble.c **** *
   5:Generated_Source\PSoC6\pdl\middleware\ble/cy_ble.c **** * \brief
   6:Generated_Source\PSoC6\pdl\middleware\ble/cy_ble.c **** *  This file contains the source code for the API of the BLE Middleware.
   7:Generated_Source\PSoC6\pdl\middleware\ble/cy_ble.c **** *
   8:Generated_Source\PSoC6\pdl\middleware\ble/cy_ble.c **** ********************************************************************************
   9:Generated_Source\PSoC6\pdl\middleware\ble/cy_ble.c **** * \copyright
  10:Generated_Source\PSoC6\pdl\middleware\ble/cy_ble.c **** * Copyright 2017-2023, Cypress Semiconductor Corporation.  All rights reserved.
  11:Generated_Source\PSoC6\pdl\middleware\ble/cy_ble.c **** * You may use this file only in accordance with the license, terms, conditions,
  12:Generated_Source\PSoC6\pdl\middleware\ble/cy_ble.c **** * disclaimers, and limitations in the end user license agreement accompanying
  13:Generated_Source\PSoC6\pdl\middleware\ble/cy_ble.c **** * the software package with which this file was provided.
  14:Generated_Source\PSoC6\pdl\middleware\ble/cy_ble.c **** *******************************************************************************/
  15:Generated_Source\PSoC6\pdl\middleware\ble/cy_ble.c **** 
  16:Generated_Source\PSoC6\pdl\middleware\ble/cy_ble.c **** #include "cy_ble_event_handler.h"
  17:Generated_Source\PSoC6\pdl\middleware\ble/cy_ble.c **** #include "cy_ble_hal_pvt.h"
  18:Generated_Source\PSoC6\pdl\middleware\ble/cy_ble.c **** #include "ipc/cy_ipc_sema.h"
  19:Generated_Source\PSoC6\pdl\middleware\ble/cy_ble.c **** #include <stdlib.h>
  20:Generated_Source\PSoC6\pdl\middleware\ble/cy_ble.c **** 
  21:Generated_Source\PSoC6\pdl\middleware\ble/cy_ble.c **** /* C binding of definitions if building with C++ compiler */
  22:Generated_Source\PSoC6\pdl\middleware\ble/cy_ble.c **** #ifdef __cplusplus
  23:Generated_Source\PSoC6\pdl\middleware\ble/cy_ble.c **** extern "C" {
  24:Generated_Source\PSoC6\pdl\middleware\ble/cy_ble.c **** #endif /* __cplusplus */
  25:Generated_Source\PSoC6\pdl\middleware\ble/cy_ble.c **** 
  26:Generated_Source\PSoC6\pdl\middleware\ble/cy_ble.c **** #if (CY_BLE_HOST_CONTR_CORE)
  27:Generated_Source\PSoC6\pdl\middleware\ble/cy_ble.c **** 
  28:Generated_Source\PSoC6\pdl\middleware\ble/cy_ble.c **** /***************************************
  29:Generated_Source\PSoC6\pdl\middleware\ble/cy_ble.c **** * Global Variables
  30:Generated_Source\PSoC6\pdl\middleware\ble/cy_ble.c **** ***************************************/
ARM GAS  C:\Users\Nazar\AppData\Local\Temp\ccWQ1kO8.s 			page 2


  31:Generated_Source\PSoC6\pdl\middleware\ble/cy_ble.c **** 
  32:Generated_Source\PSoC6\pdl\middleware\ble/cy_ble.c **** /* Allocate RAM memory for the stack. This buffer can be reused by the application when
  33:Generated_Source\PSoC6\pdl\middleware\ble/cy_ble.c ****  * the BLE Middleware is stopped. For the export mode, the buffer is allocated in a heap.
  34:Generated_Source\PSoC6\pdl\middleware\ble/cy_ble.c ****  */
  35:Generated_Source\PSoC6\pdl\middleware\ble/cy_ble.c **** #if (CY_BLE_SHARING_MODE_EXPORT)
  36:Generated_Source\PSoC6\pdl\middleware\ble/cy_ble.c **** uint8_t *cy_ble_stackMemoryRam = NULL;
  37:Generated_Source\PSoC6\pdl\middleware\ble/cy_ble.c **** #else
  38:Generated_Source\PSoC6\pdl\middleware\ble/cy_ble.c **** CY_ALIGN(sizeof(uint32_t)) CY_NOINIT uint8_t cy_ble_stackMemoryRam[CY_BLE_STACK_RAM_SIZE];
  39:Generated_Source\PSoC6\pdl\middleware\ble/cy_ble.c **** #endif  /* CY_BLE_SHARING_MODE_EXPORT */
  40:Generated_Source\PSoC6\pdl\middleware\ble/cy_ble.c **** 
  41:Generated_Source\PSoC6\pdl\middleware\ble/cy_ble.c **** #if (CY_BLE_MODE_PROFILE)
  42:Generated_Source\PSoC6\pdl\middleware\ble/cy_ble.c **** /** An application layer event callback function to receive service events from the BLE Middleware.
  43:Generated_Source\PSoC6\pdl\middleware\ble/cy_ble.c **** cy_ble_callback_t Cy_BLE_ApplCallback = NULL;
  44:Generated_Source\PSoC6\pdl\middleware\ble/cy_ble.c **** 
  45:Generated_Source\PSoC6\pdl\middleware\ble/cy_ble.c **** /* BLE application IPC notification handler */
  46:Generated_Source\PSoC6\pdl\middleware\ble/cy_ble.c **** cy_ble_app_notify_callback_t Cy_BLE_HostRegisteredCallback = NULL;
  47:Generated_Source\PSoC6\pdl\middleware\ble/cy_ble.c **** #endif  /* (CY_BLE_MODE_PROFILE) */
  48:Generated_Source\PSoC6\pdl\middleware\ble/cy_ble.c **** 
  49:Generated_Source\PSoC6\pdl\middleware\ble/cy_ble.c **** #if(CY_BLE_SHARING_MODE != CY_BLE_SHARING_IMPORT)
  50:Generated_Source\PSoC6\pdl\middleware\ble/cy_ble.c **** /** Pointer to the global BLE Config structures */
  51:Generated_Source\PSoC6\pdl\middleware\ble/cy_ble.c **** cy_stc_ble_config_t *cy_ble_configPtr = NULL;
  52:Generated_Source\PSoC6\pdl\middleware\ble/cy_ble.c **** #endif /* CY_BLE_SHARING_MODE != CY_BLE_SHARING_IMPORT */
  53:Generated_Source\PSoC6\pdl\middleware\ble/cy_ble.c **** 
  54:Generated_Source\PSoC6\pdl\middleware\ble/cy_ble.c **** #if (CY_BLE_USE_DEEP_SLEEP != 0u)
  55:Generated_Source\PSoC6\pdl\middleware\ble/cy_ble.c ****   /* Structure with the syspm callback parameters for BLE deep-sleep */
  56:Generated_Source\PSoC6\pdl\middleware\ble/cy_ble.c ****   static cy_stc_syspm_callback_params_t bleDeepSleepCallbackParams = { .base = NULL};
  57:Generated_Source\PSoC6\pdl\middleware\ble/cy_ble.c ****   static cy_stc_syspm_callback_t bleDeepSleepCallback =
  58:Generated_Source\PSoC6\pdl\middleware\ble/cy_ble.c ****   {
  59:Generated_Source\PSoC6\pdl\middleware\ble/cy_ble.c ****     .callback = &Cy_BLE_DeepSleepCallback,
  60:Generated_Source\PSoC6\pdl\middleware\ble/cy_ble.c ****     .type = CY_SYSPM_DEEPSLEEP,
  61:Generated_Source\PSoC6\pdl\middleware\ble/cy_ble.c ****     .skipMode = CY_SYSPM_SKIP_BEFORE_TRANSITION | CY_SYSPM_SKIP_CHECK_FAIL,
  62:Generated_Source\PSoC6\pdl\middleware\ble/cy_ble.c ****     .callbackParams = &bleDeepSleepCallbackParams
  63:Generated_Source\PSoC6\pdl\middleware\ble/cy_ble.c ****   };
  64:Generated_Source\PSoC6\pdl\middleware\ble/cy_ble.c **** 
  65:Generated_Source\PSoC6\pdl\middleware\ble/cy_ble.c ****   /* Structure with the syspm callback parameters for BLE sleep */
  66:Generated_Source\PSoC6\pdl\middleware\ble/cy_ble.c **** #if(CY_BLE_STACK_MODE_HOST_IPC)
  67:Generated_Source\PSoC6\pdl\middleware\ble/cy_ble.c ****   static cy_stc_syspm_callback_params_t bleSleepCallbackParams = { .base = NULL};
  68:Generated_Source\PSoC6\pdl\middleware\ble/cy_ble.c ****   static cy_stc_syspm_callback_t bleSleepCallback =
  69:Generated_Source\PSoC6\pdl\middleware\ble/cy_ble.c ****   {
  70:Generated_Source\PSoC6\pdl\middleware\ble/cy_ble.c ****     .callback = &Cy_BLE_SleepCallback,
  71:Generated_Source\PSoC6\pdl\middleware\ble/cy_ble.c ****     .type = CY_SYSPM_SLEEP,
  72:Generated_Source\PSoC6\pdl\middleware\ble/cy_ble.c ****     .skipMode = CY_SYSPM_SKIP_BEFORE_TRANSITION | CY_SYSPM_SKIP_CHECK_FAIL,
  73:Generated_Source\PSoC6\pdl\middleware\ble/cy_ble.c ****     .callbackParams = &bleSleepCallbackParams
  74:Generated_Source\PSoC6\pdl\middleware\ble/cy_ble.c ****   };
  75:Generated_Source\PSoC6\pdl\middleware\ble/cy_ble.c **** #endif /* CY_BLE_STACK_MODE_HOST_IPC */
  76:Generated_Source\PSoC6\pdl\middleware\ble/cy_ble.c **** #endif  /* (CY_BLE_USE_DEEP_SLEEP != 0u) */
  77:Generated_Source\PSoC6\pdl\middleware\ble/cy_ble.c **** 
  78:Generated_Source\PSoC6\pdl\middleware\ble/cy_ble.c **** #if (CY_BLE_INTR_NOTIFY_FEATURE_ENABLED) && (CY_BLE_MODE_PROFILE)
  79:Generated_Source\PSoC6\pdl\middleware\ble/cy_ble.c **** /** BLE interrupt notification structure */
  80:Generated_Source\PSoC6\pdl\middleware\ble/cy_ble.c **** cy_stc_ble_intr_notify_t intrNotify =
  81:Generated_Source\PSoC6\pdl\middleware\ble/cy_ble.c **** {
  82:Generated_Source\PSoC6\pdl\middleware\ble/cy_ble.c ****     .clientID = CY_BLE_CYPIPE_MSG_INTR_NOTIFY_ID,
  83:Generated_Source\PSoC6\pdl\middleware\ble/cy_ble.c ****     .pktType  = 0xFFu
  84:Generated_Source\PSoC6\pdl\middleware\ble/cy_ble.c **** };
  85:Generated_Source\PSoC6\pdl\middleware\ble/cy_ble.c **** #endif /*(CY_BLE_INTR_NOTIFY_FEATURE_ENABLED) && (CY_BLE_MODE_PROFILE) */
  86:Generated_Source\PSoC6\pdl\middleware\ble/cy_ble.c **** 
  87:Generated_Source\PSoC6\pdl\middleware\ble/cy_ble.c **** 
ARM GAS  C:\Users\Nazar\AppData\Local\Temp\ccWQ1kO8.s 			page 3


  88:Generated_Source\PSoC6\pdl\middleware\ble/cy_ble.c **** /******************************************************************************
  89:Generated_Source\PSoC6\pdl\middleware\ble/cy_ble.c **** * Function Name: Cy_BLE_UnregisterHostPMCallbacks
  90:Generated_Source\PSoC6\pdl\middleware\ble/cy_ble.c **** ***************************************************************************//**
  91:Generated_Source\PSoC6\pdl\middleware\ble/cy_ble.c **** *
  92:Generated_Source\PSoC6\pdl\middleware\ble/cy_ble.c **** *  Unregister BLE callback for Deepsleep/Sleep
  93:Generated_Source\PSoC6\pdl\middleware\ble/cy_ble.c **** *
  94:Generated_Source\PSoC6\pdl\middleware\ble/cy_ble.c **** ******************************************************************************/
  95:Generated_Source\PSoC6\pdl\middleware\ble/cy_ble.c **** void Cy_BLE_UnregisterHostPMCallbacks(void)
  96:Generated_Source\PSoC6\pdl\middleware\ble/cy_ble.c **** {
  97:Generated_Source\PSoC6\pdl\middleware\ble/cy_ble.c ****     #if (CY_BLE_USE_DEEP_SLEEP != 0u)
  98:Generated_Source\PSoC6\pdl\middleware\ble/cy_ble.c ****         /* Unregister BLE callback for Deepsleep support */
  99:Generated_Source\PSoC6\pdl\middleware\ble/cy_ble.c ****         (void)Cy_SysPm_UnregisterCallback(&bleDeepSleepCallback);
 100:Generated_Source\PSoC6\pdl\middleware\ble/cy_ble.c **** 
 101:Generated_Source\PSoC6\pdl\middleware\ble/cy_ble.c ****         /* Unregister sleep mode callback only in dual core mode for the host core */
 102:Generated_Source\PSoC6\pdl\middleware\ble/cy_ble.c ****         #if(CY_BLE_STACK_MODE_HOST_IPC)
 103:Generated_Source\PSoC6\pdl\middleware\ble/cy_ble.c ****             /* Unregister BLE callback for Sleep support */
 104:Generated_Source\PSoC6\pdl\middleware\ble/cy_ble.c ****             (void)Cy_SysPm_UnregisterCallback(&bleSleepCallback);
 105:Generated_Source\PSoC6\pdl\middleware\ble/cy_ble.c ****         #endif /* ( CY_BLE_STACK_MODE_HOST_IPC) */
 106:Generated_Source\PSoC6\pdl\middleware\ble/cy_ble.c ****     #endif /* (CY_BLE_USE_DEEP_SLEEP != 0u) */
 107:Generated_Source\PSoC6\pdl\middleware\ble/cy_ble.c **** }
 108:Generated_Source\PSoC6\pdl\middleware\ble/cy_ble.c **** 
 109:Generated_Source\PSoC6\pdl\middleware\ble/cy_ble.c **** /**
 110:Generated_Source\PSoC6\pdl\middleware\ble/cy_ble.c ****  * \addtogroup group_ble_common_api_functions
 111:Generated_Source\PSoC6\pdl\middleware\ble/cy_ble.c ****  * @{
 112:Generated_Source\PSoC6\pdl\middleware\ble/cy_ble.c ****  */
 113:Generated_Source\PSoC6\pdl\middleware\ble/cy_ble.c **** 
 114:Generated_Source\PSoC6\pdl\middleware\ble/cy_ble.c **** /******************************************************************************
 115:Generated_Source\PSoC6\pdl\middleware\ble/cy_ble.c **** * Function Name: Cy_BLE_Init
 116:Generated_Source\PSoC6\pdl\middleware\ble/cy_ble.c **** ***************************************************************************//**
 117:Generated_Source\PSoC6\pdl\middleware\ble/cy_ble.c **** *
 118:Generated_Source\PSoC6\pdl\middleware\ble/cy_ble.c **** *  Initializes the BLE Middleware.
 119:Generated_Source\PSoC6\pdl\middleware\ble/cy_ble.c **** *
 120:Generated_Source\PSoC6\pdl\middleware\ble/cy_ble.c **** *
 121:Generated_Source\PSoC6\pdl\middleware\ble/cy_ble.c **** *  \param config: The configuration structure for the BLE Middleware.
 122:Generated_Source\PSoC6\pdl\middleware\ble/cy_ble.c **** *
 123:Generated_Source\PSoC6\pdl\middleware\ble/cy_ble.c **** * \return
 124:Generated_Source\PSoC6\pdl\middleware\ble/cy_ble.c **** * \ref cy_en_ble_api_result_t : Return value indicates if the function succeeded or
 125:Generated_Source\PSoC6\pdl\middleware\ble/cy_ble.c **** *  failed. The following are possible error codes.
 126:Generated_Source\PSoC6\pdl\middleware\ble/cy_ble.c **** *
 127:Generated_Source\PSoC6\pdl\middleware\ble/cy_ble.c **** *   Error codes                     | Description
 128:Generated_Source\PSoC6\pdl\middleware\ble/cy_ble.c **** *   ------------                    | -----------
 129:Generated_Source\PSoC6\pdl\middleware\ble/cy_ble.c **** *   CY_BLE_SUCCESS                  | The function completed successfully.
 130:Generated_Source\PSoC6\pdl\middleware\ble/cy_ble.c **** *   CY_BLE_ERROR_INVALID_PARAMETER  | On specifying NULL as the input parameter.
 131:Generated_Source\PSoC6\pdl\middleware\ble/cy_ble.c **** *
 132:Generated_Source\PSoC6\pdl\middleware\ble/cy_ble.c **** ******************************************************************************/
 133:Generated_Source\PSoC6\pdl\middleware\ble/cy_ble.c **** cy_en_ble_api_result_t Cy_BLE_Init(cy_stc_ble_config_t *config)
 134:Generated_Source\PSoC6\pdl\middleware\ble/cy_ble.c **** {
 135:Generated_Source\PSoC6\pdl\middleware\ble/cy_ble.c ****     cy_en_ble_api_result_t apiResult = CY_BLE_SUCCESS;
 136:Generated_Source\PSoC6\pdl\middleware\ble/cy_ble.c **** 
 137:Generated_Source\PSoC6\pdl\middleware\ble/cy_ble.c ****     if(config == NULL)
 138:Generated_Source\PSoC6\pdl\middleware\ble/cy_ble.c ****     {
 139:Generated_Source\PSoC6\pdl\middleware\ble/cy_ble.c ****         apiResult = CY_BLE_ERROR_INVALID_PARAMETER;
 140:Generated_Source\PSoC6\pdl\middleware\ble/cy_ble.c ****     }
 141:Generated_Source\PSoC6\pdl\middleware\ble/cy_ble.c ****     else
 142:Generated_Source\PSoC6\pdl\middleware\ble/cy_ble.c ****     {
 143:Generated_Source\PSoC6\pdl\middleware\ble/cy_ble.c ****         /* Register a pointer to the config structure */
 144:Generated_Source\PSoC6\pdl\middleware\ble/cy_ble.c ****         cy_ble_configPtr = config;
ARM GAS  C:\Users\Nazar\AppData\Local\Temp\ccWQ1kO8.s 			page 4


 145:Generated_Source\PSoC6\pdl\middleware\ble/cy_ble.c **** 
 146:Generated_Source\PSoC6\pdl\middleware\ble/cy_ble.c ****     #if (CY_BLE_MODE_PROFILE)
 147:Generated_Source\PSoC6\pdl\middleware\ble/cy_ble.c ****         /* Register a callback function via the config structure */
 148:Generated_Source\PSoC6\pdl\middleware\ble/cy_ble.c ****         if(cy_ble_configPtr->callbackFunc != NULL)
 149:Generated_Source\PSoC6\pdl\middleware\ble/cy_ble.c ****         {
 150:Generated_Source\PSoC6\pdl\middleware\ble/cy_ble.c ****             Cy_BLE_ApplCallback = cy_ble_configPtr->callbackFunc;
 151:Generated_Source\PSoC6\pdl\middleware\ble/cy_ble.c ****         }
 152:Generated_Source\PSoC6\pdl\middleware\ble/cy_ble.c ****         cy_ble_eventHandlerFlag = 0u;
 153:Generated_Source\PSoC6\pdl\middleware\ble/cy_ble.c ****         (void)memset((uint8_t*)&cy_ble_busyStatus, 0, sizeof(cy_ble_busyStatus));
 154:Generated_Source\PSoC6\pdl\middleware\ble/cy_ble.c **** 
 155:Generated_Source\PSoC6\pdl\middleware\ble/cy_ble.c ****         cy_ble_cmdStatus = 0u;
 156:Generated_Source\PSoC6\pdl\middleware\ble/cy_ble.c **** 
 157:Generated_Source\PSoC6\pdl\middleware\ble/cy_ble.c ****         #if (CY_BLE_GATT_ROLE_CLIENT)
 158:Generated_Source\PSoC6\pdl\middleware\ble/cy_ble.c ****         {
 159:Generated_Source\PSoC6\pdl\middleware\ble/cy_ble.c ****             uint32_t idx;
 160:Generated_Source\PSoC6\pdl\middleware\ble/cy_ble.c ****             (void)memset(&cy_ble_serverInfo, 0, sizeof(cy_ble_serverInfo));
 161:Generated_Source\PSoC6\pdl\middleware\ble/cy_ble.c ****             (void)memset(cy_ble_connHandle, -1, sizeof(cy_ble_connHandle));
 162:Generated_Source\PSoC6\pdl\middleware\ble/cy_ble.c ****             (void)memset(&cy_ble_discovery, 0, sizeof(cy_ble_discovery));
 163:Generated_Source\PSoC6\pdl\middleware\ble/cy_ble.c **** 
 164:Generated_Source\PSoC6\pdl\middleware\ble/cy_ble.c ****             /* Update cy_ble_discovery[].connIndex with init values (CY_BLE_INVALID_CONN_HANDLE_VAL
 165:Generated_Source\PSoC6\pdl\middleware\ble/cy_ble.c ****             for(idx = 0u; idx < CY_BLE_GATTC_COUNT; idx++)
 166:Generated_Source\PSoC6\pdl\middleware\ble/cy_ble.c ****             {
 167:Generated_Source\PSoC6\pdl\middleware\ble/cy_ble.c ****                 cy_ble_discovery[idx].connIndex = CY_BLE_INVALID_CONN_HANDLE_VALUE;
 168:Generated_Source\PSoC6\pdl\middleware\ble/cy_ble.c ****             }
 169:Generated_Source\PSoC6\pdl\middleware\ble/cy_ble.c ****         }
 170:Generated_Source\PSoC6\pdl\middleware\ble/cy_ble.c ****         #endif /* CY_BLE_GATT_ROLE_CLIENT */
 171:Generated_Source\PSoC6\pdl\middleware\ble/cy_ble.c **** 
 172:Generated_Source\PSoC6\pdl\middleware\ble/cy_ble.c ****         #if (CY_BLE_GAP_ROLE_PERIPHERAL || CY_BLE_GAP_ROLE_BROADCASTER)
 173:Generated_Source\PSoC6\pdl\middleware\ble/cy_ble.c ****         cy_ble_advertisingIntervalType = CY_BLE_ADVERTISING_FAST;
 174:Generated_Source\PSoC6\pdl\middleware\ble/cy_ble.c ****         #endif /* (CY_BLE_GAP_ROLE_PERIPHERAL || CY_BLE_GAP_ROLE_BROADCASTER)  */
 175:Generated_Source\PSoC6\pdl\middleware\ble/cy_ble.c **** 
 176:Generated_Source\PSoC6\pdl\middleware\ble/cy_ble.c ****         #if (CY_BLE_GAP_ROLE_CENTRAL || CY_BLE_GAP_ROLE_OBSERVER)
 177:Generated_Source\PSoC6\pdl\middleware\ble/cy_ble.c ****         cy_ble_scanningIntervalType = CY_BLE_SCANNING_FAST;
 178:Generated_Source\PSoC6\pdl\middleware\ble/cy_ble.c ****         #endif /* (CY_BLE_GAP_ROLE_CENTRAL || CY_BLE_GAP_ROLE_OBSERVER) */
 179:Generated_Source\PSoC6\pdl\middleware\ble/cy_ble.c **** 
 180:Generated_Source\PSoC6\pdl\middleware\ble/cy_ble.c ****         Cy_BLE_ServiceInit();
 181:Generated_Source\PSoC6\pdl\middleware\ble/cy_ble.c **** 
 182:Generated_Source\PSoC6\pdl\middleware\ble/cy_ble.c ****         #if ((CY_BLE_GAP_ROLE_PERIPHERAL || CY_BLE_GAP_ROLE_CENTRAL) && (CY_BLE_BONDING_REQUIREMENT
 183:Generated_Source\PSoC6\pdl\middleware\ble/cy_ble.c ****         cy_ble_pendingFlashWrite = 0u;
 184:Generated_Source\PSoC6\pdl\middleware\ble/cy_ble.c ****         (void)memset(cy_ble_peerBonding, (int8_t)CY_BLE_GAP_BONDING_NONE, sizeof(cy_ble_peerBonding
 185:Generated_Source\PSoC6\pdl\middleware\ble/cy_ble.c ****         #endif /* (CY_BLE_BONDING_REQUIREMENT == CY_BLE_BONDING_YES) */
 186:Generated_Source\PSoC6\pdl\middleware\ble/cy_ble.c ****     #endif     /* (CY_BLE_MODE_PROFILE) */
 187:Generated_Source\PSoC6\pdl\middleware\ble/cy_ble.c ****     }
 188:Generated_Source\PSoC6\pdl\middleware\ble/cy_ble.c **** 
 189:Generated_Source\PSoC6\pdl\middleware\ble/cy_ble.c ****     return(apiResult);
 190:Generated_Source\PSoC6\pdl\middleware\ble/cy_ble.c **** }
 191:Generated_Source\PSoC6\pdl\middleware\ble/cy_ble.c **** /** @} */
 192:Generated_Source\PSoC6\pdl\middleware\ble/cy_ble.c **** 
 193:Generated_Source\PSoC6\pdl\middleware\ble/cy_ble.c **** /******************************************************************************
 194:Generated_Source\PSoC6\pdl\middleware\ble/cy_ble.c **** * Function Name: Cy_BLE_Enable
 195:Generated_Source\PSoC6\pdl\middleware\ble/cy_ble.c **** ***************************************************************************//**
 196:Generated_Source\PSoC6\pdl\middleware\ble/cy_ble.c **** *
 197:Generated_Source\PSoC6\pdl\middleware\ble/cy_ble.c **** *  Initializes and starts the BLE Stack.
 198:Generated_Source\PSoC6\pdl\middleware\ble/cy_ble.c **** *
 199:Generated_Source\PSoC6\pdl\middleware\ble/cy_ble.c **** *  Calling this function results in generation of a #CY_BLE_EVT_STACK_ON event
 200:Generated_Source\PSoC6\pdl\middleware\ble/cy_ble.c **** *  on successful initialization of the BLE Stack.
 201:Generated_Source\PSoC6\pdl\middleware\ble/cy_ble.c **** *
ARM GAS  C:\Users\Nazar\AppData\Local\Temp\ccWQ1kO8.s 			page 5


 202:Generated_Source\PSoC6\pdl\middleware\ble/cy_ble.c **** *  BLE Stack enables the BLE ECO clock automatically with the default
 203:Generated_Source\PSoC6\pdl\middleware\ble/cy_ble.c **** *  parameters:
 204:Generated_Source\PSoC6\pdl\middleware\ble/cy_ble.c **** *     Parameter            | Value
 205:Generated_Source\PSoC6\pdl\middleware\ble/cy_ble.c **** *     -------------------- | -----------
 206:Generated_Source\PSoC6\pdl\middleware\ble/cy_ble.c **** *     ECO Frequency        | CY_BLE_DEFAULT_ECO_FREQ
 207:Generated_Source\PSoC6\pdl\middleware\ble/cy_ble.c **** *     Divider              | CY_BLE_DEFAULT_ECO_DIV
 208:Generated_Source\PSoC6\pdl\middleware\ble/cy_ble.c **** *     Startup time         | CY_BLE_DEFAULT_OSC_STARTUP_DELAY_LF
 209:Generated_Source\PSoC6\pdl\middleware\ble/cy_ble.c **** *     Load cap             | CY_BLE_DEFAULT_CAP_TRIM_VALUE
 210:Generated_Source\PSoC6\pdl\middleware\ble/cy_ble.c **** *
 211:Generated_Source\PSoC6\pdl\middleware\ble/cy_ble.c **** *  If there is a need to start the BLE with non-default ECO parameters,
 212:Generated_Source\PSoC6\pdl\middleware\ble/cy_ble.c **** *  call the Cy_BLE_EcoStart() function with the custom configuration each
 213:Generated_Source\PSoC6\pdl\middleware\ble/cy_ble.c **** *  time before calling the Cy_BLE_Enable() function.
 214:Generated_Source\PSoC6\pdl\middleware\ble/cy_ble.c **** *
 215:Generated_Source\PSoC6\pdl\middleware\ble/cy_ble.c **** *  This function initializes the BLE Stack which consists of the BLE Stack
 216:Generated_Source\PSoC6\pdl\middleware\ble/cy_ble.c **** *  Manager, BLE Controller, and BLE Host modules. It takes care of initializing
 217:Generated_Source\PSoC6\pdl\middleware\ble/cy_ble.c **** *  the Profile layer, schedulers, Timer and other platform-related resources
 218:Generated_Source\PSoC6\pdl\middleware\ble/cy_ble.c **** *  required for the BLE Middleware. It also registers the callback function for
 219:Generated_Source\PSoC6\pdl\middleware\ble/cy_ble.c **** *  BLE events that will be registered in the BLE stack.
 220:Generated_Source\PSoC6\pdl\middleware\ble/cy_ble.c **** *
 221:Generated_Source\PSoC6\pdl\middleware\ble/cy_ble.c **** *  Note that this function does not reset the BLE Stack.
 222:Generated_Source\PSoC6\pdl\middleware\ble/cy_ble.c **** *
 223:Generated_Source\PSoC6\pdl\middleware\ble/cy_ble.c **** *  For the HCI-Mode of operation, this function will not initialize the BLE Host
 224:Generated_Source\PSoC6\pdl\middleware\ble/cy_ble.c **** *  module.
 225:Generated_Source\PSoC6\pdl\middleware\ble/cy_ble.c **** *
 226:Generated_Source\PSoC6\pdl\middleware\ble/cy_ble.c **** *  Calling this function results in generation of a #CY_BLE_EVT_STACK_ON event
 227:Generated_Source\PSoC6\pdl\middleware\ble/cy_ble.c **** *  on successful initialization of the BLE Stack.
 228:Generated_Source\PSoC6\pdl\middleware\ble/cy_ble.c **** *
 229:Generated_Source\PSoC6\pdl\middleware\ble/cy_ble.c **** *  In the Dual Core mode, this function should be called on both cores in the
 230:Generated_Source\PSoC6\pdl\middleware\ble/cy_ble.c **** *  following sequence:
 231:Generated_Source\PSoC6\pdl\middleware\ble/cy_ble.c **** *   - call this function on CM0+ core to initialize the Controller.
 232:Generated_Source\PSoC6\pdl\middleware\ble/cy_ble.c **** *   - start CM4 core by calling Cy_SysEnableCM4() function.
 233:Generated_Source\PSoC6\pdl\middleware\ble/cy_ble.c **** *   - call this function on CM4 core to initialize the Host and Profiles.
 234:Generated_Source\PSoC6\pdl\middleware\ble/cy_ble.c **** *
 235:Generated_Source\PSoC6\pdl\middleware\ble/cy_ble.c **** *   BLE requires a call to Cy_IPC_SystemSemaInit() and Cy_IPC_SystemPipeInit() functions
 236:Generated_Source\PSoC6\pdl\middleware\ble/cy_ble.c **** *    before use.
 237:Generated_Source\PSoC6\pdl\middleware\ble/cy_ble.c **** *
 238:Generated_Source\PSoC6\pdl\middleware\ble/cy_ble.c **** *    This function is called in the SystemInit() function, for proper flash write
 239:Generated_Source\PSoC6\pdl\middleware\ble/cy_ble.c **** *    and erase operations. If the default startup file is not used, or the function
 240:Generated_Source\PSoC6\pdl\middleware\ble/cy_ble.c **** *    SystemInit() is not called in your project, call the following functions:
 241:Generated_Source\PSoC6\pdl\middleware\ble/cy_ble.c **** *    -# Cy_IPC_SystemSemaInit()
 242:Generated_Source\PSoC6\pdl\middleware\ble/cy_ble.c **** *    -# Cy_IPC_SystemPipeInit()
 243:Generated_Source\PSoC6\pdl\middleware\ble/cy_ble.c **** *
 244:Generated_Source\PSoC6\pdl\middleware\ble/cy_ble.c **** * \return
 245:Generated_Source\PSoC6\pdl\middleware\ble/cy_ble.c **** * \ref cy_en_ble_api_result_t : Return value indicates if the function succeeded
 246:Generated_Source\PSoC6\pdl\middleware\ble/cy_ble.c **** *      or failed. The following are possible error codes.
 247:Generated_Source\PSoC6\pdl\middleware\ble/cy_ble.c **** *
 248:Generated_Source\PSoC6\pdl\middleware\ble/cy_ble.c **** *  <table>
 249:Generated_Source\PSoC6\pdl\middleware\ble/cy_ble.c **** *    <tr>
 250:Generated_Source\PSoC6\pdl\middleware\ble/cy_ble.c **** *      <th>Error codes</th>
 251:Generated_Source\PSoC6\pdl\middleware\ble/cy_ble.c **** *      <th>Description</th>
 252:Generated_Source\PSoC6\pdl\middleware\ble/cy_ble.c **** *    </tr>
 253:Generated_Source\PSoC6\pdl\middleware\ble/cy_ble.c **** *    <tr>
 254:Generated_Source\PSoC6\pdl\middleware\ble/cy_ble.c **** *      <td>CY_BLE_SUCCESS</td>
 255:Generated_Source\PSoC6\pdl\middleware\ble/cy_ble.c **** *      <td>On successful operation.</td>
 256:Generated_Source\PSoC6\pdl\middleware\ble/cy_ble.c **** *    </tr>
 257:Generated_Source\PSoC6\pdl\middleware\ble/cy_ble.c **** *    <tr>
 258:Generated_Source\PSoC6\pdl\middleware\ble/cy_ble.c **** *      <td>CY_BLE_ERROR_REPEATED_ATTEMPTS</td>
ARM GAS  C:\Users\Nazar\AppData\Local\Temp\ccWQ1kO8.s 			page 6


 259:Generated_Source\PSoC6\pdl\middleware\ble/cy_ble.c **** *      <td>On invoking this function more than once without calling
 260:Generated_Source\PSoC6\pdl\middleware\ble/cy_ble.c **** *          Cy_BLE_Disable() function between calls to this function.</td>
 261:Generated_Source\PSoC6\pdl\middleware\ble/cy_ble.c **** *    </tr>
 262:Generated_Source\PSoC6\pdl\middleware\ble/cy_ble.c **** *    <tr>
 263:Generated_Source\PSoC6\pdl\middleware\ble/cy_ble.c **** *      <td>CY_BLE_ERROR_MEMORY_ALLOCATION_FAILED</td>
 264:Generated_Source\PSoC6\pdl\middleware\ble/cy_ble.c **** *      <td>There is insufficient memory available.</td>
 265:Generated_Source\PSoC6\pdl\middleware\ble/cy_ble.c **** *    </tr>
 266:Generated_Source\PSoC6\pdl\middleware\ble/cy_ble.c **** *  </table>
 267:Generated_Source\PSoC6\pdl\middleware\ble/cy_ble.c **** *
 268:Generated_Source\PSoC6\pdl\middleware\ble/cy_ble.c **** ******************************************************************************/
 269:Generated_Source\PSoC6\pdl\middleware\ble/cy_ble.c **** cy_en_ble_api_result_t Cy_BLE_Enable(void)
 270:Generated_Source\PSoC6\pdl\middleware\ble/cy_ble.c **** {
 271:Generated_Source\PSoC6\pdl\middleware\ble/cy_ble.c ****     cy_en_ble_api_result_t apiResult = CY_BLE_SUCCESS;
 272:Generated_Source\PSoC6\pdl\middleware\ble/cy_ble.c **** 
 273:Generated_Source\PSoC6\pdl\middleware\ble/cy_ble.c **** #if (CY_BLE_MODE_PROFILE)
 274:Generated_Source\PSoC6\pdl\middleware\ble/cy_ble.c **** 
 275:Generated_Source\PSoC6\pdl\middleware\ble/cy_ble.c ****     cy_stc_ble_stk_app_data_buff_t cy_ble_stackDataBuff[CY_BLE_STACK_APP_MIN_POOL] =
 276:Generated_Source\PSoC6\pdl\middleware\ble/cy_ble.c ****     {
 277:Generated_Source\PSoC6\pdl\middleware\ble/cy_ble.c ****         { CY_BLE_GATT_MTU_PLUS_L2CAP_MEM_EXT,   CY_BLE_GATT_MTU_BUFF_COUNT              },
 278:Generated_Source\PSoC6\pdl\middleware\ble/cy_ble.c ****         { CY_BLE_L2CAP_PSM_PLUS_L2CAP_MEM_EXT,  CY_BLE_L2CAP_PSM_COUNT                  },
 279:Generated_Source\PSoC6\pdl\middleware\ble/cy_ble.c ****         { CY_BLE_L2CAP_CBFC_PLUS_L2CAP_MEM_EXT, 2u * CY_BLE_L2CAP_LOGICAL_CHANNEL_COUNT },
 280:Generated_Source\PSoC6\pdl\middleware\ble/cy_ble.c ****         { CY_BLE_L2CAP_MTU_PLUS_L2CAP_MEM_EXT,  2u * CY_BLE_L2CAP_LOGICAL_CHANNEL_COUNT },
 281:Generated_Source\PSoC6\pdl\middleware\ble/cy_ble.c ****         { CY_BLE_GATT_DB_ATTR_BUFF_SIZE ,  1u }
 282:Generated_Source\PSoC6\pdl\middleware\ble/cy_ble.c ****     };
 283:Generated_Source\PSoC6\pdl\middleware\ble/cy_ble.c **** #endif  /* (CY_BLE_MODE_PROFILE) */
 284:Generated_Source\PSoC6\pdl\middleware\ble/cy_ble.c **** 
 285:Generated_Source\PSoC6\pdl\middleware\ble/cy_ble.c ****     cy_stc_ble_stack_init_info_t stackInitParam =
 286:Generated_Source\PSoC6\pdl\middleware\ble/cy_ble.c ****     {
 287:Generated_Source\PSoC6\pdl\middleware\ble/cy_ble.c ****     #if (CY_BLE_MODE_PROFILE)
 288:Generated_Source\PSoC6\pdl\middleware\ble/cy_ble.c ****         .CyBleAppCbFunc                      = (cy_ble_app_ev_cb_t)&Cy_BLE_EventHandler,
 289:Generated_Source\PSoC6\pdl\middleware\ble/cy_ble.c ****     #endif /* CY_BLE_MODE_PROFILE */
 290:Generated_Source\PSoC6\pdl\middleware\ble/cy_ble.c ****         .memParam                            =
 291:Generated_Source\PSoC6\pdl\middleware\ble/cy_ble.c ****         {
 292:Generated_Source\PSoC6\pdl\middleware\ble/cy_ble.c ****     #if (CY_BLE_MODE_PROFILE)
 293:Generated_Source\PSoC6\pdl\middleware\ble/cy_ble.c ****             .totalHeapSz                     = (uint16_t)(CY_BLE_STACK_RAM_SIZE - CY_BLE_GATT_PREPA
 294:Generated_Source\PSoC6\pdl\middleware\ble/cy_ble.c ****             .dataBuff                        = cy_ble_stackDataBuff,
 295:Generated_Source\PSoC6\pdl\middleware\ble/cy_ble.c ****             .totalDataBufferPools            = CY_BLE_STACK_APP_MIN_POOL,
 296:Generated_Source\PSoC6\pdl\middleware\ble/cy_ble.c **** 
 297:Generated_Source\PSoC6\pdl\middleware\ble/cy_ble.c ****         #if (CY_BLE_BONDING_REQUIREMENT == CY_BLE_BONDING_YES)
 298:Generated_Source\PSoC6\pdl\middleware\ble/cy_ble.c ****             .bleStackFlashPointer            = (const uint8_t*)cy_ble_configPtr->flashStorage->stac
 299:Generated_Source\PSoC6\pdl\middleware\ble/cy_ble.c ****             .bleStackFlashSize               = CY_BLE_STACK_FLASH_SIZE,
 300:Generated_Source\PSoC6\pdl\middleware\ble/cy_ble.c ****         #endif  /* CY_BLE_BONDING_REQUIREMENT == CY_BLE_BONDING_YES */
 301:Generated_Source\PSoC6\pdl\middleware\ble/cy_ble.c ****     #else
 302:Generated_Source\PSoC6\pdl\middleware\ble/cy_ble.c ****             .totalHeapSz                     = CY_BLE_STACK_RAM_SIZE,
 303:Generated_Source\PSoC6\pdl\middleware\ble/cy_ble.c ****     #endif /* CY_BLE_MODE_PROFILE */
 304:Generated_Source\PSoC6\pdl\middleware\ble/cy_ble.c ****         },
 305:Generated_Source\PSoC6\pdl\middleware\ble/cy_ble.c ****         .stackConfig                         =
 306:Generated_Source\PSoC6\pdl\middleware\ble/cy_ble.c ****         {
 307:Generated_Source\PSoC6\pdl\middleware\ble/cy_ble.c ****             /* Configure DLE */
 308:Generated_Source\PSoC6\pdl\middleware\ble/cy_ble.c ****             .dleConfig.dleMaxTxCapability    = CY_BLE_LL_MAX_TX_PAYLOAD_SIZE,
 309:Generated_Source\PSoC6\pdl\middleware\ble/cy_ble.c ****             .dleConfig.dleMaxRxCapability    = CY_BLE_LL_MAX_RX_PAYLOAD_SIZE,
 310:Generated_Source\PSoC6\pdl\middleware\ble/cy_ble.c ****             .dleConfig.dleNumTxBuffer        = CY_BLE_LL_DEFAULT_NUM_ACL_TX_PACKETS,
 311:Generated_Source\PSoC6\pdl\middleware\ble/cy_ble.c ****             .dleConfig.dleNumRxBuffer        = CY_BLE_LL_DEFAULT_NUM_ACL_RX_PACKETS,
 312:Generated_Source\PSoC6\pdl\middleware\ble/cy_ble.c **** 
 313:Generated_Source\PSoC6\pdl\middleware\ble/cy_ble.c ****         #if (CY_BLE_MODE_PROFILE)
 314:Generated_Source\PSoC6\pdl\middleware\ble/cy_ble.c ****             /* Configure queue */
 315:Generated_Source\PSoC6\pdl\middleware\ble/cy_ble.c ****             .l2capConfig.l2capBufferPerConn  = CY_BLE_L2CAP_Q_DEPTH_PER_CONN,
ARM GAS  C:\Users\Nazar\AppData\Local\Temp\ccWQ1kO8.s 			page 7


 316:Generated_Source\PSoC6\pdl\middleware\ble/cy_ble.c ****         #endif /* (CY_BLE_MODE_PROFILE) */
 317:Generated_Source\PSoC6\pdl\middleware\ble/cy_ble.c **** 
 318:Generated_Source\PSoC6\pdl\middleware\ble/cy_ble.c ****             /* Configure LL Privacy */
 319:Generated_Source\PSoC6\pdl\middleware\ble/cy_ble.c ****             .privacyConfig.resolvingListSize = CY_BLE_MAX_RESOLVABLE_DEVICES,
 320:Generated_Source\PSoC6\pdl\middleware\ble/cy_ble.c **** 
 321:Generated_Source\PSoC6\pdl\middleware\ble/cy_ble.c ****             /* Configure bonded device list */
 322:Generated_Source\PSoC6\pdl\middleware\ble/cy_ble.c ****             .bondListConfig.bondListSize     = CY_BLE_MAX_BONDED_DEVICES,
 323:Generated_Source\PSoC6\pdl\middleware\ble/cy_ble.c **** 
 324:Generated_Source\PSoC6\pdl\middleware\ble/cy_ble.c ****             /* Configure white list */
 325:Generated_Source\PSoC6\pdl\middleware\ble/cy_ble.c ****             .whiteListConfig.whiteListSize   = CY_BLE_MAX_WHITE_LIST_SIZE,
 326:Generated_Source\PSoC6\pdl\middleware\ble/cy_ble.c **** 
 327:Generated_Source\PSoC6\pdl\middleware\ble/cy_ble.c ****             .featureMask                     = (CY_BLE_DLE_FEATURE | CY_BLE_LL_PRIVACY_FEATURE |
 328:Generated_Source\PSoC6\pdl\middleware\ble/cy_ble.c ****                                                 CY_BLE_SECURE_CONN_FEATURE | CY_BLE_PHY_UPDATE_FEAT
 329:Generated_Source\PSoC6\pdl\middleware\ble/cy_ble.c ****                                                 CY_BLE_STORE_BONDLIST_FEATURE | CY_BLE_STORE_RESOLV
 330:Generated_Source\PSoC6\pdl\middleware\ble/cy_ble.c ****                                                 CY_BLE_STORE_WHITELIST_FEATURE | CY_BLE_TX_POWER_CA
 331:Generated_Source\PSoC6\pdl\middleware\ble/cy_ble.c ****             .maxBleConnections               = CY_BLE_CONN_COUNT
 332:Generated_Source\PSoC6\pdl\middleware\ble/cy_ble.c ****         }
 333:Generated_Source\PSoC6\pdl\middleware\ble/cy_ble.c ****     };
 334:Generated_Source\PSoC6\pdl\middleware\ble/cy_ble.c **** 
 335:Generated_Source\PSoC6\pdl\middleware\ble/cy_ble.c **** #if (CY_BLE_USE_DEEP_SLEEP != 0u)
 336:Generated_Source\PSoC6\pdl\middleware\ble/cy_ble.c ****     /* Register BLE callback for Deepsleep support */
 337:Generated_Source\PSoC6\pdl\middleware\ble/cy_ble.c ****     (void)Cy_SysPm_RegisterCallback(&bleDeepSleepCallback);
 338:Generated_Source\PSoC6\pdl\middleware\ble/cy_ble.c **** 
 339:Generated_Source\PSoC6\pdl\middleware\ble/cy_ble.c ****     /* Register Sleep mode callback only in dual core mode for the host core */
 340:Generated_Source\PSoC6\pdl\middleware\ble/cy_ble.c ****     #if(CY_BLE_STACK_MODE_HOST_IPC)
 341:Generated_Source\PSoC6\pdl\middleware\ble/cy_ble.c ****     {
 342:Generated_Source\PSoC6\pdl\middleware\ble/cy_ble.c ****         /* Register BLE callback for Sleep support */
 343:Generated_Source\PSoC6\pdl\middleware\ble/cy_ble.c ****         (void)Cy_SysPm_RegisterCallback(&bleSleepCallback);
 344:Generated_Source\PSoC6\pdl\middleware\ble/cy_ble.c ****     }
 345:Generated_Source\PSoC6\pdl\middleware\ble/cy_ble.c ****     #endif /* (CY_BLE_STACK_MODE_HOST_IPC) */
 346:Generated_Source\PSoC6\pdl\middleware\ble/cy_ble.c **** #endif  /* (CY_BLE_USE_DEEP_SLEEP != 0u) */
 347:Generated_Source\PSoC6\pdl\middleware\ble/cy_ble.c **** 
 348:Generated_Source\PSoC6\pdl\middleware\ble/cy_ble.c **** #if(CY_BLE_SHARING_MODE_EXPORT)
 349:Generated_Source\PSoC6\pdl\middleware\ble/cy_ble.c ****     if(cy_ble_stackMemoryRam == NULL)
 350:Generated_Source\PSoC6\pdl\middleware\ble/cy_ble.c ****     {
 351:Generated_Source\PSoC6\pdl\middleware\ble/cy_ble.c ****         cy_ble_stackMemoryRam = (uint8 *)malloc(CY_BLE_STACK_RAM_SIZE);
 352:Generated_Source\PSoC6\pdl\middleware\ble/cy_ble.c ****         if(cy_ble_stackMemoryRam == NULL)
 353:Generated_Source\PSoC6\pdl\middleware\ble/cy_ble.c ****         {
 354:Generated_Source\PSoC6\pdl\middleware\ble/cy_ble.c ****             apiResult = CY_BLE_ERROR_MEMORY_ALLOCATION_FAILED;
 355:Generated_Source\PSoC6\pdl\middleware\ble/cy_ble.c ****         }
 356:Generated_Source\PSoC6\pdl\middleware\ble/cy_ble.c ****     }
 357:Generated_Source\PSoC6\pdl\middleware\ble/cy_ble.c **** #endif /* CY_BLE_SHARING_MODE_EXPORT */
 358:Generated_Source\PSoC6\pdl\middleware\ble/cy_ble.c **** 
 359:Generated_Source\PSoC6\pdl\middleware\ble/cy_ble.c ****     if(apiResult == CY_BLE_SUCCESS)
 360:Generated_Source\PSoC6\pdl\middleware\ble/cy_ble.c ****     {
 361:Generated_Source\PSoC6\pdl\middleware\ble/cy_ble.c ****     #if (CY_BLE_DLE_FEATURE_ENABLED)
 362:Generated_Source\PSoC6\pdl\middleware\ble/cy_ble.c ****         Cy_BLE_EnableDleFeature();              /* Enable DLE code in the stack */
 363:Generated_Source\PSoC6\pdl\middleware\ble/cy_ble.c ****     #endif /* CY_BLE_DLE_FEATURE_ENABLED */
 364:Generated_Source\PSoC6\pdl\middleware\ble/cy_ble.c **** 
 365:Generated_Source\PSoC6\pdl\middleware\ble/cy_ble.c ****     #if (CY_BLE_LL_PRIVACY_FEATURE_ENABLED)
 366:Generated_Source\PSoC6\pdl\middleware\ble/cy_ble.c ****         Cy_BLE_EnablePrivacyFeature();          /* Enable LL Privacy code in the stack */
 367:Generated_Source\PSoC6\pdl\middleware\ble/cy_ble.c ****     #endif /* CY_BLE_LL_PRIVACY_FEATURE_ENABLED */
 368:Generated_Source\PSoC6\pdl\middleware\ble/cy_ble.c **** 
 369:Generated_Source\PSoC6\pdl\middleware\ble/cy_ble.c ****     #if (CY_BLE_PHY_UPDATE_FEATURE_ENABLED)
 370:Generated_Source\PSoC6\pdl\middleware\ble/cy_ble.c ****         Cy_BLE_EnablePhyUpdateFeature();        /* Enable PHY Update code in the stack */
 371:Generated_Source\PSoC6\pdl\middleware\ble/cy_ble.c ****     #endif /* CY_BLE_PHY_UPDATE_FEATURE_ENABLED */
 372:Generated_Source\PSoC6\pdl\middleware\ble/cy_ble.c **** 
ARM GAS  C:\Users\Nazar\AppData\Local\Temp\ccWQ1kO8.s 			page 8


 373:Generated_Source\PSoC6\pdl\middleware\ble/cy_ble.c ****         apiResult = Cy_BLE_StackSetFeatureConfig(&stackInitParam.stackConfig);
 374:Generated_Source\PSoC6\pdl\middleware\ble/cy_ble.c ****     }
 375:Generated_Source\PSoC6\pdl\middleware\ble/cy_ble.c **** 
 376:Generated_Source\PSoC6\pdl\middleware\ble/cy_ble.c ****     if(apiResult == CY_BLE_SUCCESS)
 377:Generated_Source\PSoC6\pdl\middleware\ble/cy_ble.c ****     {
 378:Generated_Source\PSoC6\pdl\middleware\ble/cy_ble.c ****         stackInitParam.memParam.memoryHeapPtr = cy_ble_stackMemoryRam;
 379:Generated_Source\PSoC6\pdl\middleware\ble/cy_ble.c **** 
 380:Generated_Source\PSoC6\pdl\middleware\ble/cy_ble.c ****         /* Configure parameter for Radio PA calibration */
 381:Generated_Source\PSoC6\pdl\middleware\ble/cy_ble.c ****         if(cy_ble_configPtr->paCalConfig != NULL)
 382:Generated_Source\PSoC6\pdl\middleware\ble/cy_ble.c ****         {
 383:Generated_Source\PSoC6\pdl\middleware\ble/cy_ble.c ****             stackInitParam.stackConfig.paCalConfig = *cy_ble_configPtr->paCalConfig;
 384:Generated_Source\PSoC6\pdl\middleware\ble/cy_ble.c ****         }
 385:Generated_Source\PSoC6\pdl\middleware\ble/cy_ble.c **** 
 386:Generated_Source\PSoC6\pdl\middleware\ble/cy_ble.c ****         /* Initialize the BLE Stack */
 387:Generated_Source\PSoC6\pdl\middleware\ble/cy_ble.c ****         apiResult = Cy_BLE_StackInit(&stackInitParam);
 388:Generated_Source\PSoC6\pdl\middleware\ble/cy_ble.c **** 
 389:Generated_Source\PSoC6\pdl\middleware\ble/cy_ble.c ****     #if (CY_BLE_MODE_PROFILE)
 390:Generated_Source\PSoC6\pdl\middleware\ble/cy_ble.c ****         if(apiResult == CY_BLE_SUCCESS)
 391:Generated_Source\PSoC6\pdl\middleware\ble/cy_ble.c ****         {
 392:Generated_Source\PSoC6\pdl\middleware\ble/cy_ble.c ****             Cy_BLE_SetState(CY_BLE_STATE_INITIALIZING);
 393:Generated_Source\PSoC6\pdl\middleware\ble/cy_ble.c **** 
 394:Generated_Source\PSoC6\pdl\middleware\ble/cy_ble.c ****         #if (CY_BLE_GAP_ROLE_CENTRAL || CY_BLE_GAP_ROLE_PERIPHERAL)
 395:Generated_Source\PSoC6\pdl\middleware\ble/cy_ble.c ****             (void)memset(&cy_ble_connState, 0, sizeof(cy_ble_connState));
 396:Generated_Source\PSoC6\pdl\middleware\ble/cy_ble.c ****         #endif /* (CY_BLE_GAP_ROLE_CENTRAL || CY_BLE_GAP_ROLE_PERIPHERAL) */
 397:Generated_Source\PSoC6\pdl\middleware\ble/cy_ble.c **** 
 398:Generated_Source\PSoC6\pdl\middleware\ble/cy_ble.c ****         #if (CY_BLE_GAP_ROLE_PERIPHERAL || CY_BLE_GAP_ROLE_BROADCASTER)
 399:Generated_Source\PSoC6\pdl\middleware\ble/cy_ble.c ****             Cy_BLE_SetAdvertisementState(CY_BLE_ADV_STATE_STOPPED);
 400:Generated_Source\PSoC6\pdl\middleware\ble/cy_ble.c ****         #endif  /* (CY_BLE_GAP_ROLE_PERIPHERAL || CY_BLE_GAP_ROLE_BROADCASTER) */
 401:Generated_Source\PSoC6\pdl\middleware\ble/cy_ble.c **** 
 402:Generated_Source\PSoC6\pdl\middleware\ble/cy_ble.c ****         #if (CY_BLE_GAP_ROLE_CENTRAL || CY_BLE_GAP_ROLE_OBSERVER)
 403:Generated_Source\PSoC6\pdl\middleware\ble/cy_ble.c ****             Cy_BLE_SetScanState(CY_BLE_SCAN_STATE_STOPPED);
 404:Generated_Source\PSoC6\pdl\middleware\ble/cy_ble.c ****         #endif /* (CY_BLE_GAP_ROLE_CENTRAL || CY_BLE_GAP_ROLE_OBSERVER) */
 405:Generated_Source\PSoC6\pdl\middleware\ble/cy_ble.c **** 
 406:Generated_Source\PSoC6\pdl\middleware\ble/cy_ble.c ****         #if (CY_BLE_GATT_ROLE_SERVER)
 407:Generated_Source\PSoC6\pdl\middleware\ble/cy_ble.c ****             {
 408:Generated_Source\PSoC6\pdl\middleware\ble/cy_ble.c ****                 cy_stc_ble_gatts_db_info_t dbInfoParam =
 409:Generated_Source\PSoC6\pdl\middleware\ble/cy_ble.c ****                 {
 410:Generated_Source\PSoC6\pdl\middleware\ble/cy_ble.c ****                     .gattDbPtr          = (const cy_stc_ble_gatts_db_t*)cy_ble_configPtr->gattDB,
 411:Generated_Source\PSoC6\pdl\middleware\ble/cy_ble.c ****                     .gattDbTotalEntries = cy_ble_configPtr->params->gattDbIndexCount,
 412:Generated_Source\PSoC6\pdl\middleware\ble/cy_ble.c ****                     .gattDbMaxValue     = CY_BLE_GATT_DB_MAX_VALUE_LEN
 413:Generated_Source\PSoC6\pdl\middleware\ble/cy_ble.c ****                 };
 414:Generated_Source\PSoC6\pdl\middleware\ble/cy_ble.c **** 
 415:Generated_Source\PSoC6\pdl\middleware\ble/cy_ble.c ****                 apiResult = Cy_BLE_GATTS_DbRegister(&dbInfoParam);
 416:Generated_Source\PSoC6\pdl\middleware\ble/cy_ble.c ****             }
 417:Generated_Source\PSoC6\pdl\middleware\ble/cy_ble.c ****         #endif /* CY_BLE_GATT_ROLE_SERVER */
 418:Generated_Source\PSoC6\pdl\middleware\ble/cy_ble.c ****         }
 419:Generated_Source\PSoC6\pdl\middleware\ble/cy_ble.c ****         cy_ble_cmdStatus = 0u;
 420:Generated_Source\PSoC6\pdl\middleware\ble/cy_ble.c ****     #endif /* (CY_BLE_MODE_PROFILE) */
 421:Generated_Source\PSoC6\pdl\middleware\ble/cy_ble.c ****     }
 422:Generated_Source\PSoC6\pdl\middleware\ble/cy_ble.c **** 
 423:Generated_Source\PSoC6\pdl\middleware\ble/cy_ble.c ****     return(apiResult);
 424:Generated_Source\PSoC6\pdl\middleware\ble/cy_ble.c **** }
 425:Generated_Source\PSoC6\pdl\middleware\ble/cy_ble.c **** 
 426:Generated_Source\PSoC6\pdl\middleware\ble/cy_ble.c **** 
 427:Generated_Source\PSoC6\pdl\middleware\ble/cy_ble.c **** /******************************************************************************
 428:Generated_Source\PSoC6\pdl\middleware\ble/cy_ble.c **** * Function Name: Cy_BLE_Disable
 429:Generated_Source\PSoC6\pdl\middleware\ble/cy_ble.c **** ***************************************************************************//**
ARM GAS  C:\Users\Nazar\AppData\Local\Temp\ccWQ1kO8.s 			page 9


 430:Generated_Source\PSoC6\pdl\middleware\ble/cy_ble.c **** *
 431:Generated_Source\PSoC6\pdl\middleware\ble/cy_ble.c **** *  This function stops any ongoing operation in the BLE Stack and forces the
 432:Generated_Source\PSoC6\pdl\middleware\ble/cy_ble.c **** *  BLE Stack to shut down.
 433:Generated_Source\PSoC6\pdl\middleware\ble/cy_ble.c **** *
 434:Generated_Source\PSoC6\pdl\middleware\ble/cy_ble.c **** *  Calling this function results in generation of a
 435:Generated_Source\PSoC6\pdl\middleware\ble/cy_ble.c **** *  #CY_BLE_EVT_STACK_SHUTDOWN_COMPLETE event on a successful stack shutdown.
 436:Generated_Source\PSoC6\pdl\middleware\ble/cy_ble.c **** *
 437:Generated_Source\PSoC6\pdl\middleware\ble/cy_ble.c **** *  For HCI mode:
 438:Generated_Source\PSoC6\pdl\middleware\ble/cy_ble.c **** *  This is a blocking function and no event is generated.
 439:Generated_Source\PSoC6\pdl\middleware\ble/cy_ble.c **** *  Only #CY_BLE_SUCCESS will be returned and other error codes are not applicable.
 440:Generated_Source\PSoC6\pdl\middleware\ble/cy_ble.c **** *  UART interface will be stopped and UART data will not be processed by stack
 441:Generated_Source\PSoC6\pdl\middleware\ble/cy_ble.c **** *  until Cy_BLE_Enable() is invoked.
 442:Generated_Source\PSoC6\pdl\middleware\ble/cy_ble.c **** *
 443:Generated_Source\PSoC6\pdl\middleware\ble/cy_ble.c **** * \return
 444:Generated_Source\PSoC6\pdl\middleware\ble/cy_ble.c **** * \ref cy_en_ble_api_result_t : Return value indicates if the function succeeded or
 445:Generated_Source\PSoC6\pdl\middleware\ble/cy_ble.c **** *  failed. The following are possible error codes.
 446:Generated_Source\PSoC6\pdl\middleware\ble/cy_ble.c **** *
 447:Generated_Source\PSoC6\pdl\middleware\ble/cy_ble.c **** *  <table>
 448:Generated_Source\PSoC6\pdl\middleware\ble/cy_ble.c **** *    <tr>
 449:Generated_Source\PSoC6\pdl\middleware\ble/cy_ble.c **** *      <th>Error codes</th>
 450:Generated_Source\PSoC6\pdl\middleware\ble/cy_ble.c **** *      <th>Description</th>
 451:Generated_Source\PSoC6\pdl\middleware\ble/cy_ble.c **** *    </tr>
 452:Generated_Source\PSoC6\pdl\middleware\ble/cy_ble.c **** *    <tr>
 453:Generated_Source\PSoC6\pdl\middleware\ble/cy_ble.c **** *      <td>CY_BLE_SUCCESS</td>
 454:Generated_Source\PSoC6\pdl\middleware\ble/cy_ble.c **** *      <td>On successful operation.</td>
 455:Generated_Source\PSoC6\pdl\middleware\ble/cy_ble.c **** *    </tr>
 456:Generated_Source\PSoC6\pdl\middleware\ble/cy_ble.c **** *    <tr>
 457:Generated_Source\PSoC6\pdl\middleware\ble/cy_ble.c **** *      <td>CY_BLE_ERROR_INVALID_OPERATION</td>
 458:Generated_Source\PSoC6\pdl\middleware\ble/cy_ble.c **** *      <td>On calling Cy_BLE_Disable before calling Cy_BLE_Enable()
 459:Generated_Source\PSoC6\pdl\middleware\ble/cy_ble.c **** *          or on Controller core.</td>
 460:Generated_Source\PSoC6\pdl\middleware\ble/cy_ble.c **** *    </tr>
 461:Generated_Source\PSoC6\pdl\middleware\ble/cy_ble.c **** *  </table>
 462:Generated_Source\PSoC6\pdl\middleware\ble/cy_ble.c **** *
 463:Generated_Source\PSoC6\pdl\middleware\ble/cy_ble.c **** ******************************************************************************/
 464:Generated_Source\PSoC6\pdl\middleware\ble/cy_ble.c **** cy_en_ble_api_result_t Cy_BLE_Disable(void)
 465:Generated_Source\PSoC6\pdl\middleware\ble/cy_ble.c **** {
 466:Generated_Source\PSoC6\pdl\middleware\ble/cy_ble.c ****     cy_en_ble_api_result_t apiResult;
 467:Generated_Source\PSoC6\pdl\middleware\ble/cy_ble.c **** 
 468:Generated_Source\PSoC6\pdl\middleware\ble/cy_ble.c **** #if (CY_BLE_STACK_IPC_CONTR_CORE)
 469:Generated_Source\PSoC6\pdl\middleware\ble/cy_ble.c ****     /* To stop Controller call Cy_BLE_Disable() function on Host core */
 470:Generated_Source\PSoC6\pdl\middleware\ble/cy_ble.c ****     apiResult = CY_BLE_SUCCESS;
 471:Generated_Source\PSoC6\pdl\middleware\ble/cy_ble.c **** #else
 472:Generated_Source\PSoC6\pdl\middleware\ble/cy_ble.c ****     /* Stops all ongoing activities */
 473:Generated_Source\PSoC6\pdl\middleware\ble/cy_ble.c ****     apiResult = Cy_BLE_StackShutdown();
 474:Generated_Source\PSoC6\pdl\middleware\ble/cy_ble.c **** 
 475:Generated_Source\PSoC6\pdl\middleware\ble/cy_ble.c ****     #if (CY_BLE_SHARING_MODE_EXPORT)
 476:Generated_Source\PSoC6\pdl\middleware\ble/cy_ble.c ****     if(cy_ble_stackMemoryRam != NULL)
 477:Generated_Source\PSoC6\pdl\middleware\ble/cy_ble.c ****     {
 478:Generated_Source\PSoC6\pdl\middleware\ble/cy_ble.c ****         free(cy_ble_stackMemoryRam);
 479:Generated_Source\PSoC6\pdl\middleware\ble/cy_ble.c ****     }
 480:Generated_Source\PSoC6\pdl\middleware\ble/cy_ble.c ****     #endif /* CY_BLE_SHARING_MODE_EXPORT */
 481:Generated_Source\PSoC6\pdl\middleware\ble/cy_ble.c **** #endif     /* CY_BLE_STACK_IPC_CONTR_CORE */
 482:Generated_Source\PSoC6\pdl\middleware\ble/cy_ble.c **** 
 483:Generated_Source\PSoC6\pdl\middleware\ble/cy_ble.c ****     return(apiResult);
 484:Generated_Source\PSoC6\pdl\middleware\ble/cy_ble.c **** }
 485:Generated_Source\PSoC6\pdl\middleware\ble/cy_ble.c **** 
 486:Generated_Source\PSoC6\pdl\middleware\ble/cy_ble.c **** 
ARM GAS  C:\Users\Nazar\AppData\Local\Temp\ccWQ1kO8.s 			page 10


 487:Generated_Source\PSoC6\pdl\middleware\ble/cy_ble.c **** /*******************************************************************************
 488:Generated_Source\PSoC6\pdl\middleware\ble/cy_ble.c **** * Function Name: Cy_BLE_ConfigureExtPA
 489:Generated_Source\PSoC6\pdl\middleware\ble/cy_ble.c **** ****************************************************************************//**
 490:Generated_Source\PSoC6\pdl\middleware\ble/cy_ble.c **** *
 491:Generated_Source\PSoC6\pdl\middleware\ble/cy_ble.c **** *  This function controls the external Power Amplifier and Low Noise Amplifier
 492:Generated_Source\PSoC6\pdl\middleware\ble/cy_ble.c **** *  outputs.
 493:Generated_Source\PSoC6\pdl\middleware\ble/cy_ble.c **** *
 494:Generated_Source\PSoC6\pdl\middleware\ble/cy_ble.c **** * \param controlValue Enables and controls polarity of the outputs.
 495:Generated_Source\PSoC6\pdl\middleware\ble/cy_ble.c **** *   To control external PA and LNA, the following mask defines are used:
 496:Generated_Source\PSoC6\pdl\middleware\ble/cy_ble.c **** *
 497:Generated_Source\PSoC6\pdl\middleware\ble/cy_ble.c **** *   - BLE_BLESS_EXT_PA_LNA_CTRL_ENABLE_EXT_PA_LNA_Msk - When set to 1, enables
 498:Generated_Source\PSoC6\pdl\middleware\ble/cy_ble.c **** *       the external PA & LNA and BLESS power profile for energy profiler
 499:Generated_Source\PSoC6\pdl\middleware\ble/cy_ble.c **** *   - BLE_BLESS_EXT_PA_LNA_CTRL_CHIP_EN_POL_Msk - Controls the polarity of the
 500:Generated_Source\PSoC6\pdl\middleware\ble/cy_ble.c **** *       chip-enable control signal:
 501:Generated_Source\PSoC6\pdl\middleware\ble/cy_ble.c **** *       * 0 - High enable, Low disable
 502:Generated_Source\PSoC6\pdl\middleware\ble/cy_ble.c **** *       * 1 - Low enable, High disable, Incorrect power profile
 503:Generated_Source\PSoC6\pdl\middleware\ble/cy_ble.c **** *   - BLE_BLESS_EXT_PA_LNA_CTRL_PA_CTRL_POL_Msk - Controls the polarity of the PA
 504:Generated_Source\PSoC6\pdl\middleware\ble/cy_ble.c **** *       control signal:
 505:Generated_Source\PSoC6\pdl\middleware\ble/cy_ble.c **** *       * 0 - High enable, Low disable
 506:Generated_Source\PSoC6\pdl\middleware\ble/cy_ble.c **** *       * 1 - Low enable, High disable, Incorrect power profile
 507:Generated_Source\PSoC6\pdl\middleware\ble/cy_ble.c **** *   - BLE_BLESS_EXT_PA_LNA_CTRL_LNA_CTRL_POL_Msk - Controls the polarity of the LNA
 508:Generated_Source\PSoC6\pdl\middleware\ble/cy_ble.c **** *       control signal:
 509:Generated_Source\PSoC6\pdl\middleware\ble/cy_ble.c **** *       * 0 - High enable, Low disable
 510:Generated_Source\PSoC6\pdl\middleware\ble/cy_ble.c **** *       * 1 - Low enable, High disable, Incorrect power profile
 511:Generated_Source\PSoC6\pdl\middleware\ble/cy_ble.c **** *   - BLE_BLESS_EXT_PA_LNA_CTRL_OUT_EN_DRIVE_VAL_Msk  - Configures the drive value
 512:Generated_Source\PSoC6\pdl\middleware\ble/cy_ble.c **** *       on the output enables of PA, LNA and CHI_EN signals
 513:Generated_Source\PSoC6\pdl\middleware\ble/cy_ble.c **** *       * 0 - drive 0 on the output enable signals
 514:Generated_Source\PSoC6\pdl\middleware\ble/cy_ble.c **** *       * 1 - drive 1 on the output enable signals
 515:Generated_Source\PSoC6\pdl\middleware\ble/cy_ble.c **** *
 516:Generated_Source\PSoC6\pdl\middleware\ble/cy_ble.c **** * \return
 517:Generated_Source\PSoC6\pdl\middleware\ble/cy_ble.c **** *  None
 518:Generated_Source\PSoC6\pdl\middleware\ble/cy_ble.c **** *
 519:Generated_Source\PSoC6\pdl\middleware\ble/cy_ble.c **** *******************************************************************************/
 520:Generated_Source\PSoC6\pdl\middleware\ble/cy_ble.c **** void Cy_BLE_ConfigureExtPA(uint32_t controlValue)
 521:Generated_Source\PSoC6\pdl\middleware\ble/cy_ble.c **** {
 522:Generated_Source\PSoC6\pdl\middleware\ble/cy_ble.c ****     BLE->BLESS.EXT_PA_LNA_CTRL = controlValue;
 523:Generated_Source\PSoC6\pdl\middleware\ble/cy_ble.c **** }
 524:Generated_Source\PSoC6\pdl\middleware\ble/cy_ble.c **** 
 525:Generated_Source\PSoC6\pdl\middleware\ble/cy_ble.c **** #if (CY_BLE_INTR_NOTIFY_FEATURE_ENABLED) && (CY_BLE_HOST_CORE)
 526:Generated_Source\PSoC6\pdl\middleware\ble/cy_ble.c **** /*******************************************************************************
 527:Generated_Source\PSoC6\pdl\middleware\ble/cy_ble.c **** * Function Name: Cy_BLE_RegisterInterruptCallback
 528:Generated_Source\PSoC6\pdl\middleware\ble/cy_ble.c **** ****************************************************************************//**
 529:Generated_Source\PSoC6\pdl\middleware\ble/cy_ble.c **** *
 530:Generated_Source\PSoC6\pdl\middleware\ble/cy_ble.c **** *  This function registers a callback to expose BLE interrupt notifications to an
 531:Generated_Source\PSoC6\pdl\middleware\ble/cy_ble.c **** *  application that indicates a different link layer and radio state transition
 532:Generated_Source\PSoC6\pdl\middleware\ble/cy_ble.c **** *  to the user from the BLESS interrupt context. This callback is triggered at
 533:Generated_Source\PSoC6\pdl\middleware\ble/cy_ble.c **** *  the beginning of a received BLESS interrupt (based on the registered
 534:Generated_Source\PSoC6\pdl\middleware\ble/cy_ble.c **** *  interrupt mask).
 535:Generated_Source\PSoC6\pdl\middleware\ble/cy_ble.c **** *
 536:Generated_Source\PSoC6\pdl\middleware\ble/cy_ble.c **** *  An application can use an interrupt callback to know when:
 537:Generated_Source\PSoC6\pdl\middleware\ble/cy_ble.c **** *  * the RF activity is about to begin/end;
 538:Generated_Source\PSoC6\pdl\middleware\ble/cy_ble.c **** *  * the BLE device changes its state from advertising to connected;
 539:Generated_Source\PSoC6\pdl\middleware\ble/cy_ble.c **** *  * BLESS transits between active and low-power modes.
 540:Generated_Source\PSoC6\pdl\middleware\ble/cy_ble.c **** *
 541:Generated_Source\PSoC6\pdl\middleware\ble/cy_ble.c **** *  These BLESS real-time states can be used to synchronize
 542:Generated_Source\PSoC6\pdl\middleware\ble/cy_ble.c **** *  an application with the BLESS or prevent radio interference with other
 543:Generated_Source\PSoC6\pdl\middleware\ble/cy_ble.c **** *  peripherals, etc.
ARM GAS  C:\Users\Nazar\AppData\Local\Temp\ccWQ1kO8.s 			page 11


 544:Generated_Source\PSoC6\pdl\middleware\ble/cy_ble.c **** *
 545:Generated_Source\PSoC6\pdl\middleware\ble/cy_ble.c **** *  BLE interrupt notifications feature enables via define in cy_ble_config.h:
 546:Generated_Source\PSoC6\pdl\middleware\ble/cy_ble.c **** *  \code
 547:Generated_Source\PSoC6\pdl\middleware\ble/cy_ble.c **** *  #define CY_BLE_INTR_NOTIFY_FEATURE_ENABLE       (1u)
 548:Generated_Source\PSoC6\pdl\middleware\ble/cy_ble.c **** *  \endcode
 549:Generated_Source\PSoC6\pdl\middleware\ble/cy_ble.c **** *
 550:Generated_Source\PSoC6\pdl\middleware\ble/cy_ble.c **** *  BLE Dual mode requires an additional define IPC channel and IPC Interrupt
 551:Generated_Source\PSoC6\pdl\middleware\ble/cy_ble.c **** *  structure to send notifications from the controller core to host core.
 552:Generated_Source\PSoC6\pdl\middleware\ble/cy_ble.c **** *  Use the following defines:
 553:Generated_Source\PSoC6\pdl\middleware\ble/cy_ble.c **** *  \code
 554:Generated_Source\PSoC6\pdl\middleware\ble/cy_ble.c **** *  #define CY_BLE_INTR_NOTIFY_IPC_CHAN             (9..15)
 555:Generated_Source\PSoC6\pdl\middleware\ble/cy_ble.c **** *  #define CY_BLE_INTR_NOTIFY_IPC_INTR             (9..15)
 556:Generated_Source\PSoC6\pdl\middleware\ble/cy_ble.c **** *  #define CY_BLE_INTR_NOTIFY_IPC_INTR_PRIOR       (0..7)
 557:Generated_Source\PSoC6\pdl\middleware\ble/cy_ble.c **** *  \endcode
 558:Generated_Source\PSoC6\pdl\middleware\ble/cy_ble.c **** *
 559:Generated_Source\PSoC6\pdl\middleware\ble/cy_ble.c **** *  \param intrMask
 560:Generated_Source\PSoC6\pdl\middleware\ble/cy_ble.c **** *  All interrupts masks are specified in the #cy_en_ble_interrupt_callback_feature_t
 561:Generated_Source\PSoC6\pdl\middleware\ble/cy_ble.c **** *  enumeration.
 562:Generated_Source\PSoC6\pdl\middleware\ble/cy_ble.c **** *
 563:Generated_Source\PSoC6\pdl\middleware\ble/cy_ble.c **** *  \param CallBack
 564:Generated_Source\PSoC6\pdl\middleware\ble/cy_ble.c **** *  The pointer to an application notify callback.
 565:Generated_Source\PSoC6\pdl\middleware\ble/cy_ble.c **** *
 566:Generated_Source\PSoC6\pdl\middleware\ble/cy_ble.c **** * \return
 567:Generated_Source\PSoC6\pdl\middleware\ble/cy_ble.c **** * \ref cy_en_ble_api_result_t : The return value indicates if the function succeeded or
 568:Generated_Source\PSoC6\pdl\middleware\ble/cy_ble.c **** *  failed. The possible error codes:
 569:Generated_Source\PSoC6\pdl\middleware\ble/cy_ble.c **** *
 570:Generated_Source\PSoC6\pdl\middleware\ble/cy_ble.c **** *    Errors codes                   | Description
 571:Generated_Source\PSoC6\pdl\middleware\ble/cy_ble.c **** *    ------------                   | -----------
 572:Generated_Source\PSoC6\pdl\middleware\ble/cy_ble.c **** *    CY_BLE_SUCCESS                 | The callback is registered successfully.
 573:Generated_Source\PSoC6\pdl\middleware\ble/cy_ble.c **** *    CY_BLE_ERROR_INVALID_PARAMETER | Validation of the input parameters failed.
 574:Generated_Source\PSoC6\pdl\middleware\ble/cy_ble.c **** *    CY_BLE_ERROR_INVALID_OPERATION | The IPC channel is busy (Dual core mode only).
 575:Generated_Source\PSoC6\pdl\middleware\ble/cy_ble.c **** *
 576:Generated_Source\PSoC6\pdl\middleware\ble/cy_ble.c **** *******************************************************************************/
 577:Generated_Source\PSoC6\pdl\middleware\ble/cy_ble.c **** cy_en_ble_api_result_t Cy_BLE_RegisterInterruptCallback(uint32_t intrMask, cy_ble_intr_callback_t C
 578:Generated_Source\PSoC6\pdl\middleware\ble/cy_ble.c **** {
 579:Generated_Source\PSoC6\pdl\middleware\ble/cy_ble.c ****     cy_en_ble_api_result_t apiResult = CY_BLE_SUCCESS;
 580:Generated_Source\PSoC6\pdl\middleware\ble/cy_ble.c **** 
 581:Generated_Source\PSoC6\pdl\middleware\ble/cy_ble.c ****     if(CallBack != NULL)
 582:Generated_Source\PSoC6\pdl\middleware\ble/cy_ble.c ****     {
 583:Generated_Source\PSoC6\pdl\middleware\ble/cy_ble.c ****         /* Store the application callback and interrupt mask */
 584:Generated_Source\PSoC6\pdl\middleware\ble/cy_ble.c ****         Cy_BLE_InterruptCallback = CallBack;
 585:Generated_Source\PSoC6\pdl\middleware\ble/cy_ble.c ****         intrNotify.mask = intrMask;
 586:Generated_Source\PSoC6\pdl\middleware\ble/cy_ble.c **** 
 587:Generated_Source\PSoC6\pdl\middleware\ble/cy_ble.c ****         /* Set up the IPC for Dual Stack mode */
 588:Generated_Source\PSoC6\pdl\middleware\ble/cy_ble.c ****         #if(CY_BLE_STACK_MODE_HOST_IPC)
 589:Generated_Source\PSoC6\pdl\middleware\ble/cy_ble.c ****         {
 590:Generated_Source\PSoC6\pdl\middleware\ble/cy_ble.c ****             if(!intrNotify.configFlag)
 591:Generated_Source\PSoC6\pdl\middleware\ble/cy_ble.c ****             {
 592:Generated_Source\PSoC6\pdl\middleware\ble/cy_ble.c ****                 uint32_t rTimeout = 2000u; /* us */
 593:Generated_Source\PSoC6\pdl\middleware\ble/cy_ble.c ****                 cy_en_ipc_pipe_status_t ipcStatus;
 594:Generated_Source\PSoC6\pdl\middleware\ble/cy_ble.c ****                 cy_stc_sysint_t intrConfig =
 595:Generated_Source\PSoC6\pdl\middleware\ble/cy_ble.c ****                 {
 596:Generated_Source\PSoC6\pdl\middleware\ble/cy_ble.c ****                     .intrPriority = (uint32_t)CY_BLE_INTR_NOTIFY_IPC_INTR_PRIOR,
 597:Generated_Source\PSoC6\pdl\middleware\ble/cy_ble.c ****                     .intrSrc      = (IRQn_Type)CY_IPC_INTR_NUM_TO_VECT((int32_t)CY_BLE_INTR_NOTIFY_
 598:Generated_Source\PSoC6\pdl\middleware\ble/cy_ble.c ****                 };
 599:Generated_Source\PSoC6\pdl\middleware\ble/cy_ble.c **** 
 600:Generated_Source\PSoC6\pdl\middleware\ble/cy_ble.c ****                 /* Initialize the interrupt controller for CM4 and IPC Interrupt */
ARM GAS  C:\Users\Nazar\AppData\Local\Temp\ccWQ1kO8.s 			page 12


 601:Generated_Source\PSoC6\pdl\middleware\ble/cy_ble.c ****                 (void)Cy_SysInt_Init(&intrConfig, &Cy_BLE_HAL_IntrNotifyIpcHandler);
 602:Generated_Source\PSoC6\pdl\middleware\ble/cy_ble.c ****                 NVIC_EnableIRQ(intrConfig.intrSrc);
 603:Generated_Source\PSoC6\pdl\middleware\ble/cy_ble.c **** 
 604:Generated_Source\PSoC6\pdl\middleware\ble/cy_ble.c ****                 /* Do not bring up an IPC release interrupt here, only set up a notify interrupt */
 605:Generated_Source\PSoC6\pdl\middleware\ble/cy_ble.c ****                 Cy_IPC_Drv_SetInterruptMask(Cy_IPC_Drv_GetIntrBaseAddr(CY_BLE_INTR_NOTIFY_IPC_INTR)
 606:Generated_Source\PSoC6\pdl\middleware\ble/cy_ble.c ****                                             CY_IPC_NO_NOTIFICATION, (1uL << CY_BLE_INTR_NOTIFY_IPC_
 607:Generated_Source\PSoC6\pdl\middleware\ble/cy_ble.c **** 
 608:Generated_Source\PSoC6\pdl\middleware\ble/cy_ble.c ****                 /*
 609:Generated_Source\PSoC6\pdl\middleware\ble/cy_ble.c ****                  * Send the address of the intrNotify structure to the controller core via CyPipe
 610:Generated_Source\PSoC6\pdl\middleware\ble/cy_ble.c ****                  * The IPC Pipe can be busy, then try sending a message during 2 ms.
 611:Generated_Source\PSoC6\pdl\middleware\ble/cy_ble.c ****                  */
 612:Generated_Source\PSoC6\pdl\middleware\ble/cy_ble.c ****                 do
 613:Generated_Source\PSoC6\pdl\middleware\ble/cy_ble.c ****                 {
 614:Generated_Source\PSoC6\pdl\middleware\ble/cy_ble.c ****                     ipcStatus = Cy_IPC_Pipe_SendMessage(CY_BLE_IPC_CONTROLLER_ADDR, CY_BLE_IPC_HOST
 615:Generated_Source\PSoC6\pdl\middleware\ble/cy_ble.c ****                                                         (void *)&intrNotify, NULL);
 616:Generated_Source\PSoC6\pdl\middleware\ble/cy_ble.c ****                     Cy_SysLib_DelayUs(1u);
 617:Generated_Source\PSoC6\pdl\middleware\ble/cy_ble.c ****                     rTimeout--;
 618:Generated_Source\PSoC6\pdl\middleware\ble/cy_ble.c ****                 }while((ipcStatus != CY_IPC_PIPE_SUCCESS) && (rTimeout != 0u));
 619:Generated_Source\PSoC6\pdl\middleware\ble/cy_ble.c **** 
 620:Generated_Source\PSoC6\pdl\middleware\ble/cy_ble.c ****                 if(ipcStatus != CY_IPC_PIPE_SUCCESS)
 621:Generated_Source\PSoC6\pdl\middleware\ble/cy_ble.c ****                 {
 622:Generated_Source\PSoC6\pdl\middleware\ble/cy_ble.c ****                     apiResult = CY_BLE_ERROR_INVALID_OPERATION;
 623:Generated_Source\PSoC6\pdl\middleware\ble/cy_ble.c ****                 }
 624:Generated_Source\PSoC6\pdl\middleware\ble/cy_ble.c ****             }
 625:Generated_Source\PSoC6\pdl\middleware\ble/cy_ble.c ****         }
 626:Generated_Source\PSoC6\pdl\middleware\ble/cy_ble.c ****         #else
 627:Generated_Source\PSoC6\pdl\middleware\ble/cy_ble.c ****             intrNotifyPtr = &intrNotify;
 628:Generated_Source\PSoC6\pdl\middleware\ble/cy_ble.c ****         #endif /* CY_BLE_STACK_MODE_HOST_IPC */
 629:Generated_Source\PSoC6\pdl\middleware\ble/cy_ble.c **** 
 630:Generated_Source\PSoC6\pdl\middleware\ble/cy_ble.c ****     }
 631:Generated_Source\PSoC6\pdl\middleware\ble/cy_ble.c ****     else
 632:Generated_Source\PSoC6\pdl\middleware\ble/cy_ble.c ****     {
 633:Generated_Source\PSoC6\pdl\middleware\ble/cy_ble.c ****         apiResult = CY_BLE_ERROR_INVALID_PARAMETER;
 634:Generated_Source\PSoC6\pdl\middleware\ble/cy_ble.c ****     }
 635:Generated_Source\PSoC6\pdl\middleware\ble/cy_ble.c ****     return apiResult;
 636:Generated_Source\PSoC6\pdl\middleware\ble/cy_ble.c **** }
 637:Generated_Source\PSoC6\pdl\middleware\ble/cy_ble.c **** 
 638:Generated_Source\PSoC6\pdl\middleware\ble/cy_ble.c **** 
 639:Generated_Source\PSoC6\pdl\middleware\ble/cy_ble.c **** /*******************************************************************************
 640:Generated_Source\PSoC6\pdl\middleware\ble/cy_ble.c **** * Function Name: Cy_BLE_UnRegisterInterruptCallback
 641:Generated_Source\PSoC6\pdl\middleware\ble/cy_ble.c **** ****************************************************************************//**
 642:Generated_Source\PSoC6\pdl\middleware\ble/cy_ble.c **** *
 643:Generated_Source\PSoC6\pdl\middleware\ble/cy_ble.c **** *  This function un-registers callback which exposed BLE interrupt
 644:Generated_Source\PSoC6\pdl\middleware\ble/cy_ble.c **** *  notifications to the application.
 645:Generated_Source\PSoC6\pdl\middleware\ble/cy_ble.c **** *
 646:Generated_Source\PSoC6\pdl\middleware\ble/cy_ble.c **** * \return
 647:Generated_Source\PSoC6\pdl\middleware\ble/cy_ble.c **** * \ref cy_en_ble_api_result_t : Return value indicates if the function succeeded or
 648:Generated_Source\PSoC6\pdl\middleware\ble/cy_ble.c **** *  failed. The following are possible error codes.
 649:Generated_Source\PSoC6\pdl\middleware\ble/cy_ble.c **** *
 650:Generated_Source\PSoC6\pdl\middleware\ble/cy_ble.c **** *    Errors codes                   | Description
 651:Generated_Source\PSoC6\pdl\middleware\ble/cy_ble.c **** *    ------------                   | -----------
 652:Generated_Source\PSoC6\pdl\middleware\ble/cy_ble.c **** *    CY_BLE_SUCCESS                 | The callback is registered successfully.
 653:Generated_Source\PSoC6\pdl\middleware\ble/cy_ble.c **** *    CY_BLE_ERROR_INVALID_OPERATION | The IPC channel is busy (Dual core mode only).
 654:Generated_Source\PSoC6\pdl\middleware\ble/cy_ble.c **** *
 655:Generated_Source\PSoC6\pdl\middleware\ble/cy_ble.c **** *******************************************************************************/
 656:Generated_Source\PSoC6\pdl\middleware\ble/cy_ble.c **** cy_en_ble_api_result_t Cy_BLE_UnRegisterInterruptCallback(void)
 657:Generated_Source\PSoC6\pdl\middleware\ble/cy_ble.c **** {
ARM GAS  C:\Users\Nazar\AppData\Local\Temp\ccWQ1kO8.s 			page 13


 658:Generated_Source\PSoC6\pdl\middleware\ble/cy_ble.c ****     cy_en_ble_api_result_t apiResult = CY_BLE_SUCCESS;
 659:Generated_Source\PSoC6\pdl\middleware\ble/cy_ble.c ****     if(Cy_BLE_InterruptCallback != NULL)
 660:Generated_Source\PSoC6\pdl\middleware\ble/cy_ble.c ****     {
 661:Generated_Source\PSoC6\pdl\middleware\ble/cy_ble.c ****         /* Clean interrupt mask */
 662:Generated_Source\PSoC6\pdl\middleware\ble/cy_ble.c ****         apiResult = Cy_BLE_RegisterInterruptCallback((uint32_t)CY_BLE_INTR_CALLBACK_NONE,
 663:Generated_Source\PSoC6\pdl\middleware\ble/cy_ble.c ****                                                      Cy_BLE_InterruptCallback);
 664:Generated_Source\PSoC6\pdl\middleware\ble/cy_ble.c ****         if(apiResult == CY_BLE_SUCCESS)
 665:Generated_Source\PSoC6\pdl\middleware\ble/cy_ble.c ****         {
 666:Generated_Source\PSoC6\pdl\middleware\ble/cy_ble.c ****             /* Clean callback pointer */
 667:Generated_Source\PSoC6\pdl\middleware\ble/cy_ble.c ****             Cy_BLE_InterruptCallback = NULL;
 668:Generated_Source\PSoC6\pdl\middleware\ble/cy_ble.c ****         }
 669:Generated_Source\PSoC6\pdl\middleware\ble/cy_ble.c ****     }
 670:Generated_Source\PSoC6\pdl\middleware\ble/cy_ble.c ****     return(apiResult);
 671:Generated_Source\PSoC6\pdl\middleware\ble/cy_ble.c **** }
 672:Generated_Source\PSoC6\pdl\middleware\ble/cy_ble.c **** 
 673:Generated_Source\PSoC6\pdl\middleware\ble/cy_ble.c **** #endif /* (CY_BLE_INTR_NOTIFY_FEATURE_ENABLED) && (CY_BLE_HOST_CORE) */
 674:Generated_Source\PSoC6\pdl\middleware\ble/cy_ble.c **** 
 675:Generated_Source\PSoC6\pdl\middleware\ble/cy_ble.c **** 
 676:Generated_Source\PSoC6\pdl\middleware\ble/cy_ble.c **** #if (CY_BLE_MODE_PROFILE)
 677:Generated_Source\PSoC6\pdl\middleware\ble/cy_ble.c **** 
 678:Generated_Source\PSoC6\pdl\middleware\ble/cy_ble.c **** /*******************************************************************************
 679:Generated_Source\PSoC6\pdl\middleware\ble/cy_ble.c **** * Function Name: Cy_BLE_RegisterAppHostCallback
 680:Generated_Source\PSoC6\pdl\middleware\ble/cy_ble.c **** ****************************************************************************//**
 681:Generated_Source\PSoC6\pdl\middleware\ble/cy_ble.c **** *
 682:Generated_Source\PSoC6\pdl\middleware\ble/cy_ble.c **** * This function registers an application Host callback (BLE RTOS hook).
 683:Generated_Source\PSoC6\pdl\middleware\ble/cy_ble.c **** * The user can trigger an RTOS BLE task if the application Host callback was
 684:Generated_Source\PSoC6\pdl\middleware\ble/cy_ble.c **** * called.
 685:Generated_Source\PSoC6\pdl\middleware\ble/cy_ble.c **** *
 686:Generated_Source\PSoC6\pdl\middleware\ble/cy_ble.c **** * Theory of operation:
 687:Generated_Source\PSoC6\pdl\middleware\ble/cy_ble.c **** * The BLE Middleware triggers this callback when the BLE Stack controller needs
 688:Generated_Source\PSoC6\pdl\middleware\ble/cy_ble.c **** * to process pending Stack events (by calling Cy_BLE_ProcessEvents()). This
 689:Generated_Source\PSoC6\pdl\middleware\ble/cy_ble.c **** * callback executes from within an ISR and must be very short.
 690:Generated_Source\PSoC6\pdl\middleware\ble/cy_ble.c **** *
 691:Generated_Source\PSoC6\pdl\middleware\ble/cy_ble.c **** * \note The application Host callback is called from the context of a high-
 692:Generated_Source\PSoC6\pdl\middleware\ble/cy_ble.c **** * priority ISR. Some RTOS (e.g. FreeRTOS) have restrictions on calling the RTOS
 693:Generated_Source\PSoC6\pdl\middleware\ble/cy_ble.c **** * functions from a high-priority ISR. The user application is responsible for
 694:Generated_Source\PSoC6\pdl\middleware\ble/cy_ble.c **** * integration of the BLE RTOS hook and RTOS functions and must insure that RTOS
 695:Generated_Source\PSoC6\pdl\middleware\ble/cy_ble.c **** * allows to call RTOS API from BLE interrupt context.
 696:Generated_Source\PSoC6\pdl\middleware\ble/cy_ble.c **** * If direct call is forbidden one of the possible solutions is to trig a
 697:Generated_Source\PSoC6\pdl\middleware\ble/cy_ble.c **** * low-priority interrupt from the application Host callback and then call the
 698:Generated_Source\PSoC6\pdl\middleware\ble/cy_ble.c **** * RTOS functions from a low-priority interrupt. For details refer to specific
 699:Generated_Source\PSoC6\pdl\middleware\ble/cy_ble.c **** * RTOS documentation.
 700:Generated_Source\PSoC6\pdl\middleware\ble/cy_ble.c **** *
 701:Generated_Source\PSoC6\pdl\middleware\ble/cy_ble.c **** * \param CallBack
 702:Generated_Source\PSoC6\pdl\middleware\ble/cy_ble.c **** * The pointer to the application Host callback.
 703:Generated_Source\PSoC6\pdl\middleware\ble/cy_ble.c **** *
 704:Generated_Source\PSoC6\pdl\middleware\ble/cy_ble.c **** * \return
 705:Generated_Source\PSoC6\pdl\middleware\ble/cy_ble.c **** *  Error Codes                        | Description
 706:Generated_Source\PSoC6\pdl\middleware\ble/cy_ble.c **** *  ------------                       | -----------
 707:Generated_Source\PSoC6\pdl\middleware\ble/cy_ble.c **** *   CY_BLE_SUCCESS                    | The callback was registered successfully.
 708:Generated_Source\PSoC6\pdl\middleware\ble/cy_ble.c **** *   CY_BLE_ERROR_INVALID_PARAMETER    | On specifying NULL as the input parameter.
 709:Generated_Source\PSoC6\pdl\middleware\ble/cy_ble.c **** *
 710:Generated_Source\PSoC6\pdl\middleware\ble/cy_ble.c **** *******************************************************************************/
 711:Generated_Source\PSoC6\pdl\middleware\ble/cy_ble.c **** cy_en_ble_api_result_t Cy_BLE_RegisterAppHostCallback(cy_ble_app_notify_callback_t CallBack)
 712:Generated_Source\PSoC6\pdl\middleware\ble/cy_ble.c **** {
 713:Generated_Source\PSoC6\pdl\middleware\ble/cy_ble.c ****     cy_en_ble_api_result_t apiResult = CY_BLE_SUCCESS;
 714:Generated_Source\PSoC6\pdl\middleware\ble/cy_ble.c **** 
ARM GAS  C:\Users\Nazar\AppData\Local\Temp\ccWQ1kO8.s 			page 14


 715:Generated_Source\PSoC6\pdl\middleware\ble/cy_ble.c ****     if(CallBack != NULL)
 716:Generated_Source\PSoC6\pdl\middleware\ble/cy_ble.c ****     {
 717:Generated_Source\PSoC6\pdl\middleware\ble/cy_ble.c ****         Cy_BLE_HostRegisteredCallback = CallBack;
 718:Generated_Source\PSoC6\pdl\middleware\ble/cy_ble.c ****     }
 719:Generated_Source\PSoC6\pdl\middleware\ble/cy_ble.c ****     else
 720:Generated_Source\PSoC6\pdl\middleware\ble/cy_ble.c ****     {
 721:Generated_Source\PSoC6\pdl\middleware\ble/cy_ble.c ****         apiResult = CY_BLE_ERROR_INVALID_PARAMETER;
 722:Generated_Source\PSoC6\pdl\middleware\ble/cy_ble.c ****     }
 723:Generated_Source\PSoC6\pdl\middleware\ble/cy_ble.c ****     return apiResult;
 724:Generated_Source\PSoC6\pdl\middleware\ble/cy_ble.c **** }
 725:Generated_Source\PSoC6\pdl\middleware\ble/cy_ble.c **** 
 726:Generated_Source\PSoC6\pdl\middleware\ble/cy_ble.c **** /*******************************************************************************
 727:Generated_Source\PSoC6\pdl\middleware\ble/cy_ble.c **** * Function Name: Cy_BLE_UnRegisterAppHostCallback
 728:Generated_Source\PSoC6\pdl\middleware\ble/cy_ble.c **** ****************************************************************************//**
 729:Generated_Source\PSoC6\pdl\middleware\ble/cy_ble.c **** *
 730:Generated_Source\PSoC6\pdl\middleware\ble/cy_ble.c **** * This function un-registers an application Host callback (BLE RTOS hook).
 731:Generated_Source\PSoC6\pdl\middleware\ble/cy_ble.c **** *
 732:Generated_Source\PSoC6\pdl\middleware\ble/cy_ble.c **** *******************************************************************************/
 733:Generated_Source\PSoC6\pdl\middleware\ble/cy_ble.c **** void Cy_BLE_UnRegisterAppHostCallback(void)
 734:Generated_Source\PSoC6\pdl\middleware\ble/cy_ble.c **** {
 735:Generated_Source\PSoC6\pdl\middleware\ble/cy_ble.c ****     Cy_BLE_HostRegisteredCallback = NULL;
 736:Generated_Source\PSoC6\pdl\middleware\ble/cy_ble.c **** }
 737:Generated_Source\PSoC6\pdl\middleware\ble/cy_ble.c **** #endif /* (CY_BLE_MODE_PROFILE) */
 738:Generated_Source\PSoC6\pdl\middleware\ble/cy_ble.c **** 
 739:Generated_Source\PSoC6\pdl\middleware\ble/cy_ble.c **** 
 740:Generated_Source\PSoC6\pdl\middleware\ble/cy_ble.c **** #if (CY_BLE_USE_DEEP_SLEEP != 0u)
 741:Generated_Source\PSoC6\pdl\middleware\ble/cy_ble.c **** /*******************************************************************************
 742:Generated_Source\PSoC6\pdl\middleware\ble/cy_ble.c **** * Function Name: Cy_BLE_DeepSleepCallback
 743:Generated_Source\PSoC6\pdl\middleware\ble/cy_ble.c **** ****************************************************************************//**
 744:Generated_Source\PSoC6\pdl\middleware\ble/cy_ble.c **** *
 745:Generated_Source\PSoC6\pdl\middleware\ble/cy_ble.c **** * This function requests the BLE Stack to put Bluetooth Low Energy Sub-System
 746:Generated_Source\PSoC6\pdl\middleware\ble/cy_ble.c **** * (BLESS) to DeepSleep mode.
 747:Generated_Source\PSoC6\pdl\middleware\ble/cy_ble.c **** *
 748:Generated_Source\PSoC6\pdl\middleware\ble/cy_ble.c **** * It is registered to the system power mode by Cy_SysPm_RegisterCallback()
 749:Generated_Source\PSoC6\pdl\middleware\ble/cy_ble.c **** * function with CY_SYSPM_DEEPSLEEP type. After registration it is called by
 750:Generated_Source\PSoC6\pdl\middleware\ble/cy_ble.c **** * Cy_SysPm_DeepSleep() function prior entering the core into the Deep Sleep
 751:Generated_Source\PSoC6\pdl\middleware\ble/cy_ble.c **** * power mode.
 752:Generated_Source\PSoC6\pdl\middleware\ble/cy_ble.c **** *
 753:Generated_Source\PSoC6\pdl\middleware\ble/cy_ble.c **** * When it is called with the enMode parameter set to CY_SYSPM_CHECK_READY,
 754:Generated_Source\PSoC6\pdl\middleware\ble/cy_ble.c **** * function enters BLESS to CY_BLE_BLESS_DEEPSLEEP mode. It also checks the
 755:Generated_Source\PSoC6\pdl\middleware\ble/cy_ble.c **** * BLE Subsystem's current operational mode. When the
 756:Generated_Source\PSoC6\pdl\middleware\ble/cy_ble.c **** * Cy_BLE_StackGetBleSsState() function returns CY_BLE_BLESS_STATE_ECO_ON or
 757:Generated_Source\PSoC6\pdl\middleware\ble/cy_ble.c **** * CY_BLE_BLESS_STATE_DEEPSLEEP state, this function returns CY_SYSPM_PASS and
 758:Generated_Source\PSoC6\pdl\middleware\ble/cy_ble.c **** * allows to put the core into the Deep Sleep power mode.
 759:Generated_Source\PSoC6\pdl\middleware\ble/cy_ble.c **** * At all other times, the function tries to enter core into sleep mode.
 760:Generated_Source\PSoC6\pdl\middleware\ble/cy_ble.c **** *
 761:Generated_Source\PSoC6\pdl\middleware\ble/cy_ble.c **** * This function is available only when BLE low power mode is enabled in the
 762:Generated_Source\PSoC6\pdl\middleware\ble/cy_ble.c **** * Advanced tab of customizer.
 763:Generated_Source\PSoC6\pdl\middleware\ble/cy_ble.c **** *
 764:Generated_Source\PSoC6\pdl\middleware\ble/cy_ble.c **** * \param
 765:Generated_Source\PSoC6\pdl\middleware\ble/cy_ble.c **** * callbackParams  pointer to the structure with the syspm callback parameters
 766:Generated_Source\PSoC6\pdl\middleware\ble/cy_ble.c **** *                 callbackParams->mode - the callback mode, see description
 767:Generated_Source\PSoC6\pdl\middleware\ble/cy_ble.c **** *                 of the cy_en_syspm_callback_mode_t type.
 768:Generated_Source\PSoC6\pdl\middleware\ble/cy_ble.c **** *
 769:Generated_Source\PSoC6\pdl\middleware\ble/cy_ble.c **** * \return
 770:Generated_Source\PSoC6\pdl\middleware\ble/cy_ble.c **** * * CY_SYSPM_SUCCESS  - Entered and exited from DeepSleep
 771:Generated_Source\PSoC6\pdl\middleware\ble/cy_ble.c **** * * CY_SYSPM_FAIL     - DeepSleep not entered.
ARM GAS  C:\Users\Nazar\AppData\Local\Temp\ccWQ1kO8.s 			page 15


 772:Generated_Source\PSoC6\pdl\middleware\ble/cy_ble.c **** *
 773:Generated_Source\PSoC6\pdl\middleware\ble/cy_ble.c **** *******************************************************************************/
 774:Generated_Source\PSoC6\pdl\middleware\ble/cy_ble.c **** #if (CY_SYSPM_DRV_VERSION_MAJOR < 4)
 775:Generated_Source\PSoC6\pdl\middleware\ble/cy_ble.c **** cy_en_syspm_status_t Cy_BLE_DeepSleepCallback(cy_stc_syspm_callback_params_t *callbackParams)
 776:Generated_Source\PSoC6\pdl\middleware\ble/cy_ble.c **** #else
 777:Generated_Source\PSoC6\pdl\middleware\ble/cy_ble.c **** cy_en_syspm_status_t Cy_BLE_DeepSleepCallback(cy_stc_syspm_callback_params_t *callbackParams,
 778:Generated_Source\PSoC6\pdl\middleware\ble/cy_ble.c ****                                               cy_en_syspm_callback_mode_t mode)
 779:Generated_Source\PSoC6\pdl\middleware\ble/cy_ble.c **** #endif /* (CY_SYSPM_DRV_VERSION_MAJOR < 4) */
 780:Generated_Source\PSoC6\pdl\middleware\ble/cy_ble.c **** 
 781:Generated_Source\PSoC6\pdl\middleware\ble/cy_ble.c **** {
  28              		.loc 1 781 0
  29              		.cfi_startproc
  30              		@ args = 0, pretend = 0, frame = 0
  31              		@ frame_needed = 0, uses_anonymous_args = 0
  32              	.LVL0:
  33 0000 70B5     		push	{r4, r5, r6, lr}
  34              		.cfi_def_cfa_offset 16
  35              		.cfi_offset 4, -16
  36              		.cfi_offset 5, -12
  37              		.cfi_offset 6, -8
  38              		.cfi_offset 14, -4
 782:Generated_Source\PSoC6\pdl\middleware\ble/cy_ble.c ****     cy_en_syspm_status_t retVal;
 783:Generated_Source\PSoC6\pdl\middleware\ble/cy_ble.c ****     static uint32_t interruptState = 0u;
 784:Generated_Source\PSoC6\pdl\middleware\ble/cy_ble.c ****     cy_en_ble_bless_state_t blessState;
 785:Generated_Source\PSoC6\pdl\middleware\ble/cy_ble.c **** 
 786:Generated_Source\PSoC6\pdl\middleware\ble/cy_ble.c ****     /* Local variable to store the status of BLESS Hardware block */
 787:Generated_Source\PSoC6\pdl\middleware\ble/cy_ble.c ****     cy_en_ble_lp_mode_t sleepMode;
 788:Generated_Source\PSoC6\pdl\middleware\ble/cy_ble.c **** 
 789:Generated_Source\PSoC6\pdl\middleware\ble/cy_ble.c **** #if (CY_SYSPM_DRV_VERSION_MAJOR < 4)
 790:Generated_Source\PSoC6\pdl\middleware\ble/cy_ble.c ****     switch(callbackParams->mode)
 791:Generated_Source\PSoC6\pdl\middleware\ble/cy_ble.c **** #else
 792:Generated_Source\PSoC6\pdl\middleware\ble/cy_ble.c ****     switch(mode)
  39              		.loc 1 792 0
  40 0002 0129     		cmp	r1, #1
  41 0004 02D0     		beq	.L3
  42 0006 0829     		cmp	r1, #8
  43 0008 44D0     		beq	.L4
  44 000a 49E0     		b	.L17
  45              	.L3:
 793:Generated_Source\PSoC6\pdl\middleware\ble/cy_ble.c **** #endif /* (CY_SYSPM_DRV_VERSION_MAJOR < 4) */
 794:Generated_Source\PSoC6\pdl\middleware\ble/cy_ble.c ****     {
 795:Generated_Source\PSoC6\pdl\middleware\ble/cy_ble.c ****         case (CY_SYSPM_CHECK_READY):
 796:Generated_Source\PSoC6\pdl\middleware\ble/cy_ble.c ****         #if (CY_BLE_MODE_PROFILE)
 797:Generated_Source\PSoC6\pdl\middleware\ble/cy_ble.c ****             if(Cy_BLE_GetState() == CY_BLE_STATE_INITIALIZING)
  46              		.loc 1 797 0
  47 000c 294B     		ldr	r3, .L18
  48 000e 1B78     		ldrb	r3, [r3]
  49 0010 012B     		cmp	r3, #1
  50 0012 47D0     		beq	.L9
 798:Generated_Source\PSoC6\pdl\middleware\ble/cy_ble.c ****             {
 799:Generated_Source\PSoC6\pdl\middleware\ble/cy_ble.c ****                 retVal = CY_SYSPM_FAIL;
 800:Generated_Source\PSoC6\pdl\middleware\ble/cy_ble.c ****             }
 801:Generated_Source\PSoC6\pdl\middleware\ble/cy_ble.c ****             else
 802:Generated_Source\PSoC6\pdl\middleware\ble/cy_ble.c ****         #endif  /*(CY_BLE_MODE_PROFILE) */
 803:Generated_Source\PSoC6\pdl\middleware\ble/cy_ble.c **** 
 804:Generated_Source\PSoC6\pdl\middleware\ble/cy_ble.c ****             if(Cy_IPC_Sema_Status(CY_BLE_SEMA) == CY_IPC_SEMA_STATUS_LOCKED)
  51              		.loc 1 804 0
ARM GAS  C:\Users\Nazar\AppData\Local\Temp\ccWQ1kO8.s 			page 16


  52 0014 0320     		movs	r0, #3
  53              	.LVL1:
  54 0016 FFF7FEFF 		bl	Cy_IPC_Sema_Status
  55              	.LVL2:
  56 001a 274B     		ldr	r3, .L18+4
  57 001c 9842     		cmp	r0, r3
  58 001e 43D0     		beq	.L10
 805:Generated_Source\PSoC6\pdl\middleware\ble/cy_ble.c ****             {
 806:Generated_Source\PSoC6\pdl\middleware\ble/cy_ble.c ****                 /* System do not enter deepsleep if BLE Host start write operation */
 807:Generated_Source\PSoC6\pdl\middleware\ble/cy_ble.c ****                 retVal = CY_SYSPM_FAIL;
 808:Generated_Source\PSoC6\pdl\middleware\ble/cy_ble.c ****             }
 809:Generated_Source\PSoC6\pdl\middleware\ble/cy_ble.c ****             else
 810:Generated_Source\PSoC6\pdl\middleware\ble/cy_ble.c **** 
 811:Generated_Source\PSoC6\pdl\middleware\ble/cy_ble.c ****         #if(CY_BLE_STACK_CONTR_CORE)
 812:Generated_Source\PSoC6\pdl\middleware\ble/cy_ble.c ****             if (Cy_BLE_HAL_IsEcoCpuClockSrc() == 1u)
  59              		.loc 1 812 0
  60 0020 FFF7FEFF 		bl	Cy_BLE_HAL_IsEcoCpuClockSrc
  61              	.LVL3:
  62 0024 0128     		cmp	r0, #1
  63 0026 41D0     		beq	.L11
  64              	.LBB5:
 813:Generated_Source\PSoC6\pdl\middleware\ble/cy_ble.c ****             {
 814:Generated_Source\PSoC6\pdl\middleware\ble/cy_ble.c ****                 /* System never enters deepsleep if BLE ECO is CPU source */
 815:Generated_Source\PSoC6\pdl\middleware\ble/cy_ble.c ****                 retVal = CY_SYSPM_FAIL;
 816:Generated_Source\PSoC6\pdl\middleware\ble/cy_ble.c ****             }
 817:Generated_Source\PSoC6\pdl\middleware\ble/cy_ble.c ****             else
 818:Generated_Source\PSoC6\pdl\middleware\ble/cy_ble.c ****         #endif /* (CY_BLE_STACK_CONTR_CORE) */
 819:Generated_Source\PSoC6\pdl\middleware\ble/cy_ble.c ****             {
 820:Generated_Source\PSoC6\pdl\middleware\ble/cy_ble.c ****         #if(!CY_BLE_STACK_MODE_HOST_IPC)
 821:Generated_Source\PSoC6\pdl\middleware\ble/cy_ble.c ****                 cy_en_ble_api_result_t retIsControllerActive;
 822:Generated_Source\PSoC6\pdl\middleware\ble/cy_ble.c ****         #endif /* !CY_BLE_STACK_MODE_HOST_IPC */
 823:Generated_Source\PSoC6\pdl\middleware\ble/cy_ble.c **** 
 824:Generated_Source\PSoC6\pdl\middleware\ble/cy_ble.c ****         #if(CY_BLE_STACK_MODE_HOST_IPC)
 825:Generated_Source\PSoC6\pdl\middleware\ble/cy_ble.c ****                 /* Disable global interrupt to prevent changes from any other interrupt ISR */
 826:Generated_Source\PSoC6\pdl\middleware\ble/cy_ble.c ****                 interruptState = Cy_SysLib_EnterCriticalSection();
 827:Generated_Source\PSoC6\pdl\middleware\ble/cy_ble.c ****         #endif /* CY_BLE_STACK_MODE_HOST_IPC */
 828:Generated_Source\PSoC6\pdl\middleware\ble/cy_ble.c **** 
 829:Generated_Source\PSoC6\pdl\middleware\ble/cy_ble.c ****                 /* Put BLESS into Deep Sleep and check the return status */
 830:Generated_Source\PSoC6\pdl\middleware\ble/cy_ble.c ****                 sleepMode = Cy_BLE_StackEnterLPM(CY_BLE_BLESS_DEEPSLEEP);
  65              		.loc 1 830 0
  66 0028 0220     		movs	r0, #2
  67 002a FFF7FEFF 		bl	Cy_BLE_StackEnterLPM
  68              	.LVL4:
  69 002e 0500     		movs	r5, r0
  70              	.LVL5:
 831:Generated_Source\PSoC6\pdl\middleware\ble/cy_ble.c **** 
 832:Generated_Source\PSoC6\pdl\middleware\ble/cy_ble.c ****         #if(!CY_BLE_STACK_MODE_HOST_IPC)
 833:Generated_Source\PSoC6\pdl\middleware\ble/cy_ble.c ****                 /* Disable global interrupt to prevent changes from any other interrupt ISR */
 834:Generated_Source\PSoC6\pdl\middleware\ble/cy_ble.c ****                 interruptState = Cy_SysLib_EnterCriticalSection();
  71              		.loc 1 834 0
  72 0030 FFF7FEFF 		bl	Cy_SysLib_EnterCriticalSection
  73              	.LVL6:
  74 0034 214B     		ldr	r3, .L18+8
  75 0036 1860     		str	r0, [r3]
 835:Generated_Source\PSoC6\pdl\middleware\ble/cy_ble.c ****         #endif /* !CY_BLE_STACK_MODE_HOST_IPC */
 836:Generated_Source\PSoC6\pdl\middleware\ble/cy_ble.c **** 
 837:Generated_Source\PSoC6\pdl\middleware\ble/cy_ble.c ****                 /* Check the Status of BLESS */
ARM GAS  C:\Users\Nazar\AppData\Local\Temp\ccWQ1kO8.s 			page 17


 838:Generated_Source\PSoC6\pdl\middleware\ble/cy_ble.c ****                 blessState = Cy_BLE_StackGetBleSsState();
  76              		.loc 1 838 0
  77 0038 FFF7FEFF 		bl	Cy_BLE_StackGetBleSsState
  78              	.LVL7:
  79 003c 0400     		movs	r4, r0
  80              	.LVL8:
 839:Generated_Source\PSoC6\pdl\middleware\ble/cy_ble.c **** 
 840:Generated_Source\PSoC6\pdl\middleware\ble/cy_ble.c ****                 #if(!CY_BLE_STACK_MODE_HOST_IPC)
 841:Generated_Source\PSoC6\pdl\middleware\ble/cy_ble.c ****                 if(blessState == CY_BLE_BLESS_STATE_STOPPED)
  81              		.loc 1 841 0
  82 003e 0628     		cmp	r0, #6
  83 0040 17D0     		beq	.L12
 842:Generated_Source\PSoC6\pdl\middleware\ble/cy_ble.c ****                 {
 843:Generated_Source\PSoC6\pdl\middleware\ble/cy_ble.c ****                     retVal = CY_SYSPM_SUCCESS;
 844:Generated_Source\PSoC6\pdl\middleware\ble/cy_ble.c ****                 }
 845:Generated_Source\PSoC6\pdl\middleware\ble/cy_ble.c ****                 else
 846:Generated_Source\PSoC6\pdl\middleware\ble/cy_ble.c ****                 #endif /* (!CY_BLE_STACK_MODE_HOST_IPC)*/
 847:Generated_Source\PSoC6\pdl\middleware\ble/cy_ble.c ****                 if(sleepMode == CY_BLE_BLESS_DEEPSLEEP)
  84              		.loc 1 847 0
  85 0042 022D     		cmp	r5, #2
  86 0044 0AD1     		bne	.L6
 848:Generated_Source\PSoC6\pdl\middleware\ble/cy_ble.c ****                 {
 849:Generated_Source\PSoC6\pdl\middleware\ble/cy_ble.c **** 
 850:Generated_Source\PSoC6\pdl\middleware\ble/cy_ble.c ****                     #if(!CY_BLE_STACK_MODE_HOST_IPC)
 851:Generated_Source\PSoC6\pdl\middleware\ble/cy_ble.c ****                     retIsControllerActive = Cy_BLE_IsControllerActive(CY_BLE_CONTROLLER_SLEEP_MODE_
  87              		.loc 1 851 0
  88 0046 0220     		movs	r0, #2
  89              	.LVL9:
  90 0048 FFF7FEFF 		bl	Cy_BLE_IsControllerActive
  91              	.LVL10:
 852:Generated_Source\PSoC6\pdl\middleware\ble/cy_ble.c ****                     #endif /* !CY_BLE_STACK_MODE_HOST_IPC */
 853:Generated_Source\PSoC6\pdl\middleware\ble/cy_ble.c **** 
 854:Generated_Source\PSoC6\pdl\middleware\ble/cy_ble.c ****                     if(((blessState == CY_BLE_BLESS_STATE_ECO_ON) || (blessState == CY_BLE_BLESS_ST
  92              		.loc 1 854 0
  93 004c 032C     		cmp	r4, #3
  94 004e 01D0     		beq	.L7
  95              		.loc 1 854 0 is_stmt 0 discriminator 1
  96 0050 052C     		cmp	r4, #5
  97 0052 10D1     		bne	.L13
  98              	.L7:
 855:Generated_Source\PSoC6\pdl\middleware\ble/cy_ble.c ****                     #if(!CY_BLE_STACK_MODE_HOST_IPC)
 856:Generated_Source\PSoC6\pdl\middleware\ble/cy_ble.c ****                         && (retIsControllerActive == CY_BLE_SUCCESS)
  99              		.loc 1 856 0 is_stmt 1
 100 0054 0028     		cmp	r0, #0
 101 0056 10D0     		beq	.L14
 857:Generated_Source\PSoC6\pdl\middleware\ble/cy_ble.c ****                     #endif /* !CY_BLE_STACK_MODE_HOST_IPC */
 858:Generated_Source\PSoC6\pdl\middleware\ble/cy_ble.c ****                         )
 859:Generated_Source\PSoC6\pdl\middleware\ble/cy_ble.c ****                     {
 860:Generated_Source\PSoC6\pdl\middleware\ble/cy_ble.c ****                         /* Enter device deep sleep */
 861:Generated_Source\PSoC6\pdl\middleware\ble/cy_ble.c ****                         retVal = CY_SYSPM_SUCCESS;
 862:Generated_Source\PSoC6\pdl\middleware\ble/cy_ble.c ****                     }
 863:Generated_Source\PSoC6\pdl\middleware\ble/cy_ble.c ****                     else
 864:Generated_Source\PSoC6\pdl\middleware\ble/cy_ble.c ****                     {
 865:Generated_Source\PSoC6\pdl\middleware\ble/cy_ble.c ****                         /* The BLESS hardware block cannot go to Deep Sleep, try sleep mode */
 866:Generated_Source\PSoC6\pdl\middleware\ble/cy_ble.c ****                         retVal = CY_SYSPM_FAIL;
 102              		.loc 1 866 0
 103 0058 194C     		ldr	r4, .L18+12
ARM GAS  C:\Users\Nazar\AppData\Local\Temp\ccWQ1kO8.s 			page 18


 104              	.LVL11:
 105 005a 13E0     		b	.L5
 106              	.LVL12:
 107              	.L6:
 867:Generated_Source\PSoC6\pdl\middleware\ble/cy_ble.c ****                     }
 868:Generated_Source\PSoC6\pdl\middleware\ble/cy_ble.c ****                 }
 869:Generated_Source\PSoC6\pdl\middleware\ble/cy_ble.c ****                 else
 870:Generated_Source\PSoC6\pdl\middleware\ble/cy_ble.c ****                 {
 871:Generated_Source\PSoC6\pdl\middleware\ble/cy_ble.c ****                 #if(!CY_BLE_STACK_MODE_HOST_IPC)
 872:Generated_Source\PSoC6\pdl\middleware\ble/cy_ble.c ****                     retIsControllerActive = Cy_BLE_IsControllerActive(CY_BLE_CONTROLLER_SLEEP_MODE_
 108              		.loc 1 872 0
 109 005c 0120     		movs	r0, #1
 110              	.LVL13:
 111 005e FFF7FEFF 		bl	Cy_BLE_IsControllerActive
 112              	.LVL14:
 873:Generated_Source\PSoC6\pdl\middleware\ble/cy_ble.c **** 
 874:Generated_Source\PSoC6\pdl\middleware\ble/cy_ble.c ****                     if((blessState != CY_BLE_BLESS_STATE_EVENT_CLOSE) &&
 113              		.loc 1 874 0
 114 0062 022C     		cmp	r4, #2
 115 0064 0BD0     		beq	.L15
 116              		.loc 1 874 0 is_stmt 0 discriminator 1
 117 0066 0028     		cmp	r0, #0
 118 0068 0BD1     		bne	.L16
 875:Generated_Source\PSoC6\pdl\middleware\ble/cy_ble.c ****                        (retIsControllerActive == CY_BLE_SUCCESS))
 876:Generated_Source\PSoC6\pdl\middleware\ble/cy_ble.c ****                     {
 877:Generated_Source\PSoC6\pdl\middleware\ble/cy_ble.c ****                         /* If the BLESS hardware block cannot go to Deep Sleep and BLE Event has no
 878:Generated_Source\PSoC6\pdl\middleware\ble/cy_ble.c ****                          * closed yet, then place CPU to Sleep */
 879:Generated_Source\PSoC6\pdl\middleware\ble/cy_ble.c ****                         (void)Cy_SysPm_Sleep(CY_SYSPM_WAIT_FOR_INTERRUPT);
 119              		.loc 1 879 0 is_stmt 1
 120 006a FFF7FEFF 		bl	Cy_SysPm_CpuEnterSleep
 121              	.LVL15:
 880:Generated_Source\PSoC6\pdl\middleware\ble/cy_ble.c ****                     }
 881:Generated_Source\PSoC6\pdl\middleware\ble/cy_ble.c ****                 #endif /* !CY_BLE_STACK_MODE_HOST_IPC */
 882:Generated_Source\PSoC6\pdl\middleware\ble/cy_ble.c ****                     retVal = CY_SYSPM_FAIL;
 122              		.loc 1 882 0
 123 006e 144C     		ldr	r4, .L18+12
 124              	.LVL16:
 125 0070 08E0     		b	.L5
 126              	.LVL17:
 127              	.L12:
 843:Generated_Source\PSoC6\pdl\middleware\ble/cy_ble.c ****                 }
 128              		.loc 1 843 0
 129 0072 0024     		movs	r4, #0
 130 0074 06E0     		b	.L5
 131              	.LVL18:
 132              	.L13:
 866:Generated_Source\PSoC6\pdl\middleware\ble/cy_ble.c ****                     }
 133              		.loc 1 866 0
 134 0076 124C     		ldr	r4, .L18+12
 135              	.LVL19:
 136 0078 04E0     		b	.L5
 137              	.LVL20:
 138              	.L14:
 861:Generated_Source\PSoC6\pdl\middleware\ble/cy_ble.c ****                     }
 139              		.loc 1 861 0
 140 007a 0024     		movs	r4, #0
 141              	.LVL21:
ARM GAS  C:\Users\Nazar\AppData\Local\Temp\ccWQ1kO8.s 			page 19


 142 007c 02E0     		b	.L5
 143              	.LVL22:
 144              	.L15:
 145              		.loc 1 882 0
 146 007e 104C     		ldr	r4, .L18+12
 147              	.LVL23:
 148 0080 00E0     		b	.L5
 149              	.LVL24:
 150              	.L16:
 151 0082 0F4C     		ldr	r4, .L18+12
 152              	.LVL25:
 153              	.L5:
 883:Generated_Source\PSoC6\pdl\middleware\ble/cy_ble.c ****                 }
 884:Generated_Source\PSoC6\pdl\middleware\ble/cy_ble.c ****                 if(retVal == CY_SYSPM_FAIL)
 154              		.loc 1 884 0
 155 0084 0E4B     		ldr	r3, .L18+12
 156 0086 9C42     		cmp	r4, r3
 157 0088 11D1     		bne	.L2
 885:Generated_Source\PSoC6\pdl\middleware\ble/cy_ble.c ****                 {
 886:Generated_Source\PSoC6\pdl\middleware\ble/cy_ble.c ****                     /* Enable interrupts after failing check */
 887:Generated_Source\PSoC6\pdl\middleware\ble/cy_ble.c ****                     Cy_SysLib_ExitCriticalSection(interruptState);
 158              		.loc 1 887 0
 159 008a 0C4B     		ldr	r3, .L18+8
 160 008c 1868     		ldr	r0, [r3]
 161 008e FFF7FEFF 		bl	Cy_SysLib_ExitCriticalSection
 162              	.LVL26:
 163 0092 0CE0     		b	.L2
 164              	.LVL27:
 165              	.L4:
 166              	.LBE5:
 888:Generated_Source\PSoC6\pdl\middleware\ble/cy_ble.c ****                 }
 889:Generated_Source\PSoC6\pdl\middleware\ble/cy_ble.c ****             }
 890:Generated_Source\PSoC6\pdl\middleware\ble/cy_ble.c ****             break;
 891:Generated_Source\PSoC6\pdl\middleware\ble/cy_ble.c **** 
 892:Generated_Source\PSoC6\pdl\middleware\ble/cy_ble.c ****         /* Enable interrupts after wakeup */
 893:Generated_Source\PSoC6\pdl\middleware\ble/cy_ble.c ****         case (CY_SYSPM_AFTER_TRANSITION):
 894:Generated_Source\PSoC6\pdl\middleware\ble/cy_ble.c ****             Cy_SysLib_ExitCriticalSection(interruptState);
 167              		.loc 1 894 0
 168 0094 094B     		ldr	r3, .L18+8
 169 0096 1868     		ldr	r0, [r3]
 170              	.LVL28:
 171 0098 FFF7FEFF 		bl	Cy_SysLib_ExitCriticalSection
 172              	.LVL29:
 895:Generated_Source\PSoC6\pdl\middleware\ble/cy_ble.c ****             retVal = CY_SYSPM_SUCCESS;
 173              		.loc 1 895 0
 174 009c 0024     		movs	r4, #0
 896:Generated_Source\PSoC6\pdl\middleware\ble/cy_ble.c ****             break;
 175              		.loc 1 896 0
 176 009e 06E0     		b	.L2
 177              	.LVL30:
 178              	.L17:
 897:Generated_Source\PSoC6\pdl\middleware\ble/cy_ble.c **** 
 898:Generated_Source\PSoC6\pdl\middleware\ble/cy_ble.c ****         default:
 899:Generated_Source\PSoC6\pdl\middleware\ble/cy_ble.c ****             retVal = CY_SYSPM_FAIL;
 179              		.loc 1 899 0
 180 00a0 074C     		ldr	r4, .L18+12
 181 00a2 04E0     		b	.L2
ARM GAS  C:\Users\Nazar\AppData\Local\Temp\ccWQ1kO8.s 			page 20


 182              	.L9:
 799:Generated_Source\PSoC6\pdl\middleware\ble/cy_ble.c ****             }
 183              		.loc 1 799 0
 184 00a4 064C     		ldr	r4, .L18+12
 185 00a6 02E0     		b	.L2
 186              	.LVL31:
 187              	.L10:
 807:Generated_Source\PSoC6\pdl\middleware\ble/cy_ble.c ****             }
 188              		.loc 1 807 0
 189 00a8 054C     		ldr	r4, .L18+12
 190 00aa 00E0     		b	.L2
 191              	.L11:
 815:Generated_Source\PSoC6\pdl\middleware\ble/cy_ble.c ****             }
 192              		.loc 1 815 0
 193 00ac 044C     		ldr	r4, .L18+12
 194              	.L2:
 195              	.LVL32:
 900:Generated_Source\PSoC6\pdl\middleware\ble/cy_ble.c ****             break;
 901:Generated_Source\PSoC6\pdl\middleware\ble/cy_ble.c ****     }
 902:Generated_Source\PSoC6\pdl\middleware\ble/cy_ble.c **** 
 903:Generated_Source\PSoC6\pdl\middleware\ble/cy_ble.c ****     return(retVal);
 904:Generated_Source\PSoC6\pdl\middleware\ble/cy_ble.c **** }
 196              		.loc 1 904 0
 197 00ae 2000     		movs	r0, r4
 198              		@ sp needed
 199              	.LVL33:
 200 00b0 70BD     		pop	{r4, r5, r6, pc}
 201              	.L19:
 202 00b2 C046     		.align	2
 203              	.L18:
 204 00b4 00000000 		.word	cy_ble_state
 205 00b8 01018800 		.word	8913153
 206 00bc 00000000 		.word	.LANCHOR0
 207 00c0 FF004200 		.word	4325631
 208              		.cfi_endproc
 209              	.LFE174:
 210              		.size	Cy_BLE_DeepSleepCallback, .-Cy_BLE_DeepSleepCallback
 211              		.section	.text.Cy_BLE_UnregisterHostPMCallbacks,"ax",%progbits
 212              		.align	2
 213              		.global	Cy_BLE_UnregisterHostPMCallbacks
 214              		.code	16
 215              		.thumb_func
 216              		.type	Cy_BLE_UnregisterHostPMCallbacks, %function
 217              	Cy_BLE_UnregisterHostPMCallbacks:
 218              	.LFB167:
  96:Generated_Source\PSoC6\pdl\middleware\ble/cy_ble.c ****     #if (CY_BLE_USE_DEEP_SLEEP != 0u)
 219              		.loc 1 96 0
 220              		.cfi_startproc
 221              		@ args = 0, pretend = 0, frame = 0
 222              		@ frame_needed = 0, uses_anonymous_args = 0
 223 0000 10B5     		push	{r4, lr}
 224              		.cfi_def_cfa_offset 8
 225              		.cfi_offset 4, -8
 226              		.cfi_offset 14, -4
  99:Generated_Source\PSoC6\pdl\middleware\ble/cy_ble.c **** 
 227              		.loc 1 99 0
 228 0002 0248     		ldr	r0, .L21
ARM GAS  C:\Users\Nazar\AppData\Local\Temp\ccWQ1kO8.s 			page 21


 229 0004 FFF7FEFF 		bl	Cy_SysPm_UnregisterCallback
 230              	.LVL34:
 107:Generated_Source\PSoC6\pdl\middleware\ble/cy_ble.c **** 
 231              		.loc 1 107 0
 232              		@ sp needed
 233 0008 10BD     		pop	{r4, pc}
 234              	.L22:
 235 000a C046     		.align	2
 236              	.L21:
 237 000c 00000000 		.word	.LANCHOR1
 238              		.cfi_endproc
 239              	.LFE167:
 240              		.size	Cy_BLE_UnregisterHostPMCallbacks, .-Cy_BLE_UnregisterHostPMCallbacks
 241              		.section	.text.Cy_BLE_Init,"ax",%progbits
 242              		.align	2
 243              		.global	Cy_BLE_Init
 244              		.code	16
 245              		.thumb_func
 246              		.type	Cy_BLE_Init, %function
 247              	Cy_BLE_Init:
 248              	.LFB168:
 134:Generated_Source\PSoC6\pdl\middleware\ble/cy_ble.c ****     cy_en_ble_api_result_t apiResult = CY_BLE_SUCCESS;
 249              		.loc 1 134 0
 250              		.cfi_startproc
 251              		@ args = 0, pretend = 0, frame = 0
 252              		@ frame_needed = 0, uses_anonymous_args = 0
 253              	.LVL35:
 254 0000 10B5     		push	{r4, lr}
 255              		.cfi_def_cfa_offset 8
 256              		.cfi_offset 4, -8
 257              		.cfi_offset 14, -4
 258              	.LVL36:
 137:Generated_Source\PSoC6\pdl\middleware\ble/cy_ble.c ****     {
 259              		.loc 1 137 0
 260 0002 0028     		cmp	r0, #0
 261 0004 13D0     		beq	.L26
 144:Generated_Source\PSoC6\pdl\middleware\ble/cy_ble.c **** 
 262              		.loc 1 144 0
 263 0006 0B4B     		ldr	r3, .L27
 264 0008 5860     		str	r0, [r3, #4]
 148:Generated_Source\PSoC6\pdl\middleware\ble/cy_ble.c ****         {
 265              		.loc 1 148 0
 266 000a C36A     		ldr	r3, [r0, #44]
 267 000c 002B     		cmp	r3, #0
 268 000e 01D0     		beq	.L25
 150:Generated_Source\PSoC6\pdl\middleware\ble/cy_ble.c ****         }
 269              		.loc 1 150 0
 270 0010 084A     		ldr	r2, .L27
 271 0012 9360     		str	r3, [r2, #8]
 272              	.L25:
 152:Generated_Source\PSoC6\pdl\middleware\ble/cy_ble.c ****         (void)memset((uint8_t*)&cy_ble_busyStatus, 0, sizeof(cy_ble_busyStatus));
 273              		.loc 1 152 0
 274 0014 0023     		movs	r3, #0
 275 0016 084A     		ldr	r2, .L27+4
 276 0018 1370     		strb	r3, [r2]
 153:Generated_Source\PSoC6\pdl\middleware\ble/cy_ble.c **** 
 277              		.loc 1 153 0
ARM GAS  C:\Users\Nazar\AppData\Local\Temp\ccWQ1kO8.s 			page 22


 278 001a 084A     		ldr	r2, .L27+8
 279 001c 1370     		strb	r3, [r2]
 155:Generated_Source\PSoC6\pdl\middleware\ble/cy_ble.c **** 
 280              		.loc 1 155 0
 281 001e 084A     		ldr	r2, .L27+12
 282 0020 1360     		str	r3, [r2]
 173:Generated_Source\PSoC6\pdl\middleware\ble/cy_ble.c ****         #endif /* (CY_BLE_GAP_ROLE_PERIPHERAL || CY_BLE_GAP_ROLE_BROADCASTER)  */
 283              		.loc 1 173 0
 284 0022 084A     		ldr	r2, .L27+16
 285 0024 1370     		strb	r3, [r2]
 180:Generated_Source\PSoC6\pdl\middleware\ble/cy_ble.c **** 
 286              		.loc 1 180 0
 287 0026 FFF7FEFF 		bl	Cy_BLE_ServiceInit
 288              	.LVL37:
 135:Generated_Source\PSoC6\pdl\middleware\ble/cy_ble.c **** 
 289              		.loc 1 135 0
 290 002a 0020     		movs	r0, #0
 291 002c 00E0     		b	.L24
 292              	.LVL38:
 293              	.L26:
 139:Generated_Source\PSoC6\pdl\middleware\ble/cy_ble.c ****     }
 294              		.loc 1 139 0
 295 002e 0648     		ldr	r0, .L27+20
 296              	.LVL39:
 297              	.L24:
 190:Generated_Source\PSoC6\pdl\middleware\ble/cy_ble.c **** /** @} */
 298              		.loc 1 190 0
 299              		@ sp needed
 300 0030 10BD     		pop	{r4, pc}
 301              	.L28:
 302 0032 C046     		.align	2
 303              	.L27:
 304 0034 00000000 		.word	.LANCHOR0
 305 0038 00000000 		.word	cy_ble_eventHandlerFlag
 306 003c 00000000 		.word	cy_ble_busyStatus
 307 0040 00000000 		.word	cy_ble_cmdStatus
 308 0044 00000000 		.word	cy_ble_advertisingIntervalType
 309 0048 01001600 		.word	1441793
 310              		.cfi_endproc
 311              	.LFE168:
 312              		.size	Cy_BLE_Init, .-Cy_BLE_Init
 313              		.section	.text.Cy_BLE_Enable,"ax",%progbits
 314              		.align	2
 315              		.global	Cy_BLE_Enable
 316              		.code	16
 317              		.thumb_func
 318              		.type	Cy_BLE_Enable, %function
 319              	Cy_BLE_Enable:
 320              	.LFB169:
 270:Generated_Source\PSoC6\pdl\middleware\ble/cy_ble.c ****     cy_en_ble_api_result_t apiResult = CY_BLE_SUCCESS;
 321              		.loc 1 270 0
 322              		.cfi_startproc
 323              		@ args = 0, pretend = 0, frame = 104
 324              		@ frame_needed = 0, uses_anonymous_args = 0
 325 0000 30B5     		push	{r4, r5, lr}
 326              		.cfi_def_cfa_offset 12
 327              		.cfi_offset 4, -12
ARM GAS  C:\Users\Nazar\AppData\Local\Temp\ccWQ1kO8.s 			page 23


 328              		.cfi_offset 5, -8
 329              		.cfi_offset 14, -4
 330 0002 9BB0     		sub	sp, sp, #108
 331              		.cfi_def_cfa_offset 120
 332              	.LVL40:
 275:Generated_Source\PSoC6\pdl\middleware\ble/cy_ble.c ****     {
 333              		.loc 1 275 0
 334 0004 15AD     		add	r5, sp, #84
 335 0006 1422     		movs	r2, #20
 336 0008 2C49     		ldr	r1, .L33
 337 000a 2800     		movs	r0, r5
 338 000c FFF7FEFF 		bl	memcpy
 339              	.LVL41:
 285:Generated_Source\PSoC6\pdl\middleware\ble/cy_ble.c ****     {
 340              		.loc 1 285 0
 341 0010 02AC     		add	r4, sp, #8
 342 0012 4C22     		movs	r2, #76
 343 0014 0021     		movs	r1, #0
 344 0016 2000     		movs	r0, r4
 345 0018 FFF7FEFF 		bl	memset
 346              	.LVL42:
 347 001c 284B     		ldr	r3, .L33+4
 348 001e 0293     		str	r3, [sp, #8]
 349 0020 A560     		str	r5, [r4, #8]
 350 0022 284B     		ldr	r3, .L33+8
 351 0024 A381     		strh	r3, [r4, #12]
 352 0026 0523     		movs	r3, #5
 353 0028 A373     		strb	r3, [r4, #14]
 354 002a F633     		adds	r3, r3, #246
 355 002c 2383     		strh	r3, [r4, #24]
 356 002e 6383     		strh	r3, [r4, #26]
 357 0030 F83B     		subs	r3, r3, #248
 358 0032 2377     		strb	r3, [r4, #28]
 359 0034 0133     		adds	r3, r3, #1
 360 0036 6377     		strb	r3, [r4, #29]
 361 0038 0622     		movs	r2, #6
 362 003a A277     		strb	r2, [r4, #30]
 363 003c 1B32     		adds	r2, r2, #27
 364 003e A354     		strb	r3, [r4, r2]
 365 0040 2832     		adds	r2, r2, #40
 366 0042 4033     		adds	r3, r3, #64
 367 0044 E252     		strh	r2, [r4, r3]
 368 0046 483A     		subs	r2, r2, #72
 369 0048 0433     		adds	r3, r3, #4
 370 004a E254     		strb	r2, [r4, r3]
 337:Generated_Source\PSoC6\pdl\middleware\ble/cy_ble.c **** 
 371              		.loc 1 337 0
 372 004c 1E48     		ldr	r0, .L33+12
 373 004e FFF7FEFF 		bl	Cy_SysPm_RegisterCallback
 374              	.LVL43:
 362:Generated_Source\PSoC6\pdl\middleware\ble/cy_ble.c ****     #endif /* CY_BLE_DLE_FEATURE_ENABLED */
 375              		.loc 1 362 0
 376 0052 FFF7FEFF 		bl	Cy_BLE_EnableDleFeature
 377              	.LVL44:
 370:Generated_Source\PSoC6\pdl\middleware\ble/cy_ble.c ****     #endif /* CY_BLE_PHY_UPDATE_FEATURE_ENABLED */
 378              		.loc 1 370 0
 379 0056 FFF7FEFF 		bl	Cy_BLE_EnablePhyUpdateFeature
ARM GAS  C:\Users\Nazar\AppData\Local\Temp\ccWQ1kO8.s 			page 24


 380              	.LVL45:
 373:Generated_Source\PSoC6\pdl\middleware\ble/cy_ble.c ****     }
 381              		.loc 1 373 0
 382 005a 08A8     		add	r0, sp, #32
 383 005c FFF7FEFF 		bl	Cy_BLE_StackSetFeatureConfig
 384              	.LVL46:
 376:Generated_Source\PSoC6\pdl\middleware\ble/cy_ble.c ****     {
 385              		.loc 1 376 0
 386 0060 0028     		cmp	r0, #0
 387 0062 28D1     		bne	.L30
 378:Generated_Source\PSoC6\pdl\middleware\ble/cy_ble.c **** 
 388              		.loc 1 378 0
 389 0064 194B     		ldr	r3, .L33+16
 390 0066 0393     		str	r3, [sp, #12]
 381:Generated_Source\PSoC6\pdl\middleware\ble/cy_ble.c ****         {
 391              		.loc 1 381 0
 392 0068 194B     		ldr	r3, .L33+20
 393 006a 5B68     		ldr	r3, [r3, #4]
 394 006c 996B     		ldr	r1, [r3, #56]
 395 006e 0029     		cmp	r1, #0
 396 0070 04D0     		beq	.L31
 383:Generated_Source\PSoC6\pdl\middleware\ble/cy_ble.c ****         }
 397              		.loc 1 383 0
 398 0072 2222     		movs	r2, #34
 399 0074 2A30     		adds	r0, r0, #42
 400              	.LVL47:
 401 0076 6844     		add	r0, r0, sp
 402              	.LVL48:
 403 0078 FFF7FEFF 		bl	memcpy
 404              	.LVL49:
 405              	.L31:
 387:Generated_Source\PSoC6\pdl\middleware\ble/cy_ble.c **** 
 406              		.loc 1 387 0
 407 007c 02A8     		add	r0, sp, #8
 408 007e FFF7FEFF 		bl	Cy_BLE_StackInit
 409              	.LVL50:
 390:Generated_Source\PSoC6\pdl\middleware\ble/cy_ble.c ****         {
 410              		.loc 1 390 0
 411 0082 0028     		cmp	r0, #0
 412 0084 14D1     		bne	.L32
 392:Generated_Source\PSoC6\pdl\middleware\ble/cy_ble.c **** 
 413              		.loc 1 392 0
 414 0086 0122     		movs	r2, #1
 415 0088 124B     		ldr	r3, .L33+24
 416 008a 1A70     		strb	r2, [r3]
 395:Generated_Source\PSoC6\pdl\middleware\ble/cy_ble.c ****         #endif /* (CY_BLE_GAP_ROLE_CENTRAL || CY_BLE_GAP_ROLE_PERIPHERAL) */
 417              		.loc 1 395 0
 418 008c 0023     		movs	r3, #0
 419 008e 124A     		ldr	r2, .L33+28
 420 0090 1370     		strb	r3, [r2]
 421              	.LVL51:
 422              	.LBB6:
 423              	.LBB7:
 424              		.file 2 "Generated_Source\\PSoC6\\pdl\\middleware\\ble\\cy_ble_gap.h"
   1:Generated_Source\PSoC6\pdl\middleware\ble/cy_ble_gap.h **** /***************************************************************************//**
   2:Generated_Source\PSoC6\pdl\middleware\ble/cy_ble_gap.h **** * \file cy_ble_gap.h
   3:Generated_Source\PSoC6\pdl\middleware\ble/cy_ble_gap.h **** * \version 2.90
ARM GAS  C:\Users\Nazar\AppData\Local\Temp\ccWQ1kO8.s 			page 25


   4:Generated_Source\PSoC6\pdl\middleware\ble/cy_ble_gap.h **** *
   5:Generated_Source\PSoC6\pdl\middleware\ble/cy_ble_gap.h **** * \brief
   6:Generated_Source\PSoC6\pdl\middleware\ble/cy_ble_gap.h **** *  Contains the prototypes and constants used in the BLE GAP profile.
   7:Generated_Source\PSoC6\pdl\middleware\ble/cy_ble_gap.h **** *
   8:Generated_Source\PSoC6\pdl\middleware\ble/cy_ble_gap.h **** ********************************************************************************
   9:Generated_Source\PSoC6\pdl\middleware\ble/cy_ble_gap.h **** * \copyright
  10:Generated_Source\PSoC6\pdl\middleware\ble/cy_ble_gap.h **** * Copyright 2017-2023, Cypress Semiconductor Corporation.  All rights reserved.
  11:Generated_Source\PSoC6\pdl\middleware\ble/cy_ble_gap.h **** * You may use this file only in accordance with the license, terms, conditions,
  12:Generated_Source\PSoC6\pdl\middleware\ble/cy_ble_gap.h **** * disclaimers, and limitations in the end user license agreement accompanying
  13:Generated_Source\PSoC6\pdl\middleware\ble/cy_ble_gap.h **** * the software package with which this file was provided.
  14:Generated_Source\PSoC6\pdl\middleware\ble/cy_ble_gap.h **** *******************************************************************************/
  15:Generated_Source\PSoC6\pdl\middleware\ble/cy_ble_gap.h **** 
  16:Generated_Source\PSoC6\pdl\middleware\ble/cy_ble_gap.h **** 
  17:Generated_Source\PSoC6\pdl\middleware\ble/cy_ble_gap.h **** #ifndef CY_BLE_GAP_H
  18:Generated_Source\PSoC6\pdl\middleware\ble/cy_ble_gap.h **** #define CY_BLE_GAP_H
  19:Generated_Source\PSoC6\pdl\middleware\ble/cy_ble_gap.h **** 
  20:Generated_Source\PSoC6\pdl\middleware\ble/cy_ble_gap.h **** #include "cy_ble_config.h"
  21:Generated_Source\PSoC6\pdl\middleware\ble/cy_ble_gap.h **** 
  22:Generated_Source\PSoC6\pdl\middleware\ble/cy_ble_gap.h **** /***************************************
  23:Generated_Source\PSoC6\pdl\middleware\ble/cy_ble_gap.h **** * BLE Stack includes
  24:Generated_Source\PSoC6\pdl\middleware\ble/cy_ble_gap.h **** ***************************************/
  25:Generated_Source\PSoC6\pdl\middleware\ble/cy_ble_gap.h **** #include "cy_ble_stack_gatt.h"
  26:Generated_Source\PSoC6\pdl\middleware\ble/cy_ble_gap.h **** #include "cy_ble_stack_gap.h"
  27:Generated_Source\PSoC6\pdl\middleware\ble/cy_ble_gap.h **** #include "cy_ble_stack_gap_central.h"
  28:Generated_Source\PSoC6\pdl\middleware\ble/cy_ble_gap.h **** #include "cy_ble_stack_gap_peripheral.h"
  29:Generated_Source\PSoC6\pdl\middleware\ble/cy_ble_gap.h **** 
  30:Generated_Source\PSoC6\pdl\middleware\ble/cy_ble_gap.h **** /* C binding of definitions if building with C++ compiler */
  31:Generated_Source\PSoC6\pdl\middleware\ble/cy_ble_gap.h **** #ifdef __cplusplus
  32:Generated_Source\PSoC6\pdl\middleware\ble/cy_ble_gap.h **** extern "C" {
  33:Generated_Source\PSoC6\pdl\middleware\ble/cy_ble_gap.h **** #endif /* __cplusplus */
  34:Generated_Source\PSoC6\pdl\middleware\ble/cy_ble_gap.h **** 
  35:Generated_Source\PSoC6\pdl\middleware\ble/cy_ble_gap.h **** /***************************************
  36:Generated_Source\PSoC6\pdl\middleware\ble/cy_ble_gap.h **** * Conditional Compilation Parameters
  37:Generated_Source\PSoC6\pdl\middleware\ble/cy_ble_gap.h **** ***************************************/
  38:Generated_Source\PSoC6\pdl\middleware\ble/cy_ble_gap.h **** /**
  39:Generated_Source\PSoC6\pdl\middleware\ble/cy_ble_gap.h ****  * The BLE operation mode.
  40:Generated_Source\PSoC6\pdl\middleware\ble/cy_ble_gap.h ****  */
  41:Generated_Source\PSoC6\pdl\middleware\ble/cy_ble_gap.h **** #define CY_BLE_MODE                          (CY_BLE_CONFIG_MODE)
  42:Generated_Source\PSoC6\pdl\middleware\ble/cy_ble_gap.h **** 
  43:Generated_Source\PSoC6\pdl\middleware\ble/cy_ble_gap.h **** /**
  44:Generated_Source\PSoC6\pdl\middleware\ble/cy_ble_gap.h ****  * Maximum number of BLE connections
  45:Generated_Source\PSoC6\pdl\middleware\ble/cy_ble_gap.h ****  * This parameter displays how many BLE connections (both Central and
  46:Generated_Source\PSoC6\pdl\middleware\ble/cy_ble_gap.h ****  * Peripheral) are allowed. Valid range is from 1 to 4.
  47:Generated_Source\PSoC6\pdl\middleware\ble/cy_ble_gap.h ****  */
  48:Generated_Source\PSoC6\pdl\middleware\ble/cy_ble_gap.h **** #define CY_BLE_CONN_COUNT                    (CY_BLE_CONFIG_CONN_COUNT)
  49:Generated_Source\PSoC6\pdl\middleware\ble/cy_ble_gap.h **** 
  50:Generated_Source\PSoC6\pdl\middleware\ble/cy_ble_gap.h **** /**
  51:Generated_Source\PSoC6\pdl\middleware\ble/cy_ble_gap.h ****  * The GAP Role
  52:Generated_Source\PSoC6\pdl\middleware\ble/cy_ble_gap.h ****  * The following defined mask can be used:
  53:Generated_Source\PSoC6\pdl\middleware\ble/cy_ble_gap.h ****  * CY_BLE_GAP_PERIPHERAL  (0x01u) - device operates as peripheral.
  54:Generated_Source\PSoC6\pdl\middleware\ble/cy_ble_gap.h ****  * CY_BLE_GAP_CENTRAL     (0x02u) - device operates as central.
  55:Generated_Source\PSoC6\pdl\middleware\ble/cy_ble_gap.h ****  * CY_BLE_GAP_BROADCASTER (0x04u) - device operates as broadcaster.
  56:Generated_Source\PSoC6\pdl\middleware\ble/cy_ble_gap.h ****  * CY_BLE_GAP_OBSERVER    (0x08u) - device operates as observer.
  57:Generated_Source\PSoC6\pdl\middleware\ble/cy_ble_gap.h ****  * CY_BLE_GAP_HCI         (0x00u) - used when BLE operates in HCI mode.
  58:Generated_Source\PSoC6\pdl\middleware\ble/cy_ble_gap.h ****  */
  59:Generated_Source\PSoC6\pdl\middleware\ble/cy_ble_gap.h **** #define CY_BLE_GAP_ROLE                       (CY_BLE_CONFIG_GAP_ROLE)
  60:Generated_Source\PSoC6\pdl\middleware\ble/cy_ble_gap.h **** 
ARM GAS  C:\Users\Nazar\AppData\Local\Temp\ccWQ1kO8.s 			page 26


  61:Generated_Source\PSoC6\pdl\middleware\ble/cy_ble_gap.h **** /** The number of GAP Peripheral configurations structures */
  62:Generated_Source\PSoC6\pdl\middleware\ble/cy_ble_gap.h **** #define CY_BLE_GAP_PERIPHERAL_COUNT           (CY_BLE_CONFIG_GAP_PERIPHERAL_COUNT)
  63:Generated_Source\PSoC6\pdl\middleware\ble/cy_ble_gap.h **** 
  64:Generated_Source\PSoC6\pdl\middleware\ble/cy_ble_gap.h **** /** The number of GAP Broadcaster configurations structures */
  65:Generated_Source\PSoC6\pdl\middleware\ble/cy_ble_gap.h **** #define CY_BLE_GAP_BROADCASTER_COUNT          (CY_BLE_CONFIG_GAP_BROADCASTER_COUNT)
  66:Generated_Source\PSoC6\pdl\middleware\ble/cy_ble_gap.h **** 
  67:Generated_Source\PSoC6\pdl\middleware\ble/cy_ble_gap.h **** /** The number of GAP Central configurations structures */
  68:Generated_Source\PSoC6\pdl\middleware\ble/cy_ble_gap.h **** #define CY_BLE_GAP_CENTRAL_COUNT              (CY_BLE_CONFIG_GAP_CENTRAL_COUNT)
  69:Generated_Source\PSoC6\pdl\middleware\ble/cy_ble_gap.h **** 
  70:Generated_Source\PSoC6\pdl\middleware\ble/cy_ble_gap.h **** /** The number of GAP Observer configurations structures */
  71:Generated_Source\PSoC6\pdl\middleware\ble/cy_ble_gap.h **** #define CY_BLE_GAP_OBSERVER_COUNT             (CY_BLE_CONFIG_GAP_OBSERVER_COUNT)
  72:Generated_Source\PSoC6\pdl\middleware\ble/cy_ble_gap.h **** 
  73:Generated_Source\PSoC6\pdl\middleware\ble/cy_ble_gap.h **** /** The number of Security configurations structures */
  74:Generated_Source\PSoC6\pdl\middleware\ble/cy_ble_gap.h **** #define CY_BLE_AUTH_INFO_COUNT                (CY_BLE_CONFIG_AUTH_INFO_COUNT)
  75:Generated_Source\PSoC6\pdl\middleware\ble/cy_ble_gap.h **** 
  76:Generated_Source\PSoC6\pdl\middleware\ble/cy_ble_gap.h **** /** The Bonding Requirement structures */
  77:Generated_Source\PSoC6\pdl\middleware\ble/cy_ble_gap.h **** #define CY_BLE_BONDING_REQUIREMENT            (CY_BLE_CONFIG_BONDING_REQUIREMENT)
  78:Generated_Source\PSoC6\pdl\middleware\ble/cy_ble_gap.h **** 
  79:Generated_Source\PSoC6\pdl\middleware\ble/cy_ble_gap.h **** /** The GAP Role defines */
  80:Generated_Source\PSoC6\pdl\middleware\ble/cy_ble_gap.h **** #define CY_BLE_GAP_ROLE_PERIPHERAL            (0u != (CY_BLE_GAP_ROLE & CY_BLE_GAP_PERIPHERAL))
  81:Generated_Source\PSoC6\pdl\middleware\ble/cy_ble_gap.h **** #define CY_BLE_GAP_ROLE_CENTRAL               (0u != (CY_BLE_GAP_ROLE & CY_BLE_GAP_CENTRAL))
  82:Generated_Source\PSoC6\pdl\middleware\ble/cy_ble_gap.h **** #define CY_BLE_GAP_ROLE_OBSERVER              (0u != (CY_BLE_GAP_ROLE & CY_BLE_GAP_OBSERVER))
  83:Generated_Source\PSoC6\pdl\middleware\ble/cy_ble_gap.h **** #define CY_BLE_GAP_ROLE_BROADCASTER           (0u != (CY_BLE_GAP_ROLE & CY_BLE_GAP_BROADCASTER))
  84:Generated_Source\PSoC6\pdl\middleware\ble/cy_ble_gap.h **** 
  85:Generated_Source\PSoC6\pdl\middleware\ble/cy_ble_gap.h **** #define CY_BLE_GAPP_CONF_COUNT                (CY_BLE_GAP_PERIPHERAL_COUNT + CY_BLE_GAP_BROADCASTER
  86:Generated_Source\PSoC6\pdl\middleware\ble/cy_ble_gap.h **** #define CY_BLE_GAPC_CONF_COUNT                (CY_BLE_GAP_CENTRAL_COUNT + CY_BLE_GAP_OBSERVER_COUNT
  87:Generated_Source\PSoC6\pdl\middleware\ble/cy_ble_gap.h **** 
  88:Generated_Source\PSoC6\pdl\middleware\ble/cy_ble_gap.h **** /***************************************
  89:Generated_Source\PSoC6\pdl\middleware\ble/cy_ble_gap.h **** * Type Definitions
  90:Generated_Source\PSoC6\pdl\middleware\ble/cy_ble_gap.h **** ***************************************/
  91:Generated_Source\PSoC6\pdl\middleware\ble/cy_ble_gap.h **** 
  92:Generated_Source\PSoC6\pdl\middleware\ble/cy_ble_gap.h **** #if (CY_BLE_MODE_PROFILE)
  93:Generated_Source\PSoC6\pdl\middleware\ble/cy_ble_gap.h **** 
  94:Generated_Source\PSoC6\pdl\middleware\ble/cy_ble_gap.h **** /***************************************
  95:Generated_Source\PSoC6\pdl\middleware\ble/cy_ble_gap.h **** * Enumerated Types and Structures
  96:Generated_Source\PSoC6\pdl\middleware\ble/cy_ble_gap.h **** ***************************************/
  97:Generated_Source\PSoC6\pdl\middleware\ble/cy_ble_gap.h **** 
  98:Generated_Source\PSoC6\pdl\middleware\ble/cy_ble_gap.h **** /**
  99:Generated_Source\PSoC6\pdl\middleware\ble/cy_ble_gap.h ****  * \addtogroup group_ble_common_api_gap_definitions
 100:Generated_Source\PSoC6\pdl\middleware\ble/cy_ble_gap.h ****  * @{
 101:Generated_Source\PSoC6\pdl\middleware\ble/cy_ble_gap.h ****  */
 102:Generated_Source\PSoC6\pdl\middleware\ble/cy_ble_gap.h **** 
 103:Generated_Source\PSoC6\pdl\middleware\ble/cy_ble_gap.h **** /** BLE state machine type */
 104:Generated_Source\PSoC6\pdl\middleware\ble/cy_ble_gap.h **** typedef enum
 105:Generated_Source\PSoC6\pdl\middleware\ble/cy_ble_gap.h **** {
 106:Generated_Source\PSoC6\pdl\middleware\ble/cy_ble_gap.h ****     CY_BLE_STATE_STOPPED,                             /**< BLE is turned off */
 107:Generated_Source\PSoC6\pdl\middleware\ble/cy_ble_gap.h ****     CY_BLE_STATE_INITIALIZING,                        /**< Initializing state */
 108:Generated_Source\PSoC6\pdl\middleware\ble/cy_ble_gap.h ****     CY_BLE_STATE_ON,                                  /**< BLE is turned on */
 109:Generated_Source\PSoC6\pdl\middleware\ble/cy_ble_gap.h **** #if (CY_BLE_GAP_ROLE_CENTRAL)
 110:Generated_Source\PSoC6\pdl\middleware\ble/cy_ble_gap.h ****     CY_BLE_STATE_CONNECTING,                          /**< Connecting */
 111:Generated_Source\PSoC6\pdl\middleware\ble/cy_ble_gap.h **** #endif /* CY_BLE_GAP_ROLE_CENTRAL */
 112:Generated_Source\PSoC6\pdl\middleware\ble/cy_ble_gap.h **** } cy_en_ble_state_t;
 113:Generated_Source\PSoC6\pdl\middleware\ble/cy_ble_gap.h **** 
 114:Generated_Source\PSoC6\pdl\middleware\ble/cy_ble_gap.h **** 
 115:Generated_Source\PSoC6\pdl\middleware\ble/cy_ble_gap.h **** /** Scanning state machine type */
 116:Generated_Source\PSoC6\pdl\middleware\ble/cy_ble_gap.h **** typedef enum
 117:Generated_Source\PSoC6\pdl\middleware\ble/cy_ble_gap.h **** {
ARM GAS  C:\Users\Nazar\AppData\Local\Temp\ccWQ1kO8.s 			page 27


 118:Generated_Source\PSoC6\pdl\middleware\ble/cy_ble_gap.h ****     CY_BLE_SCAN_STATE_STOPPED,                        /**< Scanning is stopped */
 119:Generated_Source\PSoC6\pdl\middleware\ble/cy_ble_gap.h ****     CY_BLE_SCAN_STATE_SCAN_INITIATED,                 /**< Scanning is initiated */
 120:Generated_Source\PSoC6\pdl\middleware\ble/cy_ble_gap.h ****     CY_BLE_SCAN_STATE_SCANNING,                       /**< Scanning process */
 121:Generated_Source\PSoC6\pdl\middleware\ble/cy_ble_gap.h ****     CY_BLE_SCAN_STATE_STOP_INITIATED                  /**< Stop scanning is initiated */
 122:Generated_Source\PSoC6\pdl\middleware\ble/cy_ble_gap.h **** } cy_en_ble_scan_state_t;
 123:Generated_Source\PSoC6\pdl\middleware\ble/cy_ble_gap.h **** 
 124:Generated_Source\PSoC6\pdl\middleware\ble/cy_ble_gap.h **** /** Advertising state machine type */
 125:Generated_Source\PSoC6\pdl\middleware\ble/cy_ble_gap.h **** typedef enum
 126:Generated_Source\PSoC6\pdl\middleware\ble/cy_ble_gap.h **** {
 127:Generated_Source\PSoC6\pdl\middleware\ble/cy_ble_gap.h ****     CY_BLE_ADV_STATE_STOPPED,                         /**< Advertising is stopped */
 128:Generated_Source\PSoC6\pdl\middleware\ble/cy_ble_gap.h ****     CY_BLE_ADV_STATE_ADV_INITIATED,                   /**< Advertising is initiated */
 129:Generated_Source\PSoC6\pdl\middleware\ble/cy_ble_gap.h ****     CY_BLE_ADV_STATE_ADVERTISING,                     /**< Advertising process */
 130:Generated_Source\PSoC6\pdl\middleware\ble/cy_ble_gap.h ****     CY_BLE_ADV_STATE_STOP_INITIATED                   /**< Stop advertising is initiated */
 131:Generated_Source\PSoC6\pdl\middleware\ble/cy_ble_gap.h **** } cy_en_ble_adv_state_t;
 132:Generated_Source\PSoC6\pdl\middleware\ble/cy_ble_gap.h **** 
 133:Generated_Source\PSoC6\pdl\middleware\ble/cy_ble_gap.h **** /** Connection state machine type */
 134:Generated_Source\PSoC6\pdl\middleware\ble/cy_ble_gap.h **** typedef enum
 135:Generated_Source\PSoC6\pdl\middleware\ble/cy_ble_gap.h **** {
 136:Generated_Source\PSoC6\pdl\middleware\ble/cy_ble_gap.h ****     CY_BLE_CONN_STATE_DISCONNECTED,                   /**< Essentially idle state */
 137:Generated_Source\PSoC6\pdl\middleware\ble/cy_ble_gap.h ****     CY_BLE_CONN_STATE_CLIENT_DISCONNECTED_DISCOVERED, /**< Server is disconnected but discovered */
 138:Generated_Source\PSoC6\pdl\middleware\ble/cy_ble_gap.h ****     CY_BLE_CONN_STATE_CONNECTED,                      /**< Peer device is connected for this and fo
 139:Generated_Source\PSoC6\pdl\middleware\ble/cy_ble_gap.h ****     CY_BLE_CONN_STATE_CLIENT_SRVC_DISCOVERING,        /**< Server services are being discovered */
 140:Generated_Source\PSoC6\pdl\middleware\ble/cy_ble_gap.h ****     CY_BLE_CONN_STATE_CLIENT_INCL_DISCOVERING,        /**< Server included services are being disco
 141:Generated_Source\PSoC6\pdl\middleware\ble/cy_ble_gap.h ****     CY_BLE_CONN_STATE_CLIENT_CHAR_DISCOVERING,        /**< Server characteristics are being discove
 142:Generated_Source\PSoC6\pdl\middleware\ble/cy_ble_gap.h ****     CY_BLE_CONN_STATE_CLIENT_DESCR_DISCOVERING,       /**< Server char. descriptors are being disco
 143:Generated_Source\PSoC6\pdl\middleware\ble/cy_ble_gap.h ****     CY_BLE_CONN_STATE_CLIENT_DISCOVERED               /**< Server is discovered */
 144:Generated_Source\PSoC6\pdl\middleware\ble/cy_ble_gap.h **** } cy_en_ble_conn_state_t;
 145:Generated_Source\PSoC6\pdl\middleware\ble/cy_ble_gap.h **** 
 146:Generated_Source\PSoC6\pdl\middleware\ble/cy_ble_gap.h **** /** Structure with Generic Access Profile Service (GAPS) attribute handles */
 147:Generated_Source\PSoC6\pdl\middleware\ble/cy_ble_gap.h **** typedef struct
 148:Generated_Source\PSoC6\pdl\middleware\ble/cy_ble_gap.h **** {
 149:Generated_Source\PSoC6\pdl\middleware\ble/cy_ble_gap.h ****     /** Service handle*/
 150:Generated_Source\PSoC6\pdl\middleware\ble/cy_ble_gap.h ****     cy_ble_gatt_db_attr_handle_t serviceHandle;
 151:Generated_Source\PSoC6\pdl\middleware\ble/cy_ble_gap.h **** 
 152:Generated_Source\PSoC6\pdl\middleware\ble/cy_ble_gap.h ****     /** Handle of the GAPS Device Name Characteristic */
 153:Generated_Source\PSoC6\pdl\middleware\ble/cy_ble_gap.h ****     cy_ble_gatt_db_attr_handle_t deviceNameCharHandle;
 154:Generated_Source\PSoC6\pdl\middleware\ble/cy_ble_gap.h **** 
 155:Generated_Source\PSoC6\pdl\middleware\ble/cy_ble_gap.h ****     /** Handle of the GAPS Appearance Characteristic */
 156:Generated_Source\PSoC6\pdl\middleware\ble/cy_ble_gap.h ****     cy_ble_gatt_db_attr_handle_t appearanceCharHandle;
 157:Generated_Source\PSoC6\pdl\middleware\ble/cy_ble_gap.h **** 
 158:Generated_Source\PSoC6\pdl\middleware\ble/cy_ble_gap.h ****     /** Handle of the GAPS Peripheral Preferred Connection Parameters Characteristic */
 159:Generated_Source\PSoC6\pdl\middleware\ble/cy_ble_gap.h ****     cy_ble_gatt_db_attr_handle_t prefConnParamCharHandle;
 160:Generated_Source\PSoC6\pdl\middleware\ble/cy_ble_gap.h **** 
 161:Generated_Source\PSoC6\pdl\middleware\ble/cy_ble_gap.h ****     /** Handle of the GAPS Central Address Resolution characteristic */
 162:Generated_Source\PSoC6\pdl\middleware\ble/cy_ble_gap.h ****     cy_ble_gatt_db_attr_handle_t centralAddrResolutionCharHandle;
 163:Generated_Source\PSoC6\pdl\middleware\ble/cy_ble_gap.h **** 
 164:Generated_Source\PSoC6\pdl\middleware\ble/cy_ble_gap.h ****     /** Handle of the GAPS Resolvable Private Address Only characteristic */
 165:Generated_Source\PSoC6\pdl\middleware\ble/cy_ble_gap.h ****     cy_ble_gatt_db_attr_handle_t resolvablePrivateAddressOnly;
 166:Generated_Source\PSoC6\pdl\middleware\ble/cy_ble_gap.h **** } cy_stc_ble_gaps_t;
 167:Generated_Source\PSoC6\pdl\middleware\ble/cy_ble_gap.h **** 
 168:Generated_Source\PSoC6\pdl\middleware\ble/cy_ble_gap.h **** /** GAP Service characteristics server's GATT DB handles structure type */
 169:Generated_Source\PSoC6\pdl\middleware\ble/cy_ble_gap.h **** typedef struct
 170:Generated_Source\PSoC6\pdl\middleware\ble/cy_ble_gap.h **** {
 171:Generated_Source\PSoC6\pdl\middleware\ble/cy_ble_gap.h ****     /** Handle of the GAPS Device Name Characteristic */
 172:Generated_Source\PSoC6\pdl\middleware\ble/cy_ble_gap.h ****     cy_ble_gatt_db_attr_handle_t deviceNameCharHandle;
 173:Generated_Source\PSoC6\pdl\middleware\ble/cy_ble_gap.h **** 
 174:Generated_Source\PSoC6\pdl\middleware\ble/cy_ble_gap.h ****     /** Handle of the GAPS Appearance Characteristic */
ARM GAS  C:\Users\Nazar\AppData\Local\Temp\ccWQ1kO8.s 			page 28


 175:Generated_Source\PSoC6\pdl\middleware\ble/cy_ble_gap.h ****     cy_ble_gatt_db_attr_handle_t appearanceCharHandle;
 176:Generated_Source\PSoC6\pdl\middleware\ble/cy_ble_gap.h **** 
 177:Generated_Source\PSoC6\pdl\middleware\ble/cy_ble_gap.h ****     /** Handle of the GAPS Peripheral Privacy Flag Parameters Characteristic */
 178:Generated_Source\PSoC6\pdl\middleware\ble/cy_ble_gap.h ****     cy_ble_gatt_db_attr_handle_t periphPrivacyCharHandle;
 179:Generated_Source\PSoC6\pdl\middleware\ble/cy_ble_gap.h **** 
 180:Generated_Source\PSoC6\pdl\middleware\ble/cy_ble_gap.h ****     /** Handle of the GAPS Reconnection Address Characteristic */
 181:Generated_Source\PSoC6\pdl\middleware\ble/cy_ble_gap.h ****     cy_ble_gatt_db_attr_handle_t reconnAddrCharHandle;
 182:Generated_Source\PSoC6\pdl\middleware\ble/cy_ble_gap.h **** 
 183:Generated_Source\PSoC6\pdl\middleware\ble/cy_ble_gap.h ****     /** Handle of the GAPS Peripheral Preferred Connection Parameters Characteristic */
 184:Generated_Source\PSoC6\pdl\middleware\ble/cy_ble_gap.h ****     cy_ble_gatt_db_attr_handle_t prefConnParamCharHandle;
 185:Generated_Source\PSoC6\pdl\middleware\ble/cy_ble_gap.h **** 
 186:Generated_Source\PSoC6\pdl\middleware\ble/cy_ble_gap.h ****     /** Handle of the GAPS Central Address Resolution characteristic */
 187:Generated_Source\PSoC6\pdl\middleware\ble/cy_ble_gap.h ****     cy_ble_gatt_db_attr_handle_t centralAddrResolutionCharHandle;
 188:Generated_Source\PSoC6\pdl\middleware\ble/cy_ble_gap.h **** 
 189:Generated_Source\PSoC6\pdl\middleware\ble/cy_ble_gap.h ****     /** Handle of the GAPS Resolvable Private Address Only characteristic */
 190:Generated_Source\PSoC6\pdl\middleware\ble/cy_ble_gap.h ****     cy_ble_gatt_db_attr_handle_t resolvablePrivateAddressOnly;
 191:Generated_Source\PSoC6\pdl\middleware\ble/cy_ble_gap.h **** }cy_stc_ble_gapc_t;
 192:Generated_Source\PSoC6\pdl\middleware\ble/cy_ble_gap.h **** 
 193:Generated_Source\PSoC6\pdl\middleware\ble/cy_ble_gap.h **** /* Stack mode defines */
 194:Generated_Source\PSoC6\pdl\middleware\ble/cy_ble_gap.h **** 
 195:Generated_Source\PSoC6\pdl\middleware\ble/cy_ble_gap.h **** /** Advertisement SIG assigned numbers */
 196:Generated_Source\PSoC6\pdl\middleware\ble/cy_ble_gap.h **** typedef enum
 197:Generated_Source\PSoC6\pdl\middleware\ble/cy_ble_gap.h **** {
 198:Generated_Source\PSoC6\pdl\middleware\ble/cy_ble_gap.h ****     /** Flags */
 199:Generated_Source\PSoC6\pdl\middleware\ble/cy_ble_gap.h ****     CY_BLE_GAP_ADV_FLAGS = 0x01u,
 200:Generated_Source\PSoC6\pdl\middleware\ble/cy_ble_gap.h **** 
 201:Generated_Source\PSoC6\pdl\middleware\ble/cy_ble_gap.h ****     /** Incomplete List of 16-bit Service Class UUIDs */
 202:Generated_Source\PSoC6\pdl\middleware\ble/cy_ble_gap.h ****     CY_BLE_GAP_ADV_INCOMPL_16UUID,
 203:Generated_Source\PSoC6\pdl\middleware\ble/cy_ble_gap.h **** 
 204:Generated_Source\PSoC6\pdl\middleware\ble/cy_ble_gap.h ****     /** Complete List of 16-bit Service Class UUIDs */
 205:Generated_Source\PSoC6\pdl\middleware\ble/cy_ble_gap.h ****     CY_BLE_GAP_ADV_COMPL_16UUID,
 206:Generated_Source\PSoC6\pdl\middleware\ble/cy_ble_gap.h **** 
 207:Generated_Source\PSoC6\pdl\middleware\ble/cy_ble_gap.h ****     /** Incomplete List of 32-bit Service Class UUIDs */
 208:Generated_Source\PSoC6\pdl\middleware\ble/cy_ble_gap.h ****     CY_BLE_GAP_ADV_INCOMPL_32_UUID,
 209:Generated_Source\PSoC6\pdl\middleware\ble/cy_ble_gap.h **** 
 210:Generated_Source\PSoC6\pdl\middleware\ble/cy_ble_gap.h ****     /** Complete List of 32-bit Service Class UUIDs */
 211:Generated_Source\PSoC6\pdl\middleware\ble/cy_ble_gap.h ****     CY_BLE_GAP_ADV_COMPL_32_UUID,
 212:Generated_Source\PSoC6\pdl\middleware\ble/cy_ble_gap.h **** 
 213:Generated_Source\PSoC6\pdl\middleware\ble/cy_ble_gap.h ****     /** Incomplete List of 128-bit Service Class UUIDs */
 214:Generated_Source\PSoC6\pdl\middleware\ble/cy_ble_gap.h ****     CY_BLE_GAP_ADV_INCOMPL_128_UUID,
 215:Generated_Source\PSoC6\pdl\middleware\ble/cy_ble_gap.h **** 
 216:Generated_Source\PSoC6\pdl\middleware\ble/cy_ble_gap.h ****     /** Complete List of 128-bit Service Class UUIDs */
 217:Generated_Source\PSoC6\pdl\middleware\ble/cy_ble_gap.h ****     CY_BLE_GAP_ADV_COMPL_128_UUID,
 218:Generated_Source\PSoC6\pdl\middleware\ble/cy_ble_gap.h **** 
 219:Generated_Source\PSoC6\pdl\middleware\ble/cy_ble_gap.h ****     /** Shortened Local Name */
 220:Generated_Source\PSoC6\pdl\middleware\ble/cy_ble_gap.h ****     CY_BLE_GAP_ADV_SHORT_NAME,
 221:Generated_Source\PSoC6\pdl\middleware\ble/cy_ble_gap.h **** 
 222:Generated_Source\PSoC6\pdl\middleware\ble/cy_ble_gap.h ****     /** Complete Local Name */
 223:Generated_Source\PSoC6\pdl\middleware\ble/cy_ble_gap.h ****     CY_BLE_GAP_ADV_COMPL_NAME,
 224:Generated_Source\PSoC6\pdl\middleware\ble/cy_ble_gap.h **** 
 225:Generated_Source\PSoC6\pdl\middleware\ble/cy_ble_gap.h ****     /** Tx Power Level */
 226:Generated_Source\PSoC6\pdl\middleware\ble/cy_ble_gap.h ****     CY_BLE_GAP_ADV_TX_PWR_LVL,
 227:Generated_Source\PSoC6\pdl\middleware\ble/cy_ble_gap.h **** 
 228:Generated_Source\PSoC6\pdl\middleware\ble/cy_ble_gap.h ****     /** Class of Device */
 229:Generated_Source\PSoC6\pdl\middleware\ble/cy_ble_gap.h ****     CY_BLE_GAP_ADV_CLASS_OF_DEVICE = 0x0Du,
 230:Generated_Source\PSoC6\pdl\middleware\ble/cy_ble_gap.h **** 
 231:Generated_Source\PSoC6\pdl\middleware\ble/cy_ble_gap.h ****     /** Simple Pairing Hash C */
ARM GAS  C:\Users\Nazar\AppData\Local\Temp\ccWQ1kO8.s 			page 29


 232:Generated_Source\PSoC6\pdl\middleware\ble/cy_ble_gap.h ****     CY_BLE_GAP_ADV_SMPL_PAIR_HASH_C,
 233:Generated_Source\PSoC6\pdl\middleware\ble/cy_ble_gap.h **** 
 234:Generated_Source\PSoC6\pdl\middleware\ble/cy_ble_gap.h ****     /** Simple Pairing Randomizer R */
 235:Generated_Source\PSoC6\pdl\middleware\ble/cy_ble_gap.h ****     CY_BLE_GAP_ADV_SMPL_PAIR_RANDOM_R,
 236:Generated_Source\PSoC6\pdl\middleware\ble/cy_ble_gap.h **** 
 237:Generated_Source\PSoC6\pdl\middleware\ble/cy_ble_gap.h ****     /** Device ID*/
 238:Generated_Source\PSoC6\pdl\middleware\ble/cy_ble_gap.h ****     CY_BLE_GAP_ADV_DEVICE_ID,
 239:Generated_Source\PSoC6\pdl\middleware\ble/cy_ble_gap.h **** 
 240:Generated_Source\PSoC6\pdl\middleware\ble/cy_ble_gap.h ****     /** Security Manager TK Value */
 241:Generated_Source\PSoC6\pdl\middleware\ble/cy_ble_gap.h ****     CY_BLE_GAP_ADV_SCRT_MNGR_TK_VAL = 0x10u,
 242:Generated_Source\PSoC6\pdl\middleware\ble/cy_ble_gap.h **** 
 243:Generated_Source\PSoC6\pdl\middleware\ble/cy_ble_gap.h ****     /** Security Manager Out of Band Flags */
 244:Generated_Source\PSoC6\pdl\middleware\ble/cy_ble_gap.h ****     CY_BLE_GAP_ADV_SCRT_MNGR_OOB_FLAGS,
 245:Generated_Source\PSoC6\pdl\middleware\ble/cy_ble_gap.h **** 
 246:Generated_Source\PSoC6\pdl\middleware\ble/cy_ble_gap.h ****     /** Slave Connection Interval Range */
 247:Generated_Source\PSoC6\pdl\middleware\ble/cy_ble_gap.h ****     CY_BLE_GAP_ADV_SLAVE_CONN_INTRV_RANGE,
 248:Generated_Source\PSoC6\pdl\middleware\ble/cy_ble_gap.h **** 
 249:Generated_Source\PSoC6\pdl\middleware\ble/cy_ble_gap.h ****     /** List of 16-bit Service Solicitation UUIDs */
 250:Generated_Source\PSoC6\pdl\middleware\ble/cy_ble_gap.h ****     CY_BLE_GAP_ADV_SOLICIT_16UUID = 0x14u,
 251:Generated_Source\PSoC6\pdl\middleware\ble/cy_ble_gap.h **** 
 252:Generated_Source\PSoC6\pdl\middleware\ble/cy_ble_gap.h ****     /** List of 128-bit Service Solicitation UUIDs */
 253:Generated_Source\PSoC6\pdl\middleware\ble/cy_ble_gap.h ****     CY_BLE_GAP_ADV_SOLICIT_128UUID,
 254:Generated_Source\PSoC6\pdl\middleware\ble/cy_ble_gap.h **** 
 255:Generated_Source\PSoC6\pdl\middleware\ble/cy_ble_gap.h ****     /** Service Data - 16-bit UUID */
 256:Generated_Source\PSoC6\pdl\middleware\ble/cy_ble_gap.h ****     CY_BLE_GAP_ADV_SRVC_DATA_16UUID,
 257:Generated_Source\PSoC6\pdl\middleware\ble/cy_ble_gap.h **** 
 258:Generated_Source\PSoC6\pdl\middleware\ble/cy_ble_gap.h ****     /** Public Target Address */
 259:Generated_Source\PSoC6\pdl\middleware\ble/cy_ble_gap.h ****     CY_BLE_GAP_ADV_PUBLIC_TARGET_ADDR,
 260:Generated_Source\PSoC6\pdl\middleware\ble/cy_ble_gap.h **** 
 261:Generated_Source\PSoC6\pdl\middleware\ble/cy_ble_gap.h ****     /** Random Target Address */
 262:Generated_Source\PSoC6\pdl\middleware\ble/cy_ble_gap.h ****     CY_BLE_GAP_ADV_RANDOM_TARGET_ADDR,
 263:Generated_Source\PSoC6\pdl\middleware\ble/cy_ble_gap.h **** 
 264:Generated_Source\PSoC6\pdl\middleware\ble/cy_ble_gap.h ****     /** Appearance */
 265:Generated_Source\PSoC6\pdl\middleware\ble/cy_ble_gap.h ****     CY_BLE_GAP_ADV_APPEARANCE,
 266:Generated_Source\PSoC6\pdl\middleware\ble/cy_ble_gap.h **** 
 267:Generated_Source\PSoC6\pdl\middleware\ble/cy_ble_gap.h ****     /** Advertising Interval */
 268:Generated_Source\PSoC6\pdl\middleware\ble/cy_ble_gap.h ****     CY_BLE_GAP_ADV_ADVERT_INTERVAL,
 269:Generated_Source\PSoC6\pdl\middleware\ble/cy_ble_gap.h **** 
 270:Generated_Source\PSoC6\pdl\middleware\ble/cy_ble_gap.h ****     /** LE Bluetooth Device Address */
 271:Generated_Source\PSoC6\pdl\middleware\ble/cy_ble_gap.h ****     CY_BLE_GAP_ADV_LE_BT_DEVICE_ADDR,
 272:Generated_Source\PSoC6\pdl\middleware\ble/cy_ble_gap.h **** 
 273:Generated_Source\PSoC6\pdl\middleware\ble/cy_ble_gap.h ****     /** LE Role */
 274:Generated_Source\PSoC6\pdl\middleware\ble/cy_ble_gap.h ****     CY_BLE_GAP_ADV_LE_ROLE,
 275:Generated_Source\PSoC6\pdl\middleware\ble/cy_ble_gap.h **** 
 276:Generated_Source\PSoC6\pdl\middleware\ble/cy_ble_gap.h ****     /** Simple Pairing Hash C-256 */
 277:Generated_Source\PSoC6\pdl\middleware\ble/cy_ble_gap.h ****     CY_BLE_GAP_ADV_SMPL_PAIR_HASH_C256,
 278:Generated_Source\PSoC6\pdl\middleware\ble/cy_ble_gap.h **** 
 279:Generated_Source\PSoC6\pdl\middleware\ble/cy_ble_gap.h ****     /** Simple Pairing Randomizer R-256 */
 280:Generated_Source\PSoC6\pdl\middleware\ble/cy_ble_gap.h ****     CY_BLE_GAP_ADV_SMPL_PAIR_RANDOM_R256,
 281:Generated_Source\PSoC6\pdl\middleware\ble/cy_ble_gap.h **** 
 282:Generated_Source\PSoC6\pdl\middleware\ble/cy_ble_gap.h ****     /** List of 32-bit Service Solicitation UUIDs */
 283:Generated_Source\PSoC6\pdl\middleware\ble/cy_ble_gap.h ****     CY_BLE_GAP_ADV_SOLICIT_32UUID,
 284:Generated_Source\PSoC6\pdl\middleware\ble/cy_ble_gap.h **** 
 285:Generated_Source\PSoC6\pdl\middleware\ble/cy_ble_gap.h ****     /** Service Data - 32-bit UUID */
 286:Generated_Source\PSoC6\pdl\middleware\ble/cy_ble_gap.h ****     CY_BLE_GAP_ADV_SRVC_DATA_32UUID,
 287:Generated_Source\PSoC6\pdl\middleware\ble/cy_ble_gap.h **** 
 288:Generated_Source\PSoC6\pdl\middleware\ble/cy_ble_gap.h ****     /** Service Data - 128-bit UUID */
ARM GAS  C:\Users\Nazar\AppData\Local\Temp\ccWQ1kO8.s 			page 30


 289:Generated_Source\PSoC6\pdl\middleware\ble/cy_ble_gap.h ****     CY_BLE_GAP_ADV_SRVC_DATA_128UUID,
 290:Generated_Source\PSoC6\pdl\middleware\ble/cy_ble_gap.h **** 
 291:Generated_Source\PSoC6\pdl\middleware\ble/cy_ble_gap.h ****     /** 3D Information Data */
 292:Generated_Source\PSoC6\pdl\middleware\ble/cy_ble_gap.h ****     CY_BLE_GAP_ADV_3D_INFO_DATA = 0x3D,
 293:Generated_Source\PSoC6\pdl\middleware\ble/cy_ble_gap.h **** 
 294:Generated_Source\PSoC6\pdl\middleware\ble/cy_ble_gap.h ****     /** Manufacturer Specific Data */
 295:Generated_Source\PSoC6\pdl\middleware\ble/cy_ble_gap.h ****     CY_BLE_GAP_ADV_MANUFACTURER_SPECIFIC_DATA = 0xFF
 296:Generated_Source\PSoC6\pdl\middleware\ble/cy_ble_gap.h **** }cy_en_ble_gap_adv_assign_numbers_t;
 297:Generated_Source\PSoC6\pdl\middleware\ble/cy_ble_gap.h **** 
 298:Generated_Source\PSoC6\pdl\middleware\ble/cy_ble_gap.h **** /** GAPP advertising configuration parameters structure */
 299:Generated_Source\PSoC6\pdl\middleware\ble/cy_ble_gap.h **** typedef struct
 300:Generated_Source\PSoC6\pdl\middleware\ble/cy_ble_gap.h **** {
 301:Generated_Source\PSoC6\pdl\middleware\ble/cy_ble_gap.h ****     /** The minimum interval for fast advertising the data and establishing the LE Connection */
 302:Generated_Source\PSoC6\pdl\middleware\ble/cy_ble_gap.h ****     uint16_t fastAdvIntervalMin;
 303:Generated_Source\PSoC6\pdl\middleware\ble/cy_ble_gap.h **** 
 304:Generated_Source\PSoC6\pdl\middleware\ble/cy_ble_gap.h ****     /** The maximum interval for fast advertising the data and establishing the LE Connection */
 305:Generated_Source\PSoC6\pdl\middleware\ble/cy_ble_gap.h ****     uint16_t fastAdvIntervalMax;
 306:Generated_Source\PSoC6\pdl\middleware\ble/cy_ble_gap.h **** 
 307:Generated_Source\PSoC6\pdl\middleware\ble/cy_ble_gap.h ****     /** The timeout value of  fast advertising with fast advertising interval parameters */
 308:Generated_Source\PSoC6\pdl\middleware\ble/cy_ble_gap.h ****     uint16_t fastAdvTimeOut;
 309:Generated_Source\PSoC6\pdl\middleware\ble/cy_ble_gap.h **** 
 310:Generated_Source\PSoC6\pdl\middleware\ble/cy_ble_gap.h ****     /** Slow advertising enable */
 311:Generated_Source\PSoC6\pdl\middleware\ble/cy_ble_gap.h ****     uint8_t  slowAdvEnable;
 312:Generated_Source\PSoC6\pdl\middleware\ble/cy_ble_gap.h **** 
 313:Generated_Source\PSoC6\pdl\middleware\ble/cy_ble_gap.h ****     /** The minimum interval for slow advertising the data and establishing the LE Connection */
 314:Generated_Source\PSoC6\pdl\middleware\ble/cy_ble_gap.h ****     uint16_t slowAdvIntervalMin;
 315:Generated_Source\PSoC6\pdl\middleware\ble/cy_ble_gap.h **** 
 316:Generated_Source\PSoC6\pdl\middleware\ble/cy_ble_gap.h ****     /** The maximum interval for slow  advertising the data and establishing the LE Connection */
 317:Generated_Source\PSoC6\pdl\middleware\ble/cy_ble_gap.h ****     uint16_t slowAdvIntervalMax;
 318:Generated_Source\PSoC6\pdl\middleware\ble/cy_ble_gap.h **** 
 319:Generated_Source\PSoC6\pdl\middleware\ble/cy_ble_gap.h ****     /** The timeout value of slow advertising with slow advertising interval parameters */
 320:Generated_Source\PSoC6\pdl\middleware\ble/cy_ble_gap.h ****     uint16_t slowAdvTimeOut;
 321:Generated_Source\PSoC6\pdl\middleware\ble/cy_ble_gap.h **** }cy_stc_ble_gapp_adv_params_t;
 322:Generated_Source\PSoC6\pdl\middleware\ble/cy_ble_gap.h **** 
 323:Generated_Source\PSoC6\pdl\middleware\ble/cy_ble_gap.h **** /** GAPC advertising configuration parameters structure */
 324:Generated_Source\PSoC6\pdl\middleware\ble/cy_ble_gap.h **** typedef struct
 325:Generated_Source\PSoC6\pdl\middleware\ble/cy_ble_gap.h **** {
 326:Generated_Source\PSoC6\pdl\middleware\ble/cy_ble_gap.h ****     /** The scan interval when operating in Fast connection */
 327:Generated_Source\PSoC6\pdl\middleware\ble/cy_ble_gap.h ****     uint16_t fastScanInterval;
 328:Generated_Source\PSoC6\pdl\middleware\ble/cy_ble_gap.h **** 
 329:Generated_Source\PSoC6\pdl\middleware\ble/cy_ble_gap.h ****     /** Defines the scan window when operating in Fast connection */
 330:Generated_Source\PSoC6\pdl\middleware\ble/cy_ble_gap.h ****     uint16_t fastScanWindow;
 331:Generated_Source\PSoC6\pdl\middleware\ble/cy_ble_gap.h **** 
 332:Generated_Source\PSoC6\pdl\middleware\ble/cy_ble_gap.h ****     /** The timeout value of scanning with fast scan parameters */
 333:Generated_Source\PSoC6\pdl\middleware\ble/cy_ble_gap.h ****     uint16_t fastScanTimeOut;
 334:Generated_Source\PSoC6\pdl\middleware\ble/cy_ble_gap.h **** 
 335:Generated_Source\PSoC6\pdl\middleware\ble/cy_ble_gap.h ****     /** Slow scan enable/disable */
 336:Generated_Source\PSoC6\pdl\middleware\ble/cy_ble_gap.h ****     uint8_t  slowScanEnabled;
 337:Generated_Source\PSoC6\pdl\middleware\ble/cy_ble_gap.h **** 
 338:Generated_Source\PSoC6\pdl\middleware\ble/cy_ble_gap.h ****     /** The scan interval when operating in Slow connection */
 339:Generated_Source\PSoC6\pdl\middleware\ble/cy_ble_gap.h ****     uint16_t slowScanInterval;
 340:Generated_Source\PSoC6\pdl\middleware\ble/cy_ble_gap.h **** 
 341:Generated_Source\PSoC6\pdl\middleware\ble/cy_ble_gap.h ****     /** Defines the scan window when operating in Slow connection */
 342:Generated_Source\PSoC6\pdl\middleware\ble/cy_ble_gap.h ****     uint16_t slowScanWindow;
 343:Generated_Source\PSoC6\pdl\middleware\ble/cy_ble_gap.h **** 
 344:Generated_Source\PSoC6\pdl\middleware\ble/cy_ble_gap.h ****     /** The timeout value of scanning with Slow scan parameters */
 345:Generated_Source\PSoC6\pdl\middleware\ble/cy_ble_gap.h ****     uint16_t slowScanTimeOut;
ARM GAS  C:\Users\Nazar\AppData\Local\Temp\ccWQ1kO8.s 			page 31


 346:Generated_Source\PSoC6\pdl\middleware\ble/cy_ble_gap.h **** 
 347:Generated_Source\PSoC6\pdl\middleware\ble/cy_ble_gap.h ****     /** The minimum permissible connection time value to be used during a connection event */
 348:Generated_Source\PSoC6\pdl\middleware\ble/cy_ble_gap.h ****     uint16_t gapcConnectionIntervalMin;
 349:Generated_Source\PSoC6\pdl\middleware\ble/cy_ble_gap.h **** 
 350:Generated_Source\PSoC6\pdl\middleware\ble/cy_ble_gap.h ****     /** The maximum permissible connection time value to be used during a connection event */
 351:Generated_Source\PSoC6\pdl\middleware\ble/cy_ble_gap.h ****     uint16_t gapcConnectionIntervalMax;
 352:Generated_Source\PSoC6\pdl\middleware\ble/cy_ble_gap.h **** 
 353:Generated_Source\PSoC6\pdl\middleware\ble/cy_ble_gap.h ****     /** Defines the maximum time between two received Data Packet PDUs before
 354:Generated_Source\PSoC6\pdl\middleware\ble/cy_ble_gap.h ****      *  the connection is considered lost */
 355:Generated_Source\PSoC6\pdl\middleware\ble/cy_ble_gap.h ****     uint16_t gapcConnectionSlaveLatency;
 356:Generated_Source\PSoC6\pdl\middleware\ble/cy_ble_gap.h **** 
 357:Generated_Source\PSoC6\pdl\middleware\ble/cy_ble_gap.h ****     /** Defines the LE link supervision timeout interval */
 358:Generated_Source\PSoC6\pdl\middleware\ble/cy_ble_gap.h ****     uint16_t gapcConnectionTimeOut;
 359:Generated_Source\PSoC6\pdl\middleware\ble/cy_ble_gap.h **** }cy_stc_ble_gapc_scan_params_t;
 360:Generated_Source\PSoC6\pdl\middleware\ble/cy_ble_gap.h **** 
 361:Generated_Source\PSoC6\pdl\middleware\ble/cy_ble_gap.h **** /** Store BLE Application Data parameter into flash */
 362:Generated_Source\PSoC6\pdl\middleware\ble/cy_ble_gap.h **** typedef struct
 363:Generated_Source\PSoC6\pdl\middleware\ble/cy_ble_gap.h **** {
 364:Generated_Source\PSoC6\pdl\middleware\ble/cy_ble_gap.h ****     /** Source buffer */
 365:Generated_Source\PSoC6\pdl\middleware\ble/cy_ble_gap.h ****     const uint8_t *srcBuff;
 366:Generated_Source\PSoC6\pdl\middleware\ble/cy_ble_gap.h **** 
 367:Generated_Source\PSoC6\pdl\middleware\ble/cy_ble_gap.h ****     /** Destination buffer */
 368:Generated_Source\PSoC6\pdl\middleware\ble/cy_ble_gap.h ****     const uint8_t *destAddr;
 369:Generated_Source\PSoC6\pdl\middleware\ble/cy_ble_gap.h **** 
 370:Generated_Source\PSoC6\pdl\middleware\ble/cy_ble_gap.h ****     /** Source buffer length */
 371:Generated_Source\PSoC6\pdl\middleware\ble/cy_ble_gap.h ****     uint32_t      buffLen;
 372:Generated_Source\PSoC6\pdl\middleware\ble/cy_ble_gap.h **** 
 373:Generated_Source\PSoC6\pdl\middleware\ble/cy_ble_gap.h ****     /** Write mode: blocking (default) / non-blocking */
 374:Generated_Source\PSoC6\pdl\middleware\ble/cy_ble_gap.h ****     uint32_t      writeMode;
 375:Generated_Source\PSoC6\pdl\middleware\ble/cy_ble_gap.h **** 
 376:Generated_Source\PSoC6\pdl\middleware\ble/cy_ble_gap.h **** } cy_stc_ble_app_flash_param_t;
 377:Generated_Source\PSoC6\pdl\middleware\ble/cy_ble_gap.h **** 
 378:Generated_Source\PSoC6\pdl\middleware\ble/cy_ble_gap.h **** /** @} group_ble_common_api_gap_definitions */
 379:Generated_Source\PSoC6\pdl\middleware\ble/cy_ble_gap.h **** 
 380:Generated_Source\PSoC6\pdl\middleware\ble/cy_ble_gap.h **** /***************************************
 381:Generated_Source\PSoC6\pdl\middleware\ble/cy_ble_gap.h **** * API Constants
 382:Generated_Source\PSoC6\pdl\middleware\ble/cy_ble_gap.h **** ***************************************/
 383:Generated_Source\PSoC6\pdl\middleware\ble/cy_ble_gap.h **** #define CY_BLE_AD_TYPE_MORE16UUID                  (0x02u)
 384:Generated_Source\PSoC6\pdl\middleware\ble/cy_ble_gap.h **** #define CY_BLE_AD_TYPE_CMPL16UUID                  (0x03u)
 385:Generated_Source\PSoC6\pdl\middleware\ble/cy_ble_gap.h **** #define CY_BLE_AD_TYPE_MORE32UUID                  (0x04u)
 386:Generated_Source\PSoC6\pdl\middleware\ble/cy_ble_gap.h **** #define CY_BLE_AD_TYPE_CMPL32UUID                  (0x05u)
 387:Generated_Source\PSoC6\pdl\middleware\ble/cy_ble_gap.h **** #define CY_BLE_AD_TYPE_MORE128UUID                 (0x06u)
 388:Generated_Source\PSoC6\pdl\middleware\ble/cy_ble_gap.h **** #define CY_BLE_AD_TYPE_CMPL128UUID                 (0x07u)
 389:Generated_Source\PSoC6\pdl\middleware\ble/cy_ble_gap.h **** 
 390:Generated_Source\PSoC6\pdl\middleware\ble/cy_ble_gap.h **** #define CY_BLE_AD_TYPE_SERVICE_DATA                (0x16u)
 391:Generated_Source\PSoC6\pdl\middleware\ble/cy_ble_gap.h **** #define CY_BLE_AD_SERVICE_DATA_OVERHEAD            (0x03u)
 392:Generated_Source\PSoC6\pdl\middleware\ble/cy_ble_gap.h **** 
 393:Generated_Source\PSoC6\pdl\middleware\ble/cy_ble_gap.h **** #define CY_BLE_DISCOVERY_IDLE                      (0x00u)
 394:Generated_Source\PSoC6\pdl\middleware\ble/cy_ble_gap.h **** #define CY_BLE_DISCOVERY_SERVICE                   (0x01u)
 395:Generated_Source\PSoC6\pdl\middleware\ble/cy_ble_gap.h **** #define CY_BLE_DISCOVERY_CHAR                      (0x02u)
 396:Generated_Source\PSoC6\pdl\middleware\ble/cy_ble_gap.h **** #define CY_BLE_DISCOVERY_DESCR                     (0x03u)
 397:Generated_Source\PSoC6\pdl\middleware\ble/cy_ble_gap.h **** #define CY_BLE_DISCOVERY_DONE                      (0x04u)
 398:Generated_Source\PSoC6\pdl\middleware\ble/cy_ble_gap.h **** 
 399:Generated_Source\PSoC6\pdl\middleware\ble/cy_ble_gap.h **** /* Cy_BLE_NextCharDscrDiscovery parameters */
 400:Generated_Source\PSoC6\pdl\middleware\ble/cy_ble_gap.h **** #define CY_BLE_DISCOVERY_INIT                      (0x00u)
 401:Generated_Source\PSoC6\pdl\middleware\ble/cy_ble_gap.h **** #define CY_BLE_DISCOVERY_CONTINUE                  (0x01u)
 402:Generated_Source\PSoC6\pdl\middleware\ble/cy_ble_gap.h **** 
ARM GAS  C:\Users\Nazar\AppData\Local\Temp\ccWQ1kO8.s 			page 32


 403:Generated_Source\PSoC6\pdl\middleware\ble/cy_ble_gap.h **** #define CY_BLE_SFLASH_DIE_X_MASK                   (0x3Fu)
 404:Generated_Source\PSoC6\pdl\middleware\ble/cy_ble_gap.h **** #define CY_BLE_SFLASH_DIE_X_BITS                   (6u)
 405:Generated_Source\PSoC6\pdl\middleware\ble/cy_ble_gap.h **** #define CY_BLE_SFLASH_DIE_Y_MASK                   (0x3Fu)
 406:Generated_Source\PSoC6\pdl\middleware\ble/cy_ble_gap.h **** #define CY_BLE_SFLASH_DIE_Y_BITS                   (6u)
 407:Generated_Source\PSoC6\pdl\middleware\ble/cy_ble_gap.h **** #define CY_BLE_SFLASH_DIE_XY_BITS                  (CY_BLE_SFLASH_DIE_X_BITS + CY_BLE_SFLASH_DIE_Y_
 408:Generated_Source\PSoC6\pdl\middleware\ble/cy_ble_gap.h **** #define CY_BLE_SFLASH_DIE_WAFER_MASK               (0x1Fu)
 409:Generated_Source\PSoC6\pdl\middleware\ble/cy_ble_gap.h **** #define CY_BLE_SFLASH_DIE_WAFER_BITS               (5u)
 410:Generated_Source\PSoC6\pdl\middleware\ble/cy_ble_gap.h **** #define CY_BLE_SFLASH_DIE_XYWAFER_BITS             (CY_BLE_SFLASH_DIE_XY_BITS + CY_BLE_SFLASH_DIE_W
 411:Generated_Source\PSoC6\pdl\middleware\ble/cy_ble_gap.h **** #define CY_BLE_SFLASH_DIE_LOT_MASK                 (0x7Fu)
 412:Generated_Source\PSoC6\pdl\middleware\ble/cy_ble_gap.h **** #define CY_BLE_SFLASH_DIE_LOT_BITS                 (7u)
 413:Generated_Source\PSoC6\pdl\middleware\ble/cy_ble_gap.h **** 
 414:Generated_Source\PSoC6\pdl\middleware\ble/cy_ble_gap.h **** /* Device address stored by user in ROW4 of the SFLASH */
 415:Generated_Source\PSoC6\pdl\middleware\ble/cy_ble_gap.h **** #define CY_BLE_SFLASH_DEVICE_ADDRESS_PTR           ((cy_stc_ble_gap_bd_addr_t*)(SFLASH->BLE_DEVICE_
 416:Generated_Source\PSoC6\pdl\middleware\ble/cy_ble_gap.h **** #define CY_BLE_AD_STRUCTURE_MAX_LENGTH             (31u)
 417:Generated_Source\PSoC6\pdl\middleware\ble/cy_ble_gap.h **** 
 418:Generated_Source\PSoC6\pdl\middleware\ble/cy_ble_gap.h **** /* AD types for complete, shortened local name and device address */
 419:Generated_Source\PSoC6\pdl\middleware\ble/cy_ble_gap.h **** #define CY_BLE_SHORT_LOCAL_NAME                    (0x08u)  /**< Shortened Local Name */
 420:Generated_Source\PSoC6\pdl\middleware\ble/cy_ble_gap.h **** #define CY_BLE_COMPLETE_LOCAL_NAME                 (0x09u)  /**< Complete Local Name */
 421:Generated_Source\PSoC6\pdl\middleware\ble/cy_ble_gap.h **** #define CY_BLE_ADV_DEVICE_ADDR                     (0x1Bu)  /**< LE Bluetooth Device Address */
 422:Generated_Source\PSoC6\pdl\middleware\ble/cy_ble_gap.h **** 
 423:Generated_Source\PSoC6\pdl\middleware\ble/cy_ble_gap.h **** #define CY_BLE_ADVERTISING_FAST                    (0x00u)
 424:Generated_Source\PSoC6\pdl\middleware\ble/cy_ble_gap.h **** #define CY_BLE_ADVERTISING_SLOW                    (0x01u)
 425:Generated_Source\PSoC6\pdl\middleware\ble/cy_ble_gap.h **** #define CY_BLE_ADVERTISING_CUSTOM                  (0x02u)
 426:Generated_Source\PSoC6\pdl\middleware\ble/cy_ble_gap.h **** 
 427:Generated_Source\PSoC6\pdl\middleware\ble/cy_ble_gap.h **** #define CY_BLE_SCANNING_FAST                       (0x00u)
 428:Generated_Source\PSoC6\pdl\middleware\ble/cy_ble_gap.h **** #define CY_BLE_SCANNING_SLOW                       (0x01u)
 429:Generated_Source\PSoC6\pdl\middleware\ble/cy_ble_gap.h **** #define CY_BLE_SCANNING_CUSTOM                     (0x02u)
 430:Generated_Source\PSoC6\pdl\middleware\ble/cy_ble_gap.h **** 
 431:Generated_Source\PSoC6\pdl\middleware\ble/cy_ble_gap.h **** #define CY_BLE_PENDING_STACK_FLASH_WRITE_BIT       (0x01u)
 432:Generated_Source\PSoC6\pdl\middleware\ble/cy_ble_gap.h **** #define CY_BLE_PENDING_CCCD_FLASH_WRITE_BIT        (0x02u)
 433:Generated_Source\PSoC6\pdl\middleware\ble/cy_ble_gap.h **** #define CY_BLE_PENDING_CCCD_FLASH_CLEAR_BIT        (0x04u)
 434:Generated_Source\PSoC6\pdl\middleware\ble/cy_ble_gap.h **** #define CY_BLE_PENDING_CCCD_FLASH_CLEAR_ALL_BIT    (0x08u)
 435:Generated_Source\PSoC6\pdl\middleware\ble/cy_ble_gap.h **** #define CY_BLE_PENDING_CCCD_FLASH_CLEAR_MASK \
 436:Generated_Source\PSoC6\pdl\middleware\ble/cy_ble_gap.h ****     (CY_BLE_PENDING_CCCD_FLASH_CLEAR_BIT | CY_BLE_PENDING_CCCD_FLASH_CLEAR_ALL_BIT)
 437:Generated_Source\PSoC6\pdl\middleware\ble/cy_ble_gap.h **** 
 438:Generated_Source\PSoC6\pdl\middleware\ble/cy_ble_gap.h **** /**
 439:Generated_Source\PSoC6\pdl\middleware\ble/cy_ble_gap.h ****  * \addtogroup group_ble_common_api_macros
 440:Generated_Source\PSoC6\pdl\middleware\ble/cy_ble_gap.h ****  * @{
 441:Generated_Source\PSoC6\pdl\middleware\ble/cy_ble_gap.h ****  */
 442:Generated_Source\PSoC6\pdl\middleware\ble/cy_ble_gap.h **** 
 443:Generated_Source\PSoC6\pdl\middleware\ble/cy_ble_gap.h **** /* GAP Advertisement Flags */
 444:Generated_Source\PSoC6\pdl\middleware\ble/cy_ble_gap.h **** #define CY_BLE_GAP_ADV_FLAG_LE_LIMITED_DISC_MODE        (0x01u)     /**< LE Limited Discoverable Mo
 445:Generated_Source\PSoC6\pdl\middleware\ble/cy_ble_gap.h **** #define CY_BLE_GAP_ADV_FLAG_LE_GENERAL_DISC_MODE        (0x02u)     /**< LE General Discoverable Mo
 446:Generated_Source\PSoC6\pdl\middleware\ble/cy_ble_gap.h **** #define CY_BLE_GAP_ADV_FLAG_BR_EDR_NOT_SUPPORTED        (0x04u)     /**< BR/EDR not supported. */
 447:Generated_Source\PSoC6\pdl\middleware\ble/cy_ble_gap.h **** #define CY_BLE_GAP_ADV_FLAG_LE_BR_EDR_CONTROLLER        (0x08u)     /**< Simultaneous LE and BR/EDR
 448:Generated_Source\PSoC6\pdl\middleware\ble/cy_ble_gap.h **** #define CY_BLE_GAP_ADV_FLAG_LE_BR_EDR_HOST              (0x10u)     /**< Simultaneous LE and BR/EDR
 449:Generated_Source\PSoC6\pdl\middleware\ble/cy_ble_gap.h **** #define CY_BLE_GAP_ADV_FLAGS_PACKET_LENGTH              (0x02u)     /**< Length of flags in an adve
 450:Generated_Source\PSoC6\pdl\middleware\ble/cy_ble_gap.h **** 
 451:Generated_Source\PSoC6\pdl\middleware\ble/cy_ble_gap.h **** /* GAP Advertising interval min and max */
 452:Generated_Source\PSoC6\pdl\middleware\ble/cy_ble_gap.h **** #define CY_BLE_GAP_ADV_ADVERT_INTERVAL_MIN              (0x0020u)   /**< Minimum Advertising interv
 453:Generated_Source\PSoC6\pdl\middleware\ble/cy_ble_gap.h ****                                                                      *   i.e. 20 ms. */
 454:Generated_Source\PSoC6\pdl\middleware\ble/cy_ble_gap.h **** #define CY_BLE_GAP_ADV_ADVERT_INTERVAL_NONCON_MIN       (0x00A0u)   /**< Minimum Advertising interv
 455:Generated_Source\PSoC6\pdl\middleware\ble/cy_ble_gap.h ****                                                                      *   for non connectable mode, 
 456:Generated_Source\PSoC6\pdl\middleware\ble/cy_ble_gap.h **** #define CY_BLE_GAP_ADV_ADVERT_INTERVAL_MAX              (0x4000u)   /**< Maximum Advertising interv
 457:Generated_Source\PSoC6\pdl\middleware\ble/cy_ble_gap.h ****                                                                      *   i.e. 10.24 s. */
 458:Generated_Source\PSoC6\pdl\middleware\ble/cy_ble_gap.h **** #define CY_BLE_GAP_ADV_ADVERT_INTERVAL_PACKET_LENGTH    (0x03u)     /**< Length of the Advertising 
 459:Generated_Source\PSoC6\pdl\middleware\ble/cy_ble_gap.h ****                                                                      *   an advertisement packet */
ARM GAS  C:\Users\Nazar\AppData\Local\Temp\ccWQ1kO8.s 			page 33


 460:Generated_Source\PSoC6\pdl\middleware\ble/cy_ble_gap.h **** #define CY_BLE_GAPC_CONNECTING_TIMEOUT                  (30u)       /**< Seconds */
 461:Generated_Source\PSoC6\pdl\middleware\ble/cy_ble_gap.h **** #define CY_BLE_INVALID_CONN_HANDLE_VALUE                (0xFFu)     /**< Invalid Connection Handle 
 462:Generated_Source\PSoC6\pdl\middleware\ble/cy_ble_gap.h **** 
 463:Generated_Source\PSoC6\pdl\middleware\ble/cy_ble_gap.h **** /* Write mode for Cy_BLE_StoreAppData */
 464:Generated_Source\PSoC6\pdl\middleware\ble/cy_ble_gap.h **** #define CY_BLE_STORE_DATA_MODE_BLOCKING                 (0x0u)      /**< Blocking write */
 465:Generated_Source\PSoC6\pdl\middleware\ble/cy_ble_gap.h **** #define CY_BLE_STORE_DATA_MODE_NON_BLOCKING             (0x1u)      /**< Non-blocking write */
 466:Generated_Source\PSoC6\pdl\middleware\ble/cy_ble_gap.h **** 
 467:Generated_Source\PSoC6\pdl\middleware\ble/cy_ble_gap.h **** /** @} group_ble_common_api_macros */
 468:Generated_Source\PSoC6\pdl\middleware\ble/cy_ble_gap.h **** 
 469:Generated_Source\PSoC6\pdl\middleware\ble/cy_ble_gap.h **** /***************************************
 470:Generated_Source\PSoC6\pdl\middleware\ble/cy_ble_gap.h **** * Private Function Prototypes
 471:Generated_Source\PSoC6\pdl\middleware\ble/cy_ble_gap.h **** ***************************************/
 472:Generated_Source\PSoC6\pdl\middleware\ble/cy_ble_gap.h **** void Cy_BLE_ServiceInit(void);
 473:Generated_Source\PSoC6\pdl\middleware\ble/cy_ble_gap.h **** uint32_t Cy_BLE_GetDiscoveryIdx(cy_stc_ble_conn_handle_t connHandle);
 474:Generated_Source\PSoC6\pdl\middleware\ble/cy_ble_gap.h **** 
 475:Generated_Source\PSoC6\pdl\middleware\ble/cy_ble_gap.h **** /***************************************
 476:Generated_Source\PSoC6\pdl\middleware\ble/cy_ble_gap.h **** * Function Prototypes
 477:Generated_Source\PSoC6\pdl\middleware\ble/cy_ble_gap.h **** ***************************************/
 478:Generated_Source\PSoC6\pdl\middleware\ble/cy_ble_gap.h **** /**
 479:Generated_Source\PSoC6\pdl\middleware\ble/cy_ble_gap.h ****  * \addtogroup group_ble_common_api_functions
 480:Generated_Source\PSoC6\pdl\middleware\ble/cy_ble_gap.h ****  * @{
 481:Generated_Source\PSoC6\pdl\middleware\ble/cy_ble_gap.h ****  */
 482:Generated_Source\PSoC6\pdl\middleware\ble/cy_ble_gap.h **** 
 483:Generated_Source\PSoC6\pdl\middleware\ble/cy_ble_gap.h **** cy_en_ble_api_result_t Cy_BLE_StoreAppData(const cy_stc_ble_app_flash_param_t *param);
 484:Generated_Source\PSoC6\pdl\middleware\ble/cy_ble_gap.h **** 
 485:Generated_Source\PSoC6\pdl\middleware\ble/cy_ble_gap.h **** #if ((CY_BLE_GAP_ROLE_PERIPHERAL || CY_BLE_GAP_ROLE_CENTRAL) && (CY_BLE_BONDING_REQUIREMENT == CY_B
 486:Generated_Source\PSoC6\pdl\middleware\ble/cy_ble_gap.h **** cy_en_ble_api_result_t Cy_BLE_StoreBondingData(void);
 487:Generated_Source\PSoC6\pdl\middleware\ble/cy_ble_gap.h **** cy_en_ble_api_result_t Cy_BLE_GAP_RemoveBondedDevice(cy_stc_ble_gap_bd_addr_t* bdAddr);
 488:Generated_Source\PSoC6\pdl\middleware\ble/cy_ble_gap.h **** #endif /* (CY_BLE_GAP_ROLE_PERIPHERAL || CY_BLE_GAP_ROLE_CENTRAL) && (CY_BLE_BONDING_REQUIREMENT ==
 489:Generated_Source\PSoC6\pdl\middleware\ble/cy_ble_gap.h **** 
 490:Generated_Source\PSoC6\pdl\middleware\ble/cy_ble_gap.h **** #if (CY_BLE_GAP_ROLE_PERIPHERAL || CY_BLE_GAP_ROLE_CENTRAL)
 491:Generated_Source\PSoC6\pdl\middleware\ble/cy_ble_gap.h **** bool Cy_BLE_IsPeerConnected(uint8_t *bdAddr);
 492:Generated_Source\PSoC6\pdl\middleware\ble/cy_ble_gap.h **** bool Cy_BLE_IsDevicePaired(cy_stc_ble_conn_handle_t *connHandle);
 493:Generated_Source\PSoC6\pdl\middleware\ble/cy_ble_gap.h **** uint8_t Cy_BLE_GetDeviceRole(cy_stc_ble_conn_handle_t *connHandle);
 494:Generated_Source\PSoC6\pdl\middleware\ble/cy_ble_gap.h **** 
 495:Generated_Source\PSoC6\pdl\middleware\ble/cy_ble_gap.h **** cy_en_ble_api_result_t Cy_BLE_GetRssiPeer(uint8_t  bdHandle);
 496:Generated_Source\PSoC6\pdl\middleware\ble/cy_ble_gap.h **** #endif /* (CY_BLE_GAP_ROLE_PERIPHERAL || CY_BLE_GAP_ROLE_CENTRAL) */
 497:Generated_Source\PSoC6\pdl\middleware\ble/cy_ble_gap.h **** /** @} group_ble_common_api_functions */
 498:Generated_Source\PSoC6\pdl\middleware\ble/cy_ble_gap.h **** 
 499:Generated_Source\PSoC6\pdl\middleware\ble/cy_ble_gap.h **** /**
 500:Generated_Source\PSoC6\pdl\middleware\ble/cy_ble_gap.h ****  * \addtogroup group_ble_common_api_gap_peripheral_functions
 501:Generated_Source\PSoC6\pdl\middleware\ble/cy_ble_gap.h ****  * @{
 502:Generated_Source\PSoC6\pdl\middleware\ble/cy_ble_gap.h ****  */
 503:Generated_Source\PSoC6\pdl\middleware\ble/cy_ble_gap.h **** 
 504:Generated_Source\PSoC6\pdl\middleware\ble/cy_ble_gap.h **** #if (CY_BLE_GAP_ROLE_PERIPHERAL || CY_BLE_GAP_ROLE_BROADCASTER)
 505:Generated_Source\PSoC6\pdl\middleware\ble/cy_ble_gap.h **** cy_en_ble_api_result_t Cy_BLE_GAPP_StartAdvertisement(uint8_t advertisingIntervalType, uint8_t adve
 506:Generated_Source\PSoC6\pdl\middleware\ble/cy_ble_gap.h **** cy_en_ble_api_result_t Cy_BLE_GAPP_StopAdvertisement(void);
 507:Generated_Source\PSoC6\pdl\middleware\ble/cy_ble_gap.h **** 
 508:Generated_Source\PSoC6\pdl\middleware\ble/cy_ble_gap.h **** /** \cond IGNORE */
 509:Generated_Source\PSoC6\pdl\middleware\ble/cy_ble_gap.h **** void Cy_BLE_ChangeAdDeviceAddress(const cy_stc_ble_gap_bd_addr_t* bdAddr, uint8_t dest);
 510:Generated_Source\PSoC6\pdl\middleware\ble/cy_ble_gap.h **** /** \endcond */
 511:Generated_Source\PSoC6\pdl\middleware\ble/cy_ble_gap.h **** 
 512:Generated_Source\PSoC6\pdl\middleware\ble/cy_ble_gap.h **** #endif /* CY_BLE_GAP_ROLE_PERIPHERAL */
 513:Generated_Source\PSoC6\pdl\middleware\ble/cy_ble_gap.h **** 
 514:Generated_Source\PSoC6\pdl\middleware\ble/cy_ble_gap.h **** /** @} group_ble_common_api_gap_peripheral_functions */
 515:Generated_Source\PSoC6\pdl\middleware\ble/cy_ble_gap.h **** 
 516:Generated_Source\PSoC6\pdl\middleware\ble/cy_ble_gap.h **** /**
ARM GAS  C:\Users\Nazar\AppData\Local\Temp\ccWQ1kO8.s 			page 34


 517:Generated_Source\PSoC6\pdl\middleware\ble/cy_ble_gap.h ****  * \addtogroup group_ble_common_api_gap_central_functions
 518:Generated_Source\PSoC6\pdl\middleware\ble/cy_ble_gap.h ****  * @{
 519:Generated_Source\PSoC6\pdl\middleware\ble/cy_ble_gap.h ****  */
 520:Generated_Source\PSoC6\pdl\middleware\ble/cy_ble_gap.h **** 
 521:Generated_Source\PSoC6\pdl\middleware\ble/cy_ble_gap.h **** #if (CY_BLE_GAP_ROLE_CENTRAL || CY_BLE_GAP_ROLE_OBSERVER)
 522:Generated_Source\PSoC6\pdl\middleware\ble/cy_ble_gap.h **** cy_en_ble_api_result_t Cy_BLE_GAPC_StartScan(uint8_t scanningIntervalType, uint8_t scanParamIndex);
 523:Generated_Source\PSoC6\pdl\middleware\ble/cy_ble_gap.h **** cy_en_ble_api_result_t Cy_BLE_GAPC_StopScan(void);
 524:Generated_Source\PSoC6\pdl\middleware\ble/cy_ble_gap.h **** #endif /* CY_BLE_GAP_ROLE_CENTRAL || CY_BLE_GAP_ROLE_OBSERVER */
 525:Generated_Source\PSoC6\pdl\middleware\ble/cy_ble_gap.h **** 
 526:Generated_Source\PSoC6\pdl\middleware\ble/cy_ble_gap.h **** #if (CY_BLE_GAP_ROLE_CENTRAL)
 527:Generated_Source\PSoC6\pdl\middleware\ble/cy_ble_gap.h **** cy_en_ble_api_result_t Cy_BLE_GAPC_ConnectDevice(const cy_stc_ble_gap_bd_addr_t * address, uint8_t 
 528:Generated_Source\PSoC6\pdl\middleware\ble/cy_ble_gap.h **** cy_en_ble_api_result_t Cy_BLE_GAPC_CancelDeviceConnection(void);
 529:Generated_Source\PSoC6\pdl\middleware\ble/cy_ble_gap.h **** #endif /* CY_BLE_GAP_ROLE_CENTRAL */
 530:Generated_Source\PSoC6\pdl\middleware\ble/cy_ble_gap.h **** 
 531:Generated_Source\PSoC6\pdl\middleware\ble/cy_ble_gap.h **** /** @} group_ble_common_api_gap_central_functions */
 532:Generated_Source\PSoC6\pdl\middleware\ble/cy_ble_gap.h **** 
 533:Generated_Source\PSoC6\pdl\middleware\ble/cy_ble_gap.h **** /***************************************
 534:Generated_Source\PSoC6\pdl\middleware\ble/cy_ble_gap.h **** * External data references
 535:Generated_Source\PSoC6\pdl\middleware\ble/cy_ble_gap.h **** ***************************************/
 536:Generated_Source\PSoC6\pdl\middleware\ble/cy_ble_gap.h **** extern volatile uint8_t cy_ble_eventHandlerFlag;
 537:Generated_Source\PSoC6\pdl\middleware\ble/cy_ble_gap.h **** extern cy_stc_ble_gap_bd_addr_t *cy_ble_sflashDeviceAddress;
 538:Generated_Source\PSoC6\pdl\middleware\ble/cy_ble_gap.h **** extern cy_stc_ble_gap_bd_addr_t cy_ble_deviceAddress;
 539:Generated_Source\PSoC6\pdl\middleware\ble/cy_ble_gap.h **** extern cy_en_ble_state_t cy_ble_state;
 540:Generated_Source\PSoC6\pdl\middleware\ble/cy_ble_gap.h **** 
 541:Generated_Source\PSoC6\pdl\middleware\ble/cy_ble_gap.h **** #if ((CY_BLE_GAP_ROLE_PERIPHERAL || CY_BLE_GAP_ROLE_CENTRAL))
 542:Generated_Source\PSoC6\pdl\middleware\ble/cy_ble_gap.h **** extern cy_stc_ble_gap_auth_info_t cy_ble_authInfo[CY_BLE_AUTH_INFO_COUNT];
 543:Generated_Source\PSoC6\pdl\middleware\ble/cy_ble_gap.h **** #endif /* ((CY_BLE_GAP_ROLE_PERIPHERAL || CY_BLE_GAP_ROLE_CENTRAL)) */
 544:Generated_Source\PSoC6\pdl\middleware\ble/cy_ble_gap.h **** 
 545:Generated_Source\PSoC6\pdl\middleware\ble/cy_ble_gap.h **** #if (CY_BLE_GAP_ROLE_PERIPHERAL || CY_BLE_GAP_ROLE_BROADCASTER)
 546:Generated_Source\PSoC6\pdl\middleware\ble/cy_ble_gap.h **** extern cy_en_ble_adv_state_t cy_ble_advState;
 547:Generated_Source\PSoC6\pdl\middleware\ble/cy_ble_gap.h **** extern uint8_t cy_ble_advIndex;
 548:Generated_Source\PSoC6\pdl\middleware\ble/cy_ble_gap.h **** #endif  /* (CY_BLE_GAP_ROLE_PERIPHERAL || CY_BLE_GAP_ROLE_BROADCASTER) */
 549:Generated_Source\PSoC6\pdl\middleware\ble/cy_ble_gap.h **** 
 550:Generated_Source\PSoC6\pdl\middleware\ble/cy_ble_gap.h **** #if (CY_BLE_GAP_ROLE_CENTRAL || CY_BLE_GAP_ROLE_OBSERVER)
 551:Generated_Source\PSoC6\pdl\middleware\ble/cy_ble_gap.h **** extern cy_en_ble_scan_state_t cy_ble_scanState;
 552:Generated_Source\PSoC6\pdl\middleware\ble/cy_ble_gap.h **** extern uint8_t cy_ble_scanIndex;
 553:Generated_Source\PSoC6\pdl\middleware\ble/cy_ble_gap.h **** #endif /* (CY_BLE_GAP_ROLE_CENTRAL || CY_BLE_GAP_ROLE_OBSERVER) */
 554:Generated_Source\PSoC6\pdl\middleware\ble/cy_ble_gap.h **** 
 555:Generated_Source\PSoC6\pdl\middleware\ble/cy_ble_gap.h **** #if ((CY_BLE_GAP_ROLE_PERIPHERAL || CY_BLE_GAP_ROLE_CENTRAL))
 556:Generated_Source\PSoC6\pdl\middleware\ble/cy_ble_gap.h **** extern cy_stc_ble_conn_handle_t cy_ble_connHandle[CY_BLE_CONN_COUNT];
 557:Generated_Source\PSoC6\pdl\middleware\ble/cy_ble_gap.h **** extern cy_en_ble_conn_state_t cy_ble_connState[CY_BLE_CONN_COUNT];
 558:Generated_Source\PSoC6\pdl\middleware\ble/cy_ble_gap.h **** 
 559:Generated_Source\PSoC6\pdl\middleware\ble/cy_ble_gap.h **** extern volatile uint8_t cy_ble_devConnRole[CY_BLE_CONN_COUNT];
 560:Generated_Source\PSoC6\pdl\middleware\ble/cy_ble_gap.h **** extern volatile bool cy_ble_pairStatus[CY_BLE_CONN_COUNT];
 561:Generated_Source\PSoC6\pdl\middleware\ble/cy_ble_gap.h **** 
 562:Generated_Source\PSoC6\pdl\middleware\ble/cy_ble_gap.h **** #endif /* ((CY_BLE_GAP_ROLE_PERIPHERAL || CY_BLE_GAP_ROLE_CENTRAL)) */
 563:Generated_Source\PSoC6\pdl\middleware\ble/cy_ble_gap.h **** 
 564:Generated_Source\PSoC6\pdl\middleware\ble/cy_ble_gap.h **** #if (CY_BLE_GAP_ROLE_CENTRAL || CY_BLE_GAP_ROLE_OBSERVER)
 565:Generated_Source\PSoC6\pdl\middleware\ble/cy_ble_gap.h **** extern cy_stc_ble_gapc_disc_info_t cy_ble_discoveryInfo[CY_BLE_GAPC_CONF_COUNT];
 566:Generated_Source\PSoC6\pdl\middleware\ble/cy_ble_gap.h **** #endif /* CY_BLE_GAP_ROLE_CENTRAL || CY_BLE_GAP_ROLE_OBSERVER */
 567:Generated_Source\PSoC6\pdl\middleware\ble/cy_ble_gap.h **** 
 568:Generated_Source\PSoC6\pdl\middleware\ble/cy_ble_gap.h **** #if (CY_BLE_GAP_ROLE_CENTRAL)
 569:Generated_Source\PSoC6\pdl\middleware\ble/cy_ble_gap.h **** extern cy_stc_ble_gapc_conn_info_t cy_ble_connectionParameters;
 570:Generated_Source\PSoC6\pdl\middleware\ble/cy_ble_gap.h **** extern cy_stc_ble_timer_info_t cy_ble_connectingTimeout;
 571:Generated_Source\PSoC6\pdl\middleware\ble/cy_ble_gap.h **** #endif /* CY_BLE_GAP_ROLE_CENTRAL */
 572:Generated_Source\PSoC6\pdl\middleware\ble/cy_ble_gap.h **** 
 573:Generated_Source\PSoC6\pdl\middleware\ble/cy_ble_gap.h **** #if (CY_BLE_GAP_ROLE_PERIPHERAL || CY_BLE_GAP_ROLE_BROADCASTER)
ARM GAS  C:\Users\Nazar\AppData\Local\Temp\ccWQ1kO8.s 			page 35


 574:Generated_Source\PSoC6\pdl\middleware\ble/cy_ble_gap.h **** extern cy_stc_ble_gapp_disc_mode_info_t cy_ble_discoveryModeInfo[CY_BLE_GAPP_CONF_COUNT];
 575:Generated_Source\PSoC6\pdl\middleware\ble/cy_ble_gap.h **** extern cy_stc_ble_gapp_disc_param_t cy_ble_discoveryParam[CY_BLE_GAPP_CONF_COUNT];
 576:Generated_Source\PSoC6\pdl\middleware\ble/cy_ble_gap.h **** extern cy_stc_ble_gapp_disc_data_t cy_ble_discoveryData[CY_BLE_GAPP_CONF_COUNT];
 577:Generated_Source\PSoC6\pdl\middleware\ble/cy_ble_gap.h **** extern cy_stc_ble_gapp_scan_rsp_data_t cy_ble_scanRspData[CY_BLE_GAPP_CONF_COUNT];
 578:Generated_Source\PSoC6\pdl\middleware\ble/cy_ble_gap.h **** #endif /* CY_BLE_GAP_ROLE_PERIPHERAL || CY_BLE_GAP_ROLE_BROADCASTER */
 579:Generated_Source\PSoC6\pdl\middleware\ble/cy_ble_gap.h **** 
 580:Generated_Source\PSoC6\pdl\middleware\ble/cy_ble_gap.h **** #if ((CY_BLE_GAP_ROLE_PERIPHERAL || CY_BLE_GAP_ROLE_CENTRAL) && (CY_BLE_BONDING_REQUIREMENT == CY_B
 581:Generated_Source\PSoC6\pdl\middleware\ble/cy_ble_gap.h **** 
 582:Generated_Source\PSoC6\pdl\middleware\ble/cy_ble_gap.h **** /**
 583:Generated_Source\PSoC6\pdl\middleware\ble/cy_ble_gap.h ****  * \addtogroup group_ble_common_api_global_variables
 584:Generated_Source\PSoC6\pdl\middleware\ble/cy_ble_gap.h ****  * @{
 585:Generated_Source\PSoC6\pdl\middleware\ble/cy_ble_gap.h ****  */
 586:Generated_Source\PSoC6\pdl\middleware\ble/cy_ble_gap.h **** /** This is a two-bit variable that contains status of pending write to flash operation.
 587:Generated_Source\PSoC6\pdl\middleware\ble/cy_ble_gap.h ****  * This variable is initialized to zero in Cy_BLE_Init().
 588:Generated_Source\PSoC6\pdl\middleware\ble/cy_ble_gap.h ****  * CY_BLE_PENDING_CCCD_FLASH_WRITE_BIT flag is set after write to CCCD event when a
 589:Generated_Source\PSoC6\pdl\middleware\ble/cy_ble_gap.h ****  * peer device supports bonding (cy_ble_peerBonding[eventParam->connHandle.attId] == CY_BLE_GAP_BON
 590:Generated_Source\PSoC6\pdl\middleware\ble/cy_ble_gap.h ****  * CY_BLE_PENDING_STACK_FLASH_WRITE_BIT flag is set after CY_BLE_EVT_PENDING_FLASH_WRITE event.
 591:Generated_Source\PSoC6\pdl\middleware\ble/cy_ble_gap.h ****  * Cy_BLE_StoreBondingData() should be called to store pending bonding data.
 592:Generated_Source\PSoC6\pdl\middleware\ble/cy_ble_gap.h ****  * This function automatically clears pending bits after write operation is complete.
 593:Generated_Source\PSoC6\pdl\middleware\ble/cy_ble_gap.h ****  */
 594:Generated_Source\PSoC6\pdl\middleware\ble/cy_ble_gap.h **** extern uint8_t cy_ble_pendingFlashWrite;
 595:Generated_Source\PSoC6\pdl\middleware\ble/cy_ble_gap.h **** /** @} group_ble_common_api_global_variables */
 596:Generated_Source\PSoC6\pdl\middleware\ble/cy_ble_gap.h **** 
 597:Generated_Source\PSoC6\pdl\middleware\ble/cy_ble_gap.h **** /** Bonding type setting of peer device, CY_BLE_GAP_BONDING_NONE or CY_BLE_GAP_BONDING.
 598:Generated_Source\PSoC6\pdl\middleware\ble/cy_ble_gap.h ****  * It is initialized after pairing with peer device and used for cy_ble_pendingFlashWrite variable
 599:Generated_Source\PSoC6\pdl\middleware\ble/cy_ble_gap.h ****  * setting.
 600:Generated_Source\PSoC6\pdl\middleware\ble/cy_ble_gap.h ****  */
 601:Generated_Source\PSoC6\pdl\middleware\ble/cy_ble_gap.h **** extern uint8_t cy_ble_peerBonding[CY_BLE_CONN_COUNT];
 602:Generated_Source\PSoC6\pdl\middleware\ble/cy_ble_gap.h **** 
 603:Generated_Source\PSoC6\pdl\middleware\ble/cy_ble_gap.h **** #endif  /* (CY_BLE_BONDING_REQUIREMENT == CY_BLE_BONDING_YES) */
 604:Generated_Source\PSoC6\pdl\middleware\ble/cy_ble_gap.h **** 
 605:Generated_Source\PSoC6\pdl\middleware\ble/cy_ble_gap.h **** 
 606:Generated_Source\PSoC6\pdl\middleware\ble/cy_ble_gap.h **** /***************************************
 607:Generated_Source\PSoC6\pdl\middleware\ble/cy_ble_gap.h **** * Exported Functions (MACROS)
 608:Generated_Source\PSoC6\pdl\middleware\ble/cy_ble_gap.h **** ***************************************/
 609:Generated_Source\PSoC6\pdl\middleware\ble/cy_ble_gap.h **** #if ((CY_BLE_GAP_ROLE_PERIPHERAL || CY_BLE_GAP_ROLE_CENTRAL))
 610:Generated_Source\PSoC6\pdl\middleware\ble/cy_ble_gap.h **** 
 611:Generated_Source\PSoC6\pdl\middleware\ble/cy_ble_gap.h **** /******************************************************************************
 612:Generated_Source\PSoC6\pdl\middleware\ble/cy_ble_gap.h **** * Function Name: Cy_BLE_GetConnHandleIdx
 613:Generated_Source\PSoC6\pdl\middleware\ble/cy_ble_gap.h **** ***************************************************************************//**
 614:Generated_Source\PSoC6\pdl\middleware\ble/cy_ble_gap.h **** *
 615:Generated_Source\PSoC6\pdl\middleware\ble/cy_ble_gap.h **** *  This function searches the array of connection handles (cy_ble_connHandle[])
 616:Generated_Source\PSoC6\pdl\middleware\ble/cy_ble_gap.h **** *  for the location (index) of a handle that corresponds to the input parameter
 617:Generated_Source\PSoC6\pdl\middleware\ble/cy_ble_gap.h **** *  connHandle. bdHandle.
 618:Generated_Source\PSoC6\pdl\middleware\ble/cy_ble_gap.h **** *
 619:Generated_Source\PSoC6\pdl\middleware\ble/cy_ble_gap.h **** *  This function is designated for internal usage.
 620:Generated_Source\PSoC6\pdl\middleware\ble/cy_ble_gap.h **** *
 621:Generated_Source\PSoC6\pdl\middleware\ble/cy_ble_gap.h **** *  \param connHandle: The connection handle.
 622:Generated_Source\PSoC6\pdl\middleware\ble/cy_ble_gap.h **** *
 623:Generated_Source\PSoC6\pdl\middleware\ble/cy_ble_gap.h **** *  \return
 624:Generated_Source\PSoC6\pdl\middleware\ble/cy_ble_gap.h **** *  retValue: the index of connHandle
 625:Generated_Source\PSoC6\pdl\middleware\ble/cy_ble_gap.h **** *
 626:Generated_Source\PSoC6\pdl\middleware\ble/cy_ble_gap.h **** ******************************************************************************/
 627:Generated_Source\PSoC6\pdl\middleware\ble/cy_ble_gap.h **** __STATIC_INLINE uint8_t Cy_BLE_GetConnHandleIdx(cy_stc_ble_conn_handle_t connHandle)
 628:Generated_Source\PSoC6\pdl\middleware\ble/cy_ble_gap.h **** {
 629:Generated_Source\PSoC6\pdl\middleware\ble/cy_ble_gap.h ****     uint8_t idx;
 630:Generated_Source\PSoC6\pdl\middleware\ble/cy_ble_gap.h ****     uint8_t retValue = CY_BLE_CONN_COUNT;
ARM GAS  C:\Users\Nazar\AppData\Local\Temp\ccWQ1kO8.s 			page 36


 631:Generated_Source\PSoC6\pdl\middleware\ble/cy_ble_gap.h **** 
 632:Generated_Source\PSoC6\pdl\middleware\ble/cy_ble_gap.h ****     for(idx = 0u; idx < CY_BLE_CONN_COUNT; idx++)
 633:Generated_Source\PSoC6\pdl\middleware\ble/cy_ble_gap.h ****     {
 634:Generated_Source\PSoC6\pdl\middleware\ble/cy_ble_gap.h ****         if(cy_ble_connHandle[idx].bdHandle == connHandle.bdHandle)
 635:Generated_Source\PSoC6\pdl\middleware\ble/cy_ble_gap.h ****         {
 636:Generated_Source\PSoC6\pdl\middleware\ble/cy_ble_gap.h ****             retValue = idx;
 637:Generated_Source\PSoC6\pdl\middleware\ble/cy_ble_gap.h ****             break;
 638:Generated_Source\PSoC6\pdl\middleware\ble/cy_ble_gap.h ****         }
 639:Generated_Source\PSoC6\pdl\middleware\ble/cy_ble_gap.h ****     }
 640:Generated_Source\PSoC6\pdl\middleware\ble/cy_ble_gap.h ****     if(retValue == CY_BLE_CONN_COUNT)
 641:Generated_Source\PSoC6\pdl\middleware\ble/cy_ble_gap.h ****     {
 642:Generated_Source\PSoC6\pdl\middleware\ble/cy_ble_gap.h ****         /* HALT in debug mode */
 643:Generated_Source\PSoC6\pdl\middleware\ble/cy_ble_gap.h ****         CY_ASSERT(retValue != CY_BLE_CONN_COUNT);
 644:Generated_Source\PSoC6\pdl\middleware\ble/cy_ble_gap.h ****         retValue = 0u;
 645:Generated_Source\PSoC6\pdl\middleware\ble/cy_ble_gap.h ****     }
 646:Generated_Source\PSoC6\pdl\middleware\ble/cy_ble_gap.h **** 
 647:Generated_Source\PSoC6\pdl\middleware\ble/cy_ble_gap.h ****     return(retValue);
 648:Generated_Source\PSoC6\pdl\middleware\ble/cy_ble_gap.h **** }
 649:Generated_Source\PSoC6\pdl\middleware\ble/cy_ble_gap.h **** #endif  /* ((CY_BLE_GAP_ROLE_PERIPHERAL || CY_BLE_GAP_ROLE_CENTRAL)) */
 650:Generated_Source\PSoC6\pdl\middleware\ble/cy_ble_gap.h **** 
 651:Generated_Source\PSoC6\pdl\middleware\ble/cy_ble_gap.h **** /**
 652:Generated_Source\PSoC6\pdl\middleware\ble/cy_ble_gap.h ****  * \addtogroup group_ble_common_api_functions
 653:Generated_Source\PSoC6\pdl\middleware\ble/cy_ble_gap.h ****  * @{
 654:Generated_Source\PSoC6\pdl\middleware\ble/cy_ble_gap.h **** */
 655:Generated_Source\PSoC6\pdl\middleware\ble/cy_ble_gap.h **** /******************************************************************************
 656:Generated_Source\PSoC6\pdl\middleware\ble/cy_ble_gap.h **** * Function Name: Cy_BLE_GetState
 657:Generated_Source\PSoC6\pdl\middleware\ble/cy_ble_gap.h **** ***************************************************************************//**
 658:Generated_Source\PSoC6\pdl\middleware\ble/cy_ble_gap.h **** *
 659:Generated_Source\PSoC6\pdl\middleware\ble/cy_ble_gap.h **** *  This function is used to determine the current state of the BLE Middleware
 660:Generated_Source\PSoC6\pdl\middleware\ble/cy_ble_gap.h **** *  state machine :
 661:Generated_Source\PSoC6\pdl\middleware\ble/cy_ble_gap.h **** *
 662:Generated_Source\PSoC6\pdl\middleware\ble/cy_ble_gap.h **** *  \image html ble_middleware_state_machine.png
 663:Generated_Source\PSoC6\pdl\middleware\ble/cy_ble_gap.h **** *
 664:Generated_Source\PSoC6\pdl\middleware\ble/cy_ble_gap.h **** *  The BLE Middleware is in the state #CY_BLE_STATE_INITIALIZING after the
 665:Generated_Source\PSoC6\pdl\middleware\ble/cy_ble_gap.h **** *  Cy_BLE_Enable() is called and until the #CY_BLE_EVT_STACK_ON event is not
 666:Generated_Source\PSoC6\pdl\middleware\ble/cy_ble_gap.h **** *  received. After successful initialization the state is changed to
 667:Generated_Source\PSoC6\pdl\middleware\ble/cy_ble_gap.h **** *  #CY_BLE_STATE_ON.
 668:Generated_Source\PSoC6\pdl\middleware\ble/cy_ble_gap.h **** *
 669:Generated_Source\PSoC6\pdl\middleware\ble/cy_ble_gap.h **** *  The BLE Middleware is in the state #CY_BLE_STATE_STOPPED
 670:Generated_Source\PSoC6\pdl\middleware\ble/cy_ble_gap.h **** *  when the #CY_BLE_EVT_STACK_SHUTDOWN_COMPLETE event is received (after the
 671:Generated_Source\PSoC6\pdl\middleware\ble/cy_ble_gap.h **** *  Cy_BLE_Disable() is called).
 672:Generated_Source\PSoC6\pdl\middleware\ble/cy_ble_gap.h **** *
 673:Generated_Source\PSoC6\pdl\middleware\ble/cy_ble_gap.h **** *  For GAP Central role when the Cy_BLE_GAPC_ConnectDevice() is called, the state
 674:Generated_Source\PSoC6\pdl\middleware\ble/cy_ble_gap.h **** *  is changed to #CY_BLE_STATE_CONNECTING. After successful connection indicated
 675:Generated_Source\PSoC6\pdl\middleware\ble/cy_ble_gap.h **** *  by #CY_BLE_EVT_GAP_DEVICE_CONNECTED or #CY_BLE_EVT_GAP_ENHANCE_CONN_COMPLETE
 676:Generated_Source\PSoC6\pdl\middleware\ble/cy_ble_gap.h **** *  event or the timeout indicated by #CY_BLE_EVT_TIMEOUT event, the state is
 677:Generated_Source\PSoC6\pdl\middleware\ble/cy_ble_gap.h **** *  changed to #CY_BLE_STATE_ON.
 678:Generated_Source\PSoC6\pdl\middleware\ble/cy_ble_gap.h **** *
 679:Generated_Source\PSoC6\pdl\middleware\ble/cy_ble_gap.h **** * \return
 680:Generated_Source\PSoC6\pdl\middleware\ble/cy_ble_gap.h **** * \ref cy_en_ble_state_t : The current BLE Middleware state. The following are
 681:Generated_Source\PSoC6\pdl\middleware\ble/cy_ble_gap.h **** *                         possible states:
 682:Generated_Source\PSoC6\pdl\middleware\ble/cy_ble_gap.h **** *
 683:Generated_Source\PSoC6\pdl\middleware\ble/cy_ble_gap.h **** *   State                      | Description
 684:Generated_Source\PSoC6\pdl\middleware\ble/cy_ble_gap.h **** *   -------------------------- | -----------
 685:Generated_Source\PSoC6\pdl\middleware\ble/cy_ble_gap.h **** *   CY_BLE_STATE_STOPPED       | BLE is turned off.
 686:Generated_Source\PSoC6\pdl\middleware\ble/cy_ble_gap.h **** *   CY_BLE_STATE_INITIALIZING  | BLE is initializing (waiting for #CY_BLE_EVT_STACK_ON event).
 687:Generated_Source\PSoC6\pdl\middleware\ble/cy_ble_gap.h **** *   CY_BLE_STATE_ON            | BLE is turned on.
ARM GAS  C:\Users\Nazar\AppData\Local\Temp\ccWQ1kO8.s 			page 37


 688:Generated_Source\PSoC6\pdl\middleware\ble/cy_ble_gap.h **** *   CY_BLE_STATE_CONNECTING    | BLE is connecting.
 689:Generated_Source\PSoC6\pdl\middleware\ble/cy_ble_gap.h **** 
 690:Generated_Source\PSoC6\pdl\middleware\ble/cy_ble_gap.h **** ******************************************************************************/
 691:Generated_Source\PSoC6\pdl\middleware\ble/cy_ble_gap.h **** #define Cy_BLE_GetState()    (cy_ble_state)
 692:Generated_Source\PSoC6\pdl\middleware\ble/cy_ble_gap.h **** 
 693:Generated_Source\PSoC6\pdl\middleware\ble/cy_ble_gap.h **** /** \cond IGNORE */
 694:Generated_Source\PSoC6\pdl\middleware\ble/cy_ble_gap.h **** /******************************************************************************
 695:Generated_Source\PSoC6\pdl\middleware\ble/cy_ble_gap.h **** * Function Name: Cy_BLE_SetState
 696:Generated_Source\PSoC6\pdl\middleware\ble/cy_ble_gap.h **** ***************************************************************************//**
 697:Generated_Source\PSoC6\pdl\middleware\ble/cy_ble_gap.h **** *
 698:Generated_Source\PSoC6\pdl\middleware\ble/cy_ble_gap.h **** *  Used to set the BLE Middleware state machine's state.
 699:Generated_Source\PSoC6\pdl\middleware\ble/cy_ble_gap.h **** *
 700:Generated_Source\PSoC6\pdl\middleware\ble/cy_ble_gap.h **** *  \param state: The desired state to which the event handler's
 701:Generated_Source\PSoC6\pdl\middleware\ble/cy_ble_gap.h **** *   state machine should be set. The parameter state is a variable
 702:Generated_Source\PSoC6\pdl\middleware\ble/cy_ble_gap.h **** *   of type cy_en_ble_state_t.
 703:Generated_Source\PSoC6\pdl\middleware\ble/cy_ble_gap.h **** *
 704:Generated_Source\PSoC6\pdl\middleware\ble/cy_ble_gap.h **** * \return
 705:Generated_Source\PSoC6\pdl\middleware\ble/cy_ble_gap.h **** *  None
 706:Generated_Source\PSoC6\pdl\middleware\ble/cy_ble_gap.h **** *
 707:Generated_Source\PSoC6\pdl\middleware\ble/cy_ble_gap.h **** ******************************************************************************/
 708:Generated_Source\PSoC6\pdl\middleware\ble/cy_ble_gap.h **** #define Cy_BLE_SetState(state)    (cy_ble_state = (state))
 709:Generated_Source\PSoC6\pdl\middleware\ble/cy_ble_gap.h **** /** \endcond */
 710:Generated_Source\PSoC6\pdl\middleware\ble/cy_ble_gap.h **** 
 711:Generated_Source\PSoC6\pdl\middleware\ble/cy_ble_gap.h **** #if (CY_BLE_GAP_ROLE_PERIPHERAL || CY_BLE_GAP_ROLE_BROADCASTER)
 712:Generated_Source\PSoC6\pdl\middleware\ble/cy_ble_gap.h **** 
 713:Generated_Source\PSoC6\pdl\middleware\ble/cy_ble_gap.h **** 
 714:Generated_Source\PSoC6\pdl\middleware\ble/cy_ble_gap.h **** /******************************************************************************
 715:Generated_Source\PSoC6\pdl\middleware\ble/cy_ble_gap.h **** * Function Name: Cy_BLE_GetAdvertisementState
 716:Generated_Source\PSoC6\pdl\middleware\ble/cy_ble_gap.h **** ***************************************************************************//**
 717:Generated_Source\PSoC6\pdl\middleware\ble/cy_ble_gap.h **** *
 718:Generated_Source\PSoC6\pdl\middleware\ble/cy_ble_gap.h **** *  This function returns the state of the link layer hardware advertisement
 719:Generated_Source\PSoC6\pdl\middleware\ble/cy_ble_gap.h **** *  engine.
 720:Generated_Source\PSoC6\pdl\middleware\ble/cy_ble_gap.h **** *
 721:Generated_Source\PSoC6\pdl\middleware\ble/cy_ble_gap.h **** *  \image html ble_advertisement_state_machine.png
 722:Generated_Source\PSoC6\pdl\middleware\ble/cy_ble_gap.h **** *
 723:Generated_Source\PSoC6\pdl\middleware\ble/cy_ble_gap.h **** *  When Cy_BLE_GAPP_StartAdvertisement() is called, the state is set to
 724:Generated_Source\PSoC6\pdl\middleware\ble/cy_ble_gap.h **** *  #CY_BLE_ADV_STATE_ADV_INITIATED. It automatically changes to
 725:Generated_Source\PSoC6\pdl\middleware\ble/cy_ble_gap.h **** *  #CY_BLE_ADV_STATE_ADVERTISING when #CY_BLE_EVT_GAPP_ADVERTISEMENT_START_STOP
 726:Generated_Source\PSoC6\pdl\middleware\ble/cy_ble_gap.h **** *  event is received. When Cy_BLE_GAPP_StopAdvertisement() is called, the
 727:Generated_Source\PSoC6\pdl\middleware\ble/cy_ble_gap.h **** *  state is set to #CY_BLE_ADV_STATE_STOP_INITIATED. It automatically changes
 728:Generated_Source\PSoC6\pdl\middleware\ble/cy_ble_gap.h **** *  to #CY_BLE_ADV_STATE_STOPPED when the #CY_BLE_EVT_GAPP_ADVERTISEMENT_START_STOP
 729:Generated_Source\PSoC6\pdl\middleware\ble/cy_ble_gap.h **** *  event is received.
 730:Generated_Source\PSoC6\pdl\middleware\ble/cy_ble_gap.h **** *
 731:Generated_Source\PSoC6\pdl\middleware\ble/cy_ble_gap.h **** * \return
 732:Generated_Source\PSoC6\pdl\middleware\ble/cy_ble_gap.h **** * \ref cy_en_ble_adv_state_t :The current advertising state. The following are
 733:Generated_Source\PSoC6\pdl\middleware\ble/cy_ble_gap.h **** *                              possible states.
 734:Generated_Source\PSoC6\pdl\middleware\ble/cy_ble_gap.h **** *
 735:Generated_Source\PSoC6\pdl\middleware\ble/cy_ble_gap.h **** *               State                |         Description
 736:Generated_Source\PSoC6\pdl\middleware\ble/cy_ble_gap.h **** *   -------------------------------- | -----------------------------
 737:Generated_Source\PSoC6\pdl\middleware\ble/cy_ble_gap.h **** *   CY_BLE_ADV_STATE_STOPPED         | Advertising is stopped.
 738:Generated_Source\PSoC6\pdl\middleware\ble/cy_ble_gap.h **** *   CY_BLE_ADV_STATE_ADV_INITIATED   | Advertising is initiated.
 739:Generated_Source\PSoC6\pdl\middleware\ble/cy_ble_gap.h **** *   CY_BLE_ADV_STATE_ADVERTISING     | Advertising is initiated.
 740:Generated_Source\PSoC6\pdl\middleware\ble/cy_ble_gap.h **** *   CY_BLE_ADV_STATE_STOP_INITIATED  | Stop advertising is initiated.
 741:Generated_Source\PSoC6\pdl\middleware\ble/cy_ble_gap.h **** *
 742:Generated_Source\PSoC6\pdl\middleware\ble/cy_ble_gap.h **** ******************************************************************************/
 743:Generated_Source\PSoC6\pdl\middleware\ble/cy_ble_gap.h **** __STATIC_INLINE cy_en_ble_adv_state_t Cy_BLE_GetAdvertisementState(void)
 744:Generated_Source\PSoC6\pdl\middleware\ble/cy_ble_gap.h **** {
ARM GAS  C:\Users\Nazar\AppData\Local\Temp\ccWQ1kO8.s 			page 38


 745:Generated_Source\PSoC6\pdl\middleware\ble/cy_ble_gap.h ****     return(cy_ble_advState);
 746:Generated_Source\PSoC6\pdl\middleware\ble/cy_ble_gap.h **** }
 747:Generated_Source\PSoC6\pdl\middleware\ble/cy_ble_gap.h **** 
 748:Generated_Source\PSoC6\pdl\middleware\ble/cy_ble_gap.h **** /** \cond IGNORE */
 749:Generated_Source\PSoC6\pdl\middleware\ble/cy_ble_gap.h **** /******************************************************************************
 750:Generated_Source\PSoC6\pdl\middleware\ble/cy_ble_gap.h **** * Function Name: Cy_BLE_SetAdvertisementState
 751:Generated_Source\PSoC6\pdl\middleware\ble/cy_ble_gap.h **** ***************************************************************************//**
 752:Generated_Source\PSoC6\pdl\middleware\ble/cy_ble_gap.h **** *
 753:Generated_Source\PSoC6\pdl\middleware\ble/cy_ble_gap.h **** *  Used to set the state of the link layer hardware advertisement engine.
 754:Generated_Source\PSoC6\pdl\middleware\ble/cy_ble_gap.h **** *
 755:Generated_Source\PSoC6\pdl\middleware\ble/cy_ble_gap.h **** *  \param state: The desired state.
 756:Generated_Source\PSoC6\pdl\middleware\ble/cy_ble_gap.h **** *
 757:Generated_Source\PSoC6\pdl\middleware\ble/cy_ble_gap.h **** * \return
 758:Generated_Source\PSoC6\pdl\middleware\ble/cy_ble_gap.h **** *  None
 759:Generated_Source\PSoC6\pdl\middleware\ble/cy_ble_gap.h **** *
 760:Generated_Source\PSoC6\pdl\middleware\ble/cy_ble_gap.h **** ******************************************************************************/
 761:Generated_Source\PSoC6\pdl\middleware\ble/cy_ble_gap.h **** __STATIC_INLINE void Cy_BLE_SetAdvertisementState(cy_en_ble_adv_state_t state)
 762:Generated_Source\PSoC6\pdl\middleware\ble/cy_ble_gap.h **** {
 763:Generated_Source\PSoC6\pdl\middleware\ble/cy_ble_gap.h ****     cy_ble_advState = state;
 425              		.loc 2 763 0
 426 0092 124A     		ldr	r2, .L33+32
 427 0094 1370     		strb	r3, [r2]
 428              	.LVL52:
 429              	.LBE7:
 430              	.LBE6:
 431              	.LBB8:
 410:Generated_Source\PSoC6\pdl\middleware\ble/cy_ble.c ****                     .gattDbTotalEntries = cy_ble_configPtr->params->gattDbIndexCount,
 432              		.loc 1 410 0
 433 0096 0E4B     		ldr	r3, .L33+20
 434 0098 5B68     		ldr	r3, [r3, #4]
 408:Generated_Source\PSoC6\pdl\middleware\ble/cy_ble.c ****                 {
 435              		.loc 1 408 0
 436 009a 1A6A     		ldr	r2, [r3, #32]
 437 009c 0092     		str	r2, [sp]
 411:Generated_Source\PSoC6\pdl\middleware\ble/cy_ble.c ****                     .gattDbMaxValue     = CY_BLE_GATT_DB_MAX_VALUE_LEN
 438              		.loc 1 411 0
 439 009e 9B6A     		ldr	r3, [r3, #40]
 440 00a0 DB88     		ldrh	r3, [r3, #6]
 408:Generated_Source\PSoC6\pdl\middleware\ble/cy_ble.c ****                 {
 441              		.loc 1 408 0
 442 00a2 6A46     		mov	r2, sp
 443 00a4 9380     		strh	r3, [r2, #4]
 444 00a6 C823     		movs	r3, #200
 445 00a8 D380     		strh	r3, [r2, #6]
 415:Generated_Source\PSoC6\pdl\middleware\ble/cy_ble.c ****             }
 446              		.loc 1 415 0
 447 00aa 6846     		mov	r0, sp
 448              	.LVL53:
 449 00ac FFF7FEFF 		bl	Cy_BLE_GATTS_DbRegister
 450              	.LVL54:
 451              	.L32:
 452              	.LBE8:
 419:Generated_Source\PSoC6\pdl\middleware\ble/cy_ble.c ****     #endif /* (CY_BLE_MODE_PROFILE) */
 453              		.loc 1 419 0
 454 00b0 0022     		movs	r2, #0
 455 00b2 0B4B     		ldr	r3, .L33+36
 456 00b4 1A60     		str	r2, [r3]
ARM GAS  C:\Users\Nazar\AppData\Local\Temp\ccWQ1kO8.s 			page 39


 457              	.L30:
 424:Generated_Source\PSoC6\pdl\middleware\ble/cy_ble.c **** 
 458              		.loc 1 424 0
 459 00b6 1BB0     		add	sp, sp, #108
 460              		@ sp needed
 461 00b8 30BD     		pop	{r4, r5, pc}
 462              	.L34:
 463 00ba C046     		.align	2
 464              	.L33:
 465 00bc 00000000 		.word	.LANCHOR2
 466 00c0 00000000 		.word	Cy_BLE_EventHandler
 467 00c4 E4240000 		.word	9444
 468 00c8 00000000 		.word	.LANCHOR1
 469 00cc 00000000 		.word	.LANCHOR3
 470 00d0 00000000 		.word	.LANCHOR0
 471 00d4 00000000 		.word	cy_ble_state
 472 00d8 00000000 		.word	cy_ble_connState
 473 00dc 00000000 		.word	cy_ble_advState
 474 00e0 00000000 		.word	cy_ble_cmdStatus
 475              		.cfi_endproc
 476              	.LFE169:
 477              		.size	Cy_BLE_Enable, .-Cy_BLE_Enable
 478              		.section	.text.Cy_BLE_Disable,"ax",%progbits
 479              		.align	2
 480              		.global	Cy_BLE_Disable
 481              		.code	16
 482              		.thumb_func
 483              		.type	Cy_BLE_Disable, %function
 484              	Cy_BLE_Disable:
 485              	.LFB170:
 465:Generated_Source\PSoC6\pdl\middleware\ble/cy_ble.c ****     cy_en_ble_api_result_t apiResult;
 486              		.loc 1 465 0
 487              		.cfi_startproc
 488              		@ args = 0, pretend = 0, frame = 0
 489              		@ frame_needed = 0, uses_anonymous_args = 0
 490 0000 10B5     		push	{r4, lr}
 491              		.cfi_def_cfa_offset 8
 492              		.cfi_offset 4, -8
 493              		.cfi_offset 14, -4
 473:Generated_Source\PSoC6\pdl\middleware\ble/cy_ble.c **** 
 494              		.loc 1 473 0
 495 0002 FFF7FEFF 		bl	Cy_BLE_StackShutdown
 496              	.LVL55:
 484:Generated_Source\PSoC6\pdl\middleware\ble/cy_ble.c **** 
 497              		.loc 1 484 0
 498              		@ sp needed
 499 0006 10BD     		pop	{r4, pc}
 500              		.cfi_endproc
 501              	.LFE170:
 502              		.size	Cy_BLE_Disable, .-Cy_BLE_Disable
 503              		.section	.text.Cy_BLE_ConfigureExtPA,"ax",%progbits
 504              		.align	2
 505              		.global	Cy_BLE_ConfigureExtPA
 506              		.code	16
 507              		.thumb_func
 508              		.type	Cy_BLE_ConfigureExtPA, %function
 509              	Cy_BLE_ConfigureExtPA:
ARM GAS  C:\Users\Nazar\AppData\Local\Temp\ccWQ1kO8.s 			page 40


 510              	.LFB171:
 521:Generated_Source\PSoC6\pdl\middleware\ble/cy_ble.c ****     BLE->BLESS.EXT_PA_LNA_CTRL = controlValue;
 511              		.loc 1 521 0
 512              		.cfi_startproc
 513              		@ args = 0, pretend = 0, frame = 0
 514              		@ frame_needed = 0, uses_anonymous_args = 0
 515              		@ link register save eliminated.
 516              	.LVL56:
 522:Generated_Source\PSoC6\pdl\middleware\ble/cy_ble.c **** }
 517              		.loc 1 522 0
 518 0000 014B     		ldr	r3, .L37
 519 0002 024A     		ldr	r2, .L37+4
 520 0004 D050     		str	r0, [r2, r3]
 523:Generated_Source\PSoC6\pdl\middleware\ble/cy_ble.c **** 
 521              		.loc 1 523 0
 522              		@ sp needed
 523 0006 7047     		bx	lr
 524              	.L38:
 525              		.align	2
 526              	.L37:
 527 0008 78F00100 		.word	127096
 528 000c 00003C40 		.word	1077673984
 529              		.cfi_endproc
 530              	.LFE171:
 531              		.size	Cy_BLE_ConfigureExtPA, .-Cy_BLE_ConfigureExtPA
 532              		.section	.text.Cy_BLE_RegisterAppHostCallback,"ax",%progbits
 533              		.align	2
 534              		.global	Cy_BLE_RegisterAppHostCallback
 535              		.code	16
 536              		.thumb_func
 537              		.type	Cy_BLE_RegisterAppHostCallback, %function
 538              	Cy_BLE_RegisterAppHostCallback:
 539              	.LFB172:
 712:Generated_Source\PSoC6\pdl\middleware\ble/cy_ble.c ****     cy_en_ble_api_result_t apiResult = CY_BLE_SUCCESS;
 540              		.loc 1 712 0
 541              		.cfi_startproc
 542              		@ args = 0, pretend = 0, frame = 0
 543              		@ frame_needed = 0, uses_anonymous_args = 0
 544              		@ link register save eliminated.
 545              	.LVL57:
 715:Generated_Source\PSoC6\pdl\middleware\ble/cy_ble.c ****     {
 546              		.loc 1 715 0
 547 0000 0028     		cmp	r0, #0
 548 0002 03D0     		beq	.L41
 717:Generated_Source\PSoC6\pdl\middleware\ble/cy_ble.c ****     }
 549              		.loc 1 717 0
 550 0004 024B     		ldr	r3, .L42
 551 0006 D860     		str	r0, [r3, #12]
 713:Generated_Source\PSoC6\pdl\middleware\ble/cy_ble.c **** 
 552              		.loc 1 713 0
 553 0008 0020     		movs	r0, #0
 554              	.LVL58:
 555 000a 00E0     		b	.L40
 556              	.LVL59:
 557              	.L41:
 721:Generated_Source\PSoC6\pdl\middleware\ble/cy_ble.c ****     }
 558              		.loc 1 721 0
ARM GAS  C:\Users\Nazar\AppData\Local\Temp\ccWQ1kO8.s 			page 41


 559 000c 0148     		ldr	r0, .L42+4
 560              	.LVL60:
 561              	.L40:
 724:Generated_Source\PSoC6\pdl\middleware\ble/cy_ble.c **** 
 562              		.loc 1 724 0
 563              		@ sp needed
 564 000e 7047     		bx	lr
 565              	.L43:
 566              		.align	2
 567              	.L42:
 568 0010 00000000 		.word	.LANCHOR0
 569 0014 01001600 		.word	1441793
 570              		.cfi_endproc
 571              	.LFE172:
 572              		.size	Cy_BLE_RegisterAppHostCallback, .-Cy_BLE_RegisterAppHostCallback
 573              		.section	.text.Cy_BLE_UnRegisterAppHostCallback,"ax",%progbits
 574              		.align	2
 575              		.global	Cy_BLE_UnRegisterAppHostCallback
 576              		.code	16
 577              		.thumb_func
 578              		.type	Cy_BLE_UnRegisterAppHostCallback, %function
 579              	Cy_BLE_UnRegisterAppHostCallback:
 580              	.LFB173:
 734:Generated_Source\PSoC6\pdl\middleware\ble/cy_ble.c ****     Cy_BLE_HostRegisteredCallback = NULL;
 581              		.loc 1 734 0
 582              		.cfi_startproc
 583              		@ args = 0, pretend = 0, frame = 0
 584              		@ frame_needed = 0, uses_anonymous_args = 0
 585              		@ link register save eliminated.
 735:Generated_Source\PSoC6\pdl\middleware\ble/cy_ble.c **** }
 586              		.loc 1 735 0
 587 0000 0022     		movs	r2, #0
 588 0002 014B     		ldr	r3, .L45
 589 0004 DA60     		str	r2, [r3, #12]
 736:Generated_Source\PSoC6\pdl\middleware\ble/cy_ble.c **** #endif /* (CY_BLE_MODE_PROFILE) */
 590              		.loc 1 736 0
 591              		@ sp needed
 592 0006 7047     		bx	lr
 593              	.L46:
 594              		.align	2
 595              	.L45:
 596 0008 00000000 		.word	.LANCHOR0
 597              		.cfi_endproc
 598              	.LFE173:
 599              		.size	Cy_BLE_UnRegisterAppHostCallback, .-Cy_BLE_UnRegisterAppHostCallback
 600              		.global	cy_ble_configPtr
 601              		.global	Cy_BLE_HostRegisteredCallback
 602              		.global	Cy_BLE_ApplCallback
 603              		.global	cy_ble_stackMemoryRam
 604              		.section	.rodata
 605              		.align	2
 606              		.set	.LANCHOR2,. + 0
 607              	.LC0:
 608 0000 0C01     		.short	268
 609 0002 0500     		.short	5
 610 0004 3000     		.short	48
 611 0006 0100     		.short	1
ARM GAS  C:\Users\Nazar\AppData\Local\Temp\ccWQ1kO8.s 			page 42


 612 0008 2800     		.short	40
 613 000a 0200     		.short	2
 614 000c 0801     		.short	264
 615 000e 0200     		.short	2
 616 0010 0C00     		.short	12
 617 0012 0100     		.short	1
 618              		.data
 619              		.align	2
 620              		.set	.LANCHOR1,. + 0
 621              		.type	bleDeepSleepCallback, %object
 622              		.size	bleDeepSleepCallback, 24
 623              	bleDeepSleepCallback:
 624 0000 00000000 		.word	Cy_BLE_DeepSleepCallback
 625 0004 01       		.byte	1
 626 0005 000000   		.space	3
 627 0008 06000000 		.word	6
 628 000c 10000000 		.word	bleDeepSleepCallbackParams
 629 0010 00000000 		.space	8
 629      00000000 
 630              		.section	.noinit,"aw",%progbits
 631              		.align	2
 632              		.set	.LANCHOR3,. + 0
 633              		.type	cy_ble_stackMemoryRam, %object
 634              		.size	cy_ble_stackMemoryRam, 9836
 635              	cy_ble_stackMemoryRam:
 636 0000 00000000 		.space	9836
 636      00000000 
 636      00000000 
 636      00000000 
 636      00000000 
 637              		.bss
 638              		.align	2
 639              		.set	.LANCHOR0,. + 0
 640              		.type	interruptState.14023, %object
 641              		.size	interruptState.14023, 4
 642              	interruptState.14023:
 643 0000 00000000 		.space	4
 644              		.type	cy_ble_configPtr, %object
 645              		.size	cy_ble_configPtr, 4
 646              	cy_ble_configPtr:
 647 0004 00000000 		.space	4
 648              		.type	Cy_BLE_ApplCallback, %object
 649              		.size	Cy_BLE_ApplCallback, 4
 650              	Cy_BLE_ApplCallback:
 651 0008 00000000 		.space	4
 652              		.type	Cy_BLE_HostRegisteredCallback, %object
 653              		.size	Cy_BLE_HostRegisteredCallback, 4
 654              	Cy_BLE_HostRegisteredCallback:
 655 000c 00000000 		.space	4
 656              		.type	bleDeepSleepCallbackParams, %object
 657              		.size	bleDeepSleepCallbackParams, 8
 658              	bleDeepSleepCallbackParams:
 659 0010 00000000 		.space	8
 659      00000000 
 660              		.text
 661              	.Letext0:
 662              		.file 3 "c:\\program files (x86)\\cypress\\psoc creator\\4.4\\psoc creator\\import\\gnu\\arm\\5.4.
ARM GAS  C:\Users\Nazar\AppData\Local\Temp\ccWQ1kO8.s 			page 43


 663              		.file 4 "c:\\program files (x86)\\cypress\\psoc creator\\4.4\\psoc creator\\import\\gnu\\arm\\5.4.
 664              		.file 5 "Generated_Source\\PSoC6\\pdl\\drivers/peripheral/device/cy_device.h"
 665              		.file 6 "Generated_Source\\PSoC6\\pdl\\devices/psoc6/include/cyble_416045_02.h"
 666              		.file 7 "Generated_Source\\PSoC6\\pdl\\devices/psoc6/include/ip/cyip_ble.h"
 667              		.file 8 "Generated_Source\\PSoC6\\pdl\\devices/psoc6/include/psoc6_01_config.h"
 668              		.file 9 "Generated_Source\\PSoC6\\pdl\\drivers/peripheral/sysint/cy_sysint.h"
 669              		.file 10 "Generated_Source\\PSoC6\\pdl\\drivers/peripheral/syspm/cy_syspm.h"
 670              		.file 11 "Generated_Source\\PSoC6\\pdl\\middleware\\ble\\cy_ble_stack.h"
 671              		.file 12 "Generated_Source\\PSoC6\\pdl\\middleware\\ble\\cy_ble_stack_host_main.h"
 672              		.file 13 "Generated_Source\\PSoC6\\pdl\\middleware\\ble\\cy_ble_stack_gatt.h"
 673              		.file 14 "Generated_Source\\PSoC6\\pdl\\middleware\\ble\\cy_ble_stack_gap.h"
 674              		.file 15 "Generated_Source\\PSoC6\\pdl\\middleware\\ble\\cy_ble_stack_gap_central.h"
 675              		.file 16 "Generated_Source\\PSoC6\\pdl\\middleware\\ble\\cy_ble_stack_gap_peripheral.h"
 676              		.file 17 "Generated_Source\\PSoC6\\pdl\\middleware\\ble\\cy_ble_stack_gatt_db.h"
 677              		.file 18 "Generated_Source\\PSoC6\\pdl\\middleware\\ble\\cy_ble_gatt.h"
 678              		.file 19 "Generated_Source\\PSoC6\\pdl\\middleware\\ble\\cy_ble.h"
 679              		.file 20 "Generated_Source\\PSoC6\\pdl\\drivers/peripheral/ipc/cy_ipc_sema.h"
 680              		.file 21 "Generated_Source\\PSoC6\\pdl\\middleware\\ble\\cy_ble_event_handler.h"
 681              		.file 22 "Generated_Source\\PSoC6\\pdl\\drivers/peripheral/syslib/cy_syslib.h"
 682              		.file 23 "Generated_Source\\PSoC6\\pdl\\middleware\\ble\\cy_ble_clk.h"
 683              		.section	.debug_info,"",%progbits
 684              	.Ldebug_info0:
 685 0000 E9390000 		.4byte	0x39e9
 686 0004 0400     		.2byte	0x4
 687 0006 00000000 		.4byte	.Ldebug_abbrev0
 688 000a 04       		.byte	0x4
 689 000b 01       		.uleb128 0x1
 690 000c BB3A0000 		.4byte	.LASF1112
 691 0010 0C       		.byte	0xc
 692 0011 97270000 		.4byte	.LASF1113
 693 0015 67320000 		.4byte	.LASF1114
 694 0019 00000000 		.4byte	.Ldebug_ranges0+0
 695 001d 00000000 		.4byte	0
 696 0021 00000000 		.4byte	.Ldebug_line0
 697 0025 02       		.uleb128 0x2
 698 0026 04       		.byte	0x4
 699 0027 05       		.byte	0x5
 700 0028 696E7400 		.ascii	"int\000"
 701 002c 03       		.uleb128 0x3
 702 002d 04       		.byte	0x4
 703 002e 07       		.byte	0x7
 704 002f 945B0000 		.4byte	.LASF0
 705 0033 03       		.uleb128 0x3
 706 0034 08       		.byte	0x8
 707 0035 05       		.byte	0x5
 708 0036 37000000 		.4byte	.LASF1
 709 003a 03       		.uleb128 0x3
 710 003b 08       		.byte	0x8
 711 003c 04       		.byte	0x4
 712 003d AF070000 		.4byte	.LASF2
 713 0041 03       		.uleb128 0x3
 714 0042 01       		.byte	0x1
 715 0043 06       		.byte	0x6
 716 0044 5D4C0000 		.4byte	.LASF3
 717 0048 04       		.uleb128 0x4
 718 0049 25130000 		.4byte	.LASF5
 719 004d 03       		.byte	0x3
ARM GAS  C:\Users\Nazar\AppData\Local\Temp\ccWQ1kO8.s 			page 44


 720 004e 1D       		.byte	0x1d
 721 004f 53000000 		.4byte	0x53
 722 0053 03       		.uleb128 0x3
 723 0054 01       		.byte	0x1
 724 0055 08       		.byte	0x8
 725 0056 3C2E0000 		.4byte	.LASF4
 726 005a 04       		.uleb128 0x4
 727 005b BC2A0000 		.4byte	.LASF6
 728 005f 03       		.byte	0x3
 729 0060 29       		.byte	0x29
 730 0061 65000000 		.4byte	0x65
 731 0065 03       		.uleb128 0x3
 732 0066 02       		.byte	0x2
 733 0067 05       		.byte	0x5
 734 0068 D23F0000 		.4byte	.LASF7
 735 006c 04       		.uleb128 0x4
 736 006d 3A1E0000 		.4byte	.LASF8
 737 0071 03       		.byte	0x3
 738 0072 2B       		.byte	0x2b
 739 0073 77000000 		.4byte	0x77
 740 0077 03       		.uleb128 0x3
 741 0078 02       		.byte	0x2
 742 0079 07       		.byte	0x7
 743 007a C4290000 		.4byte	.LASF9
 744 007e 03       		.uleb128 0x3
 745 007f 04       		.byte	0x4
 746 0080 05       		.byte	0x5
 747 0081 D4430000 		.4byte	.LASF10
 748 0085 04       		.uleb128 0x4
 749 0086 9D350000 		.4byte	.LASF11
 750 008a 03       		.byte	0x3
 751 008b 41       		.byte	0x41
 752 008c 90000000 		.4byte	0x90
 753 0090 03       		.uleb128 0x3
 754 0091 04       		.byte	0x4
 755 0092 07       		.byte	0x7
 756 0093 01010000 		.4byte	.LASF12
 757 0097 03       		.uleb128 0x3
 758 0098 08       		.byte	0x8
 759 0099 07       		.byte	0x7
 760 009a 704F0000 		.4byte	.LASF13
 761 009e 03       		.uleb128 0x3
 762 009f 04       		.byte	0x4
 763 00a0 07       		.byte	0x7
 764 00a1 3F460000 		.4byte	.LASF14
 765 00a5 05       		.uleb128 0x5
 766 00a6 04       		.byte	0x4
 767 00a7 03       		.uleb128 0x3
 768 00a8 01       		.byte	0x1
 769 00a9 08       		.byte	0x8
 770 00aa 02530000 		.4byte	.LASF15
 771 00ae 06       		.uleb128 0x6
 772 00af 04       		.byte	0x4
 773 00b0 B4000000 		.4byte	0xb4
 774 00b4 07       		.uleb128 0x7
 775 00b5 04       		.uleb128 0x4
 776 00b6 2D2C0000 		.4byte	.LASF16
ARM GAS  C:\Users\Nazar\AppData\Local\Temp\ccWQ1kO8.s 			page 45


 777 00ba 04       		.byte	0x4
 778 00bb 18       		.byte	0x18
 779 00bc 48000000 		.4byte	0x48
 780 00c0 04       		.uleb128 0x4
 781 00c1 BF460000 		.4byte	.LASF17
 782 00c5 04       		.byte	0x4
 783 00c6 20       		.byte	0x20
 784 00c7 5A000000 		.4byte	0x5a
 785 00cb 04       		.uleb128 0x4
 786 00cc 0B4F0000 		.4byte	.LASF18
 787 00d0 04       		.byte	0x4
 788 00d1 24       		.byte	0x24
 789 00d2 6C000000 		.4byte	0x6c
 790 00d6 04       		.uleb128 0x4
 791 00d7 96060000 		.4byte	.LASF19
 792 00db 04       		.byte	0x4
 793 00dc 30       		.byte	0x30
 794 00dd 85000000 		.4byte	0x85
 795 00e1 08       		.uleb128 0x8
 796 00e2 D6000000 		.4byte	0xd6
 797 00e6 09       		.uleb128 0x9
 798 00e7 E1000000 		.4byte	0xe1
 799 00eb 0A       		.uleb128 0xa
 800 00ec E6000000 		.4byte	0xe6
 801 00f0 FB000000 		.4byte	0xfb
 802 00f4 0B       		.uleb128 0xb
 803 00f5 9E000000 		.4byte	0x9e
 804 00f9 02       		.byte	0x2
 805 00fa 00       		.byte	0
 806 00fb 0A       		.uleb128 0xa
 807 00fc E1000000 		.4byte	0xe1
 808 0100 0B010000 		.4byte	0x10b
 809 0104 0B       		.uleb128 0xb
 810 0105 9E000000 		.4byte	0x9e
 811 0109 0F       		.byte	0xf
 812 010a 00       		.byte	0
 813 010b 0A       		.uleb128 0xa
 814 010c E6000000 		.4byte	0xe6
 815 0110 1B010000 		.4byte	0x11b
 816 0114 0B       		.uleb128 0xb
 817 0115 9E000000 		.4byte	0x9e
 818 0119 03       		.byte	0x3
 819 011a 00       		.byte	0
 820 011b 0A       		.uleb128 0xa
 821 011c E6000000 		.4byte	0xe6
 822 0120 2B010000 		.4byte	0x12b
 823 0124 0B       		.uleb128 0xb
 824 0125 9E000000 		.4byte	0x9e
 825 0129 04       		.byte	0x4
 826 012a 00       		.byte	0
 827 012b 0A       		.uleb128 0xa
 828 012c E1000000 		.4byte	0xe1
 829 0130 3B010000 		.4byte	0x13b
 830 0134 0B       		.uleb128 0xb
 831 0135 9E000000 		.4byte	0x9e
 832 0139 03       		.byte	0x3
 833 013a 00       		.byte	0
ARM GAS  C:\Users\Nazar\AppData\Local\Temp\ccWQ1kO8.s 			page 46


 834 013b 0A       		.uleb128 0xa
 835 013c E6000000 		.4byte	0xe6
 836 0140 4B010000 		.4byte	0x14b
 837 0144 0B       		.uleb128 0xb
 838 0145 9E000000 		.4byte	0x9e
 839 0149 2B       		.byte	0x2b
 840 014a 00       		.byte	0
 841 014b 0A       		.uleb128 0xa
 842 014c E6000000 		.4byte	0xe6
 843 0150 5B010000 		.4byte	0x15b
 844 0154 0B       		.uleb128 0xb
 845 0155 9E000000 		.4byte	0x9e
 846 0159 1C       		.byte	0x1c
 847 015a 00       		.byte	0
 848 015b 0A       		.uleb128 0xa
 849 015c E6000000 		.4byte	0xe6
 850 0160 6B010000 		.4byte	0x16b
 851 0164 0B       		.uleb128 0xb
 852 0165 9E000000 		.4byte	0x9e
 853 0169 07       		.byte	0x7
 854 016a 00       		.byte	0
 855 016b 0A       		.uleb128 0xa
 856 016c E6000000 		.4byte	0xe6
 857 0170 7B010000 		.4byte	0x17b
 858 0174 0B       		.uleb128 0xb
 859 0175 9E000000 		.4byte	0x9e
 860 0179 0B       		.byte	0xb
 861 017a 00       		.byte	0
 862 017b 0A       		.uleb128 0xa
 863 017c E6000000 		.4byte	0xe6
 864 0180 8B010000 		.4byte	0x18b
 865 0184 0B       		.uleb128 0xb
 866 0185 9E000000 		.4byte	0x9e
 867 0189 01       		.byte	0x1
 868 018a 00       		.byte	0
 869 018b 0A       		.uleb128 0xa
 870 018c E6000000 		.4byte	0xe6
 871 0190 9B010000 		.4byte	0x19b
 872 0194 0B       		.uleb128 0xb
 873 0195 9E000000 		.4byte	0x9e
 874 0199 1E       		.byte	0x1e
 875 019a 00       		.byte	0
 876 019b 08       		.uleb128 0x8
 877 019c B5000000 		.4byte	0xb5
 878 01a0 0A       		.uleb128 0xa
 879 01a1 E6000000 		.4byte	0xe6
 880 01a5 B0010000 		.4byte	0x1b0
 881 01a9 0B       		.uleb128 0xb
 882 01aa 9E000000 		.4byte	0x9e
 883 01ae 2F       		.byte	0x2f
 884 01af 00       		.byte	0
 885 01b0 0A       		.uleb128 0xa
 886 01b1 E6000000 		.4byte	0xe6
 887 01b5 C0010000 		.4byte	0x1c0
 888 01b9 0B       		.uleb128 0xb
 889 01ba 9E000000 		.4byte	0x9e
 890 01be 17       		.byte	0x17
ARM GAS  C:\Users\Nazar\AppData\Local\Temp\ccWQ1kO8.s 			page 47


 891 01bf 00       		.byte	0
 892 01c0 0A       		.uleb128 0xa
 893 01c1 E6000000 		.4byte	0xe6
 894 01c5 D0010000 		.4byte	0x1d0
 895 01c9 0B       		.uleb128 0xb
 896 01ca 9E000000 		.4byte	0x9e
 897 01ce 3A       		.byte	0x3a
 898 01cf 00       		.byte	0
 899 01d0 0A       		.uleb128 0xa
 900 01d1 E6000000 		.4byte	0xe6
 901 01d5 E0010000 		.4byte	0x1e0
 902 01d9 0B       		.uleb128 0xb
 903 01da 9E000000 		.4byte	0x9e
 904 01de 05       		.byte	0x5
 905 01df 00       		.byte	0
 906 01e0 0A       		.uleb128 0xa
 907 01e1 E6000000 		.4byte	0xe6
 908 01e5 F1010000 		.4byte	0x1f1
 909 01e9 0C       		.uleb128 0xc
 910 01ea 9E000000 		.4byte	0x9e
 911 01ee FE03     		.2byte	0x3fe
 912 01f0 00       		.byte	0
 913 01f1 0A       		.uleb128 0xa
 914 01f2 E6000000 		.4byte	0xe6
 915 01f6 02020000 		.4byte	0x202
 916 01fa 0C       		.uleb128 0xc
 917 01fb 9E000000 		.4byte	0x9e
 918 01ff 7F03     		.2byte	0x37f
 919 0201 00       		.byte	0
 920 0202 0D       		.uleb128 0xd
 921 0203 B8       		.byte	0xb8
 922 0204 05       		.byte	0x5
 923 0205 34       		.byte	0x34
 924 0206 13060000 		.4byte	0x613
 925 020a 0E       		.uleb128 0xe
 926 020b A5070000 		.4byte	.LASF20
 927 020f 05       		.byte	0x5
 928 0210 37       		.byte	0x37
 929 0211 D6000000 		.4byte	0xd6
 930 0215 00       		.byte	0
 931 0216 0E       		.uleb128 0xe
 932 0217 6A460000 		.4byte	.LASF21
 933 021b 05       		.byte	0x5
 934 021c 38       		.byte	0x38
 935 021d D6000000 		.4byte	0xd6
 936 0221 04       		.byte	0x4
 937 0222 0E       		.uleb128 0xe
 938 0223 261D0000 		.4byte	.LASF22
 939 0227 05       		.byte	0x5
 940 0228 39       		.byte	0x39
 941 0229 D6000000 		.4byte	0xd6
 942 022d 08       		.byte	0x8
 943 022e 0E       		.uleb128 0xe
 944 022f 0D490000 		.4byte	.LASF23
 945 0233 05       		.byte	0x5
 946 0234 3A       		.byte	0x3a
 947 0235 D6000000 		.4byte	0xd6
ARM GAS  C:\Users\Nazar\AppData\Local\Temp\ccWQ1kO8.s 			page 48


 948 0239 0C       		.byte	0xc
 949 023a 0E       		.uleb128 0xe
 950 023b BA570000 		.4byte	.LASF24
 951 023f 05       		.byte	0x5
 952 0240 3B       		.byte	0x3b
 953 0241 D6000000 		.4byte	0xd6
 954 0245 10       		.byte	0x10
 955 0246 0E       		.uleb128 0xe
 956 0247 7C4C0000 		.4byte	.LASF25
 957 024b 05       		.byte	0x5
 958 024c 3C       		.byte	0x3c
 959 024d D6000000 		.4byte	0xd6
 960 0251 14       		.byte	0x14
 961 0252 0E       		.uleb128 0xe
 962 0253 2E000000 		.4byte	.LASF26
 963 0257 05       		.byte	0x5
 964 0258 3D       		.byte	0x3d
 965 0259 D6000000 		.4byte	0xd6
 966 025d 18       		.byte	0x18
 967 025e 0E       		.uleb128 0xe
 968 025f 012E0000 		.4byte	.LASF27
 969 0263 05       		.byte	0x5
 970 0264 3E       		.byte	0x3e
 971 0265 D6000000 		.4byte	0xd6
 972 0269 1C       		.byte	0x1c
 973 026a 0E       		.uleb128 0xe
 974 026b D8410000 		.4byte	.LASF28
 975 026f 05       		.byte	0x5
 976 0270 3F       		.byte	0x3f
 977 0271 D6000000 		.4byte	0xd6
 978 0275 20       		.byte	0x20
 979 0276 0E       		.uleb128 0xe
 980 0277 15480000 		.4byte	.LASF29
 981 027b 05       		.byte	0x5
 982 027c 40       		.byte	0x40
 983 027d D6000000 		.4byte	0xd6
 984 0281 24       		.byte	0x24
 985 0282 0E       		.uleb128 0xe
 986 0283 10220000 		.4byte	.LASF30
 987 0287 05       		.byte	0x5
 988 0288 43       		.byte	0x43
 989 0289 B5000000 		.4byte	0xb5
 990 028d 28       		.byte	0x28
 991 028e 0E       		.uleb128 0xe
 992 028f F01D0000 		.4byte	.LASF31
 993 0293 05       		.byte	0x5
 994 0294 44       		.byte	0x44
 995 0295 B5000000 		.4byte	0xb5
 996 0299 29       		.byte	0x29
 997 029a 0E       		.uleb128 0xe
 998 029b 980A0000 		.4byte	.LASF32
 999 029f 05       		.byte	0x5
 1000 02a0 45       		.byte	0x45
 1001 02a1 B5000000 		.4byte	0xb5
 1002 02a5 2A       		.byte	0x2a
 1003 02a6 0E       		.uleb128 0xe
 1004 02a7 D61F0000 		.4byte	.LASF33
ARM GAS  C:\Users\Nazar\AppData\Local\Temp\ccWQ1kO8.s 			page 49


 1005 02ab 05       		.byte	0x5
 1006 02ac 46       		.byte	0x46
 1007 02ad B5000000 		.4byte	0xb5
 1008 02b1 2B       		.byte	0x2b
 1009 02b2 0E       		.uleb128 0xe
 1010 02b3 77370000 		.4byte	.LASF34
 1011 02b7 05       		.byte	0x5
 1012 02b8 47       		.byte	0x47
 1013 02b9 B5000000 		.4byte	0xb5
 1014 02bd 2C       		.byte	0x2c
 1015 02be 0E       		.uleb128 0xe
 1016 02bf 673C0000 		.4byte	.LASF35
 1017 02c3 05       		.byte	0x5
 1018 02c4 48       		.byte	0x48
 1019 02c5 B5000000 		.4byte	0xb5
 1020 02c9 2D       		.byte	0x2d
 1021 02ca 0E       		.uleb128 0xe
 1022 02cb EA120000 		.4byte	.LASF36
 1023 02cf 05       		.byte	0x5
 1024 02d0 49       		.byte	0x49
 1025 02d1 B5000000 		.4byte	0xb5
 1026 02d5 2E       		.byte	0x2e
 1027 02d6 0E       		.uleb128 0xe
 1028 02d7 19130000 		.4byte	.LASF37
 1029 02db 05       		.byte	0x5
 1030 02dc 4A       		.byte	0x4a
 1031 02dd B5000000 		.4byte	0xb5
 1032 02e1 2F       		.byte	0x2f
 1033 02e2 0E       		.uleb128 0xe
 1034 02e3 37470000 		.4byte	.LASF38
 1035 02e7 05       		.byte	0x5
 1036 02e8 4B       		.byte	0x4b
 1037 02e9 B5000000 		.4byte	0xb5
 1038 02ed 30       		.byte	0x30
 1039 02ee 0E       		.uleb128 0xe
 1040 02ef 241B0000 		.4byte	.LASF39
 1041 02f3 05       		.byte	0x5
 1042 02f4 4E       		.byte	0x4e
 1043 02f5 B5000000 		.4byte	0xb5
 1044 02f9 31       		.byte	0x31
 1045 02fa 0E       		.uleb128 0xe
 1046 02fb DF0A0000 		.4byte	.LASF40
 1047 02ff 05       		.byte	0x5
 1048 0300 4F       		.byte	0x4f
 1049 0301 B5000000 		.4byte	0xb5
 1050 0305 32       		.byte	0x32
 1051 0306 0E       		.uleb128 0xe
 1052 0307 51010000 		.4byte	.LASF41
 1053 030b 05       		.byte	0x5
 1054 030c 50       		.byte	0x50
 1055 030d B5000000 		.4byte	0xb5
 1056 0311 33       		.byte	0x33
 1057 0312 0E       		.uleb128 0xe
 1058 0313 86460000 		.4byte	.LASF42
 1059 0317 05       		.byte	0x5
 1060 0318 51       		.byte	0x51
 1061 0319 B5000000 		.4byte	0xb5
ARM GAS  C:\Users\Nazar\AppData\Local\Temp\ccWQ1kO8.s 			page 50


 1062 031d 34       		.byte	0x34
 1063 031e 0E       		.uleb128 0xe
 1064 031f 0A570000 		.4byte	.LASF43
 1065 0323 05       		.byte	0x5
 1066 0324 52       		.byte	0x52
 1067 0325 C0000000 		.4byte	0xc0
 1068 0329 36       		.byte	0x36
 1069 032a 0E       		.uleb128 0xe
 1070 032b BA440000 		.4byte	.LASF44
 1071 032f 05       		.byte	0x5
 1072 0330 53       		.byte	0x53
 1073 0331 C0000000 		.4byte	0xc0
 1074 0335 38       		.byte	0x38
 1075 0336 0E       		.uleb128 0xe
 1076 0337 9D340000 		.4byte	.LASF45
 1077 033b 05       		.byte	0x5
 1078 033c 54       		.byte	0x54
 1079 033d C0000000 		.4byte	0xc0
 1080 0341 3A       		.byte	0x3a
 1081 0342 0E       		.uleb128 0xe
 1082 0343 613D0000 		.4byte	.LASF46
 1083 0347 05       		.byte	0x5
 1084 0348 55       		.byte	0x55
 1085 0349 B5000000 		.4byte	0xb5
 1086 034d 3C       		.byte	0x3c
 1087 034e 0E       		.uleb128 0xe
 1088 034f 49050000 		.4byte	.LASF47
 1089 0353 05       		.byte	0x5
 1090 0354 56       		.byte	0x56
 1091 0355 B5000000 		.4byte	0xb5
 1092 0359 3D       		.byte	0x3d
 1093 035a 0E       		.uleb128 0xe
 1094 035b F4220000 		.4byte	.LASF48
 1095 035f 05       		.byte	0x5
 1096 0360 57       		.byte	0x57
 1097 0361 B5000000 		.4byte	0xb5
 1098 0365 3E       		.byte	0x3e
 1099 0366 0E       		.uleb128 0xe
 1100 0367 76520000 		.4byte	.LASF49
 1101 036b 05       		.byte	0x5
 1102 036c 58       		.byte	0x58
 1103 036d B5000000 		.4byte	0xb5
 1104 0371 3F       		.byte	0x3f
 1105 0372 0E       		.uleb128 0xe
 1106 0373 541B0000 		.4byte	.LASF50
 1107 0377 05       		.byte	0x5
 1108 0378 59       		.byte	0x59
 1109 0379 B5000000 		.4byte	0xb5
 1110 037d 40       		.byte	0x40
 1111 037e 0E       		.uleb128 0xe
 1112 037f 1D2C0000 		.4byte	.LASF51
 1113 0383 05       		.byte	0x5
 1114 0384 5A       		.byte	0x5a
 1115 0385 B5000000 		.4byte	0xb5
 1116 0389 41       		.byte	0x41
 1117 038a 0E       		.uleb128 0xe
 1118 038b 7E510000 		.4byte	.LASF52
ARM GAS  C:\Users\Nazar\AppData\Local\Temp\ccWQ1kO8.s 			page 51


 1119 038f 05       		.byte	0x5
 1120 0390 5B       		.byte	0x5b
 1121 0391 B5000000 		.4byte	0xb5
 1122 0395 42       		.byte	0x42
 1123 0396 0E       		.uleb128 0xe
 1124 0397 9E510000 		.4byte	.LASF53
 1125 039b 05       		.byte	0x5
 1126 039c 5C       		.byte	0x5c
 1127 039d B5000000 		.4byte	0xb5
 1128 03a1 43       		.byte	0x43
 1129 03a2 0E       		.uleb128 0xe
 1130 03a3 28010000 		.4byte	.LASF54
 1131 03a7 05       		.byte	0x5
 1132 03a8 5D       		.byte	0x5d
 1133 03a9 B5000000 		.4byte	0xb5
 1134 03ad 44       		.byte	0x44
 1135 03ae 0E       		.uleb128 0xe
 1136 03af AF3B0000 		.4byte	.LASF55
 1137 03b3 05       		.byte	0x5
 1138 03b4 5E       		.byte	0x5e
 1139 03b5 D6000000 		.4byte	0xd6
 1140 03b9 48       		.byte	0x48
 1141 03ba 0E       		.uleb128 0xe
 1142 03bb 3C240000 		.4byte	.LASF56
 1143 03bf 05       		.byte	0x5
 1144 03c0 5F       		.byte	0x5f
 1145 03c1 D6000000 		.4byte	0xd6
 1146 03c5 4C       		.byte	0x4c
 1147 03c6 0E       		.uleb128 0xe
 1148 03c7 43300000 		.4byte	.LASF57
 1149 03cb 05       		.byte	0x5
 1150 03cc 60       		.byte	0x60
 1151 03cd B5000000 		.4byte	0xb5
 1152 03d1 50       		.byte	0x50
 1153 03d2 0E       		.uleb128 0xe
 1154 03d3 34230000 		.4byte	.LASF58
 1155 03d7 05       		.byte	0x5
 1156 03d8 61       		.byte	0x61
 1157 03d9 B5000000 		.4byte	0xb5
 1158 03dd 51       		.byte	0x51
 1159 03de 0E       		.uleb128 0xe
 1160 03df 89430000 		.4byte	.LASF59
 1161 03e3 05       		.byte	0x5
 1162 03e4 62       		.byte	0x62
 1163 03e5 B5000000 		.4byte	0xb5
 1164 03e9 52       		.byte	0x52
 1165 03ea 0E       		.uleb128 0xe
 1166 03eb 144F0000 		.4byte	.LASF60
 1167 03ef 05       		.byte	0x5
 1168 03f0 63       		.byte	0x63
 1169 03f1 B5000000 		.4byte	0xb5
 1170 03f5 53       		.byte	0x53
 1171 03f6 0E       		.uleb128 0xe
 1172 03f7 B2240000 		.4byte	.LASF61
 1173 03fb 05       		.byte	0x5
 1174 03fc 64       		.byte	0x64
 1175 03fd B5000000 		.4byte	0xb5
ARM GAS  C:\Users\Nazar\AppData\Local\Temp\ccWQ1kO8.s 			page 52


 1176 0401 54       		.byte	0x54
 1177 0402 0E       		.uleb128 0xe
 1178 0403 923D0000 		.4byte	.LASF62
 1179 0407 05       		.byte	0x5
 1180 0408 65       		.byte	0x65
 1181 0409 B5000000 		.4byte	0xb5
 1182 040d 55       		.byte	0x55
 1183 040e 0E       		.uleb128 0xe
 1184 040f 2F4C0000 		.4byte	.LASF63
 1185 0413 05       		.byte	0x5
 1186 0414 66       		.byte	0x66
 1187 0415 B5000000 		.4byte	0xb5
 1188 0419 56       		.byte	0x56
 1189 041a 0E       		.uleb128 0xe
 1190 041b 93570000 		.4byte	.LASF64
 1191 041f 05       		.byte	0x5
 1192 0420 67       		.byte	0x67
 1193 0421 B5000000 		.4byte	0xb5
 1194 0425 57       		.byte	0x57
 1195 0426 0E       		.uleb128 0xe
 1196 0427 49090000 		.4byte	.LASF65
 1197 042b 05       		.byte	0x5
 1198 042c 68       		.byte	0x68
 1199 042d B5000000 		.4byte	0xb5
 1200 0431 58       		.byte	0x58
 1201 0432 0E       		.uleb128 0xe
 1202 0433 27180000 		.4byte	.LASF66
 1203 0437 05       		.byte	0x5
 1204 0438 69       		.byte	0x69
 1205 0439 B5000000 		.4byte	0xb5
 1206 043d 59       		.byte	0x59
 1207 043e 0E       		.uleb128 0xe
 1208 043f 843B0000 		.4byte	.LASF67
 1209 0443 05       		.byte	0x5
 1210 0444 6E       		.byte	0x6e
 1211 0445 CB000000 		.4byte	0xcb
 1212 0449 5A       		.byte	0x5a
 1213 044a 0E       		.uleb128 0xe
 1214 044b 011D0000 		.4byte	.LASF68
 1215 044f 05       		.byte	0x5
 1216 0450 6F       		.byte	0x6f
 1217 0451 CB000000 		.4byte	0xcb
 1218 0455 5C       		.byte	0x5c
 1219 0456 0E       		.uleb128 0xe
 1220 0457 AE1A0000 		.4byte	.LASF69
 1221 045b 05       		.byte	0x5
 1222 045c 70       		.byte	0x70
 1223 045d B5000000 		.4byte	0xb5
 1224 0461 5E       		.byte	0x5e
 1225 0462 0E       		.uleb128 0xe
 1226 0463 55330000 		.4byte	.LASF70
 1227 0467 05       		.byte	0x5
 1228 0468 71       		.byte	0x71
 1229 0469 B5000000 		.4byte	0xb5
 1230 046d 5F       		.byte	0x5f
 1231 046e 0E       		.uleb128 0xe
 1232 046f E3050000 		.4byte	.LASF71
ARM GAS  C:\Users\Nazar\AppData\Local\Temp\ccWQ1kO8.s 			page 53


 1233 0473 05       		.byte	0x5
 1234 0474 72       		.byte	0x72
 1235 0475 B5000000 		.4byte	0xb5
 1236 0479 60       		.byte	0x60
 1237 047a 0E       		.uleb128 0xe
 1238 047b DA280000 		.4byte	.LASF72
 1239 047f 05       		.byte	0x5
 1240 0480 73       		.byte	0x73
 1241 0481 D6000000 		.4byte	0xd6
 1242 0485 64       		.byte	0x64
 1243 0486 0E       		.uleb128 0xe
 1244 0487 573C0000 		.4byte	.LASF73
 1245 048b 05       		.byte	0x5
 1246 048c 76       		.byte	0x76
 1247 048d CB000000 		.4byte	0xcb
 1248 0491 68       		.byte	0x68
 1249 0492 0E       		.uleb128 0xe
 1250 0493 1E520000 		.4byte	.LASF74
 1251 0497 05       		.byte	0x5
 1252 0498 77       		.byte	0x77
 1253 0499 CB000000 		.4byte	0xcb
 1254 049d 6A       		.byte	0x6a
 1255 049e 0E       		.uleb128 0xe
 1256 049f 92080000 		.4byte	.LASF75
 1257 04a3 05       		.byte	0x5
 1258 04a4 78       		.byte	0x78
 1259 04a5 CB000000 		.4byte	0xcb
 1260 04a9 6C       		.byte	0x6c
 1261 04aa 0E       		.uleb128 0xe
 1262 04ab AA500000 		.4byte	.LASF76
 1263 04af 05       		.byte	0x5
 1264 04b0 79       		.byte	0x79
 1265 04b1 CB000000 		.4byte	0xcb
 1266 04b5 6E       		.byte	0x6e
 1267 04b6 0E       		.uleb128 0xe
 1268 04b7 D6080000 		.4byte	.LASF77
 1269 04bb 05       		.byte	0x5
 1270 04bc 7B       		.byte	0x7b
 1271 04bd B5000000 		.4byte	0xb5
 1272 04c1 70       		.byte	0x70
 1273 04c2 0E       		.uleb128 0xe
 1274 04c3 0E190000 		.4byte	.LASF78
 1275 04c7 05       		.byte	0x5
 1276 04c8 7C       		.byte	0x7c
 1277 04c9 B5000000 		.4byte	0xb5
 1278 04cd 71       		.byte	0x71
 1279 04ce 0E       		.uleb128 0xe
 1280 04cf F5120000 		.4byte	.LASF79
 1281 04d3 05       		.byte	0x5
 1282 04d4 7D       		.byte	0x7d
 1283 04d5 B5000000 		.4byte	0xb5
 1284 04d9 72       		.byte	0x72
 1285 04da 0E       		.uleb128 0xe
 1286 04db 7D1E0000 		.4byte	.LASF80
 1287 04df 05       		.byte	0x5
 1288 04e0 7E       		.byte	0x7e
 1289 04e1 B5000000 		.4byte	0xb5
ARM GAS  C:\Users\Nazar\AppData\Local\Temp\ccWQ1kO8.s 			page 54


 1290 04e5 73       		.byte	0x73
 1291 04e6 0E       		.uleb128 0xe
 1292 04e7 AB1E0000 		.4byte	.LASF81
 1293 04eb 05       		.byte	0x5
 1294 04ec 80       		.byte	0x80
 1295 04ed CB000000 		.4byte	0xcb
 1296 04f1 74       		.byte	0x74
 1297 04f2 0E       		.uleb128 0xe
 1298 04f3 FE1B0000 		.4byte	.LASF82
 1299 04f7 05       		.byte	0x5
 1300 04f8 81       		.byte	0x81
 1301 04f9 CB000000 		.4byte	0xcb
 1302 04fd 76       		.byte	0x76
 1303 04fe 0E       		.uleb128 0xe
 1304 04ff 5B4B0000 		.4byte	.LASF83
 1305 0503 05       		.byte	0x5
 1306 0504 82       		.byte	0x82
 1307 0505 CB000000 		.4byte	0xcb
 1308 0509 78       		.byte	0x78
 1309 050a 0E       		.uleb128 0xe
 1310 050b 46420000 		.4byte	.LASF84
 1311 050f 05       		.byte	0x5
 1312 0510 83       		.byte	0x83
 1313 0511 CB000000 		.4byte	0xcb
 1314 0515 7A       		.byte	0x7a
 1315 0516 0E       		.uleb128 0xe
 1316 0517 103C0000 		.4byte	.LASF85
 1317 051b 05       		.byte	0x5
 1318 051c 86       		.byte	0x86
 1319 051d B5000000 		.4byte	0xb5
 1320 0521 7C       		.byte	0x7c
 1321 0522 0E       		.uleb128 0xe
 1322 0523 BC540000 		.4byte	.LASF86
 1323 0527 05       		.byte	0x5
 1324 0528 87       		.byte	0x87
 1325 0529 B5000000 		.4byte	0xb5
 1326 052d 7D       		.byte	0x7d
 1327 052e 0E       		.uleb128 0xe
 1328 052f B65A0000 		.4byte	.LASF87
 1329 0533 05       		.byte	0x5
 1330 0534 88       		.byte	0x88
 1331 0535 B5000000 		.4byte	0xb5
 1332 0539 7E       		.byte	0x7e
 1333 053a 0E       		.uleb128 0xe
 1334 053b 691E0000 		.4byte	.LASF88
 1335 053f 05       		.byte	0x5
 1336 0540 89       		.byte	0x89
 1337 0541 B5000000 		.4byte	0xb5
 1338 0545 7F       		.byte	0x7f
 1339 0546 0E       		.uleb128 0xe
 1340 0547 E7060000 		.4byte	.LASF89
 1341 054b 05       		.byte	0x5
 1342 054c 8A       		.byte	0x8a
 1343 054d B5000000 		.4byte	0xb5
 1344 0551 80       		.byte	0x80
 1345 0552 0E       		.uleb128 0xe
 1346 0553 DD520000 		.4byte	.LASF90
ARM GAS  C:\Users\Nazar\AppData\Local\Temp\ccWQ1kO8.s 			page 55


 1347 0557 05       		.byte	0x5
 1348 0558 8D       		.byte	0x8d
 1349 0559 D6000000 		.4byte	0xd6
 1350 055d 84       		.byte	0x84
 1351 055e 0E       		.uleb128 0xe
 1352 055f 3E330000 		.4byte	.LASF91
 1353 0563 05       		.byte	0x5
 1354 0564 8E       		.byte	0x8e
 1355 0565 D6000000 		.4byte	0xd6
 1356 0569 88       		.byte	0x88
 1357 056a 0E       		.uleb128 0xe
 1358 056b C4200000 		.4byte	.LASF92
 1359 056f 05       		.byte	0x5
 1360 0570 8F       		.byte	0x8f
 1361 0571 D6000000 		.4byte	0xd6
 1362 0575 8C       		.byte	0x8c
 1363 0576 0E       		.uleb128 0xe
 1364 0577 AC4D0000 		.4byte	.LASF93
 1365 057b 05       		.byte	0x5
 1366 057c 90       		.byte	0x90
 1367 057d D6000000 		.4byte	0xd6
 1368 0581 90       		.byte	0x90
 1369 0582 0E       		.uleb128 0xe
 1370 0583 74430000 		.4byte	.LASF94
 1371 0587 05       		.byte	0x5
 1372 0588 91       		.byte	0x91
 1373 0589 D6000000 		.4byte	0xd6
 1374 058d 94       		.byte	0x94
 1375 058e 0E       		.uleb128 0xe
 1376 058f 900B0000 		.4byte	.LASF95
 1377 0593 05       		.byte	0x5
 1378 0594 92       		.byte	0x92
 1379 0595 D6000000 		.4byte	0xd6
 1380 0599 98       		.byte	0x98
 1381 059a 0E       		.uleb128 0xe
 1382 059b 7D260000 		.4byte	.LASF96
 1383 059f 05       		.byte	0x5
 1384 05a0 93       		.byte	0x93
 1385 05a1 D6000000 		.4byte	0xd6
 1386 05a5 9C       		.byte	0x9c
 1387 05a6 0E       		.uleb128 0xe
 1388 05a7 CB100000 		.4byte	.LASF97
 1389 05ab 05       		.byte	0x5
 1390 05ac 94       		.byte	0x94
 1391 05ad D6000000 		.4byte	0xd6
 1392 05b1 A0       		.byte	0xa0
 1393 05b2 0E       		.uleb128 0xe
 1394 05b3 01180000 		.4byte	.LASF98
 1395 05b7 05       		.byte	0x5
 1396 05b8 95       		.byte	0x95
 1397 05b9 CB000000 		.4byte	0xcb
 1398 05bd A4       		.byte	0xa4
 1399 05be 0E       		.uleb128 0xe
 1400 05bf 384D0000 		.4byte	.LASF99
 1401 05c3 05       		.byte	0x5
 1402 05c4 96       		.byte	0x96
 1403 05c5 CB000000 		.4byte	0xcb
ARM GAS  C:\Users\Nazar\AppData\Local\Temp\ccWQ1kO8.s 			page 56


 1404 05c9 A6       		.byte	0xa6
 1405 05ca 0E       		.uleb128 0xe
 1406 05cb 39220000 		.4byte	.LASF100
 1407 05cf 05       		.byte	0x5
 1408 05d0 97       		.byte	0x97
 1409 05d1 CB000000 		.4byte	0xcb
 1410 05d5 A8       		.byte	0xa8
 1411 05d6 0E       		.uleb128 0xe
 1412 05d7 0C170000 		.4byte	.LASF101
 1413 05db 05       		.byte	0x5
 1414 05dc 98       		.byte	0x98
 1415 05dd CB000000 		.4byte	0xcb
 1416 05e1 AA       		.byte	0xaa
 1417 05e2 0E       		.uleb128 0xe
 1418 05e3 5F230000 		.4byte	.LASF102
 1419 05e7 05       		.byte	0x5
 1420 05e8 99       		.byte	0x99
 1421 05e9 CB000000 		.4byte	0xcb
 1422 05ed AC       		.byte	0xac
 1423 05ee 0E       		.uleb128 0xe
 1424 05ef 18340000 		.4byte	.LASF103
 1425 05f3 05       		.byte	0x5
 1426 05f4 9A       		.byte	0x9a
 1427 05f5 CB000000 		.4byte	0xcb
 1428 05f9 AE       		.byte	0xae
 1429 05fa 0E       		.uleb128 0xe
 1430 05fb C4450000 		.4byte	.LASF104
 1431 05ff 05       		.byte	0x5
 1432 0600 9D       		.byte	0x9d
 1433 0601 CB000000 		.4byte	0xcb
 1434 0605 B0       		.byte	0xb0
 1435 0606 0E       		.uleb128 0xe
 1436 0607 15490000 		.4byte	.LASF105
 1437 060b 05       		.byte	0x5
 1438 060c 9E       		.byte	0x9e
 1439 060d D6000000 		.4byte	0xd6
 1440 0611 B4       		.byte	0xb4
 1441 0612 00       		.byte	0
 1442 0613 04       		.uleb128 0x4
 1443 0614 60580000 		.4byte	.LASF106
 1444 0618 05       		.byte	0x5
 1445 0619 9F       		.byte	0x9f
 1446 061a 02020000 		.4byte	0x202
 1447 061e 0F       		.uleb128 0xf
 1448 061f 02       		.byte	0x2
 1449 0620 65000000 		.4byte	0x65
 1450 0624 06       		.byte	0x6
 1451 0625 24       		.byte	0x24
 1452 0626 15070000 		.4byte	0x715
 1453 062a 10       		.uleb128 0x10
 1454 062b 09560000 		.4byte	.LASF107
 1455 062f 71       		.sleb128 -15
 1456 0630 10       		.uleb128 0x10
 1457 0631 B2160000 		.4byte	.LASF108
 1458 0635 72       		.sleb128 -14
 1459 0636 10       		.uleb128 0x10
 1460 0637 1A330000 		.4byte	.LASF109
ARM GAS  C:\Users\Nazar\AppData\Local\Temp\ccWQ1kO8.s 			page 57


 1461 063b 73       		.sleb128 -13
 1462 063c 10       		.uleb128 0x10
 1463 063d B6580000 		.4byte	.LASF110
 1464 0641 7B       		.sleb128 -5
 1465 0642 10       		.uleb128 0x10
 1466 0643 6E590000 		.4byte	.LASF111
 1467 0647 7E       		.sleb128 -2
 1468 0648 10       		.uleb128 0x10
 1469 0649 88100000 		.4byte	.LASF112
 1470 064d 7F       		.sleb128 -1
 1471 064e 11       		.uleb128 0x11
 1472 064f 16390000 		.4byte	.LASF113
 1473 0653 00       		.byte	0
 1474 0654 11       		.uleb128 0x11
 1475 0655 AE540000 		.4byte	.LASF114
 1476 0659 01       		.byte	0x1
 1477 065a 11       		.uleb128 0x11
 1478 065b 19150000 		.4byte	.LASF115
 1479 065f 02       		.byte	0x2
 1480 0660 11       		.uleb128 0x11
 1481 0661 EC320000 		.4byte	.LASF116
 1482 0665 03       		.byte	0x3
 1483 0666 11       		.uleb128 0x11
 1484 0667 9C500000 		.4byte	.LASF117
 1485 066b 04       		.byte	0x4
 1486 066c 11       		.uleb128 0x11
 1487 066d A00F0000 		.4byte	.LASF118
 1488 0671 05       		.byte	0x5
 1489 0672 11       		.uleb128 0x11
 1490 0673 A32B0000 		.4byte	.LASF119
 1491 0677 06       		.byte	0x6
 1492 0678 11       		.uleb128 0x11
 1493 0679 7E4B0000 		.4byte	.LASF120
 1494 067d 07       		.byte	0x7
 1495 067e 11       		.uleb128 0x11
 1496 067f 44080000 		.4byte	.LASF121
 1497 0683 08       		.byte	0x8
 1498 0684 11       		.uleb128 0x11
 1499 0685 EE240000 		.4byte	.LASF122
 1500 0689 09       		.byte	0x9
 1501 068a 11       		.uleb128 0x11
 1502 068b DF040000 		.4byte	.LASF123
 1503 068f 0A       		.byte	0xa
 1504 0690 11       		.uleb128 0x11
 1505 0691 DD210000 		.4byte	.LASF124
 1506 0695 0B       		.byte	0xb
 1507 0696 11       		.uleb128 0x11
 1508 0697 49400000 		.4byte	.LASF125
 1509 069b 0C       		.byte	0xc
 1510 069c 11       		.uleb128 0x11
 1511 069d 935A0000 		.4byte	.LASF126
 1512 06a1 0D       		.byte	0xd
 1513 06a2 11       		.uleb128 0x11
 1514 06a3 F21C0000 		.4byte	.LASF127
 1515 06a7 0E       		.byte	0xe
 1516 06a8 11       		.uleb128 0x11
 1517 06a9 FE390000 		.4byte	.LASF128
ARM GAS  C:\Users\Nazar\AppData\Local\Temp\ccWQ1kO8.s 			page 58


 1518 06ad 0F       		.byte	0xf
 1519 06ae 11       		.uleb128 0x11
 1520 06af 14560000 		.4byte	.LASF129
 1521 06b3 10       		.byte	0x10
 1522 06b4 11       		.uleb128 0x11
 1523 06b5 FD160000 		.4byte	.LASF130
 1524 06b9 11       		.byte	0x11
 1525 06ba 11       		.uleb128 0x11
 1526 06bb E3330000 		.4byte	.LASF131
 1527 06bf 12       		.byte	0x12
 1528 06c0 11       		.uleb128 0x11
 1529 06c1 6F510000 		.4byte	.LASF132
 1530 06c5 13       		.byte	0x13
 1531 06c6 11       		.uleb128 0x11
 1532 06c7 33590000 		.4byte	.LASF133
 1533 06cb 14       		.byte	0x14
 1534 06cc 11       		.uleb128 0x11
 1535 06cd D11A0000 		.4byte	.LASF134
 1536 06d1 15       		.byte	0x15
 1537 06d2 11       		.uleb128 0x11
 1538 06d3 DF370000 		.4byte	.LASF135
 1539 06d7 16       		.byte	0x16
 1540 06d8 11       		.uleb128 0x11
 1541 06d9 93540000 		.4byte	.LASF136
 1542 06dd 17       		.byte	0x17
 1543 06de 11       		.uleb128 0x11
 1544 06df FF140000 		.4byte	.LASF137
 1545 06e3 18       		.byte	0x18
 1546 06e4 11       		.uleb128 0x11
 1547 06e5 44310000 		.4byte	.LASF138
 1548 06e9 19       		.byte	0x19
 1549 06ea 11       		.uleb128 0x11
 1550 06eb 874F0000 		.4byte	.LASF139
 1551 06ef 1A       		.byte	0x1a
 1552 06f0 11       		.uleb128 0x11
 1553 06f1 FE0E0000 		.4byte	.LASF140
 1554 06f5 1B       		.byte	0x1b
 1555 06f6 11       		.uleb128 0x11
 1556 06f7 AD2A0000 		.4byte	.LASF141
 1557 06fb 1C       		.byte	0x1c
 1558 06fc 11       		.uleb128 0x11
 1559 06fd 4C4A0000 		.4byte	.LASF142
 1560 0701 1D       		.byte	0x1d
 1561 0702 11       		.uleb128 0x11
 1562 0703 B6520000 		.4byte	.LASF143
 1563 0707 1E       		.byte	0x1e
 1564 0708 11       		.uleb128 0x11
 1565 0709 F1110000 		.4byte	.LASF144
 1566 070d 1F       		.byte	0x1f
 1567 070e 11       		.uleb128 0x11
 1568 070f 16180000 		.4byte	.LASF145
 1569 0713 F0       		.byte	0xf0
 1570 0714 00       		.byte	0
 1571 0715 04       		.uleb128 0x4
 1572 0716 82480000 		.4byte	.LASF146
 1573 071a 06       		.byte	0x6
 1574 071b F4       		.byte	0xf4
ARM GAS  C:\Users\Nazar\AppData\Local\Temp\ccWQ1kO8.s 			page 59


 1575 071c 1E060000 		.4byte	0x61e
 1576 0720 0F       		.uleb128 0xf
 1577 0721 01       		.byte	0x1
 1578 0722 53000000 		.4byte	0x53
 1579 0726 06       		.byte	0x6
 1580 0727 FD       		.byte	0xfd
 1581 0728 A50A0000 		.4byte	0xaa5
 1582 072c 11       		.uleb128 0x11
 1583 072d 4B320000 		.4byte	.LASF147
 1584 0731 00       		.byte	0
 1585 0732 11       		.uleb128 0x11
 1586 0733 6D500000 		.4byte	.LASF148
 1587 0737 01       		.byte	0x1
 1588 0738 11       		.uleb128 0x11
 1589 0739 380F0000 		.4byte	.LASF149
 1590 073d 02       		.byte	0x2
 1591 073e 11       		.uleb128 0x11
 1592 073f 492B0000 		.4byte	.LASF150
 1593 0743 03       		.byte	0x3
 1594 0744 11       		.uleb128 0x11
 1595 0745 3F4B0000 		.4byte	.LASF151
 1596 0749 04       		.byte	0x4
 1597 074a 11       		.uleb128 0x11
 1598 074b 89070000 		.4byte	.LASF152
 1599 074f 05       		.byte	0x5
 1600 0750 11       		.uleb128 0x11
 1601 0751 85240000 		.4byte	.LASF153
 1602 0755 06       		.byte	0x6
 1603 0756 11       		.uleb128 0x11
 1604 0757 5C450000 		.4byte	.LASF154
 1605 075b 07       		.byte	0x7
 1606 075c 11       		.uleb128 0x11
 1607 075d 01020000 		.4byte	.LASF155
 1608 0761 08       		.byte	0x8
 1609 0762 11       		.uleb128 0x11
 1610 0763 03200000 		.4byte	.LASF156
 1611 0767 09       		.byte	0x9
 1612 0768 11       		.uleb128 0x11
 1613 0769 BE340000 		.4byte	.LASF157
 1614 076d 0A       		.byte	0xa
 1615 076e 11       		.uleb128 0x11
 1616 076f 01520000 		.4byte	.LASF158
 1617 0773 0B       		.byte	0xb
 1618 0774 11       		.uleb128 0x11
 1619 0775 22110000 		.4byte	.LASF159
 1620 0779 0C       		.byte	0xc
 1621 077a 11       		.uleb128 0x11
 1622 077b C02C0000 		.4byte	.LASF160
 1623 077f 0D       		.byte	0xd
 1624 0780 11       		.uleb128 0x11
 1625 0781 1B4D0000 		.4byte	.LASF161
 1626 0785 0E       		.byte	0xe
 1627 0786 11       		.uleb128 0x11
 1628 0787 68310000 		.4byte	.LASF162
 1629 078b 0F       		.byte	0xf
 1630 078c 11       		.uleb128 0x11
 1631 078d C1510000 		.4byte	.LASF163
ARM GAS  C:\Users\Nazar\AppData\Local\Temp\ccWQ1kO8.s 			page 60


 1632 0791 10       		.byte	0x10
 1633 0792 11       		.uleb128 0x11
 1634 0793 F7280000 		.4byte	.LASF164
 1635 0797 11       		.byte	0x11
 1636 0798 11       		.uleb128 0x11
 1637 0799 C2020000 		.4byte	.LASF165
 1638 079d 12       		.byte	0x12
 1639 079e 11       		.uleb128 0x11
 1640 079f F9050000 		.4byte	.LASF166
 1641 07a3 13       		.byte	0x13
 1642 07a4 11       		.uleb128 0x11
 1643 07a5 7C220000 		.4byte	.LASF167
 1644 07a9 14       		.byte	0x14
 1645 07aa 11       		.uleb128 0x11
 1646 07ab A52C0000 		.4byte	.LASF168
 1647 07af 15       		.byte	0x15
 1648 07b0 11       		.uleb128 0x11
 1649 07b1 65070000 		.4byte	.LASF169
 1650 07b5 16       		.byte	0x16
 1651 07b6 11       		.uleb128 0x11
 1652 07b7 0E5A0000 		.4byte	.LASF170
 1653 07bb 17       		.byte	0x17
 1654 07bc 11       		.uleb128 0x11
 1655 07bd F9200000 		.4byte	.LASF171
 1656 07c1 18       		.byte	0x18
 1657 07c2 11       		.uleb128 0x11
 1658 07c3 C3590000 		.4byte	.LASF172
 1659 07c7 19       		.byte	0x19
 1660 07c8 11       		.uleb128 0x11
 1661 07c9 A3420000 		.4byte	.LASF173
 1662 07cd 1A       		.byte	0x1a
 1663 07ce 11       		.uleb128 0x11
 1664 07cf 82380000 		.4byte	.LASF174
 1665 07d3 1B       		.byte	0x1b
 1666 07d4 11       		.uleb128 0x11
 1667 07d5 01550000 		.4byte	.LASF175
 1668 07d9 1C       		.byte	0x1c
 1669 07da 11       		.uleb128 0x11
 1670 07db B9190000 		.4byte	.LASF176
 1671 07df 1D       		.byte	0x1d
 1672 07e0 11       		.uleb128 0x11
 1673 07e1 2F320000 		.4byte	.LASF177
 1674 07e5 1E       		.byte	0x1e
 1675 07e6 11       		.uleb128 0x11
 1676 07e7 51500000 		.4byte	.LASF178
 1677 07eb 1F       		.byte	0x1f
 1678 07ec 11       		.uleb128 0x11
 1679 07ed B7500000 		.4byte	.LASF179
 1680 07f1 20       		.byte	0x20
 1681 07f2 11       		.uleb128 0x11
 1682 07f3 2D2B0000 		.4byte	.LASF180
 1683 07f7 21       		.byte	0x21
 1684 07f8 11       		.uleb128 0x11
 1685 07f9 234B0000 		.4byte	.LASF181
 1686 07fd 22       		.byte	0x22
 1687 07fe 11       		.uleb128 0x11
 1688 07ff 2C090000 		.4byte	.LASF182
ARM GAS  C:\Users\Nazar\AppData\Local\Temp\ccWQ1kO8.s 			page 61


 1689 0803 23       		.byte	0x23
 1690 0804 11       		.uleb128 0x11
 1691 0805 8F250000 		.4byte	.LASF183
 1692 0809 24       		.byte	0x24
 1693 080a 11       		.uleb128 0x11
 1694 080b E2450000 		.4byte	.LASF184
 1695 080f 25       		.byte	0x25
 1696 0810 11       		.uleb128 0x11
 1697 0811 39030000 		.4byte	.LASF185
 1698 0815 26       		.byte	0x26
 1699 0816 11       		.uleb128 0x11
 1700 0817 0E210000 		.4byte	.LASF186
 1701 081b 27       		.byte	0x27
 1702 081c 11       		.uleb128 0x11
 1703 081d DC3F0000 		.4byte	.LASF187
 1704 0821 28       		.byte	0x28
 1705 0822 11       		.uleb128 0x11
 1706 0823 B85B0000 		.4byte	.LASF188
 1707 0827 29       		.byte	0x29
 1708 0828 11       		.uleb128 0x11
 1709 0829 E12F0000 		.4byte	.LASF189
 1710 082d 2A       		.byte	0x2a
 1711 082e 11       		.uleb128 0x11
 1712 082f 98000000 		.4byte	.LASF190
 1713 0833 2B       		.byte	0x2b
 1714 0834 11       		.uleb128 0x11
 1715 0835 99300000 		.4byte	.LASF191
 1716 0839 2C       		.byte	0x2c
 1717 083a 11       		.uleb128 0x11
 1718 083b 13010000 		.4byte	.LASF192
 1719 083f 2D       		.byte	0x2d
 1720 0840 11       		.uleb128 0x11
 1721 0841 53310000 		.4byte	.LASF193
 1722 0845 2E       		.byte	0x2e
 1723 0846 11       		.uleb128 0x11
 1724 0847 EC010000 		.4byte	.LASF194
 1725 084b 2F       		.byte	0x2f
 1726 084c 11       		.uleb128 0x11
 1727 084d FA310000 		.4byte	.LASF195
 1728 0851 30       		.byte	0x30
 1729 0852 11       		.uleb128 0x11
 1730 0853 A7280000 		.4byte	.LASF196
 1731 0857 31       		.byte	0x31
 1732 0858 11       		.uleb128 0x11
 1733 0859 EC210000 		.4byte	.LASF197
 1734 085d 32       		.byte	0x32
 1735 085e 11       		.uleb128 0x11
 1736 085f 42410000 		.4byte	.LASF198
 1737 0863 33       		.byte	0x33
 1738 0864 11       		.uleb128 0x11
 1739 0865 425B0000 		.4byte	.LASF199
 1740 0869 34       		.byte	0x34
 1741 086a 11       		.uleb128 0x11
 1742 086b 0A1D0000 		.4byte	.LASF200
 1743 086f 35       		.byte	0x35
 1744 0870 11       		.uleb128 0x11
 1745 0871 9F3A0000 		.4byte	.LASF201
ARM GAS  C:\Users\Nazar\AppData\Local\Temp\ccWQ1kO8.s 			page 62


 1746 0875 36       		.byte	0x36
 1747 0876 11       		.uleb128 0x11
 1748 0877 58560000 		.4byte	.LASF202
 1749 087b 37       		.byte	0x37
 1750 087c 11       		.uleb128 0x11
 1751 087d 1A170000 		.4byte	.LASF203
 1752 0881 38       		.byte	0x38
 1753 0882 11       		.uleb128 0x11
 1754 0883 06350000 		.4byte	.LASF204
 1755 0887 39       		.byte	0x39
 1756 0888 11       		.uleb128 0x11
 1757 0889 4B520000 		.4byte	.LASF205
 1758 088d 3A       		.byte	0x3a
 1759 088e 11       		.uleb128 0x11
 1760 088f 59110000 		.4byte	.LASF206
 1761 0893 3B       		.byte	0x3b
 1762 0894 11       		.uleb128 0x11
 1763 0895 7D4D0000 		.4byte	.LASF207
 1764 0899 3C       		.byte	0x3c
 1765 089a 11       		.uleb128 0x11
 1766 089b BC0B0000 		.4byte	.LASF208
 1767 089f 3D       		.byte	0x3d
 1768 08a0 11       		.uleb128 0x11
 1769 08a1 68270000 		.4byte	.LASF209
 1770 08a5 3E       		.byte	0x3e
 1771 08a6 11       		.uleb128 0x11
 1772 08a7 F1460000 		.4byte	.LASF210
 1773 08ab 3F       		.byte	0x3f
 1774 08ac 11       		.uleb128 0x11
 1775 08ad A3050000 		.4byte	.LASF211
 1776 08b1 40       		.byte	0x40
 1777 08b2 11       		.uleb128 0x11
 1778 08b3 45220000 		.4byte	.LASF212
 1779 08b7 41       		.byte	0x41
 1780 08b8 11       		.uleb128 0x11
 1781 08b9 AC3D0000 		.4byte	.LASF213
 1782 08bd 42       		.byte	0x42
 1783 08be 11       		.uleb128 0x11
 1784 08bf 9A580000 		.4byte	.LASF214
 1785 08c3 43       		.byte	0x43
 1786 08c4 11       		.uleb128 0x11
 1787 08c5 D5190000 		.4byte	.LASF215
 1788 08c9 44       		.byte	0x44
 1789 08ca 11       		.uleb128 0x11
 1790 08cb 26370000 		.4byte	.LASF216
 1791 08cf 45       		.byte	0x45
 1792 08d0 11       		.uleb128 0x11
 1793 08d1 8E530000 		.4byte	.LASF217
 1794 08d5 46       		.byte	0x46
 1795 08d6 11       		.uleb128 0x11
 1796 08d7 E8130000 		.4byte	.LASF218
 1797 08db 47       		.byte	0x47
 1798 08dc 11       		.uleb128 0x11
 1799 08dd 54300000 		.4byte	.LASF219
 1800 08e1 48       		.byte	0x48
 1801 08e2 11       		.uleb128 0x11
 1802 08e3 CB4E0000 		.4byte	.LASF220
ARM GAS  C:\Users\Nazar\AppData\Local\Temp\ccWQ1kO8.s 			page 63


 1803 08e7 49       		.byte	0x49
 1804 08e8 11       		.uleb128 0x11
 1805 08e9 D00D0000 		.4byte	.LASF221
 1806 08ed 4A       		.byte	0x4a
 1807 08ee 11       		.uleb128 0x11
 1808 08ef 82290000 		.4byte	.LASF222
 1809 08f3 4B       		.byte	0x4b
 1810 08f4 11       		.uleb128 0x11
 1811 08f5 CF140000 		.4byte	.LASF223
 1812 08f9 4C       		.byte	0x4c
 1813 08fa 11       		.uleb128 0x11
 1814 08fb BD310000 		.4byte	.LASF224
 1815 08ff 4D       		.byte	0x4d
 1816 0900 11       		.uleb128 0x11
 1817 0901 E44F0000 		.4byte	.LASF225
 1818 0905 4E       		.byte	0x4e
 1819 0906 11       		.uleb128 0x11
 1820 0907 E10E0000 		.4byte	.LASF226
 1821 090b 4F       		.byte	0x4f
 1822 090c 11       		.uleb128 0x11
 1823 090d EA2A0000 		.4byte	.LASF227
 1824 0911 50       		.byte	0x50
 1825 0912 11       		.uleb128 0x11
 1826 0913 C34A0000 		.4byte	.LASF228
 1827 0917 51       		.byte	0x51
 1828 0918 11       		.uleb128 0x11
 1829 0919 98220000 		.4byte	.LASF229
 1830 091d 52       		.byte	0x52
 1831 091e 11       		.uleb128 0x11
 1832 091f 85420000 		.4byte	.LASF230
 1833 0923 53       		.byte	0x53
 1834 0924 11       		.uleb128 0x11
 1835 0925 C13B0000 		.4byte	.LASF231
 1836 0929 54       		.byte	0x54
 1837 092a 11       		.uleb128 0x11
 1838 092b 34430000 		.4byte	.LASF232
 1839 092f 55       		.byte	0x55
 1840 0930 11       		.uleb128 0x11
 1841 0931 6F340000 		.4byte	.LASF233
 1842 0935 56       		.byte	0x56
 1843 0936 11       		.uleb128 0x11
 1844 0937 A1080000 		.4byte	.LASF234
 1845 093b 57       		.byte	0x57
 1846 093c 11       		.uleb128 0x11
 1847 093d 7E130000 		.4byte	.LASF235
 1848 0941 58       		.byte	0x58
 1849 0942 11       		.uleb128 0x11
 1850 0943 FA070000 		.4byte	.LASF236
 1851 0947 59       		.byte	0x59
 1852 0948 11       		.uleb128 0x11
 1853 0949 76120000 		.4byte	.LASF237
 1854 094d 5A       		.byte	0x5a
 1855 094e 11       		.uleb128 0x11
 1856 094f F32E0000 		.4byte	.LASF238
 1857 0953 5B       		.byte	0x5b
 1858 0954 11       		.uleb128 0x11
 1859 0955 DF4D0000 		.4byte	.LASF239
ARM GAS  C:\Users\Nazar\AppData\Local\Temp\ccWQ1kO8.s 			page 64


 1860 0959 5C       		.byte	0x5c
 1861 095a 11       		.uleb128 0x11
 1862 095b 950C0000 		.4byte	.LASF240
 1863 095f 5D       		.byte	0x5d
 1864 0960 11       		.uleb128 0x11
 1865 0961 CA270000 		.4byte	.LASF241
 1866 0965 5E       		.byte	0x5e
 1867 0966 11       		.uleb128 0x11
 1868 0967 F3470000 		.4byte	.LASF242
 1869 096b 5F       		.byte	0x5f
 1870 096c 11       		.uleb128 0x11
 1871 096d 39060000 		.4byte	.LASF243
 1872 0971 60       		.byte	0x60
 1873 0972 11       		.uleb128 0x11
 1874 0973 62220000 		.4byte	.LASF244
 1875 0977 61       		.byte	0x61
 1876 0978 11       		.uleb128 0x11
 1877 0979 EF550000 		.4byte	.LASF245
 1878 097d 62       		.byte	0x62
 1879 097e 11       		.uleb128 0x11
 1880 097f 9A150000 		.4byte	.LASF246
 1881 0983 63       		.byte	0x63
 1882 0984 11       		.uleb128 0x11
 1883 0985 AA330000 		.4byte	.LASF247
 1884 0989 64       		.byte	0x64
 1885 098a 11       		.uleb128 0x11
 1886 098b 55510000 		.4byte	.LASF248
 1887 098f 65       		.byte	0x65
 1888 0990 11       		.uleb128 0x11
 1889 0991 17140000 		.4byte	.LASF249
 1890 0995 66       		.byte	0x66
 1891 0996 11       		.uleb128 0x11
 1892 0997 352C0000 		.4byte	.LASF250
 1893 099b 67       		.byte	0x67
 1894 099c 11       		.uleb128 0x11
 1895 099d 434C0000 		.4byte	.LASF251
 1896 09a1 68       		.byte	0x68
 1897 09a2 11       		.uleb128 0x11
 1898 09a3 740A0000 		.4byte	.LASF252
 1899 09a7 69       		.byte	0x69
 1900 09a8 11       		.uleb128 0x11
 1901 09a9 AC250000 		.4byte	.LASF253
 1902 09ad 6A       		.byte	0x6a
 1903 09ae 11       		.uleb128 0x11
 1904 09af FF450000 		.4byte	.LASF254
 1905 09b3 6B       		.byte	0x6b
 1906 09b4 11       		.uleb128 0x11
 1907 09b5 FD440000 		.4byte	.LASF255
 1908 09b9 6C       		.byte	0x6c
 1909 09ba 11       		.uleb128 0x11
 1910 09bb 1D020000 		.4byte	.LASF256
 1911 09bf 6D       		.byte	0x6d
 1912 09c0 11       		.uleb128 0x11
 1913 09c1 43200000 		.4byte	.LASF257
 1914 09c5 6E       		.byte	0x6e
 1915 09c6 11       		.uleb128 0x11
 1916 09c7 A53E0000 		.4byte	.LASF258
ARM GAS  C:\Users\Nazar\AppData\Local\Temp\ccWQ1kO8.s 			page 65


 1917 09cb 6F       		.byte	0x6f
 1918 09cc 11       		.uleb128 0x11
 1919 09cd EA580000 		.4byte	.LASF259
 1920 09d1 70       		.byte	0x70
 1921 09d2 11       		.uleb128 0x11
 1922 09d3 611A0000 		.4byte	.LASF260
 1923 09d7 71       		.byte	0x71
 1924 09d8 11       		.uleb128 0x11
 1925 09d9 40380000 		.4byte	.LASF261
 1926 09dd 72       		.byte	0x72
 1927 09de 11       		.uleb128 0x11
 1928 09df 3B540000 		.4byte	.LASF262
 1929 09e3 73       		.byte	0x73
 1930 09e4 11       		.uleb128 0x11
 1931 09e5 83140000 		.4byte	.LASF263
 1932 09e9 74       		.byte	0x74
 1933 09ea 11       		.uleb128 0x11
 1934 09eb A2310000 		.4byte	.LASF264
 1935 09ef 75       		.byte	0x75
 1936 09f0 11       		.uleb128 0x11
 1937 09f1 743C0000 		.4byte	.LASF265
 1938 09f5 76       		.byte	0x76
 1939 09f6 11       		.uleb128 0x11
 1940 09f7 EF560000 		.4byte	.LASF266
 1941 09fb 77       		.byte	0x77
 1942 09fc 11       		.uleb128 0x11
 1943 09fd 4C180000 		.4byte	.LASF267
 1944 0a01 78       		.byte	0x78
 1945 0a02 11       		.uleb128 0x11
 1946 0a03 A8350000 		.4byte	.LASF268
 1947 0a07 79       		.byte	0x79
 1948 0a08 11       		.uleb128 0x11
 1949 0a09 9B180000 		.4byte	.LASF269
 1950 0a0d 7A       		.byte	0x7a
 1951 0a0e 11       		.uleb128 0x11
 1952 0a0f C0360000 		.4byte	.LASF270
 1953 0a13 7B       		.byte	0x7b
 1954 0a14 11       		.uleb128 0x11
 1955 0a15 39530000 		.4byte	.LASF271
 1956 0a19 7C       		.byte	0x7c
 1957 0a1a 11       		.uleb128 0x11
 1958 0a1b 68130000 		.4byte	.LASF272
 1959 0a1f 7D       		.byte	0x7d
 1960 0a20 11       		.uleb128 0x11
 1961 0a21 F62F0000 		.4byte	.LASF273
 1962 0a25 7E       		.byte	0x7e
 1963 0a26 11       		.uleb128 0x11
 1964 0a27 914E0000 		.4byte	.LASF274
 1965 0a2b 7F       		.byte	0x7f
 1966 0a2c 11       		.uleb128 0x11
 1967 0a2d 250D0000 		.4byte	.LASF275
 1968 0a31 80       		.byte	0x80
 1969 0a32 11       		.uleb128 0x11
 1970 0a33 BA280000 		.4byte	.LASF276
 1971 0a37 81       		.byte	0x81
 1972 0a38 11       		.uleb128 0x11
 1973 0a39 F7480000 		.4byte	.LASF277
ARM GAS  C:\Users\Nazar\AppData\Local\Temp\ccWQ1kO8.s 			page 66


 1974 0a3d 82       		.byte	0x82
 1975 0a3e 11       		.uleb128 0x11
 1976 0a3f 80060000 		.4byte	.LASF278
 1977 0a43 83       		.byte	0x83
 1978 0a44 11       		.uleb128 0x11
 1979 0a45 4C430000 		.4byte	.LASF279
 1980 0a49 84       		.byte	0x84
 1981 0a4a 11       		.uleb128 0x11
 1982 0a4b C9000000 		.4byte	.LASF280
 1983 0a4f 85       		.byte	0x85
 1984 0a50 11       		.uleb128 0x11
 1985 0a51 231E0000 		.4byte	.LASF281
 1986 0a55 86       		.byte	0x86
 1987 0a56 11       		.uleb128 0x11
 1988 0a57 DE3C0000 		.4byte	.LASF282
 1989 0a5b 87       		.byte	0x87
 1990 0a5c 11       		.uleb128 0x11
 1991 0a5d 7C570000 		.4byte	.LASF283
 1992 0a61 88       		.byte	0x88
 1993 0a62 11       		.uleb128 0x11
 1994 0a63 EA170000 		.4byte	.LASF284
 1995 0a67 89       		.byte	0x89
 1996 0a68 11       		.uleb128 0x11
 1997 0a69 BF180000 		.4byte	.LASF285
 1998 0a6d 8A       		.byte	0x8a
 1999 0a6e 11       		.uleb128 0x11
 2000 0a6f 1F2D0000 		.4byte	.LASF286
 2001 0a73 8B       		.byte	0x8b
 2002 0a74 11       		.uleb128 0x11
 2003 0a75 F3180000 		.4byte	.LASF287
 2004 0a79 8C       		.byte	0x8c
 2005 0a7a 11       		.uleb128 0x11
 2006 0a7b 214E0000 		.4byte	.LASF288
 2007 0a7f 8D       		.byte	0x8d
 2008 0a80 11       		.uleb128 0x11
 2009 0a81 A20A0000 		.4byte	.LASF289
 2010 0a85 8E       		.byte	0x8e
 2011 0a86 11       		.uleb128 0x11
 2012 0a87 72100000 		.4byte	.LASF290
 2013 0a8b 8F       		.byte	0x8f
 2014 0a8c 11       		.uleb128 0x11
 2015 0a8d 971B0000 		.4byte	.LASF291
 2016 0a91 90       		.byte	0x90
 2017 0a92 11       		.uleb128 0x11
 2018 0a93 BE430000 		.4byte	.LASF292
 2019 0a97 91       		.byte	0x91
 2020 0a98 11       		.uleb128 0x11
 2021 0a99 C2060000 		.4byte	.LASF293
 2022 0a9d 92       		.byte	0x92
 2023 0a9e 11       		.uleb128 0x11
 2024 0a9f 9E380000 		.4byte	.LASF294
 2025 0aa3 F0       		.byte	0xf0
 2026 0aa4 00       		.byte	0
 2027 0aa5 12       		.uleb128 0x12
 2028 0aa6 BC0A0000 		.4byte	.LASF295
 2029 0aaa 06       		.byte	0x6
 2030 0aab 9201     		.2byte	0x192
ARM GAS  C:\Users\Nazar\AppData\Local\Temp\ccWQ1kO8.s 			page 67


 2031 0aad 20070000 		.4byte	0x720
 2032 0ab1 0A       		.uleb128 0xa
 2033 0ab2 E6000000 		.4byte	0xe6
 2034 0ab6 C10A0000 		.4byte	0xac1
 2035 0aba 0B       		.uleb128 0xb
 2036 0abb 9E000000 		.4byte	0x9e
 2037 0abf 2E       		.byte	0x2e
 2038 0ac0 00       		.byte	0
 2039 0ac1 13       		.uleb128 0x13
 2040 0ac2 0001     		.2byte	0x100
 2041 0ac4 07       		.byte	0x7
 2042 0ac5 25       		.byte	0x25
 2043 0ac6 7F0B0000 		.4byte	0xb7f
 2044 0aca 0E       		.uleb128 0xe
 2045 0acb 8D4C0000 		.4byte	.LASF296
 2046 0acf 07       		.byte	0x7
 2047 0ad0 26       		.byte	0x26
 2048 0ad1 E1000000 		.4byte	0xe1
 2049 0ad5 00       		.byte	0
 2050 0ad6 0E       		.uleb128 0xe
 2051 0ad7 77400000 		.4byte	.LASF297
 2052 0adb 07       		.byte	0x7
 2053 0adc 27       		.byte	0x27
 2054 0add 840B0000 		.4byte	0xb84
 2055 0ae1 04       		.byte	0x4
 2056 0ae2 0E       		.uleb128 0xe
 2057 0ae3 964F0000 		.4byte	.LASF298
 2058 0ae7 07       		.byte	0x7
 2059 0ae8 28       		.byte	0x28
 2060 0ae9 E1000000 		.4byte	0xe1
 2061 0aed 10       		.byte	0x10
 2062 0aee 0E       		.uleb128 0xe
 2063 0aef 9E280000 		.4byte	.LASF299
 2064 0af3 07       		.byte	0x7
 2065 0af4 29       		.byte	0x29
 2066 0af5 E1000000 		.4byte	0xe1
 2067 0af9 14       		.byte	0x14
 2068 0afa 0E       		.uleb128 0xe
 2069 0afb 6A430000 		.4byte	.LASF300
 2070 0aff 07       		.byte	0x7
 2071 0b00 2A       		.byte	0x2a
 2072 0b01 E1000000 		.4byte	0xe1
 2073 0b05 18       		.byte	0x18
 2074 0b06 0E       		.uleb128 0xe
 2075 0b07 88280000 		.4byte	.LASF301
 2076 0b0b 07       		.byte	0x7
 2077 0b0c 2B       		.byte	0x2b
 2078 0b0d E6000000 		.4byte	0xe6
 2079 0b11 1C       		.byte	0x1c
 2080 0b12 0E       		.uleb128 0xe
 2081 0b13 E1110000 		.4byte	.LASF302
 2082 0b17 07       		.byte	0x7
 2083 0b18 2C       		.byte	0x2c
 2084 0b19 E1000000 		.4byte	0xe1
 2085 0b1d 20       		.byte	0x20
 2086 0b1e 0E       		.uleb128 0xe
 2087 0b1f 702E0000 		.4byte	.LASF303
ARM GAS  C:\Users\Nazar\AppData\Local\Temp\ccWQ1kO8.s 			page 68


 2088 0b23 07       		.byte	0x7
 2089 0b24 2D       		.byte	0x2d
 2090 0b25 E1000000 		.4byte	0xe1
 2091 0b29 24       		.byte	0x24
 2092 0b2a 0E       		.uleb128 0xe
 2093 0b2b CF4D0000 		.4byte	.LASF304
 2094 0b2f 07       		.byte	0x7
 2095 0b30 2E       		.byte	0x2e
 2096 0b31 E1000000 		.4byte	0xe1
 2097 0b35 28       		.byte	0x28
 2098 0b36 0E       		.uleb128 0xe
 2099 0b37 FE0B0000 		.4byte	.LASF305
 2100 0b3b 07       		.byte	0x7
 2101 0b3c 2F       		.byte	0x2f
 2102 0b3d E1000000 		.4byte	0xe1
 2103 0b41 2C       		.byte	0x2c
 2104 0b42 0E       		.uleb128 0xe
 2105 0b43 E4220000 		.4byte	.LASF306
 2106 0b47 07       		.byte	0x7
 2107 0b48 30       		.byte	0x30
 2108 0b49 E1000000 		.4byte	0xe1
 2109 0b4d 30       		.byte	0x30
 2110 0b4e 0E       		.uleb128 0xe
 2111 0b4f 532A0000 		.4byte	.LASF307
 2112 0b53 07       		.byte	0x7
 2113 0b54 31       		.byte	0x31
 2114 0b55 8E0B0000 		.4byte	0xb8e
 2115 0b59 34       		.byte	0x34
 2116 0b5a 0E       		.uleb128 0xe
 2117 0b5b F4520000 		.4byte	.LASF308
 2118 0b5f 07       		.byte	0x7
 2119 0b60 32       		.byte	0x32
 2120 0b61 E1000000 		.4byte	0xe1
 2121 0b65 40       		.byte	0x40
 2122 0b66 0E       		.uleb128 0xe
 2123 0b67 111C0000 		.4byte	.LASF309
 2124 0b6b 07       		.byte	0x7
 2125 0b6c 33       		.byte	0x33
 2126 0b6d E1000000 		.4byte	0xe1
 2127 0b71 44       		.byte	0x44
 2128 0b72 0E       		.uleb128 0xe
 2129 0b73 5D2A0000 		.4byte	.LASF310
 2130 0b77 07       		.byte	0x7
 2131 0b78 34       		.byte	0x34
 2132 0b79 A80B0000 		.4byte	0xba8
 2133 0b7d 48       		.byte	0x48
 2134 0b7e 00       		.byte	0
 2135 0b7f 08       		.uleb128 0x8
 2136 0b80 EB000000 		.4byte	0xeb
 2137 0b84 09       		.uleb128 0x9
 2138 0b85 7F0B0000 		.4byte	0xb7f
 2139 0b89 08       		.uleb128 0x8
 2140 0b8a EB000000 		.4byte	0xeb
 2141 0b8e 09       		.uleb128 0x9
 2142 0b8f 890B0000 		.4byte	0xb89
 2143 0b93 0A       		.uleb128 0xa
 2144 0b94 E6000000 		.4byte	0xe6
ARM GAS  C:\Users\Nazar\AppData\Local\Temp\ccWQ1kO8.s 			page 69


 2145 0b98 A30B0000 		.4byte	0xba3
 2146 0b9c 0B       		.uleb128 0xb
 2147 0b9d 9E000000 		.4byte	0x9e
 2148 0ba1 2D       		.byte	0x2d
 2149 0ba2 00       		.byte	0
 2150 0ba3 08       		.uleb128 0x8
 2151 0ba4 930B0000 		.4byte	0xb93
 2152 0ba8 09       		.uleb128 0x9
 2153 0ba9 A30B0000 		.4byte	0xba3
 2154 0bad 04       		.uleb128 0x4
 2155 0bae E03E0000 		.4byte	.LASF311
 2156 0bb2 07       		.byte	0x7
 2157 0bb3 35       		.byte	0x35
 2158 0bb4 C10A0000 		.4byte	0xac1
 2159 0bb8 13       		.uleb128 0x13
 2160 0bb9 0002     		.2byte	0x200
 2161 0bbb 07       		.byte	0x7
 2162 0bbc 3A       		.byte	0x3a
 2163 0bbd A70C0000 		.4byte	0xca7
 2164 0bc1 0E       		.uleb128 0xe
 2165 0bc2 8D4C0000 		.4byte	.LASF296
 2166 0bc6 07       		.byte	0x7
 2167 0bc7 3B       		.byte	0x3b
 2168 0bc8 E1000000 		.4byte	0xe1
 2169 0bcc 00       		.byte	0
 2170 0bcd 0E       		.uleb128 0xe
 2171 0bce FF340000 		.4byte	.LASF312
 2172 0bd2 07       		.byte	0x7
 2173 0bd3 3C       		.byte	0x3c
 2174 0bd4 E6000000 		.4byte	0xe6
 2175 0bd8 04       		.byte	0x4
 2176 0bd9 0E       		.uleb128 0xe
 2177 0bda 77400000 		.4byte	.LASF297
 2178 0bde 07       		.byte	0x7
 2179 0bdf 3D       		.byte	0x3d
 2180 0be0 AC0C0000 		.4byte	0xcac
 2181 0be4 08       		.byte	0x8
 2182 0be5 0E       		.uleb128 0xe
 2183 0be6 05030000 		.4byte	.LASF313
 2184 0bea 07       		.byte	0x7
 2185 0beb 3E       		.byte	0x3e
 2186 0bec E1000000 		.4byte	0xe1
 2187 0bf0 10       		.byte	0x10
 2188 0bf1 0E       		.uleb128 0xe
 2189 0bf2 2E540000 		.4byte	.LASF314
 2190 0bf6 07       		.byte	0x7
 2191 0bf7 3F       		.byte	0x3f
 2192 0bf8 E1000000 		.4byte	0xe1
 2193 0bfc 14       		.byte	0x14
 2194 0bfd 0E       		.uleb128 0xe
 2195 0bfe AB440000 		.4byte	.LASF315
 2196 0c02 07       		.byte	0x7
 2197 0c03 40       		.byte	0x40
 2198 0c04 E6000000 		.4byte	0xe6
 2199 0c08 18       		.byte	0x18
 2200 0c09 0E       		.uleb128 0xe
 2201 0c0a 0F370000 		.4byte	.LASF316
ARM GAS  C:\Users\Nazar\AppData\Local\Temp\ccWQ1kO8.s 			page 70


 2202 0c0e 07       		.byte	0x7
 2203 0c0f 41       		.byte	0x41
 2204 0c10 E1000000 		.4byte	0xe1
 2205 0c14 1C       		.byte	0x1c
 2206 0c15 0E       		.uleb128 0xe
 2207 0c16 4F3C0000 		.4byte	.LASF317
 2208 0c1a 07       		.byte	0x7
 2209 0c1b 42       		.byte	0x42
 2210 0c1c E1000000 		.4byte	0xe1
 2211 0c20 20       		.byte	0x20
 2212 0c21 0E       		.uleb128 0xe
 2213 0c22 80400000 		.4byte	.LASF318
 2214 0c26 07       		.byte	0x7
 2215 0c27 43       		.byte	0x43
 2216 0c28 E1000000 		.4byte	0xe1
 2217 0c2c 24       		.byte	0x24
 2218 0c2d 0E       		.uleb128 0xe
 2219 0c2e 6F2C0000 		.4byte	.LASF319
 2220 0c32 07       		.byte	0x7
 2221 0c33 44       		.byte	0x44
 2222 0c34 E6000000 		.4byte	0xe6
 2223 0c38 28       		.byte	0x28
 2224 0c39 0E       		.uleb128 0xe
 2225 0c3a 35580000 		.4byte	.LASF320
 2226 0c3e 07       		.byte	0x7
 2227 0c3f 45       		.byte	0x45
 2228 0c40 E6000000 		.4byte	0xe6
 2229 0c44 2C       		.byte	0x2c
 2230 0c45 0E       		.uleb128 0xe
 2231 0c46 B0230000 		.4byte	.LASF321
 2232 0c4a 07       		.byte	0x7
 2233 0c4b 46       		.byte	0x46
 2234 0c4c E6000000 		.4byte	0xe6
 2235 0c50 30       		.byte	0x30
 2236 0c51 0E       		.uleb128 0xe
 2237 0c52 532A0000 		.4byte	.LASF307
 2238 0c56 07       		.byte	0x7
 2239 0c57 47       		.byte	0x47
 2240 0c58 B60C0000 		.4byte	0xcb6
 2241 0c5c 34       		.byte	0x34
 2242 0c5d 0E       		.uleb128 0xe
 2243 0c5e 964F0000 		.4byte	.LASF298
 2244 0c62 07       		.byte	0x7
 2245 0c63 48       		.byte	0x48
 2246 0c64 E1000000 		.4byte	0xe1
 2247 0c68 40       		.byte	0x40
 2248 0c69 0E       		.uleb128 0xe
 2249 0c6a 9E280000 		.4byte	.LASF299
 2250 0c6e 07       		.byte	0x7
 2251 0c6f 49       		.byte	0x49
 2252 0c70 E1000000 		.4byte	0xe1
 2253 0c74 44       		.byte	0x44
 2254 0c75 0E       		.uleb128 0xe
 2255 0c76 6A430000 		.4byte	.LASF300
 2256 0c7a 07       		.byte	0x7
 2257 0c7b 4A       		.byte	0x4a
 2258 0c7c E1000000 		.4byte	0xe1
ARM GAS  C:\Users\Nazar\AppData\Local\Temp\ccWQ1kO8.s 			page 71


 2259 0c80 48       		.byte	0x48
 2260 0c81 0E       		.uleb128 0xe
 2261 0c82 88280000 		.4byte	.LASF301
 2262 0c86 07       		.byte	0x7
 2263 0c87 4B       		.byte	0x4b
 2264 0c88 E6000000 		.4byte	0xe6
 2265 0c8c 4C       		.byte	0x4c
 2266 0c8d 0E       		.uleb128 0xe
 2267 0c8e 5D2A0000 		.4byte	.LASF310
 2268 0c92 07       		.byte	0x7
 2269 0c93 4C       		.byte	0x4c
 2270 0c94 C00C0000 		.4byte	0xcc0
 2271 0c98 50       		.byte	0x50
 2272 0c99 14       		.uleb128 0x14
 2273 0c9a B60A0000 		.4byte	.LASF322
 2274 0c9e 07       		.byte	0x7
 2275 0c9f 4D       		.byte	0x4d
 2276 0ca0 AD0B0000 		.4byte	0xbad
 2277 0ca4 0001     		.2byte	0x100
 2278 0ca6 00       		.byte	0
 2279 0ca7 08       		.uleb128 0x8
 2280 0ca8 7B010000 		.4byte	0x17b
 2281 0cac 09       		.uleb128 0x9
 2282 0cad A70C0000 		.4byte	0xca7
 2283 0cb1 08       		.uleb128 0x8
 2284 0cb2 EB000000 		.4byte	0xeb
 2285 0cb6 09       		.uleb128 0x9
 2286 0cb7 B10C0000 		.4byte	0xcb1
 2287 0cbb 08       		.uleb128 0x8
 2288 0cbc 3B010000 		.4byte	0x13b
 2289 0cc0 09       		.uleb128 0x9
 2290 0cc1 BB0C0000 		.4byte	0xcbb
 2291 0cc5 04       		.uleb128 0x4
 2292 0cc6 D2450000 		.4byte	.LASF323
 2293 0cca 07       		.byte	0x7
 2294 0ccb 4E       		.byte	0x4e
 2295 0ccc B80B0000 		.4byte	0xbb8
 2296 0cd0 15       		.uleb128 0x15
 2297 0cd1 00E00100 		.4byte	0x1e000
 2298 0cd5 07       		.byte	0x7
 2299 0cd6 53       		.byte	0x53
 2300 0cd7 941A0000 		.4byte	0x1a94
 2301 0cdb 0E       		.uleb128 0xe
 2302 0cdc 40500000 		.4byte	.LASF324
 2303 0ce0 07       		.byte	0x7
 2304 0ce1 54       		.byte	0x54
 2305 0ce2 E1000000 		.4byte	0xe1
 2306 0ce6 00       		.byte	0
 2307 0ce7 0E       		.uleb128 0xe
 2308 0ce8 77400000 		.4byte	.LASF297
 2309 0cec 07       		.byte	0x7
 2310 0ced 55       		.byte	0x55
 2311 0cee E6000000 		.4byte	0xe6
 2312 0cf2 04       		.byte	0x4
 2313 0cf3 0E       		.uleb128 0xe
 2314 0cf4 D7160000 		.4byte	.LASF325
 2315 0cf8 07       		.byte	0x7
ARM GAS  C:\Users\Nazar\AppData\Local\Temp\ccWQ1kO8.s 			page 72


 2316 0cf9 56       		.byte	0x56
 2317 0cfa E1000000 		.4byte	0xe1
 2318 0cfe 08       		.byte	0x8
 2319 0cff 0E       		.uleb128 0xe
 2320 0d00 532A0000 		.4byte	.LASF307
 2321 0d04 07       		.byte	0x7
 2322 0d05 57       		.byte	0x57
 2323 0d06 E6000000 		.4byte	0xe6
 2324 0d0a 0C       		.byte	0xc
 2325 0d0b 0E       		.uleb128 0xe
 2326 0d0c 443D0000 		.4byte	.LASF326
 2327 0d10 07       		.byte	0x7
 2328 0d11 58       		.byte	0x58
 2329 0d12 E1000000 		.4byte	0xe1
 2330 0d16 10       		.byte	0x10
 2331 0d17 0E       		.uleb128 0xe
 2332 0d18 5D2A0000 		.4byte	.LASF310
 2333 0d1c 07       		.byte	0x7
 2334 0d1d 59       		.byte	0x59
 2335 0d1e E6000000 		.4byte	0xe6
 2336 0d22 14       		.byte	0x14
 2337 0d23 0E       		.uleb128 0xe
 2338 0d24 54230000 		.4byte	.LASF327
 2339 0d28 07       		.byte	0x7
 2340 0d29 5A       		.byte	0x5a
 2341 0d2a E1000000 		.4byte	0xe1
 2342 0d2e 18       		.byte	0x18
 2343 0d2f 0E       		.uleb128 0xe
 2344 0d30 6E3F0000 		.4byte	.LASF328
 2345 0d34 07       		.byte	0x7
 2346 0d35 5B       		.byte	0x5b
 2347 0d36 E1000000 		.4byte	0xe1
 2348 0d3a 1C       		.byte	0x1c
 2349 0d3b 0E       		.uleb128 0xe
 2350 0d3c 6B1C0000 		.4byte	.LASF329
 2351 0d40 07       		.byte	0x7
 2352 0d41 5C       		.byte	0x5c
 2353 0d42 E1000000 		.4byte	0xe1
 2354 0d46 20       		.byte	0x20
 2355 0d47 0E       		.uleb128 0xe
 2356 0d48 9B4F0000 		.4byte	.LASF330
 2357 0d4c 07       		.byte	0x7
 2358 0d4d 5D       		.byte	0x5d
 2359 0d4e E6000000 		.4byte	0xe6
 2360 0d52 24       		.byte	0x24
 2361 0d53 0E       		.uleb128 0xe
 2362 0d54 0B130000 		.4byte	.LASF331
 2363 0d58 07       		.byte	0x7
 2364 0d59 5E       		.byte	0x5e
 2365 0d5a E1000000 		.4byte	0xe1
 2366 0d5e 28       		.byte	0x28
 2367 0d5f 0E       		.uleb128 0xe
 2368 0d60 BD300000 		.4byte	.LASF332
 2369 0d64 07       		.byte	0x7
 2370 0d65 5F       		.byte	0x5f
 2371 0d66 E1000000 		.4byte	0xe1
 2372 0d6a 2C       		.byte	0x2c
ARM GAS  C:\Users\Nazar\AppData\Local\Temp\ccWQ1kO8.s 			page 73


 2373 0d6b 0E       		.uleb128 0xe
 2374 0d6c D3500000 		.4byte	.LASF333
 2375 0d70 07       		.byte	0x7
 2376 0d71 60       		.byte	0x60
 2377 0d72 E1000000 		.4byte	0xe1
 2378 0d76 30       		.byte	0x30
 2379 0d77 0E       		.uleb128 0xe
 2380 0d78 672A0000 		.4byte	.LASF334
 2381 0d7c 07       		.byte	0x7
 2382 0d7d 61       		.byte	0x61
 2383 0d7e E6000000 		.4byte	0xe6
 2384 0d82 34       		.byte	0x34
 2385 0d83 0E       		.uleb128 0xe
 2386 0d84 02230000 		.4byte	.LASF335
 2387 0d88 07       		.byte	0x7
 2388 0d89 62       		.byte	0x62
 2389 0d8a E1000000 		.4byte	0xe1
 2390 0d8e 38       		.byte	0x38
 2391 0d8f 0E       		.uleb128 0xe
 2392 0d90 DA010000 		.4byte	.LASF336
 2393 0d94 07       		.byte	0x7
 2394 0d95 63       		.byte	0x63
 2395 0d96 E6000000 		.4byte	0xe6
 2396 0d9a 3C       		.byte	0x3c
 2397 0d9b 0E       		.uleb128 0xe
 2398 0d9c 704B0000 		.4byte	.LASF337
 2399 0da0 07       		.byte	0x7
 2400 0da1 64       		.byte	0x64
 2401 0da2 E1000000 		.4byte	0xe1
 2402 0da6 40       		.byte	0x40
 2403 0da7 0E       		.uleb128 0xe
 2404 0da8 3A2D0000 		.4byte	.LASF338
 2405 0dac 07       		.byte	0x7
 2406 0dad 65       		.byte	0x65
 2407 0dae E1000000 		.4byte	0xe1
 2408 0db2 44       		.byte	0x44
 2409 0db3 0E       		.uleb128 0xe
 2410 0db4 280C0000 		.4byte	.LASF339
 2411 0db8 07       		.byte	0x7
 2412 0db9 66       		.byte	0x66
 2413 0dba E1000000 		.4byte	0xe1
 2414 0dbe 48       		.byte	0x48
 2415 0dbf 0E       		.uleb128 0xe
 2416 0dc0 712A0000 		.4byte	.LASF340
 2417 0dc4 07       		.byte	0x7
 2418 0dc5 67       		.byte	0x67
 2419 0dc6 E6000000 		.4byte	0xe6
 2420 0dca 4C       		.byte	0x4c
 2421 0dcb 0E       		.uleb128 0xe
 2422 0dcc 26310000 		.4byte	.LASF341
 2423 0dd0 07       		.byte	0x7
 2424 0dd1 68       		.byte	0x68
 2425 0dd2 E1000000 		.4byte	0xe1
 2426 0dd6 50       		.byte	0x50
 2427 0dd7 0E       		.uleb128 0xe
 2428 0dd8 41560000 		.4byte	.LASF342
 2429 0ddc 07       		.byte	0x7
ARM GAS  C:\Users\Nazar\AppData\Local\Temp\ccWQ1kO8.s 			page 74


 2430 0ddd 69       		.byte	0x69
 2431 0dde E6000000 		.4byte	0xe6
 2432 0de2 54       		.byte	0x54
 2433 0de3 0E       		.uleb128 0xe
 2434 0de4 C2130000 		.4byte	.LASF343
 2435 0de8 07       		.byte	0x7
 2436 0de9 6A       		.byte	0x6a
 2437 0dea E1000000 		.4byte	0xe1
 2438 0dee 58       		.byte	0x58
 2439 0def 0E       		.uleb128 0xe
 2440 0df0 D5130000 		.4byte	.LASF344
 2441 0df4 07       		.byte	0x7
 2442 0df5 6B       		.byte	0x6b
 2443 0df6 E1000000 		.4byte	0xe1
 2444 0dfa 5C       		.byte	0x5c
 2445 0dfb 0E       		.uleb128 0xe
 2446 0dfc 9E130000 		.4byte	.LASF345
 2447 0e00 07       		.byte	0x7
 2448 0e01 6C       		.byte	0x6c
 2449 0e02 E1000000 		.4byte	0xe1
 2450 0e06 60       		.byte	0x60
 2451 0e07 0E       		.uleb128 0xe
 2452 0e08 7B2A0000 		.4byte	.LASF346
 2453 0e0c 07       		.byte	0x7
 2454 0e0d 6D       		.byte	0x6d
 2455 0e0e E6000000 		.4byte	0xe6
 2456 0e12 64       		.byte	0x64
 2457 0e13 0E       		.uleb128 0xe
 2458 0e14 C5520000 		.4byte	.LASF347
 2459 0e18 07       		.byte	0x7
 2460 0e19 6E       		.byte	0x6e
 2461 0e1a E1000000 		.4byte	0xe1
 2462 0e1e 68       		.byte	0x68
 2463 0e1f 0E       		.uleb128 0xe
 2464 0e20 D1520000 		.4byte	.LASF348
 2465 0e24 07       		.byte	0x7
 2466 0e25 6F       		.byte	0x6f
 2467 0e26 E1000000 		.4byte	0xe1
 2468 0e2a 6C       		.byte	0x6c
 2469 0e2b 0E       		.uleb128 0xe
 2470 0e2c AA520000 		.4byte	.LASF349
 2471 0e30 07       		.byte	0x7
 2472 0e31 70       		.byte	0x70
 2473 0e32 E1000000 		.4byte	0xe1
 2474 0e36 70       		.byte	0x70
 2475 0e37 0E       		.uleb128 0xe
 2476 0e38 852A0000 		.4byte	.LASF350
 2477 0e3c 07       		.byte	0x7
 2478 0e3d 71       		.byte	0x71
 2479 0e3e E6000000 		.4byte	0xe6
 2480 0e42 74       		.byte	0x74
 2481 0e43 0E       		.uleb128 0xe
 2482 0e44 CB410000 		.4byte	.LASF351
 2483 0e48 07       		.byte	0x7
 2484 0e49 72       		.byte	0x72
 2485 0e4a E1000000 		.4byte	0xe1
 2486 0e4e 78       		.byte	0x78
ARM GAS  C:\Users\Nazar\AppData\Local\Temp\ccWQ1kO8.s 			page 75


 2487 0e4f 0E       		.uleb128 0xe
 2488 0e50 72090000 		.4byte	.LASF352
 2489 0e54 07       		.byte	0x7
 2490 0e55 73       		.byte	0x73
 2491 0e56 E1000000 		.4byte	0xe1
 2492 0e5a 7C       		.byte	0x7c
 2493 0e5b 0E       		.uleb128 0xe
 2494 0e5c 941E0000 		.4byte	.LASF353
 2495 0e60 07       		.byte	0x7
 2496 0e61 74       		.byte	0x74
 2497 0e62 E1000000 		.4byte	0xe1
 2498 0e66 80       		.byte	0x80
 2499 0e67 0E       		.uleb128 0xe
 2500 0e68 82520000 		.4byte	.LASF354
 2501 0e6c 07       		.byte	0x7
 2502 0e6d 75       		.byte	0x75
 2503 0e6e E1000000 		.4byte	0xe1
 2504 0e72 84       		.byte	0x84
 2505 0e73 0E       		.uleb128 0xe
 2506 0e74 C6160000 		.4byte	.LASF355
 2507 0e78 07       		.byte	0x7
 2508 0e79 76       		.byte	0x76
 2509 0e7a E1000000 		.4byte	0xe1
 2510 0e7e 88       		.byte	0x88
 2511 0e7f 0E       		.uleb128 0xe
 2512 0e80 7F170000 		.4byte	.LASF356
 2513 0e84 07       		.byte	0x7
 2514 0e85 77       		.byte	0x77
 2515 0e86 E1000000 		.4byte	0xe1
 2516 0e8a 8C       		.byte	0x8c
 2517 0e8b 0E       		.uleb128 0xe
 2518 0e8c 46130000 		.4byte	.LASF357
 2519 0e90 07       		.byte	0x7
 2520 0e91 78       		.byte	0x78
 2521 0e92 E1000000 		.4byte	0xe1
 2522 0e96 90       		.byte	0x90
 2523 0e97 0E       		.uleb128 0xe
 2524 0e98 8F2A0000 		.4byte	.LASF358
 2525 0e9c 07       		.byte	0x7
 2526 0e9d 79       		.byte	0x79
 2527 0e9e E6000000 		.4byte	0xe6
 2528 0ea2 94       		.byte	0x94
 2529 0ea3 0E       		.uleb128 0xe
 2530 0ea4 384E0000 		.4byte	.LASF359
 2531 0ea8 07       		.byte	0x7
 2532 0ea9 7A       		.byte	0x7a
 2533 0eaa E1000000 		.4byte	0xe1
 2534 0eae 98       		.byte	0x98
 2535 0eaf 0E       		.uleb128 0xe
 2536 0eb0 90170000 		.4byte	.LASF360
 2537 0eb4 07       		.byte	0x7
 2538 0eb5 7B       		.byte	0x7b
 2539 0eb6 E1000000 		.4byte	0xe1
 2540 0eba 9C       		.byte	0x9c
 2541 0ebb 0E       		.uleb128 0xe
 2542 0ebc 57130000 		.4byte	.LASF361
 2543 0ec0 07       		.byte	0x7
ARM GAS  C:\Users\Nazar\AppData\Local\Temp\ccWQ1kO8.s 			page 76


 2544 0ec1 7C       		.byte	0x7c
 2545 0ec2 E1000000 		.4byte	0xe1
 2546 0ec6 A0       		.byte	0xa0
 2547 0ec7 0E       		.uleb128 0xe
 2548 0ec8 992A0000 		.4byte	.LASF362
 2549 0ecc 07       		.byte	0x7
 2550 0ecd 7D       		.byte	0x7d
 2551 0ece E6000000 		.4byte	0xe6
 2552 0ed2 A4       		.byte	0xa4
 2553 0ed3 0E       		.uleb128 0xe
 2554 0ed4 5F050000 		.4byte	.LASF363
 2555 0ed8 07       		.byte	0x7
 2556 0ed9 7E       		.byte	0x7e
 2557 0eda E1000000 		.4byte	0xe1
 2558 0ede A8       		.byte	0xa8
 2559 0edf 0E       		.uleb128 0xe
 2560 0ee0 F1190000 		.4byte	.LASF364
 2561 0ee4 07       		.byte	0x7
 2562 0ee5 7F       		.byte	0x7f
 2563 0ee6 E6000000 		.4byte	0xe6
 2564 0eea AC       		.byte	0xac
 2565 0eeb 0E       		.uleb128 0xe
 2566 0eec BD1E0000 		.4byte	.LASF365
 2567 0ef0 07       		.byte	0x7
 2568 0ef1 80       		.byte	0x80
 2569 0ef2 E1000000 		.4byte	0xe1
 2570 0ef6 B0       		.byte	0xb0
 2571 0ef7 0E       		.uleb128 0xe
 2572 0ef8 A32A0000 		.4byte	.LASF366
 2573 0efc 07       		.byte	0x7
 2574 0efd 81       		.byte	0x81
 2575 0efe E6000000 		.4byte	0xe6
 2576 0f02 B4       		.byte	0xb4
 2577 0f03 0E       		.uleb128 0xe
 2578 0f04 EE040000 		.4byte	.LASF367
 2579 0f08 07       		.byte	0x7
 2580 0f09 82       		.byte	0x82
 2581 0f0a E1000000 		.4byte	0xe1
 2582 0f0e B8       		.byte	0xb8
 2583 0f0f 0E       		.uleb128 0xe
 2584 0f10 6C010000 		.4byte	.LASF368
 2585 0f14 07       		.byte	0x7
 2586 0f15 83       		.byte	0x83
 2587 0f16 E6000000 		.4byte	0xe6
 2588 0f1a BC       		.byte	0xbc
 2589 0f1b 0E       		.uleb128 0xe
 2590 0f1c A15B0000 		.4byte	.LASF369
 2591 0f20 07       		.byte	0x7
 2592 0f21 84       		.byte	0x84
 2593 0f22 E1000000 		.4byte	0xe1
 2594 0f26 C0       		.byte	0xc0
 2595 0f27 0E       		.uleb128 0xe
 2596 0f28 C61C0000 		.4byte	.LASF370
 2597 0f2c 07       		.byte	0x7
 2598 0f2d 85       		.byte	0x85
 2599 0f2e E1000000 		.4byte	0xe1
 2600 0f32 C4       		.byte	0xc4
ARM GAS  C:\Users\Nazar\AppData\Local\Temp\ccWQ1kO8.s 			page 77


 2601 0f33 0E       		.uleb128 0xe
 2602 0f34 4A240000 		.4byte	.LASF371
 2603 0f38 07       		.byte	0x7
 2604 0f39 86       		.byte	0x86
 2605 0f3a E6000000 		.4byte	0xe6
 2606 0f3e C8       		.byte	0xc8
 2607 0f3f 0E       		.uleb128 0xe
 2608 0f40 922C0000 		.4byte	.LASF372
 2609 0f44 07       		.byte	0x7
 2610 0f45 87       		.byte	0x87
 2611 0f46 E1000000 		.4byte	0xe1
 2612 0f4a CC       		.byte	0xcc
 2613 0f4b 0E       		.uleb128 0xe
 2614 0f4c 77010000 		.4byte	.LASF373
 2615 0f50 07       		.byte	0x7
 2616 0f51 88       		.byte	0x88
 2617 0f52 991A0000 		.4byte	0x1a99
 2618 0f56 D0       		.byte	0xd0
 2619 0f57 0E       		.uleb128 0xe
 2620 0f58 4C1A0000 		.4byte	.LASF374
 2621 0f5c 07       		.byte	0x7
 2622 0f5d 89       		.byte	0x89
 2623 0f5e E1000000 		.4byte	0xe1
 2624 0f62 D8       		.byte	0xd8
 2625 0f63 0E       		.uleb128 0xe
 2626 0f64 82010000 		.4byte	.LASF375
 2627 0f68 07       		.byte	0x7
 2628 0f69 8A       		.byte	0x8a
 2629 0f6a E6000000 		.4byte	0xe6
 2630 0f6e DC       		.byte	0xdc
 2631 0f6f 0E       		.uleb128 0xe
 2632 0f70 75460000 		.4byte	.LASF376
 2633 0f74 07       		.byte	0x7
 2634 0f75 8B       		.byte	0x8b
 2635 0f76 E1000000 		.4byte	0xe1
 2636 0f7a E0       		.byte	0xe0
 2637 0f7b 0E       		.uleb128 0xe
 2638 0f7c 8D010000 		.4byte	.LASF377
 2639 0f80 07       		.byte	0x7
 2640 0f81 8C       		.byte	0x8c
 2641 0f82 E6000000 		.4byte	0xe6
 2642 0f86 E4       		.byte	0xe4
 2643 0f87 0E       		.uleb128 0xe
 2644 0f88 12440000 		.4byte	.LASF378
 2645 0f8c 07       		.byte	0x7
 2646 0f8d 8D       		.byte	0x8d
 2647 0f8e E1000000 		.4byte	0xe1
 2648 0f92 E8       		.byte	0xe8
 2649 0f93 0E       		.uleb128 0xe
 2650 0f94 98010000 		.4byte	.LASF379
 2651 0f98 07       		.byte	0x7
 2652 0f99 8F       		.byte	0x8f
 2653 0f9a A31A0000 		.4byte	0x1aa3
 2654 0f9e EC       		.byte	0xec
 2655 0f9f 0E       		.uleb128 0xe
 2656 0fa0 79530000 		.4byte	.LASF380
 2657 0fa4 07       		.byte	0x7
ARM GAS  C:\Users\Nazar\AppData\Local\Temp\ccWQ1kO8.s 			page 78


 2658 0fa5 90       		.byte	0x90
 2659 0fa6 E6000000 		.4byte	0xe6
 2660 0faa F8       		.byte	0xf8
 2661 0fab 0E       		.uleb128 0xe
 2662 0fac A3010000 		.4byte	.LASF381
 2663 0fb0 07       		.byte	0x7
 2664 0fb1 92       		.byte	0x92
 2665 0fb2 E6000000 		.4byte	0xe6
 2666 0fb6 FC       		.byte	0xfc
 2667 0fb7 14       		.uleb128 0x14
 2668 0fb8 46230000 		.4byte	.LASF382
 2669 0fbc 07       		.byte	0x7
 2670 0fbd 93       		.byte	0x93
 2671 0fbe E1000000 		.4byte	0xe1
 2672 0fc2 0001     		.2byte	0x100
 2673 0fc4 14       		.uleb128 0x14
 2674 0fc5 481B0000 		.4byte	.LASF383
 2675 0fc9 07       		.byte	0x7
 2676 0fca 94       		.byte	0x94
 2677 0fcb E1000000 		.4byte	0xe1
 2678 0fcf 0401     		.2byte	0x104
 2679 0fd1 14       		.uleb128 0x14
 2680 0fd2 171F0000 		.4byte	.LASF384
 2681 0fd6 07       		.byte	0x7
 2682 0fd7 95       		.byte	0x95
 2683 0fd8 E1000000 		.4byte	0xe1
 2684 0fdc 0801     		.2byte	0x108
 2685 0fde 14       		.uleb128 0x14
 2686 0fdf A25A0000 		.4byte	.LASF385
 2687 0fe3 07       		.byte	0x7
 2688 0fe4 96       		.byte	0x96
 2689 0fe5 E1000000 		.4byte	0xe1
 2690 0fe9 0C01     		.2byte	0x10c
 2691 0feb 14       		.uleb128 0x14
 2692 0fec 63210000 		.4byte	.LASF386
 2693 0ff0 07       		.byte	0x7
 2694 0ff1 97       		.byte	0x97
 2695 0ff2 E1000000 		.4byte	0xe1
 2696 0ff6 1001     		.2byte	0x110
 2697 0ff8 14       		.uleb128 0x14
 2698 0ff9 924C0000 		.4byte	.LASF387
 2699 0ffd 07       		.byte	0x7
 2700 0ffe 98       		.byte	0x98
 2701 0fff E1000000 		.4byte	0xe1
 2702 1003 1401     		.2byte	0x114
 2703 1005 14       		.uleb128 0x14
 2704 1006 79070000 		.4byte	.LASF388
 2705 100a 07       		.byte	0x7
 2706 100b 99       		.byte	0x99
 2707 100c E1000000 		.4byte	0xe1
 2708 1010 1801     		.2byte	0x118
 2709 1012 14       		.uleb128 0x14
 2710 1013 0E1E0000 		.4byte	.LASF389
 2711 1017 07       		.byte	0x7
 2712 1018 9A       		.byte	0x9a
 2713 1019 E1000000 		.4byte	0xe1
 2714 101d 1C01     		.2byte	0x11c
ARM GAS  C:\Users\Nazar\AppData\Local\Temp\ccWQ1kO8.s 			page 79


 2715 101f 14       		.uleb128 0x14
 2716 1020 E31B0000 		.4byte	.LASF390
 2717 1024 07       		.byte	0x7
 2718 1025 9B       		.byte	0x9b
 2719 1026 E6000000 		.4byte	0xe6
 2720 102a 2001     		.2byte	0x120
 2721 102c 14       		.uleb128 0x14
 2722 102d BA170000 		.4byte	.LASF391
 2723 1031 07       		.byte	0x7
 2724 1032 9C       		.byte	0x9c
 2725 1033 E6000000 		.4byte	0xe6
 2726 1037 2401     		.2byte	0x124
 2727 1039 14       		.uleb128 0x14
 2728 103a 00000000 		.4byte	.LASF392
 2729 103e 07       		.byte	0x7
 2730 103f 9D       		.byte	0x9d
 2731 1040 E1000000 		.4byte	0xe1
 2732 1044 2801     		.2byte	0x128
 2733 1046 14       		.uleb128 0x14
 2734 1047 D9400000 		.4byte	.LASF393
 2735 104b 07       		.byte	0x7
 2736 104c 9E       		.byte	0x9e
 2737 104d E1000000 		.4byte	0xe1
 2738 1051 2C01     		.2byte	0x12c
 2739 1053 14       		.uleb128 0x14
 2740 1054 1E1C0000 		.4byte	.LASF394
 2741 1058 07       		.byte	0x7
 2742 1059 9F       		.byte	0x9f
 2743 105a E1000000 		.4byte	0xe1
 2744 105e 3001     		.2byte	0x130
 2745 1060 14       		.uleb128 0x14
 2746 1061 0E470000 		.4byte	.LASF395
 2747 1065 07       		.byte	0x7
 2748 1066 A0       		.byte	0xa0
 2749 1067 E1000000 		.4byte	0xe1
 2750 106b 3401     		.2byte	0x134
 2751 106d 14       		.uleb128 0x14
 2752 106e 841B0000 		.4byte	.LASF396
 2753 1072 07       		.byte	0x7
 2754 1073 A1       		.byte	0xa1
 2755 1074 E1000000 		.4byte	0xe1
 2756 1078 3801     		.2byte	0x138
 2757 107a 14       		.uleb128 0x14
 2758 107b AE010000 		.4byte	.LASF397
 2759 107f 07       		.byte	0x7
 2760 1080 A2       		.byte	0xa2
 2761 1081 E6000000 		.4byte	0xe6
 2762 1085 3C01     		.2byte	0x13c
 2763 1087 14       		.uleb128 0x14
 2764 1088 DB560000 		.4byte	.LASF398
 2765 108c 07       		.byte	0x7
 2766 108d A3       		.byte	0xa3
 2767 108e B81A0000 		.4byte	0x1ab8
 2768 1092 4001     		.2byte	0x140
 2769 1094 14       		.uleb128 0x14
 2770 1095 B9010000 		.4byte	.LASF399
 2771 1099 07       		.byte	0x7
ARM GAS  C:\Users\Nazar\AppData\Local\Temp\ccWQ1kO8.s 			page 80


 2772 109a A4       		.byte	0xa4
 2773 109b C21A0000 		.4byte	0x1ac2
 2774 109f 5401     		.2byte	0x154
 2775 10a1 14       		.uleb128 0x14
 2776 10a2 DB530000 		.4byte	.LASF400
 2777 10a6 07       		.byte	0x7
 2778 10a7 A5       		.byte	0xa5
 2779 10a8 E1000000 		.4byte	0xe1
 2780 10ac 6001     		.2byte	0x160
 2781 10ae 14       		.uleb128 0x14
 2782 10af EE030000 		.4byte	.LASF401
 2783 10b3 07       		.byte	0x7
 2784 10b4 A6       		.byte	0xa6
 2785 10b5 E1000000 		.4byte	0xe1
 2786 10b9 6401     		.2byte	0x164
 2787 10bb 14       		.uleb128 0x14
 2788 10bc C4010000 		.4byte	.LASF402
 2789 10c0 07       		.byte	0x7
 2790 10c1 A7       		.byte	0xa7
 2791 10c2 CC1A0000 		.4byte	0x1acc
 2792 10c6 6801     		.2byte	0x168
 2793 10c8 14       		.uleb128 0x14
 2794 10c9 E1460000 		.4byte	.LASF403
 2795 10cd 07       		.byte	0x7
 2796 10ce A8       		.byte	0xa8
 2797 10cf E1000000 		.4byte	0xe1
 2798 10d3 7001     		.2byte	0x170
 2799 10d5 14       		.uleb128 0x14
 2800 10d6 7E250000 		.4byte	.LASF404
 2801 10da 07       		.byte	0x7
 2802 10db A9       		.byte	0xa9
 2803 10dc E6000000 		.4byte	0xe6
 2804 10e0 7401     		.2byte	0x174
 2805 10e2 14       		.uleb128 0x14
 2806 10e3 7E2C0000 		.4byte	.LASF405
 2807 10e7 07       		.byte	0x7
 2808 10e8 AA       		.byte	0xaa
 2809 10e9 E1000000 		.4byte	0xe1
 2810 10ed 7801     		.2byte	0x178
 2811 10ef 14       		.uleb128 0x14
 2812 10f0 CF010000 		.4byte	.LASF406
 2813 10f4 07       		.byte	0x7
 2814 10f5 AB       		.byte	0xab
 2815 10f6 D61A0000 		.4byte	0x1ad6
 2816 10fa 7C01     		.2byte	0x17c
 2817 10fc 14       		.uleb128 0x14
 2818 10fd C2580000 		.4byte	.LASF407
 2819 1101 07       		.byte	0x7
 2820 1102 AC       		.byte	0xac
 2821 1103 E6000000 		.4byte	0xe6
 2822 1107 8801     		.2byte	0x188
 2823 1109 14       		.uleb128 0x14
 2824 110a 6A020000 		.4byte	.LASF408
 2825 110e 07       		.byte	0x7
 2826 110f AD       		.byte	0xad
 2827 1110 E6000000 		.4byte	0xe6
 2828 1114 8C01     		.2byte	0x18c
ARM GAS  C:\Users\Nazar\AppData\Local\Temp\ccWQ1kO8.s 			page 81


 2829 1116 14       		.uleb128 0x14
 2830 1117 4E590000 		.4byte	.LASF409
 2831 111b 07       		.byte	0x7
 2832 111c AE       		.byte	0xae
 2833 111d E1000000 		.4byte	0xe1
 2834 1121 9001     		.2byte	0x190
 2835 1123 14       		.uleb128 0x14
 2836 1124 75020000 		.4byte	.LASF410
 2837 1128 07       		.byte	0x7
 2838 1129 AF       		.byte	0xaf
 2839 112a E01A0000 		.4byte	0x1ae0
 2840 112e 9401     		.2byte	0x194
 2841 1130 14       		.uleb128 0x14
 2842 1131 5A440000 		.4byte	.LASF411
 2843 1135 07       		.byte	0x7
 2844 1136 B0       		.byte	0xb0
 2845 1137 E1000000 		.4byte	0xe1
 2846 113b A801     		.2byte	0x1a8
 2847 113d 14       		.uleb128 0x14
 2848 113e 26440000 		.4byte	.LASF412
 2849 1142 07       		.byte	0x7
 2850 1143 B1       		.byte	0xb1
 2851 1144 E1000000 		.4byte	0xe1
 2852 1148 AC01     		.2byte	0x1ac
 2853 114a 14       		.uleb128 0x14
 2854 114b 2F130000 		.4byte	.LASF413
 2855 114f 07       		.byte	0x7
 2856 1150 B2       		.byte	0xb2
 2857 1151 E1000000 		.4byte	0xe1
 2858 1155 B001     		.2byte	0x1b0
 2859 1157 14       		.uleb128 0x14
 2860 1158 5B140000 		.4byte	.LASF414
 2861 115c 07       		.byte	0x7
 2862 115d B3       		.byte	0xb3
 2863 115e E1000000 		.4byte	0xe1
 2864 1162 B401     		.2byte	0x1b4
 2865 1164 14       		.uleb128 0x14
 2866 1165 3D510000 		.4byte	.LASF415
 2867 1169 07       		.byte	0x7
 2868 116a B4       		.byte	0xb4
 2869 116b E1000000 		.4byte	0xe1
 2870 116f B801     		.2byte	0x1b8
 2871 1171 14       		.uleb128 0x14
 2872 1172 A9510000 		.4byte	.LASF416
 2873 1176 07       		.byte	0x7
 2874 1177 B5       		.byte	0xb5
 2875 1178 E1000000 		.4byte	0xe1
 2876 117c BC01     		.2byte	0x1bc
 2877 117e 14       		.uleb128 0x14
 2878 117f 62060000 		.4byte	.LASF417
 2879 1183 07       		.byte	0x7
 2880 1184 B6       		.byte	0xb6
 2881 1185 E1000000 		.4byte	0xe1
 2882 1189 C001     		.2byte	0x1c0
 2883 118b 14       		.uleb128 0x14
 2884 118c 71060000 		.4byte	.LASF418
 2885 1190 07       		.byte	0x7
ARM GAS  C:\Users\Nazar\AppData\Local\Temp\ccWQ1kO8.s 			page 82


 2886 1191 B7       		.byte	0xb7
 2887 1192 E1000000 		.4byte	0xe1
 2888 1196 C401     		.2byte	0x1c4
 2889 1198 14       		.uleb128 0x14
 2890 1199 53060000 		.4byte	.LASF419
 2891 119d 07       		.byte	0x7
 2892 119e B8       		.byte	0xb8
 2893 119f E1000000 		.4byte	0xe1
 2894 11a3 C801     		.2byte	0x1c8
 2895 11a5 14       		.uleb128 0x14
 2896 11a6 80020000 		.4byte	.LASF420
 2897 11aa 07       		.byte	0x7
 2898 11ab B9       		.byte	0xb9
 2899 11ac E6000000 		.4byte	0xe6
 2900 11b0 CC01     		.2byte	0x1cc
 2901 11b2 14       		.uleb128 0x14
 2902 11b3 D6090000 		.4byte	.LASF421
 2903 11b7 07       		.byte	0x7
 2904 11b8 BA       		.byte	0xba
 2905 11b9 E1000000 		.4byte	0xe1
 2906 11bd D001     		.2byte	0x1d0
 2907 11bf 14       		.uleb128 0x14
 2908 11c0 451E0000 		.4byte	.LASF422
 2909 11c4 07       		.byte	0x7
 2910 11c5 BB       		.byte	0xbb
 2911 11c6 E1000000 		.4byte	0xe1
 2912 11ca D401     		.2byte	0x1d4
 2913 11cc 14       		.uleb128 0x14
 2914 11cd D6170000 		.4byte	.LASF423
 2915 11d1 07       		.byte	0x7
 2916 11d2 BC       		.byte	0xbc
 2917 11d3 E1000000 		.4byte	0xe1
 2918 11d7 D801     		.2byte	0x1d8
 2919 11d9 14       		.uleb128 0x14
 2920 11da CA170000 		.4byte	.LASF424
 2921 11de 07       		.byte	0x7
 2922 11df BD       		.byte	0xbd
 2923 11e0 E1000000 		.4byte	0xe1
 2924 11e4 DC01     		.2byte	0x1dc
 2925 11e6 14       		.uleb128 0x14
 2926 11e7 DB060000 		.4byte	.LASF425
 2927 11eb 07       		.byte	0x7
 2928 11ec BE       		.byte	0xbe
 2929 11ed E1000000 		.4byte	0xe1
 2930 11f1 E001     		.2byte	0x1e0
 2931 11f3 14       		.uleb128 0x14
 2932 11f4 8B020000 		.4byte	.LASF426
 2933 11f8 07       		.byte	0x7
 2934 11f9 BF       		.byte	0xbf
 2935 11fa E6000000 		.4byte	0xe6
 2936 11fe E401     		.2byte	0x1e4
 2937 1200 14       		.uleb128 0x14
 2938 1201 800E0000 		.4byte	.LASF427
 2939 1205 07       		.byte	0x7
 2940 1206 C0       		.byte	0xc0
 2941 1207 E1000000 		.4byte	0xe1
 2942 120b E801     		.2byte	0x1e8
ARM GAS  C:\Users\Nazar\AppData\Local\Temp\ccWQ1kO8.s 			page 83


 2943 120d 14       		.uleb128 0x14
 2944 120e 8C0E0000 		.4byte	.LASF428
 2945 1212 07       		.byte	0x7
 2946 1213 C1       		.byte	0xc1
 2947 1214 E1000000 		.4byte	0xe1
 2948 1218 EC01     		.2byte	0x1ec
 2949 121a 14       		.uleb128 0x14
 2950 121b 78450000 		.4byte	.LASF429
 2951 121f 07       		.byte	0x7
 2952 1220 C2       		.byte	0xc2
 2953 1221 E1000000 		.4byte	0xe1
 2954 1225 F001     		.2byte	0x1f0
 2955 1227 14       		.uleb128 0x14
 2956 1228 91450000 		.4byte	.LASF430
 2957 122c 07       		.byte	0x7
 2958 122d C3       		.byte	0xc3
 2959 122e E1000000 		.4byte	0xe1
 2960 1232 F401     		.2byte	0x1f4
 2961 1234 14       		.uleb128 0x14
 2962 1235 4F150000 		.4byte	.LASF431
 2963 1239 07       		.byte	0x7
 2964 123a C4       		.byte	0xc4
 2965 123b E1000000 		.4byte	0xe1
 2966 123f F801     		.2byte	0x1f8
 2967 1241 14       		.uleb128 0x14
 2968 1242 96020000 		.4byte	.LASF432
 2969 1246 07       		.byte	0x7
 2970 1247 C5       		.byte	0xc5
 2971 1248 E6000000 		.4byte	0xe6
 2972 124c FC01     		.2byte	0x1fc
 2973 124e 14       		.uleb128 0x14
 2974 124f 392F0000 		.4byte	.LASF433
 2975 1253 07       		.byte	0x7
 2976 1254 C6       		.byte	0xc6
 2977 1255 E6000000 		.4byte	0xe6
 2978 1259 0002     		.2byte	0x200
 2979 125b 14       		.uleb128 0x14
 2980 125c 422F0000 		.4byte	.LASF434
 2981 1260 07       		.byte	0x7
 2982 1261 C7       		.byte	0xc7
 2983 1262 E6000000 		.4byte	0xe6
 2984 1266 0402     		.2byte	0x204
 2985 1268 14       		.uleb128 0x14
 2986 1269 4B2F0000 		.4byte	.LASF435
 2987 126d 07       		.byte	0x7
 2988 126e C8       		.byte	0xc8
 2989 126f E6000000 		.4byte	0xe6
 2990 1273 0802     		.2byte	0x208
 2991 1275 14       		.uleb128 0x14
 2992 1276 542F0000 		.4byte	.LASF436
 2993 127a 07       		.byte	0x7
 2994 127b C9       		.byte	0xc9
 2995 127c E6000000 		.4byte	0xe6
 2996 1280 0C02     		.2byte	0x20c
 2997 1282 14       		.uleb128 0x14
 2998 1283 5D2F0000 		.4byte	.LASF437
 2999 1287 07       		.byte	0x7
ARM GAS  C:\Users\Nazar\AppData\Local\Temp\ccWQ1kO8.s 			page 84


 3000 1288 CA       		.byte	0xca
 3001 1289 E6000000 		.4byte	0xe6
 3002 128d 1002     		.2byte	0x210
 3003 128f 14       		.uleb128 0x14
 3004 1290 662F0000 		.4byte	.LASF438
 3005 1294 07       		.byte	0x7
 3006 1295 CB       		.byte	0xcb
 3007 1296 E6000000 		.4byte	0xe6
 3008 129a 1402     		.2byte	0x214
 3009 129c 14       		.uleb128 0x14
 3010 129d 6F2F0000 		.4byte	.LASF439
 3011 12a1 07       		.byte	0x7
 3012 12a2 CC       		.byte	0xcc
 3013 12a3 E6000000 		.4byte	0xe6
 3014 12a7 1802     		.2byte	0x218
 3015 12a9 14       		.uleb128 0x14
 3016 12aa 782F0000 		.4byte	.LASF440
 3017 12ae 07       		.byte	0x7
 3018 12af CD       		.byte	0xcd
 3019 12b0 E6000000 		.4byte	0xe6
 3020 12b4 1C02     		.2byte	0x21c
 3021 12b6 14       		.uleb128 0x14
 3022 12b7 812F0000 		.4byte	.LASF441
 3023 12bb 07       		.byte	0x7
 3024 12bc CE       		.byte	0xce
 3025 12bd E6000000 		.4byte	0xe6
 3026 12c1 2002     		.2byte	0x220
 3027 12c3 14       		.uleb128 0x14
 3028 12c4 94280000 		.4byte	.LASF442
 3029 12c8 07       		.byte	0x7
 3030 12c9 CF       		.byte	0xcf
 3031 12ca E6000000 		.4byte	0xe6
 3032 12ce 2402     		.2byte	0x224
 3033 12d0 14       		.uleb128 0x14
 3034 12d1 A1020000 		.4byte	.LASF443
 3035 12d5 07       		.byte	0x7
 3036 12d6 D0       		.byte	0xd0
 3037 12d7 EA1A0000 		.4byte	0x1aea
 3038 12db 2802     		.2byte	0x228
 3039 12dd 14       		.uleb128 0x14
 3040 12de 930D0000 		.4byte	.LASF444
 3041 12e2 07       		.byte	0x7
 3042 12e3 D1       		.byte	0xd1
 3043 12e4 E1000000 		.4byte	0xe1
 3044 12e8 3002     		.2byte	0x230
 3045 12ea 14       		.uleb128 0x14
 3046 12eb A40D0000 		.4byte	.LASF445
 3047 12ef 07       		.byte	0x7
 3048 12f0 D2       		.byte	0xd2
 3049 12f1 E1000000 		.4byte	0xe1
 3050 12f5 3402     		.2byte	0x234
 3051 12f7 14       		.uleb128 0x14
 3052 12f8 820D0000 		.4byte	.LASF446
 3053 12fc 07       		.byte	0x7
 3054 12fd D3       		.byte	0xd3
 3055 12fe E1000000 		.4byte	0xe1
 3056 1302 3802     		.2byte	0x238
ARM GAS  C:\Users\Nazar\AppData\Local\Temp\ccWQ1kO8.s 			page 85


 3057 1304 14       		.uleb128 0x14
 3058 1305 FF490000 		.4byte	.LASF447
 3059 1309 07       		.byte	0x7
 3060 130a D4       		.byte	0xd4
 3061 130b E1000000 		.4byte	0xe1
 3062 130f 3C02     		.2byte	0x23c
 3063 1311 14       		.uleb128 0x14
 3064 1312 134A0000 		.4byte	.LASF448
 3065 1316 07       		.byte	0x7
 3066 1317 D6       		.byte	0xd6
 3067 1318 E1000000 		.4byte	0xe1
 3068 131c 4002     		.2byte	0x240
 3069 131e 14       		.uleb128 0x14
 3070 131f EB490000 		.4byte	.LASF449
 3071 1323 07       		.byte	0x7
 3072 1324 D8       		.byte	0xd8
 3073 1325 E1000000 		.4byte	0xe1
 3074 1329 4402     		.2byte	0x244
 3075 132b 14       		.uleb128 0x14
 3076 132c 28280000 		.4byte	.LASF450
 3077 1330 07       		.byte	0x7
 3078 1331 DA       		.byte	0xda
 3079 1332 E1000000 		.4byte	0xe1
 3080 1336 4802     		.2byte	0x248
 3081 1338 14       		.uleb128 0x14
 3082 1339 01310000 		.4byte	.LASF451
 3083 133d 07       		.byte	0x7
 3084 133e DB       		.byte	0xdb
 3085 133f E1000000 		.4byte	0xe1
 3086 1343 4C02     		.2byte	0x24c
 3087 1345 14       		.uleb128 0x14
 3088 1346 AC020000 		.4byte	.LASF452
 3089 134a 07       		.byte	0x7
 3090 134b DC       		.byte	0xdc
 3091 134c F41A0000 		.4byte	0x1af4
 3092 1350 5002     		.2byte	0x250
 3093 1352 14       		.uleb128 0x14
 3094 1353 E41D0000 		.4byte	.LASF453
 3095 1357 07       		.byte	0x7
 3096 1358 DD       		.byte	0xdd
 3097 1359 E1000000 		.4byte	0xe1
 3098 135d 5802     		.2byte	0x258
 3099 135f 14       		.uleb128 0x14
 3100 1360 B7020000 		.4byte	.LASF454
 3101 1364 07       		.byte	0x7
 3102 1365 DE       		.byte	0xde
 3103 1366 E6000000 		.4byte	0xe6
 3104 136a 5C02     		.2byte	0x25c
 3105 136c 14       		.uleb128 0x14
 3106 136d 6D410000 		.4byte	.LASF455
 3107 1371 07       		.byte	0x7
 3108 1372 DF       		.byte	0xdf
 3109 1373 E1000000 		.4byte	0xe1
 3110 1377 6002     		.2byte	0x260
 3111 1379 14       		.uleb128 0x14
 3112 137a 77360000 		.4byte	.LASF456
 3113 137e 07       		.byte	0x7
ARM GAS  C:\Users\Nazar\AppData\Local\Temp\ccWQ1kO8.s 			page 86


 3114 137f E0       		.byte	0xe0
 3115 1380 E6000000 		.4byte	0xe6
 3116 1384 6402     		.2byte	0x264
 3117 1386 14       		.uleb128 0x14
 3118 1387 5B4A0000 		.4byte	.LASF457
 3119 138b 07       		.byte	0x7
 3120 138c E1       		.byte	0xe1
 3121 138d E6000000 		.4byte	0xe6
 3122 1391 6802     		.2byte	0x268
 3123 1393 14       		.uleb128 0x14
 3124 1394 39310000 		.4byte	.LASF458
 3125 1398 07       		.byte	0x7
 3126 1399 E2       		.byte	0xe2
 3127 139a 0E1B0000 		.4byte	0x1b0e
 3128 139e 6C02     		.2byte	0x26c
 3129 13a0 14       		.uleb128 0x14
 3130 13a1 2F1B0000 		.4byte	.LASF459
 3131 13a5 07       		.byte	0x7
 3132 13a6 E3       		.byte	0xe3
 3133 13a7 E1000000 		.4byte	0xe1
 3134 13ab A403     		.2byte	0x3a4
 3135 13ad 14       		.uleb128 0x14
 3136 13ae 385A0000 		.4byte	.LASF460
 3137 13b2 07       		.byte	0x7
 3138 13b3 E4       		.byte	0xe4
 3139 13b4 E1000000 		.4byte	0xe1
 3140 13b8 A803     		.2byte	0x3a8
 3141 13ba 14       		.uleb128 0x14
 3142 13bb C3490000 		.4byte	.LASF461
 3143 13bf 07       		.byte	0x7
 3144 13c0 E5       		.byte	0xe5
 3145 13c1 E1000000 		.4byte	0xe1
 3146 13c5 AC03     		.2byte	0x3ac
 3147 13c7 14       		.uleb128 0x14
 3148 13c8 0A250000 		.4byte	.LASF462
 3149 13cc 07       		.byte	0x7
 3150 13cd E6       		.byte	0xe6
 3151 13ce E1000000 		.4byte	0xe1
 3152 13d2 B003     		.2byte	0x3b0
 3153 13d4 14       		.uleb128 0x14
 3154 13d5 D7020000 		.4byte	.LASF463
 3155 13d9 07       		.byte	0x7
 3156 13da E7       		.byte	0xe7
 3157 13db 181B0000 		.4byte	0x1b18
 3158 13df B403     		.2byte	0x3b4
 3159 13e1 14       		.uleb128 0x14
 3160 13e2 23190000 		.4byte	.LASF464
 3161 13e6 07       		.byte	0x7
 3162 13e7 E8       		.byte	0xe8
 3163 13e8 E1000000 		.4byte	0xe1
 3164 13ec C003     		.2byte	0x3c0
 3165 13ee 14       		.uleb128 0x14
 3166 13ef 32190000 		.4byte	.LASF465
 3167 13f3 07       		.byte	0x7
 3168 13f4 E9       		.byte	0xe9
 3169 13f5 E1000000 		.4byte	0xe1
 3170 13f9 C403     		.2byte	0x3c4
ARM GAS  C:\Users\Nazar\AppData\Local\Temp\ccWQ1kO8.s 			page 87


 3171 13fb 14       		.uleb128 0x14
 3172 13fc 41190000 		.4byte	.LASF466
 3173 1400 07       		.byte	0x7
 3174 1401 EA       		.byte	0xea
 3175 1402 E1000000 		.4byte	0xe1
 3176 1406 C803     		.2byte	0x3c8
 3177 1408 14       		.uleb128 0x14
 3178 1409 50190000 		.4byte	.LASF467
 3179 140d 07       		.byte	0x7
 3180 140e EB       		.byte	0xeb
 3181 140f E1000000 		.4byte	0xe1
 3182 1413 CC03     		.2byte	0x3cc
 3183 1415 14       		.uleb128 0x14
 3184 1416 5F190000 		.4byte	.LASF468
 3185 141a 07       		.byte	0x7
 3186 141b EC       		.byte	0xec
 3187 141c E1000000 		.4byte	0xe1
 3188 1420 D003     		.2byte	0x3d0
 3189 1422 14       		.uleb128 0x14
 3190 1423 6E190000 		.4byte	.LASF469
 3191 1427 07       		.byte	0x7
 3192 1428 ED       		.byte	0xed
 3193 1429 E1000000 		.4byte	0xe1
 3194 142d D403     		.2byte	0x3d4
 3195 142f 14       		.uleb128 0x14
 3196 1430 7D190000 		.4byte	.LASF470
 3197 1434 07       		.byte	0x7
 3198 1435 EE       		.byte	0xee
 3199 1436 E1000000 		.4byte	0xe1
 3200 143a D803     		.2byte	0x3d8
 3201 143c 14       		.uleb128 0x14
 3202 143d 8C190000 		.4byte	.LASF471
 3203 1441 07       		.byte	0x7
 3204 1442 EF       		.byte	0xef
 3205 1443 E1000000 		.4byte	0xe1
 3206 1447 DC03     		.2byte	0x3dc
 3207 1449 14       		.uleb128 0x14
 3208 144a 9B190000 		.4byte	.LASF472
 3209 144e 07       		.byte	0x7
 3210 144f F0       		.byte	0xf0
 3211 1450 E1000000 		.4byte	0xe1
 3212 1454 E003     		.2byte	0x3e0
 3213 1456 14       		.uleb128 0x14
 3214 1457 AA190000 		.4byte	.LASF473
 3215 145b 07       		.byte	0x7
 3216 145c F1       		.byte	0xf1
 3217 145d E1000000 		.4byte	0xe1
 3218 1461 E403     		.2byte	0x3e4
 3219 1463 14       		.uleb128 0x14
 3220 1464 01500000 		.4byte	.LASF474
 3221 1468 07       		.byte	0x7
 3222 1469 F2       		.byte	0xf2
 3223 146a E1000000 		.4byte	0xe1
 3224 146e E803     		.2byte	0x3e8
 3225 1470 14       		.uleb128 0x14
 3226 1471 11500000 		.4byte	.LASF475
 3227 1475 07       		.byte	0x7
ARM GAS  C:\Users\Nazar\AppData\Local\Temp\ccWQ1kO8.s 			page 88


 3228 1476 F3       		.byte	0xf3
 3229 1477 E1000000 		.4byte	0xe1
 3230 147b EC03     		.2byte	0x3ec
 3231 147d 14       		.uleb128 0x14
 3232 147e 56030000 		.4byte	.LASF476
 3233 1482 07       		.byte	0x7
 3234 1483 F4       		.byte	0xf4
 3235 1484 331B0000 		.4byte	0x1b33
 3236 1488 F003     		.2byte	0x3f0
 3237 148a 14       		.uleb128 0x14
 3238 148b E1100000 		.4byte	.LASF477
 3239 148f 07       		.byte	0x7
 3240 1490 F5       		.byte	0xf5
 3241 1491 E1000000 		.4byte	0xe1
 3242 1495 040A     		.2byte	0xa04
 3243 1497 14       		.uleb128 0x14
 3244 1498 4F260000 		.4byte	.LASF478
 3245 149c 07       		.byte	0x7
 3246 149d F6       		.byte	0xf6
 3247 149e E6000000 		.4byte	0xe6
 3248 14a2 080A     		.2byte	0xa08
 3249 14a4 14       		.uleb128 0x14
 3250 14a5 9E290000 		.4byte	.LASF479
 3251 14a9 07       		.byte	0x7
 3252 14aa F7       		.byte	0xf7
 3253 14ab E6000000 		.4byte	0xe6
 3254 14af 0C0A     		.2byte	0xa0c
 3255 14b1 14       		.uleb128 0x14
 3256 14b2 842B0000 		.4byte	.LASF480
 3257 14b6 07       		.byte	0x7
 3258 14b7 F8       		.byte	0xf8
 3259 14b8 E1000000 		.4byte	0xe1
 3260 14bc 100A     		.2byte	0xa10
 3261 14be 14       		.uleb128 0x14
 3262 14bf 80080000 		.4byte	.LASF481
 3263 14c3 07       		.byte	0x7
 3264 14c4 F9       		.byte	0xf9
 3265 14c5 E1000000 		.4byte	0xe1
 3266 14c9 140A     		.2byte	0xa14
 3267 14cb 14       		.uleb128 0x14
 3268 14cc A2540000 		.4byte	.LASF482
 3269 14d0 07       		.byte	0x7
 3270 14d1 FA       		.byte	0xfa
 3271 14d2 E1000000 		.4byte	0xe1
 3272 14d6 180A     		.2byte	0xa18
 3273 14d8 14       		.uleb128 0x14
 3274 14d9 123D0000 		.4byte	.LASF483
 3275 14dd 07       		.byte	0x7
 3276 14de FB       		.byte	0xfb
 3277 14df E1000000 		.4byte	0xe1
 3278 14e3 1C0A     		.2byte	0xa1c
 3279 14e5 14       		.uleb128 0x14
 3280 14e6 C62F0000 		.4byte	.LASF484
 3281 14ea 07       		.byte	0x7
 3282 14eb FC       		.byte	0xfc
 3283 14ec E1000000 		.4byte	0xe1
 3284 14f0 200A     		.2byte	0xa20
ARM GAS  C:\Users\Nazar\AppData\Local\Temp\ccWQ1kO8.s 			page 89


 3285 14f2 14       		.uleb128 0x14
 3286 14f3 6F3B0000 		.4byte	.LASF485
 3287 14f7 07       		.byte	0x7
 3288 14f8 FD       		.byte	0xfd
 3289 14f9 E1000000 		.4byte	0xe1
 3290 14fd 240A     		.2byte	0xa24
 3291 14ff 14       		.uleb128 0x14
 3292 1500 371C0000 		.4byte	.LASF486
 3293 1504 07       		.byte	0x7
 3294 1505 FE       		.byte	0xfe
 3295 1506 E6000000 		.4byte	0xe6
 3296 150a 280A     		.2byte	0xa28
 3297 150c 14       		.uleb128 0x14
 3298 150d A01F0000 		.4byte	.LASF487
 3299 1511 07       		.byte	0x7
 3300 1512 FF       		.byte	0xff
 3301 1513 E6000000 		.4byte	0xe6
 3302 1517 2C0A     		.2byte	0xa2c
 3303 1519 16       		.uleb128 0x16
 3304 151a 61030000 		.4byte	.LASF488
 3305 151e 07       		.byte	0x7
 3306 151f 0001     		.2byte	0x100
 3307 1521 4D1B0000 		.4byte	0x1b4d
 3308 1525 300A     		.2byte	0xa30
 3309 1527 16       		.uleb128 0x16
 3310 1528 FE1D0000 		.4byte	.LASF489
 3311 152c 07       		.byte	0x7
 3312 152d 0101     		.2byte	0x101
 3313 152f E1000000 		.4byte	0xe1
 3314 1533 000E     		.2byte	0xe00
 3315 1535 16       		.uleb128 0x16
 3316 1536 70380000 		.4byte	.LASF490
 3317 153a 07       		.byte	0x7
 3318 153b 0201     		.2byte	0x102
 3319 153d E1000000 		.4byte	0xe1
 3320 1541 040E     		.2byte	0xe04
 3321 1543 16       		.uleb128 0x16
 3322 1544 8A510000 		.4byte	.LASF491
 3323 1548 07       		.byte	0x7
 3324 1549 0301     		.2byte	0x103
 3325 154b E1000000 		.4byte	0xe1
 3326 154f 080E     		.2byte	0xe08
 3327 1551 16       		.uleb128 0x16
 3328 1552 6C030000 		.4byte	.LASF492
 3329 1556 07       		.byte	0x7
 3330 1557 0401     		.2byte	0x104
 3331 1559 E6000000 		.4byte	0xe6
 3332 155d 0C0E     		.2byte	0xe0c
 3333 155f 16       		.uleb128 0x16
 3334 1560 04400000 		.4byte	.LASF493
 3335 1564 07       		.byte	0x7
 3336 1565 0501     		.2byte	0x105
 3337 1567 E1000000 		.4byte	0xe1
 3338 156b 100E     		.2byte	0xe10
 3339 156d 16       		.uleb128 0x16
 3340 156e 77030000 		.4byte	.LASF494
 3341 1572 07       		.byte	0x7
ARM GAS  C:\Users\Nazar\AppData\Local\Temp\ccWQ1kO8.s 			page 90


 3342 1573 0601     		.2byte	0x106
 3343 1575 571B0000 		.4byte	0x1b57
 3344 1579 140E     		.2byte	0xe14
 3345 157b 16       		.uleb128 0x16
 3346 157c 9F060000 		.4byte	.LASF495
 3347 1580 07       		.byte	0x7
 3348 1581 0701     		.2byte	0x107
 3349 1583 E1000000 		.4byte	0xe1
 3350 1587 000F     		.2byte	0xf00
 3351 1589 16       		.uleb128 0x16
 3352 158a 5D530000 		.4byte	.LASF496
 3353 158e 07       		.byte	0x7
 3354 158f 0801     		.2byte	0x108
 3355 1591 E1000000 		.4byte	0xe1
 3356 1595 040F     		.2byte	0xf04
 3357 1597 16       		.uleb128 0x16
 3358 1598 6B530000 		.4byte	.LASF497
 3359 159c 07       		.byte	0x7
 3360 159d 0901     		.2byte	0x109
 3361 159f E1000000 		.4byte	0xe1
 3362 15a3 080F     		.2byte	0xf08
 3363 15a5 16       		.uleb128 0x16
 3364 15a6 4F530000 		.4byte	.LASF498
 3365 15aa 07       		.byte	0x7
 3366 15ab 0B01     		.2byte	0x10b
 3367 15ad E1000000 		.4byte	0xe1
 3368 15b1 0C0F     		.2byte	0xf0c
 3369 15b3 16       		.uleb128 0x16
 3370 15b4 3B180000 		.4byte	.LASF499
 3371 15b8 07       		.byte	0x7
 3372 15b9 0D01     		.2byte	0x10d
 3373 15bb 5C1B0000 		.4byte	0x1b5c
 3374 15bf 100F     		.2byte	0xf10
 3375 15c1 16       		.uleb128 0x16
 3376 15c2 82030000 		.4byte	.LASF500
 3377 15c6 07       		.byte	0x7
 3378 15c7 0E01     		.2byte	0x10e
 3379 15c9 761B0000 		.4byte	0x1b76
 3380 15cd 500F     		.2byte	0xf50
 3381 15cf 16       		.uleb128 0x16
 3382 15d0 C2240000 		.4byte	.LASF501
 3383 15d4 07       		.byte	0x7
 3384 15d5 0F01     		.2byte	0x10f
 3385 15d7 E1000000 		.4byte	0xe1
 3386 15db A00F     		.2byte	0xfa0
 3387 15dd 16       		.uleb128 0x16
 3388 15de 8D030000 		.4byte	.LASF502
 3389 15e2 07       		.byte	0x7
 3390 15e3 1001     		.2byte	0x110
 3391 15e5 911B0000 		.4byte	0x1b91
 3392 15e9 A40F     		.2byte	0xfa4
 3393 15eb 16       		.uleb128 0x16
 3394 15ec C00C0000 		.4byte	.LASF503
 3395 15f0 07       		.byte	0x7
 3396 15f1 1101     		.2byte	0x111
 3397 15f3 E1000000 		.4byte	0xe1
 3398 15f7 0018     		.2byte	0x1800
ARM GAS  C:\Users\Nazar\AppData\Local\Temp\ccWQ1kO8.s 			page 91


 3399 15f9 16       		.uleb128 0x16
 3400 15fa 98030000 		.4byte	.LASF504
 3401 15fe 07       		.byte	0x7
 3402 15ff 1201     		.2byte	0x112
 3403 1601 9B1B0000 		.4byte	0x1b9b
 3404 1605 0418     		.2byte	0x1804
 3405 1607 16       		.uleb128 0x16
 3406 1608 330C0000 		.4byte	.LASF505
 3407 160c 07       		.byte	0x7
 3408 160d 1301     		.2byte	0x113
 3409 160f E1000000 		.4byte	0xe1
 3410 1613 0028     		.2byte	0x2800
 3411 1615 16       		.uleb128 0x16
 3412 1616 A3030000 		.4byte	.LASF506
 3413 161a 07       		.byte	0x7
 3414 161b 1401     		.2byte	0x114
 3415 161d B61B0000 		.4byte	0x1bb6
 3416 1621 0428     		.2byte	0x2804
 3417 1623 17       		.uleb128 0x17
 3418 1624 EE530000 		.4byte	.LASF507
 3419 1628 07       		.byte	0x7
 3420 1629 1501     		.2byte	0x115
 3421 162b E1000000 		.4byte	0xe1
 3422 162f 00280100 		.4byte	0x12800
 3423 1633 17       		.uleb128 0x17
 3424 1634 AE030000 		.4byte	.LASF508
 3425 1638 07       		.byte	0x7
 3426 1639 1601     		.2byte	0x116
 3427 163b C01B0000 		.4byte	0x1bc0
 3428 163f 04280100 		.4byte	0x12804
 3429 1643 17       		.uleb128 0x17
 3430 1644 E2160000 		.4byte	.LASF509
 3431 1648 07       		.byte	0x7
 3432 1649 1701     		.2byte	0x117
 3433 164b E1000000 		.4byte	0xe1
 3434 164f 80280100 		.4byte	0x12880
 3435 1653 17       		.uleb128 0x17
 3436 1654 B9030000 		.4byte	.LASF510
 3437 1658 07       		.byte	0x7
 3438 1659 1801     		.2byte	0x118
 3439 165b CA1B0000 		.4byte	0x1bca
 3440 165f 84280100 		.4byte	0x12884
 3441 1663 17       		.uleb128 0x17
 3442 1664 F4360000 		.4byte	.LASF511
 3443 1668 07       		.byte	0x7
 3444 1669 1901     		.2byte	0x119
 3445 166b E1000000 		.4byte	0xe1
 3446 166f 00290100 		.4byte	0x12900
 3447 1673 17       		.uleb128 0x17
 3448 1674 42040000 		.4byte	.LASF512
 3449 1678 07       		.byte	0x7
 3450 1679 1A01     		.2byte	0x11a
 3451 167b D41B0000 		.4byte	0x1bd4
 3452 167f 04290100 		.4byte	0x12904
 3453 1683 17       		.uleb128 0x17
 3454 1684 B4550000 		.4byte	.LASF513
 3455 1688 07       		.byte	0x7
ARM GAS  C:\Users\Nazar\AppData\Local\Temp\ccWQ1kO8.s 			page 92


 3456 1689 1B01     		.2byte	0x11b
 3457 168b E1000000 		.4byte	0xe1
 3458 168f 80290100 		.4byte	0x12980
 3459 1693 17       		.uleb128 0x17
 3460 1694 4D040000 		.4byte	.LASF514
 3461 1698 07       		.byte	0x7
 3462 1699 1C01     		.2byte	0x11c
 3463 169b EF1B0000 		.4byte	0x1bef
 3464 169f 84290100 		.4byte	0x12984
 3465 16a3 17       		.uleb128 0x17
 3466 16a4 0E0C0000 		.4byte	.LASF515
 3467 16a8 07       		.byte	0x7
 3468 16a9 1D01     		.2byte	0x11d
 3469 16ab E1000000 		.4byte	0xe1
 3470 16af 00400100 		.4byte	0x14000
 3471 16b3 17       		.uleb128 0x17
 3472 16b4 90580000 		.4byte	.LASF516
 3473 16b8 07       		.byte	0x7
 3474 16b9 1E01     		.2byte	0x11e
 3475 16bb E1000000 		.4byte	0xe1
 3476 16bf 04400100 		.4byte	0x14004
 3477 16c3 17       		.uleb128 0x17
 3478 16c4 AC5A0000 		.4byte	.LASF517
 3479 16c8 07       		.byte	0x7
 3480 16c9 1F01     		.2byte	0x11f
 3481 16cb E1000000 		.4byte	0xe1
 3482 16cf 08400100 		.4byte	0x14008
 3483 16d3 17       		.uleb128 0x17
 3484 16d4 8C0C0000 		.4byte	.LASF518
 3485 16d8 07       		.byte	0x7
 3486 16d9 2001     		.2byte	0x120
 3487 16db E1000000 		.4byte	0xe1
 3488 16df 0C400100 		.4byte	0x1400c
 3489 16e3 17       		.uleb128 0x17
 3490 16e4 58040000 		.4byte	.LASF519
 3491 16e8 07       		.byte	0x7
 3492 16e9 2101     		.2byte	0x121
 3493 16eb F91B0000 		.4byte	0x1bf9
 3494 16ef 10400100 		.4byte	0x14010
 3495 16f3 17       		.uleb128 0x17
 3496 16f4 AE300000 		.4byte	.LASF520
 3497 16f8 07       		.byte	0x7
 3498 16f9 2201     		.2byte	0x122
 3499 16fb E6000000 		.4byte	0xe6
 3500 16ff 20400100 		.4byte	0x14020
 3501 1703 17       		.uleb128 0x17
 3502 1704 64400000 		.4byte	.LASF521
 3503 1708 07       		.byte	0x7
 3504 1709 2301     		.2byte	0x123
 3505 170b E6000000 		.4byte	0xe6
 3506 170f 24400100 		.4byte	0x14024
 3507 1713 17       		.uleb128 0x17
 3508 1714 5D590000 		.4byte	.LASF522
 3509 1718 07       		.byte	0x7
 3510 1719 2401     		.2byte	0x124
 3511 171b E6000000 		.4byte	0xe6
 3512 171f 28400100 		.4byte	0x14028
ARM GAS  C:\Users\Nazar\AppData\Local\Temp\ccWQ1kO8.s 			page 93


 3513 1723 17       		.uleb128 0x17
 3514 1724 D90C0000 		.4byte	.LASF523
 3515 1728 07       		.byte	0x7
 3516 1729 2501     		.2byte	0x125
 3517 172b E6000000 		.4byte	0xe6
 3518 172f 2C400100 		.4byte	0x1402c
 3519 1733 17       		.uleb128 0x17
 3520 1734 8F210000 		.4byte	.LASF524
 3521 1738 07       		.byte	0x7
 3522 1739 2601     		.2byte	0x126
 3523 173b E6000000 		.4byte	0xe6
 3524 173f 30400100 		.4byte	0x14030
 3525 1743 17       		.uleb128 0x17
 3526 1744 B1130000 		.4byte	.LASF525
 3527 1748 07       		.byte	0x7
 3528 1749 2701     		.2byte	0x127
 3529 174b E6000000 		.4byte	0xe6
 3530 174f 34400100 		.4byte	0x14034
 3531 1753 17       		.uleb128 0x17
 3532 1754 70300000 		.4byte	.LASF526
 3533 1758 07       		.byte	0x7
 3534 1759 2801     		.2byte	0x128
 3535 175b E6000000 		.4byte	0xe6
 3536 175f 38400100 		.4byte	0x14038
 3537 1763 17       		.uleb128 0x17
 3538 1764 85270000 		.4byte	.LASF527
 3539 1768 07       		.byte	0x7
 3540 1769 2901     		.2byte	0x129
 3541 176b E6000000 		.4byte	0xe6
 3542 176f 3C400100 		.4byte	0x1403c
 3543 1773 17       		.uleb128 0x17
 3544 1774 0C340000 		.4byte	.LASF528
 3545 1778 07       		.byte	0x7
 3546 1779 2A01     		.2byte	0x12a
 3547 177b E1000000 		.4byte	0xe1
 3548 177f 40400100 		.4byte	0x14040
 3549 1783 17       		.uleb128 0x17
 3550 1784 2E220000 		.4byte	.LASF529
 3551 1788 07       		.byte	0x7
 3552 1789 2B01     		.2byte	0x12b
 3553 178b E6000000 		.4byte	0xe6
 3554 178f 44400100 		.4byte	0x14044
 3555 1793 17       		.uleb128 0x17
 3556 1794 FE230000 		.4byte	.LASF530
 3557 1798 07       		.byte	0x7
 3558 1799 2C01     		.2byte	0x12c
 3559 179b E1000000 		.4byte	0xe1
 3560 179f 48400100 		.4byte	0x14048
 3561 17a3 17       		.uleb128 0x17
 3562 17a4 7E150000 		.4byte	.LASF531
 3563 17a8 07       		.byte	0x7
 3564 17a9 2D01     		.2byte	0x12d
 3565 17ab E6000000 		.4byte	0xe6
 3566 17af 4C400100 		.4byte	0x1404c
 3567 17b3 17       		.uleb128 0x17
 3568 17b4 63040000 		.4byte	.LASF532
 3569 17b8 07       		.byte	0x7
ARM GAS  C:\Users\Nazar\AppData\Local\Temp\ccWQ1kO8.s 			page 94


 3570 17b9 2E01     		.2byte	0x12e
 3571 17bb 031C0000 		.4byte	0x1c03
 3572 17bf 50400100 		.4byte	0x14050
 3573 17c3 17       		.uleb128 0x17
 3574 17c4 29080000 		.4byte	.LASF533
 3575 17c8 07       		.byte	0x7
 3576 17c9 2F01     		.2byte	0x12f
 3577 17cb E6000000 		.4byte	0xe6
 3578 17cf 80400100 		.4byte	0x14080
 3579 17d3 17       		.uleb128 0x17
 3580 17d4 1A430000 		.4byte	.LASF534
 3581 17d8 07       		.byte	0x7
 3582 17d9 3001     		.2byte	0x130
 3583 17db E6000000 		.4byte	0xe6
 3584 17df 84400100 		.4byte	0x14084
 3585 17e3 17       		.uleb128 0x17
 3586 17e4 D9470000 		.4byte	.LASF535
 3587 17e8 07       		.byte	0x7
 3588 17e9 3101     		.2byte	0x131
 3589 17eb E6000000 		.4byte	0xe6
 3590 17ef 88400100 		.4byte	0x14088
 3591 17f3 17       		.uleb128 0x17
 3592 17f4 6E040000 		.4byte	.LASF536
 3593 17f8 07       		.byte	0x7
 3594 17f9 3201     		.2byte	0x132
 3595 17fb 0D1C0000 		.4byte	0x1c0d
 3596 17ff 8C400100 		.4byte	0x1408c
 3597 1803 17       		.uleb128 0x17
 3598 1804 611F0000 		.4byte	.LASF537
 3599 1808 07       		.byte	0x7
 3600 1809 3301     		.2byte	0x133
 3601 180b 121C0000 		.4byte	0x1c12
 3602 180f 00410100 		.4byte	0x14100
 3603 1813 17       		.uleb128 0x17
 3604 1814 79040000 		.4byte	.LASF538
 3605 1818 07       		.byte	0x7
 3606 1819 3401     		.2byte	0x134
 3607 181b 1C1C0000 		.4byte	0x1c1c
 3608 181f 40410100 		.4byte	0x14140
 3609 1823 17       		.uleb128 0x17
 3610 1824 E0380000 		.4byte	.LASF539
 3611 1828 07       		.byte	0x7
 3612 1829 3501     		.2byte	0x135
 3613 182b E1000000 		.4byte	0xe1
 3614 182f 00420100 		.4byte	0x14200
 3615 1833 17       		.uleb128 0x17
 3616 1834 5D090000 		.4byte	.LASF540
 3617 1838 07       		.byte	0x7
 3618 1839 3601     		.2byte	0x136
 3619 183b E1000000 		.4byte	0xe1
 3620 183f 04420100 		.4byte	0x14204
 3621 1843 17       		.uleb128 0x17
 3622 1844 961A0000 		.4byte	.LASF541
 3623 1848 07       		.byte	0x7
 3624 1849 3701     		.2byte	0x137
 3625 184b E1000000 		.4byte	0xe1
 3626 184f 08420100 		.4byte	0x14208
ARM GAS  C:\Users\Nazar\AppData\Local\Temp\ccWQ1kO8.s 			page 95


 3627 1853 17       		.uleb128 0x17
 3628 1854 84040000 		.4byte	.LASF542
 3629 1858 07       		.byte	0x7
 3630 1859 3801     		.2byte	0x138
 3631 185b E6000000 		.4byte	0xe6
 3632 185f 0C420100 		.4byte	0x1420c
 3633 1863 17       		.uleb128 0x17
 3634 1864 F9090000 		.4byte	.LASF543
 3635 1868 07       		.byte	0x7
 3636 1869 3901     		.2byte	0x139
 3637 186b E1000000 		.4byte	0xe1
 3638 186f 10420100 		.4byte	0x14210
 3639 1873 17       		.uleb128 0x17
 3640 1874 40580000 		.4byte	.LASF544
 3641 1878 07       		.byte	0x7
 3642 1879 3A01     		.2byte	0x13a
 3643 187b E1000000 		.4byte	0xe1
 3644 187f 14420100 		.4byte	0x14214
 3645 1883 17       		.uleb128 0x17
 3646 1884 3F290000 		.4byte	.LASF545
 3647 1888 07       		.byte	0x7
 3648 1889 3B01     		.2byte	0x13b
 3649 188b E1000000 		.4byte	0xe1
 3650 188f 18420100 		.4byte	0x14218
 3651 1893 17       		.uleb128 0x17
 3652 1894 8F040000 		.4byte	.LASF546
 3653 1898 07       		.byte	0x7
 3654 1899 3C01     		.2byte	0x13c
 3655 189b E6000000 		.4byte	0xe6
 3656 189f 1C420100 		.4byte	0x1421c
 3657 18a3 17       		.uleb128 0x17
 3658 18a4 B5390000 		.4byte	.LASF547
 3659 18a8 07       		.byte	0x7
 3660 18a9 3D01     		.2byte	0x13d
 3661 18ab E1000000 		.4byte	0xe1
 3662 18af 20420100 		.4byte	0x14220
 3663 18b3 17       		.uleb128 0x17
 3664 18b4 31420000 		.4byte	.LASF548
 3665 18b8 07       		.byte	0x7
 3666 18b9 3E01     		.2byte	0x13e
 3667 18bb E1000000 		.4byte	0xe1
 3668 18bf 24420100 		.4byte	0x14224
 3669 18c3 17       		.uleb128 0x17
 3670 18c4 8F3C0000 		.4byte	.LASF549
 3671 18c8 07       		.byte	0x7
 3672 18c9 3F01     		.2byte	0x13f
 3673 18cb E1000000 		.4byte	0xe1
 3674 18cf 28420100 		.4byte	0x14228
 3675 18d3 17       		.uleb128 0x17
 3676 18d4 9A040000 		.4byte	.LASF550
 3677 18d8 07       		.byte	0x7
 3678 18d9 4001     		.2byte	0x140
 3679 18db E6000000 		.4byte	0xe6
 3680 18df 2C420100 		.4byte	0x1422c
 3681 18e3 17       		.uleb128 0x17
 3682 18e4 C90A0000 		.4byte	.LASF551
 3683 18e8 07       		.byte	0x7
ARM GAS  C:\Users\Nazar\AppData\Local\Temp\ccWQ1kO8.s 			page 96


 3684 18e9 4101     		.2byte	0x141
 3685 18eb E1000000 		.4byte	0xe1
 3686 18ef 30420100 		.4byte	0x14230
 3687 18f3 17       		.uleb128 0x17
 3688 18f4 C1080000 		.4byte	.LASF552
 3689 18f8 07       		.byte	0x7
 3690 18f9 4201     		.2byte	0x142
 3691 18fb E1000000 		.4byte	0xe1
 3692 18ff 34420100 		.4byte	0x14234
 3693 1903 17       		.uleb128 0x17
 3694 1904 CC4C0000 		.4byte	.LASF553
 3695 1908 07       		.byte	0x7
 3696 1909 4301     		.2byte	0x143
 3697 190b E1000000 		.4byte	0xe1
 3698 190f 38420100 		.4byte	0x14238
 3699 1913 17       		.uleb128 0x17
 3700 1914 A5040000 		.4byte	.LASF554
 3701 1918 07       		.byte	0x7
 3702 1919 4401     		.2byte	0x144
 3703 191b 361C0000 		.4byte	0x1c36
 3704 191f 3C420100 		.4byte	0x1423c
 3705 1923 17       		.uleb128 0x17
 3706 1924 11310000 		.4byte	.LASF555
 3707 1928 07       		.byte	0x7
 3708 1929 4501     		.2byte	0x145
 3709 192b E1000000 		.4byte	0xe1
 3710 192f 00440100 		.4byte	0x14400
 3711 1933 17       		.uleb128 0x17
 3712 1934 6A240000 		.4byte	.LASF556
 3713 1938 07       		.byte	0x7
 3714 1939 4601     		.2byte	0x146
 3715 193b E1000000 		.4byte	0xe1
 3716 193f 04440100 		.4byte	0x14404
 3717 1943 17       		.uleb128 0x17
 3718 1944 EA390000 		.4byte	.LASF557
 3719 1948 07       		.byte	0x7
 3720 1949 4701     		.2byte	0x147
 3721 194b E1000000 		.4byte	0xe1
 3722 194f 08440100 		.4byte	0x14408
 3723 1953 17       		.uleb128 0x17
 3724 1954 FC040000 		.4byte	.LASF558
 3725 1958 07       		.byte	0x7
 3726 1959 4801     		.2byte	0x148
 3727 195b E6000000 		.4byte	0xe6
 3728 195f 0C440100 		.4byte	0x1440c
 3729 1963 17       		.uleb128 0x17
 3730 1964 BF090000 		.4byte	.LASF559
 3731 1968 07       		.byte	0x7
 3732 1969 4901     		.2byte	0x149
 3733 196b E1000000 		.4byte	0xe1
 3734 196f 10440100 		.4byte	0x14410
 3735 1973 17       		.uleb128 0x17
 3736 1974 7F330000 		.4byte	.LASF560
 3737 1978 07       		.byte	0x7
 3738 1979 4B01     		.2byte	0x14b
 3739 197b E1000000 		.4byte	0xe1
 3740 197f 14440100 		.4byte	0x14414
ARM GAS  C:\Users\Nazar\AppData\Local\Temp\ccWQ1kO8.s 			page 97


 3741 1983 17       		.uleb128 0x17
 3742 1984 07050000 		.4byte	.LASF561
 3743 1988 07       		.byte	0x7
 3744 1989 4D01     		.2byte	0x14d
 3745 198b 401C0000 		.4byte	0x1c40
 3746 198f 18440100 		.4byte	0x14418
 3747 1993 17       		.uleb128 0x17
 3748 1994 A3160000 		.4byte	.LASF562
 3749 1998 07       		.byte	0x7
 3750 1999 4E01     		.2byte	0x14e
 3751 199b E1000000 		.4byte	0xe1
 3752 199f 20440100 		.4byte	0x14420
 3753 19a3 17       		.uleb128 0x17
 3754 19a4 37380000 		.4byte	.LASF563
 3755 19a8 07       		.byte	0x7
 3756 19a9 5001     		.2byte	0x150
 3757 19ab E6000000 		.4byte	0xe6
 3758 19af 24440100 		.4byte	0x14424
 3759 19b3 17       		.uleb128 0x17
 3760 19b4 522E0000 		.4byte	.LASF564
 3761 19b8 07       		.byte	0x7
 3762 19b9 5101     		.2byte	0x151
 3763 19bb E6000000 		.4byte	0xe6
 3764 19bf 28440100 		.4byte	0x14428
 3765 19c3 17       		.uleb128 0x17
 3766 19c4 12050000 		.4byte	.LASF565
 3767 19c8 07       		.byte	0x7
 3768 19c9 5201     		.2byte	0x152
 3769 19cb E6000000 		.4byte	0xe6
 3770 19cf 2C440100 		.4byte	0x1442c
 3771 19d3 17       		.uleb128 0x17
 3772 19d4 6D150000 		.4byte	.LASF566
 3773 19d8 07       		.byte	0x7
 3774 19d9 5301     		.2byte	0x153
 3775 19db 4A1C0000 		.4byte	0x1c4a
 3776 19df 30440100 		.4byte	0x14430
 3777 19e3 17       		.uleb128 0x17
 3778 19e4 1D050000 		.4byte	.LASF567
 3779 19e8 07       		.byte	0x7
 3780 19e9 5401     		.2byte	0x154
 3781 19eb 641C0000 		.4byte	0x1c64
 3782 19ef 50440100 		.4byte	0x14450
 3783 19f3 17       		.uleb128 0x17
 3784 19f4 6B330000 		.4byte	.LASF568
 3785 19f8 07       		.byte	0x7
 3786 19f9 5501     		.2byte	0x155
 3787 19fb E1000000 		.4byte	0xe1
 3788 19ff 00480100 		.4byte	0x14800
 3789 1a03 17       		.uleb128 0x17
 3790 1a04 28050000 		.4byte	.LASF569
 3791 1a08 07       		.byte	0x7
 3792 1a09 5601     		.2byte	0x156
 3793 1a0b 6E1C0000 		.4byte	0x1c6e
 3794 1a0f 04480100 		.4byte	0x14804
 3795 1a13 17       		.uleb128 0x17
 3796 1a14 DC420000 		.4byte	.LASF570
 3797 1a18 07       		.byte	0x7
ARM GAS  C:\Users\Nazar\AppData\Local\Temp\ccWQ1kO8.s 			page 98


 3798 1a19 5701     		.2byte	0x157
 3799 1a1b E1000000 		.4byte	0xe1
 3800 1a1f C0480100 		.4byte	0x148c0
 3801 1a23 17       		.uleb128 0x17
 3802 1a24 33050000 		.4byte	.LASF571
 3803 1a28 07       		.byte	0x7
 3804 1a29 5801     		.2byte	0x158
 3805 1a2b 781C0000 		.4byte	0x1c78
 3806 1a2f C4480100 		.4byte	0x148c4
 3807 1a33 17       		.uleb128 0x17
 3808 1a34 D7290000 		.4byte	.LASF572
 3809 1a38 07       		.byte	0x7
 3810 1a39 5901     		.2byte	0x159
 3811 1a3b E1000000 		.4byte	0xe1
 3812 1a3f 80490100 		.4byte	0x14980
 3813 1a43 17       		.uleb128 0x17
 3814 1a44 3E050000 		.4byte	.LASF573
 3815 1a48 07       		.byte	0x7
 3816 1a49 5B01     		.2byte	0x15b
 3817 1a4b 821C0000 		.4byte	0x1c82
 3818 1a4f 84490100 		.4byte	0x14984
 3819 1a53 17       		.uleb128 0x17
 3820 1a54 48460000 		.4byte	.LASF574
 3821 1a58 07       		.byte	0x7
 3822 1a59 5C01     		.2byte	0x15c
 3823 1a5b E1000000 		.4byte	0xe1
 3824 1a5f 404A0100 		.4byte	0x14a40
 3825 1a63 17       		.uleb128 0x17
 3826 1a64 99360000 		.4byte	.LASF575
 3827 1a68 07       		.byte	0x7
 3828 1a69 5E01     		.2byte	0x15e
 3829 1a6b 8C1C0000 		.4byte	0x1c8c
 3830 1a6f 444A0100 		.4byte	0x14a44
 3831 1a73 17       		.uleb128 0x17
 3832 1a74 DA310000 		.4byte	.LASF576
 3833 1a78 07       		.byte	0x7
 3834 1a79 5F01     		.2byte	0x15f
 3835 1a7b E1000000 		.4byte	0xe1
 3836 1a7f 004B0100 		.4byte	0x14b00
 3837 1a83 17       		.uleb128 0x17
 3838 1a84 54050000 		.4byte	.LASF577
 3839 1a88 07       		.byte	0x7
 3840 1a89 6001     		.2byte	0x160
 3841 1a8b A71C0000 		.4byte	0x1ca7
 3842 1a8f 044B0100 		.4byte	0x14b04
 3843 1a93 00       		.byte	0
 3844 1a94 08       		.uleb128 0x8
 3845 1a95 7B010000 		.4byte	0x17b
 3846 1a99 09       		.uleb128 0x9
 3847 1a9a 941A0000 		.4byte	0x1a94
 3848 1a9e 08       		.uleb128 0x8
 3849 1a9f EB000000 		.4byte	0xeb
 3850 1aa3 09       		.uleb128 0x9
 3851 1aa4 9E1A0000 		.4byte	0x1a9e
 3852 1aa8 0A       		.uleb128 0xa
 3853 1aa9 E1000000 		.4byte	0xe1
 3854 1aad B81A0000 		.4byte	0x1ab8
ARM GAS  C:\Users\Nazar\AppData\Local\Temp\ccWQ1kO8.s 			page 99


 3855 1ab1 0B       		.uleb128 0xb
 3856 1ab2 9E000000 		.4byte	0x9e
 3857 1ab6 04       		.byte	0x4
 3858 1ab7 00       		.byte	0
 3859 1ab8 08       		.uleb128 0x8
 3860 1ab9 A81A0000 		.4byte	0x1aa8
 3861 1abd 08       		.uleb128 0x8
 3862 1abe EB000000 		.4byte	0xeb
 3863 1ac2 09       		.uleb128 0x9
 3864 1ac3 BD1A0000 		.4byte	0x1abd
 3865 1ac7 08       		.uleb128 0x8
 3866 1ac8 7B010000 		.4byte	0x17b
 3867 1acc 09       		.uleb128 0x9
 3868 1acd C71A0000 		.4byte	0x1ac7
 3869 1ad1 08       		.uleb128 0x8
 3870 1ad2 EB000000 		.4byte	0xeb
 3871 1ad6 09       		.uleb128 0x9
 3872 1ad7 D11A0000 		.4byte	0x1ad1
 3873 1adb 08       		.uleb128 0x8
 3874 1adc 1B010000 		.4byte	0x11b
 3875 1ae0 09       		.uleb128 0x9
 3876 1ae1 DB1A0000 		.4byte	0x1adb
 3877 1ae5 08       		.uleb128 0x8
 3878 1ae6 7B010000 		.4byte	0x17b
 3879 1aea 09       		.uleb128 0x9
 3880 1aeb E51A0000 		.4byte	0x1ae5
 3881 1aef 08       		.uleb128 0x8
 3882 1af0 7B010000 		.4byte	0x17b
 3883 1af4 09       		.uleb128 0x9
 3884 1af5 EF1A0000 		.4byte	0x1aef
 3885 1af9 0A       		.uleb128 0xa
 3886 1afa E6000000 		.4byte	0xe6
 3887 1afe 091B0000 		.4byte	0x1b09
 3888 1b02 0B       		.uleb128 0xb
 3889 1b03 9E000000 		.4byte	0x9e
 3890 1b07 4D       		.byte	0x4d
 3891 1b08 00       		.byte	0
 3892 1b09 08       		.uleb128 0x8
 3893 1b0a F91A0000 		.4byte	0x1af9
 3894 1b0e 09       		.uleb128 0x9
 3895 1b0f 091B0000 		.4byte	0x1b09
 3896 1b13 08       		.uleb128 0x8
 3897 1b14 EB000000 		.4byte	0xeb
 3898 1b18 09       		.uleb128 0x9
 3899 1b19 131B0000 		.4byte	0x1b13
 3900 1b1d 0A       		.uleb128 0xa
 3901 1b1e E6000000 		.4byte	0xe6
 3902 1b22 2E1B0000 		.4byte	0x1b2e
 3903 1b26 0C       		.uleb128 0xc
 3904 1b27 9E000000 		.4byte	0x9e
 3905 1b2b 8401     		.2byte	0x184
 3906 1b2d 00       		.byte	0
 3907 1b2e 08       		.uleb128 0x8
 3908 1b2f 1D1B0000 		.4byte	0x1b1d
 3909 1b33 09       		.uleb128 0x9
 3910 1b34 2E1B0000 		.4byte	0x1b2e
 3911 1b38 0A       		.uleb128 0xa
ARM GAS  C:\Users\Nazar\AppData\Local\Temp\ccWQ1kO8.s 			page 100


 3912 1b39 E6000000 		.4byte	0xe6
 3913 1b3d 481B0000 		.4byte	0x1b48
 3914 1b41 0B       		.uleb128 0xb
 3915 1b42 9E000000 		.4byte	0x9e
 3916 1b46 F3       		.byte	0xf3
 3917 1b47 00       		.byte	0
 3918 1b48 08       		.uleb128 0x8
 3919 1b49 381B0000 		.4byte	0x1b38
 3920 1b4d 09       		.uleb128 0x9
 3921 1b4e 481B0000 		.4byte	0x1b48
 3922 1b52 08       		.uleb128 0x8
 3923 1b53 C0010000 		.4byte	0x1c0
 3924 1b57 09       		.uleb128 0x9
 3925 1b58 521B0000 		.4byte	0x1b52
 3926 1b5c 08       		.uleb128 0x8
 3927 1b5d FB000000 		.4byte	0xfb
 3928 1b61 0A       		.uleb128 0xa
 3929 1b62 E6000000 		.4byte	0xe6
 3930 1b66 711B0000 		.4byte	0x1b71
 3931 1b6a 0B       		.uleb128 0xb
 3932 1b6b 9E000000 		.4byte	0x9e
 3933 1b6f 13       		.byte	0x13
 3934 1b70 00       		.byte	0
 3935 1b71 08       		.uleb128 0x8
 3936 1b72 611B0000 		.4byte	0x1b61
 3937 1b76 09       		.uleb128 0x9
 3938 1b77 711B0000 		.4byte	0x1b71
 3939 1b7b 0A       		.uleb128 0xa
 3940 1b7c E6000000 		.4byte	0xe6
 3941 1b80 8C1B0000 		.4byte	0x1b8c
 3942 1b84 0C       		.uleb128 0xc
 3943 1b85 9E000000 		.4byte	0x9e
 3944 1b89 1602     		.2byte	0x216
 3945 1b8b 00       		.byte	0
 3946 1b8c 08       		.uleb128 0x8
 3947 1b8d 7B1B0000 		.4byte	0x1b7b
 3948 1b91 09       		.uleb128 0x9
 3949 1b92 8C1B0000 		.4byte	0x1b8c
 3950 1b96 08       		.uleb128 0x8
 3951 1b97 E0010000 		.4byte	0x1e0
 3952 1b9b 09       		.uleb128 0x9
 3953 1b9c 961B0000 		.4byte	0x1b96
 3954 1ba0 0A       		.uleb128 0xa
 3955 1ba1 E6000000 		.4byte	0xe6
 3956 1ba5 B11B0000 		.4byte	0x1bb1
 3957 1ba9 0C       		.uleb128 0xc
 3958 1baa 9E000000 		.4byte	0x9e
 3959 1bae FE3F     		.2byte	0x3ffe
 3960 1bb0 00       		.byte	0
 3961 1bb1 08       		.uleb128 0x8
 3962 1bb2 A01B0000 		.4byte	0x1ba0
 3963 1bb6 09       		.uleb128 0x9
 3964 1bb7 B11B0000 		.4byte	0x1bb1
 3965 1bbb 08       		.uleb128 0x8
 3966 1bbc 8B010000 		.4byte	0x18b
 3967 1bc0 09       		.uleb128 0x9
 3968 1bc1 BB1B0000 		.4byte	0x1bbb
ARM GAS  C:\Users\Nazar\AppData\Local\Temp\ccWQ1kO8.s 			page 101


 3969 1bc5 08       		.uleb128 0x8
 3970 1bc6 8B010000 		.4byte	0x18b
 3971 1bca 09       		.uleb128 0x9
 3972 1bcb C51B0000 		.4byte	0x1bc5
 3973 1bcf 08       		.uleb128 0x8
 3974 1bd0 8B010000 		.4byte	0x18b
 3975 1bd4 09       		.uleb128 0x9
 3976 1bd5 CF1B0000 		.4byte	0x1bcf
 3977 1bd9 0A       		.uleb128 0xa
 3978 1bda E6000000 		.4byte	0xe6
 3979 1bde EA1B0000 		.4byte	0x1bea
 3980 1be2 0C       		.uleb128 0xc
 3981 1be3 9E000000 		.4byte	0x9e
 3982 1be7 9E05     		.2byte	0x59e
 3983 1be9 00       		.byte	0
 3984 1bea 08       		.uleb128 0x8
 3985 1beb D91B0000 		.4byte	0x1bd9
 3986 1bef 09       		.uleb128 0x9
 3987 1bf0 EA1B0000 		.4byte	0x1bea
 3988 1bf4 08       		.uleb128 0x8
 3989 1bf5 0B010000 		.4byte	0x10b
 3990 1bf9 09       		.uleb128 0x9
 3991 1bfa F41B0000 		.4byte	0x1bf4
 3992 1bfe 08       		.uleb128 0x8
 3993 1bff 6B010000 		.4byte	0x16b
 3994 1c03 09       		.uleb128 0x9
 3995 1c04 FE1B0000 		.4byte	0x1bfe
 3996 1c08 08       		.uleb128 0x8
 3997 1c09 4B010000 		.4byte	0x14b
 3998 1c0d 09       		.uleb128 0x9
 3999 1c0e 081C0000 		.4byte	0x1c08
 4000 1c12 08       		.uleb128 0x8
 4001 1c13 FB000000 		.4byte	0xfb
 4002 1c17 08       		.uleb128 0x8
 4003 1c18 A0010000 		.4byte	0x1a0
 4004 1c1c 09       		.uleb128 0x9
 4005 1c1d 171C0000 		.4byte	0x1c17
 4006 1c21 0A       		.uleb128 0xa
 4007 1c22 E6000000 		.4byte	0xe6
 4008 1c26 311C0000 		.4byte	0x1c31
 4009 1c2a 0B       		.uleb128 0xb
 4010 1c2b 9E000000 		.4byte	0x9e
 4011 1c2f 70       		.byte	0x70
 4012 1c30 00       		.byte	0
 4013 1c31 08       		.uleb128 0x8
 4014 1c32 211C0000 		.4byte	0x1c21
 4015 1c36 09       		.uleb128 0x9
 4016 1c37 311C0000 		.4byte	0x1c31
 4017 1c3b 08       		.uleb128 0x8
 4018 1c3c 7B010000 		.4byte	0x17b
 4019 1c40 09       		.uleb128 0x9
 4020 1c41 3B1C0000 		.4byte	0x1c3b
 4021 1c45 08       		.uleb128 0x8
 4022 1c46 5B010000 		.4byte	0x15b
 4023 1c4a 09       		.uleb128 0x9
 4024 1c4b 451C0000 		.4byte	0x1c45
 4025 1c4f 0A       		.uleb128 0xa
ARM GAS  C:\Users\Nazar\AppData\Local\Temp\ccWQ1kO8.s 			page 102


 4026 1c50 E6000000 		.4byte	0xe6
 4027 1c54 5F1C0000 		.4byte	0x1c5f
 4028 1c58 0B       		.uleb128 0xb
 4029 1c59 9E000000 		.4byte	0x9e
 4030 1c5d EB       		.byte	0xeb
 4031 1c5e 00       		.byte	0
 4032 1c5f 08       		.uleb128 0x8
 4033 1c60 4F1C0000 		.4byte	0x1c4f
 4034 1c64 09       		.uleb128 0x9
 4035 1c65 5F1C0000 		.4byte	0x1c5f
 4036 1c69 08       		.uleb128 0x8
 4037 1c6a B10A0000 		.4byte	0xab1
 4038 1c6e 09       		.uleb128 0x9
 4039 1c6f 691C0000 		.4byte	0x1c69
 4040 1c73 08       		.uleb128 0x8
 4041 1c74 B10A0000 		.4byte	0xab1
 4042 1c78 09       		.uleb128 0x9
 4043 1c79 731C0000 		.4byte	0x1c73
 4044 1c7d 08       		.uleb128 0x8
 4045 1c7e B10A0000 		.4byte	0xab1
 4046 1c82 09       		.uleb128 0x9
 4047 1c83 7D1C0000 		.4byte	0x1c7d
 4048 1c87 08       		.uleb128 0x8
 4049 1c88 B10A0000 		.4byte	0xab1
 4050 1c8c 09       		.uleb128 0x9
 4051 1c8d 871C0000 		.4byte	0x1c87
 4052 1c91 0A       		.uleb128 0xa
 4053 1c92 E6000000 		.4byte	0xe6
 4054 1c96 A21C0000 		.4byte	0x1ca2
 4055 1c9a 0C       		.uleb128 0xc
 4056 1c9b 9E000000 		.4byte	0x9e
 4057 1c9f 3E25     		.2byte	0x253e
 4058 1ca1 00       		.byte	0
 4059 1ca2 08       		.uleb128 0x8
 4060 1ca3 911C0000 		.4byte	0x1c91
 4061 1ca7 09       		.uleb128 0x9
 4062 1ca8 A21C0000 		.4byte	0x1ca2
 4063 1cac 12       		.uleb128 0x12
 4064 1cad 46570000 		.4byte	.LASF578
 4065 1cb1 07       		.byte	0x7
 4066 1cb2 6101     		.2byte	0x161
 4067 1cb4 D00C0000 		.4byte	0xcd0
 4068 1cb8 18       		.uleb128 0x18
 4069 1cb9 0010     		.2byte	0x1000
 4070 1cbb 07       		.byte	0x7
 4071 1cbc 6601     		.2byte	0x166
 4072 1cbe CD1F0000 		.4byte	0x1fcd
 4073 1cc2 19       		.uleb128 0x19
 4074 1cc3 77400000 		.4byte	.LASF297
 4075 1cc7 07       		.byte	0x7
 4076 1cc8 6701     		.2byte	0x167
 4077 1cca D21F0000 		.4byte	0x1fd2
 4078 1cce 00       		.byte	0
 4079 1ccf 19       		.uleb128 0x19
 4080 1cd0 DE390000 		.4byte	.LASF579
 4081 1cd4 07       		.byte	0x7
 4082 1cd5 6801     		.2byte	0x168
ARM GAS  C:\Users\Nazar\AppData\Local\Temp\ccWQ1kO8.s 			page 103


 4083 1cd7 E1000000 		.4byte	0xe1
 4084 1cdb 60       		.byte	0x60
 4085 1cdc 19       		.uleb128 0x19
 4086 1cdd DB340000 		.4byte	.LASF580
 4087 1ce1 07       		.byte	0x7
 4088 1ce2 6901     		.2byte	0x169
 4089 1ce4 E1000000 		.4byte	0xe1
 4090 1ce8 64       		.byte	0x64
 4091 1ce9 19       		.uleb128 0x19
 4092 1cea EC350000 		.4byte	.LASF581
 4093 1cee 07       		.byte	0x7
 4094 1cef 6A01     		.2byte	0x16a
 4095 1cf1 E1000000 		.4byte	0xe1
 4096 1cf5 68       		.byte	0x68
 4097 1cf6 19       		.uleb128 0x19
 4098 1cf7 6A430000 		.4byte	.LASF300
 4099 1cfb 07       		.byte	0x7
 4100 1cfc 6B01     		.2byte	0x16b
 4101 1cfe E1000000 		.4byte	0xe1
 4102 1d02 6C       		.byte	0x6c
 4103 1d03 19       		.uleb128 0x19
 4104 1d04 87450000 		.4byte	.LASF582
 4105 1d08 07       		.byte	0x7
 4106 1d09 6C01     		.2byte	0x16c
 4107 1d0b E1000000 		.4byte	0xe1
 4108 1d0f 70       		.byte	0x70
 4109 1d10 19       		.uleb128 0x19
 4110 1d11 1A370000 		.4byte	.LASF583
 4111 1d15 07       		.byte	0x7
 4112 1d16 6D01     		.2byte	0x16d
 4113 1d18 E1000000 		.4byte	0xe1
 4114 1d1c 74       		.byte	0x74
 4115 1d1d 19       		.uleb128 0x19
 4116 1d1e 1D2B0000 		.4byte	.LASF584
 4117 1d22 07       		.byte	0x7
 4118 1d23 6E01     		.2byte	0x16e
 4119 1d25 E1000000 		.4byte	0xe1
 4120 1d29 78       		.byte	0x78
 4121 1d2a 19       		.uleb128 0x19
 4122 1d2b 532A0000 		.4byte	.LASF307
 4123 1d2f 07       		.byte	0x7
 4124 1d30 6F01     		.2byte	0x16f
 4125 1d32 E6000000 		.4byte	0xe6
 4126 1d36 7C       		.byte	0x7c
 4127 1d37 19       		.uleb128 0x19
 4128 1d38 AE1B0000 		.4byte	.LASF585
 4129 1d3c 07       		.byte	0x7
 4130 1d3d 7001     		.2byte	0x170
 4131 1d3f E6000000 		.4byte	0xe6
 4132 1d43 80       		.byte	0x80
 4133 1d44 19       		.uleb128 0x19
 4134 1d45 B1180000 		.4byte	.LASF586
 4135 1d49 07       		.byte	0x7
 4136 1d4a 7201     		.2byte	0x172
 4137 1d4c E6000000 		.4byte	0xe6
 4138 1d50 84       		.byte	0x84
 4139 1d51 19       		.uleb128 0x19
ARM GAS  C:\Users\Nazar\AppData\Local\Temp\ccWQ1kO8.s 			page 104


 4140 1d52 5D2A0000 		.4byte	.LASF310
 4141 1d56 07       		.byte	0x7
 4142 1d57 7301     		.2byte	0x173
 4143 1d59 DC1F0000 		.4byte	0x1fdc
 4144 1d5d 88       		.byte	0x88
 4145 1d5e 19       		.uleb128 0x19
 4146 1d5f 144D0000 		.4byte	.LASF587
 4147 1d63 07       		.byte	0x7
 4148 1d64 7401     		.2byte	0x174
 4149 1d66 E1000000 		.4byte	0xe1
 4150 1d6a A0       		.byte	0xa0
 4151 1d6b 19       		.uleb128 0x19
 4152 1d6c 2B210000 		.4byte	.LASF588
 4153 1d70 07       		.byte	0x7
 4154 1d71 7501     		.2byte	0x175
 4155 1d73 E1000000 		.4byte	0xe1
 4156 1d77 A4       		.byte	0xa4
 4157 1d78 19       		.uleb128 0x19
 4158 1d79 A4360000 		.4byte	.LASF589
 4159 1d7d 07       		.byte	0x7
 4160 1d7e 7601     		.2byte	0x176
 4161 1d80 E1000000 		.4byte	0xe1
 4162 1d84 A8       		.byte	0xa8
 4163 1d85 19       		.uleb128 0x19
 4164 1d86 B2360000 		.4byte	.LASF590
 4165 1d8a 07       		.byte	0x7
 4166 1d8b 7701     		.2byte	0x177
 4167 1d8d E1000000 		.4byte	0xe1
 4168 1d91 AC       		.byte	0xac
 4169 1d92 19       		.uleb128 0x19
 4170 1d93 7B3E0000 		.4byte	.LASF591
 4171 1d97 07       		.byte	0x7
 4172 1d98 7801     		.2byte	0x178
 4173 1d9a E1000000 		.4byte	0xe1
 4174 1d9e B0       		.byte	0xb0
 4175 1d9f 19       		.uleb128 0x19
 4176 1da0 132B0000 		.4byte	.LASF592
 4177 1da4 07       		.byte	0x7
 4178 1da5 7901     		.2byte	0x179
 4179 1da7 E6000000 		.4byte	0xe6
 4180 1dab B4       		.byte	0xb4
 4181 1dac 19       		.uleb128 0x19
 4182 1dad 0E2C0000 		.4byte	.LASF593
 4183 1db1 07       		.byte	0x7
 4184 1db2 7A01     		.2byte	0x17a
 4185 1db4 E6000000 		.4byte	0xe6
 4186 1db8 B8       		.byte	0xb8
 4187 1db9 19       		.uleb128 0x19
 4188 1dba 672A0000 		.4byte	.LASF334
 4189 1dbe 07       		.byte	0x7
 4190 1dbf 7B01     		.2byte	0x17b
 4191 1dc1 E6000000 		.4byte	0xe6
 4192 1dc5 BC       		.byte	0xbc
 4193 1dc6 19       		.uleb128 0x19
 4194 1dc7 BD1A0000 		.4byte	.LASF594
 4195 1dcb 07       		.byte	0x7
 4196 1dcc 7C01     		.2byte	0x17c
ARM GAS  C:\Users\Nazar\AppData\Local\Temp\ccWQ1kO8.s 			page 105


 4197 1dce E1000000 		.4byte	0xe1
 4198 1dd2 C0       		.byte	0xc0
 4199 1dd3 19       		.uleb128 0x19
 4200 1dd4 F10B0000 		.4byte	.LASF595
 4201 1dd8 07       		.byte	0x7
 4202 1dd9 7D01     		.2byte	0x17d
 4203 1ddb E1000000 		.4byte	0xe1
 4204 1ddf C4       		.byte	0xc4
 4205 1de0 19       		.uleb128 0x19
 4206 1de1 712A0000 		.4byte	.LASF340
 4207 1de5 07       		.byte	0x7
 4208 1de6 7E01     		.2byte	0x17e
 4209 1de8 E61F0000 		.4byte	0x1fe6
 4210 1dec C8       		.byte	0xc8
 4211 1ded 19       		.uleb128 0x19
 4212 1dee 3F1A0000 		.4byte	.LASF596
 4213 1df2 07       		.byte	0x7
 4214 1df3 7F01     		.2byte	0x17f
 4215 1df5 E1000000 		.4byte	0xe1
 4216 1df9 D0       		.byte	0xd0
 4217 1dfa 19       		.uleb128 0x19
 4218 1dfb 7E200000 		.4byte	.LASF597
 4219 1dff 07       		.byte	0x7
 4220 1e00 8001     		.2byte	0x180
 4221 1e02 E1000000 		.4byte	0xe1
 4222 1e06 D4       		.byte	0xd4
 4223 1e07 19       		.uleb128 0x19
 4224 1e08 8E200000 		.4byte	.LASF598
 4225 1e0c 07       		.byte	0x7
 4226 1e0d 8201     		.2byte	0x182
 4227 1e0f E1000000 		.4byte	0xe1
 4228 1e13 D8       		.byte	0xd8
 4229 1e14 19       		.uleb128 0x19
 4230 1e15 9E200000 		.4byte	.LASF599
 4231 1e19 07       		.byte	0x7
 4232 1e1a 8301     		.2byte	0x183
 4233 1e1c E1000000 		.4byte	0xe1
 4234 1e20 DC       		.byte	0xdc
 4235 1e21 19       		.uleb128 0x19
 4236 1e22 34250000 		.4byte	.LASF600
 4237 1e26 07       		.byte	0x7
 4238 1e27 8401     		.2byte	0x184
 4239 1e29 E6000000 		.4byte	0xe6
 4240 1e2d E0       		.byte	0xe0
 4241 1e2e 19       		.uleb128 0x19
 4242 1e2f FC240000 		.4byte	.LASF601
 4243 1e33 07       		.byte	0x7
 4244 1e34 8501     		.2byte	0x185
 4245 1e36 E6000000 		.4byte	0xe6
 4246 1e3a E4       		.byte	0xe4
 4247 1e3b 19       		.uleb128 0x19
 4248 1e3c 5E5A0000 		.4byte	.LASF602
 4249 1e40 07       		.byte	0x7
 4250 1e41 8601     		.2byte	0x186
 4251 1e43 E1000000 		.4byte	0xe1
 4252 1e47 E8       		.byte	0xe8
 4253 1e48 19       		.uleb128 0x19
ARM GAS  C:\Users\Nazar\AppData\Local\Temp\ccWQ1kO8.s 			page 106


 4254 1e49 505A0000 		.4byte	.LASF603
 4255 1e4d 07       		.byte	0x7
 4256 1e4e 8701     		.2byte	0x187
 4257 1e50 E1000000 		.4byte	0xe1
 4258 1e54 EC       		.byte	0xec
 4259 1e55 19       		.uleb128 0x19
 4260 1e56 F6400000 		.4byte	.LASF604
 4261 1e5a 07       		.byte	0x7
 4262 1e5b 8801     		.2byte	0x188
 4263 1e5d E1000000 		.4byte	0xe1
 4264 1e61 F0       		.byte	0xf0
 4265 1e62 19       		.uleb128 0x19
 4266 1e63 C3350000 		.4byte	.LASF605
 4267 1e67 07       		.byte	0x7
 4268 1e68 8901     		.2byte	0x189
 4269 1e6a E6000000 		.4byte	0xe6
 4270 1e6e F4       		.byte	0xf4
 4271 1e6f 19       		.uleb128 0x19
 4272 1e70 7B2A0000 		.4byte	.LASF346
 4273 1e74 07       		.byte	0x7
 4274 1e75 8A01     		.2byte	0x18a
 4275 1e77 F01F0000 		.4byte	0x1ff0
 4276 1e7b F8       		.byte	0xf8
 4277 1e7c 16       		.uleb128 0x16
 4278 1e7d 8B440000 		.4byte	.LASF606
 4279 1e81 07       		.byte	0x7
 4280 1e82 8B01     		.2byte	0x18b
 4281 1e84 E1000000 		.4byte	0xe1
 4282 1e88 0001     		.2byte	0x100
 4283 1e8a 16       		.uleb128 0x16
 4284 1e8b 9B440000 		.4byte	.LASF607
 4285 1e8f 07       		.byte	0x7
 4286 1e90 8C01     		.2byte	0x18c
 4287 1e92 E1000000 		.4byte	0xe1
 4288 1e96 0401     		.2byte	0x104
 4289 1e98 16       		.uleb128 0x16
 4290 1e99 714C0000 		.4byte	.LASF608
 4291 1e9d 07       		.byte	0x7
 4292 1e9e 8D01     		.2byte	0x18d
 4293 1ea0 E1000000 		.4byte	0xe1
 4294 1ea4 0801     		.2byte	0x108
 4295 1ea6 16       		.uleb128 0x16
 4296 1ea7 8E0A0000 		.4byte	.LASF609
 4297 1eab 07       		.byte	0x7
 4298 1eac 8E01     		.2byte	0x18e
 4299 1eae E1000000 		.4byte	0xe1
 4300 1eb2 0C01     		.2byte	0x10c
 4301 1eb4 16       		.uleb128 0x16
 4302 1eb5 1D550000 		.4byte	.LASF610
 4303 1eb9 07       		.byte	0x7
 4304 1eba 8F01     		.2byte	0x18f
 4305 1ebc F51F0000 		.4byte	0x1ff5
 4306 1ec0 1001     		.2byte	0x110
 4307 1ec2 16       		.uleb128 0x16
 4308 1ec3 08220000 		.4byte	.LASF611
 4309 1ec7 07       		.byte	0x7
 4310 1ec8 9001     		.2byte	0x190
ARM GAS  C:\Users\Nazar\AppData\Local\Temp\ccWQ1kO8.s 			page 107


 4311 1eca E1000000 		.4byte	0xe1
 4312 1ece 2001     		.2byte	0x120
 4313 1ed0 16       		.uleb128 0x16
 4314 1ed1 CF220000 		.4byte	.LASF612
 4315 1ed5 07       		.byte	0x7
 4316 1ed6 9101     		.2byte	0x191
 4317 1ed8 E6000000 		.4byte	0xe6
 4318 1edc 2401     		.2byte	0x124
 4319 1ede 16       		.uleb128 0x16
 4320 1edf 0B240000 		.4byte	.LASF613
 4321 1ee3 07       		.byte	0x7
 4322 1ee4 9201     		.2byte	0x192
 4323 1ee6 E1000000 		.4byte	0xe1
 4324 1eea 2801     		.2byte	0x128
 4325 1eec 16       		.uleb128 0x16
 4326 1eed 251F0000 		.4byte	.LASF614
 4327 1ef1 07       		.byte	0x7
 4328 1ef2 9301     		.2byte	0x193
 4329 1ef4 E1000000 		.4byte	0xe1
 4330 1ef8 2C01     		.2byte	0x12c
 4331 1efa 16       		.uleb128 0x16
 4332 1efb 61150000 		.4byte	.LASF615
 4333 1eff 07       		.byte	0x7
 4334 1f00 9401     		.2byte	0x194
 4335 1f02 E1000000 		.4byte	0xe1
 4336 1f06 3001     		.2byte	0x130
 4337 1f08 16       		.uleb128 0x16
 4338 1f09 7F390000 		.4byte	.LASF616
 4339 1f0d 07       		.byte	0x7
 4340 1f0e 9501     		.2byte	0x195
 4341 1f10 E1000000 		.4byte	0xe1
 4342 1f14 3401     		.2byte	0x134
 4343 1f16 16       		.uleb128 0x16
 4344 1f17 852A0000 		.4byte	.LASF350
 4345 1f1b 07       		.byte	0x7
 4346 1f1c 9601     		.2byte	0x196
 4347 1f1e FF1F0000 		.4byte	0x1fff
 4348 1f22 3801     		.2byte	0x138
 4349 1f24 16       		.uleb128 0x16
 4350 1f25 874A0000 		.4byte	.LASF617
 4351 1f29 07       		.byte	0x7
 4352 1f2a 9701     		.2byte	0x197
 4353 1f2c 04200000 		.4byte	0x2004
 4354 1f30 4001     		.2byte	0x140
 4355 1f32 16       		.uleb128 0x16
 4356 1f33 60100000 		.4byte	.LASF618
 4357 1f37 07       		.byte	0x7
 4358 1f38 9801     		.2byte	0x198
 4359 1f3a E1000000 		.4byte	0xe1
 4360 1f3e 5001     		.2byte	0x150
 4361 1f40 16       		.uleb128 0x16
 4362 1f41 8F2A0000 		.4byte	.LASF358
 4363 1f45 07       		.byte	0x7
 4364 1f46 9901     		.2byte	0x199
 4365 1f48 1F200000 		.4byte	0x201f
 4366 1f4c 5401     		.2byte	0x154
 4367 1f4e 16       		.uleb128 0x16
ARM GAS  C:\Users\Nazar\AppData\Local\Temp\ccWQ1kO8.s 			page 108


 4368 1f4f F93F0000 		.4byte	.LASF619
 4369 1f53 07       		.byte	0x7
 4370 1f54 9A01     		.2byte	0x19a
 4371 1f56 E1000000 		.4byte	0xe1
 4372 1f5a 000F     		.2byte	0xf00
 4373 1f5c 16       		.uleb128 0x16
 4374 1f5d AB100000 		.4byte	.LASF620
 4375 1f61 07       		.byte	0x7
 4376 1f62 9B01     		.2byte	0x19b
 4377 1f64 E1000000 		.4byte	0xe1
 4378 1f68 040F     		.2byte	0xf04
 4379 1f6a 16       		.uleb128 0x16
 4380 1f6b 0E400000 		.4byte	.LASF621
 4381 1f6f 07       		.byte	0x7
 4382 1f70 9C01     		.2byte	0x19c
 4383 1f72 E1000000 		.4byte	0xe1
 4384 1f76 080F     		.2byte	0xf08
 4385 1f78 16       		.uleb128 0x16
 4386 1f79 19400000 		.4byte	.LASF622
 4387 1f7d 07       		.byte	0x7
 4388 1f7e 9D01     		.2byte	0x19d
 4389 1f80 E1000000 		.4byte	0xe1
 4390 1f84 0C0F     		.2byte	0xf0c
 4391 1f86 16       		.uleb128 0x16
 4392 1f87 C44B0000 		.4byte	.LASF623
 4393 1f8b 07       		.byte	0x7
 4394 1f8c 9E01     		.2byte	0x19e
 4395 1f8e 24200000 		.4byte	0x2024
 4396 1f92 100F     		.2byte	0xf10
 4397 1f94 16       		.uleb128 0x16
 4398 1f95 992A0000 		.4byte	.LASF362
 4399 1f99 07       		.byte	0x7
 4400 1f9a 9F01     		.2byte	0x19f
 4401 1f9c 2E200000 		.4byte	0x202e
 4402 1fa0 200F     		.2byte	0xf20
 4403 1fa2 16       		.uleb128 0x16
 4404 1fa3 24400000 		.4byte	.LASF624
 4405 1fa7 07       		.byte	0x7
 4406 1fa8 A001     		.2byte	0x1a0
 4407 1faa E1000000 		.4byte	0xe1
 4408 1fae 300F     		.2byte	0xf30
 4409 1fb0 16       		.uleb128 0x16
 4410 1fb1 2F400000 		.4byte	.LASF625
 4411 1fb5 07       		.byte	0x7
 4412 1fb6 A101     		.2byte	0x1a1
 4413 1fb8 E1000000 		.4byte	0xe1
 4414 1fbc 340F     		.2byte	0xf34
 4415 1fbe 16       		.uleb128 0x16
 4416 1fbf A32A0000 		.4byte	.LASF366
 4417 1fc3 07       		.byte	0x7
 4418 1fc4 A201     		.2byte	0x1a2
 4419 1fc6 48200000 		.4byte	0x2048
 4420 1fca 380F     		.2byte	0xf38
 4421 1fcc 00       		.byte	0
 4422 1fcd 08       		.uleb128 0x8
 4423 1fce B0010000 		.4byte	0x1b0
 4424 1fd2 09       		.uleb128 0x9
ARM GAS  C:\Users\Nazar\AppData\Local\Temp\ccWQ1kO8.s 			page 109


 4425 1fd3 CD1F0000 		.4byte	0x1fcd
 4426 1fd7 08       		.uleb128 0x8
 4427 1fd8 D0010000 		.4byte	0x1d0
 4428 1fdc 09       		.uleb128 0x9
 4429 1fdd D71F0000 		.4byte	0x1fd7
 4430 1fe1 08       		.uleb128 0x8
 4431 1fe2 7B010000 		.4byte	0x17b
 4432 1fe6 09       		.uleb128 0x9
 4433 1fe7 E11F0000 		.4byte	0x1fe1
 4434 1feb 08       		.uleb128 0x8
 4435 1fec 7B010000 		.4byte	0x17b
 4436 1ff0 09       		.uleb128 0x9
 4437 1ff1 EB1F0000 		.4byte	0x1feb
 4438 1ff5 08       		.uleb128 0x8
 4439 1ff6 2B010000 		.4byte	0x12b
 4440 1ffa 08       		.uleb128 0x8
 4441 1ffb 7B010000 		.4byte	0x17b
 4442 1fff 09       		.uleb128 0x9
 4443 2000 FA1F0000 		.4byte	0x1ffa
 4444 2004 08       		.uleb128 0x8
 4445 2005 2B010000 		.4byte	0x12b
 4446 2009 0A       		.uleb128 0xa
 4447 200a E6000000 		.4byte	0xe6
 4448 200e 1A200000 		.4byte	0x201a
 4449 2012 0C       		.uleb128 0xc
 4450 2013 9E000000 		.4byte	0x9e
 4451 2017 6A03     		.2byte	0x36a
 4452 2019 00       		.byte	0
 4453 201a 08       		.uleb128 0x8
 4454 201b 09200000 		.4byte	0x2009
 4455 201f 09       		.uleb128 0x9
 4456 2020 1A200000 		.4byte	0x201a
 4457 2024 08       		.uleb128 0x8
 4458 2025 2B010000 		.4byte	0x12b
 4459 2029 08       		.uleb128 0x8
 4460 202a 0B010000 		.4byte	0x10b
 4461 202e 09       		.uleb128 0x9
 4462 202f 29200000 		.4byte	0x2029
 4463 2033 0A       		.uleb128 0xa
 4464 2034 E6000000 		.4byte	0xe6
 4465 2038 43200000 		.4byte	0x2043
 4466 203c 0B       		.uleb128 0xb
 4467 203d 9E000000 		.4byte	0x9e
 4468 2041 31       		.byte	0x31
 4469 2042 00       		.byte	0
 4470 2043 08       		.uleb128 0x8
 4471 2044 33200000 		.4byte	0x2033
 4472 2048 09       		.uleb128 0x9
 4473 2049 43200000 		.4byte	0x2043
 4474 204d 12       		.uleb128 0x12
 4475 204e 9A4D0000 		.4byte	.LASF626
 4476 2052 07       		.byte	0x7
 4477 2053 A301     		.2byte	0x1a3
 4478 2055 B81C0000 		.4byte	0x1cb8
 4479 2059 1A       		.uleb128 0x1a
 4480 205a 00000200 		.4byte	0x20000
 4481 205e 07       		.byte	0x7
ARM GAS  C:\Users\Nazar\AppData\Local\Temp\ccWQ1kO8.s 			page 110


 4482 205f A801     		.2byte	0x1a8
 4483 2061 9F200000 		.4byte	0x209f
 4484 2065 1B       		.uleb128 0x1b
 4485 2066 52434200 		.ascii	"RCB\000"
 4486 206a 07       		.byte	0x7
 4487 206b A901     		.2byte	0x1a9
 4488 206d C50C0000 		.4byte	0xcc5
 4489 2071 00       		.byte	0
 4490 2072 16       		.uleb128 0x16
 4491 2073 77400000 		.4byte	.LASF297
 4492 2077 07       		.byte	0x7
 4493 2078 AA01     		.2byte	0x1aa
 4494 207a A4200000 		.4byte	0x20a4
 4495 207e 0002     		.2byte	0x200
 4496 2080 16       		.uleb128 0x16
 4497 2081 45000000 		.4byte	.LASF627
 4498 2085 07       		.byte	0x7
 4499 2086 AB01     		.2byte	0x1ab
 4500 2088 AC1C0000 		.4byte	0x1cac
 4501 208c 0010     		.2byte	0x1000
 4502 208e 17       		.uleb128 0x17
 4503 208f 1B4E0000 		.4byte	.LASF628
 4504 2093 07       		.byte	0x7
 4505 2094 AC01     		.2byte	0x1ac
 4506 2096 4D200000 		.4byte	0x204d
 4507 209a 00F00100 		.4byte	0x1f000
 4508 209e 00       		.byte	0
 4509 209f 08       		.uleb128 0x8
 4510 20a0 F1010000 		.4byte	0x1f1
 4511 20a4 09       		.uleb128 0x9
 4512 20a5 9F200000 		.4byte	0x209f
 4513 20a9 12       		.uleb128 0x12
 4514 20aa 972B0000 		.4byte	.LASF629
 4515 20ae 07       		.byte	0x7
 4516 20af AD01     		.2byte	0x1ad
 4517 20b1 59200000 		.4byte	0x2059
 4518 20b5 12       		.uleb128 0x12
 4519 20b6 C81A0000 		.4byte	.LASF630
 4520 20ba 08       		.byte	0x8
 4521 20bb 4806     		.2byte	0x648
 4522 20bd A9200000 		.4byte	0x20a9
 4523 20c1 03       		.uleb128 0x3
 4524 20c2 04       		.byte	0x4
 4525 20c3 04       		.byte	0x4
 4526 20c4 B12D0000 		.4byte	.LASF631
 4527 20c8 03       		.uleb128 0x3
 4528 20c9 08       		.byte	0x8
 4529 20ca 04       		.byte	0x4
 4530 20cb 501E0000 		.4byte	.LASF632
 4531 20cf 1C       		.uleb128 0x1c
 4532 20d0 08       		.byte	0x8
 4533 20d1 09       		.byte	0x9
 4534 20d2 2D01     		.2byte	0x12d
 4535 20d4 00210000 		.4byte	0x2100
 4536 20d8 19       		.uleb128 0x19
 4537 20d9 4A2E0000 		.4byte	.LASF633
 4538 20dd 09       		.byte	0x9
ARM GAS  C:\Users\Nazar\AppData\Local\Temp\ccWQ1kO8.s 			page 111


 4539 20de 2E01     		.2byte	0x12e
 4540 20e0 15070000 		.4byte	0x715
 4541 20e4 00       		.byte	0
 4542 20e5 19       		.uleb128 0x19
 4543 20e6 694C0000 		.4byte	.LASF634
 4544 20ea 09       		.byte	0x9
 4545 20eb 3001     		.2byte	0x130
 4546 20ed A50A0000 		.4byte	0xaa5
 4547 20f1 02       		.byte	0x2
 4548 20f2 19       		.uleb128 0x19
 4549 20f3 D74F0000 		.4byte	.LASF635
 4550 20f7 09       		.byte	0x9
 4551 20f8 3201     		.2byte	0x132
 4552 20fa D6000000 		.4byte	0xd6
 4553 20fe 04       		.byte	0x4
 4554 20ff 00       		.byte	0
 4555 2100 12       		.uleb128 0x12
 4556 2101 40350000 		.4byte	.LASF636
 4557 2105 09       		.byte	0x9
 4558 2106 3301     		.2byte	0x133
 4559 2108 CF200000 		.4byte	0x20cf
 4560 210c 1D       		.uleb128 0x1d
 4561 210d 04       		.byte	0x4
 4562 210e 2C000000 		.4byte	0x2c
 4563 2112 0A       		.byte	0xa
 4564 2113 1405     		.2byte	0x514
 4565 2115 4D210000 		.4byte	0x214d
 4566 2119 11       		.uleb128 0x11
 4567 211a 275A0000 		.4byte	.LASF637
 4568 211e 00       		.byte	0
 4569 211f 1E       		.uleb128 0x1e
 4570 2120 04140000 		.4byte	.LASF638
 4571 2124 01004200 		.4byte	0x420001
 4572 2128 1E       		.uleb128 0x1e
 4573 2129 D8250000 		.4byte	.LASF639
 4574 212d 02004200 		.4byte	0x420002
 4575 2131 1E       		.uleb128 0x1e
 4576 2132 D7240000 		.4byte	.LASF640
 4577 2136 03004200 		.4byte	0x420003
 4578 213a 1E       		.uleb128 0x1e
 4579 213b 02040000 		.4byte	.LASF641
 4580 213f 04004200 		.4byte	0x420004
 4581 2143 1E       		.uleb128 0x1e
 4582 2144 FB060000 		.4byte	.LASF642
 4583 2148 FF004200 		.4byte	0x4200ff
 4584 214c 00       		.byte	0
 4585 214d 12       		.uleb128 0x12
 4586 214e 2D5B0000 		.4byte	.LASF643
 4587 2152 0A       		.byte	0xa
 4588 2153 1C05     		.2byte	0x51c
 4589 2155 0C210000 		.4byte	0x210c
 4590 2159 1D       		.uleb128 0x1d
 4591 215a 01       		.byte	0x1
 4592 215b 53000000 		.4byte	0x53
 4593 215f 0A       		.byte	0xa
 4594 2160 2305     		.2byte	0x523
 4595 2162 73210000 		.4byte	0x2173
ARM GAS  C:\Users\Nazar\AppData\Local\Temp\ccWQ1kO8.s 			page 112


 4596 2166 11       		.uleb128 0x11
 4597 2167 C4380000 		.4byte	.LASF644
 4598 216b 00       		.byte	0
 4599 216c 11       		.uleb128 0x11
 4600 216d 1A0E0000 		.4byte	.LASF645
 4601 2171 01       		.byte	0x1
 4602 2172 00       		.byte	0
 4603 2173 1D       		.uleb128 0x1d
 4604 2174 01       		.byte	0x1
 4605 2175 53000000 		.4byte	0x53
 4606 2179 0A       		.byte	0xa
 4607 217a B205     		.2byte	0x5b2
 4608 217c 9F210000 		.4byte	0x219f
 4609 2180 11       		.uleb128 0x11
 4610 2181 85490000 		.4byte	.LASF646
 4611 2185 00       		.byte	0
 4612 2186 11       		.uleb128 0x11
 4613 2187 B63C0000 		.4byte	.LASF647
 4614 218b 01       		.byte	0x1
 4615 218c 11       		.uleb128 0x11
 4616 218d 6D230000 		.4byte	.LASF648
 4617 2191 02       		.byte	0x2
 4618 2192 11       		.uleb128 0x11
 4619 2193 23560000 		.4byte	.LASF649
 4620 2197 03       		.byte	0x3
 4621 2198 11       		.uleb128 0x11
 4622 2199 36300000 		.4byte	.LASF650
 4623 219d 04       		.byte	0x4
 4624 219e 00       		.byte	0
 4625 219f 12       		.uleb128 0x12
 4626 21a0 AD000000 		.4byte	.LASF651
 4627 21a4 0A       		.byte	0xa
 4628 21a5 B805     		.2byte	0x5b8
 4629 21a7 73210000 		.4byte	0x2173
 4630 21ab 1D       		.uleb128 0x1d
 4631 21ac 01       		.byte	0x1
 4632 21ad 53000000 		.4byte	0x53
 4633 21b1 0A       		.byte	0xa
 4634 21b2 BC05     		.2byte	0x5bc
 4635 21b4 D1210000 		.4byte	0x21d1
 4636 21b8 11       		.uleb128 0x11
 4637 21b9 AE590000 		.4byte	.LASF652
 4638 21bd 01       		.byte	0x1
 4639 21be 11       		.uleb128 0x11
 4640 21bf 33450000 		.4byte	.LASF653
 4641 21c3 02       		.byte	0x2
 4642 21c4 11       		.uleb128 0x11
 4643 21c5 624D0000 		.4byte	.LASF654
 4644 21c9 04       		.byte	0x4
 4645 21ca 11       		.uleb128 0x11
 4646 21cb D2350000 		.4byte	.LASF655
 4647 21cf 08       		.byte	0x8
 4648 21d0 00       		.byte	0
 4649 21d1 12       		.uleb128 0x12
 4650 21d2 213F0000 		.4byte	.LASF656
 4651 21d6 0A       		.byte	0xa
 4652 21d7 CB05     		.2byte	0x5cb
ARM GAS  C:\Users\Nazar\AppData\Local\Temp\ccWQ1kO8.s 			page 113


 4653 21d9 AB210000 		.4byte	0x21ab
 4654 21dd 1C       		.uleb128 0x1c
 4655 21de 08       		.byte	0x8
 4656 21df 0A       		.byte	0xa
 4657 21e0 E705     		.2byte	0x5e7
 4658 21e2 01220000 		.4byte	0x2201
 4659 21e6 19       		.uleb128 0x19
 4660 21e7 092C0000 		.4byte	.LASF657
 4661 21eb 0A       		.byte	0xa
 4662 21ec E905     		.2byte	0x5e9
 4663 21ee A5000000 		.4byte	0xa5
 4664 21f2 00       		.byte	0
 4665 21f3 19       		.uleb128 0x19
 4666 21f4 0D480000 		.4byte	.LASF658
 4667 21f8 0A       		.byte	0xa
 4668 21f9 EC05     		.2byte	0x5ec
 4669 21fb A5000000 		.4byte	0xa5
 4670 21ff 04       		.byte	0x4
 4671 2200 00       		.byte	0
 4672 2201 12       		.uleb128 0x12
 4673 2202 CB580000 		.4byte	.LASF659
 4674 2206 0A       		.byte	0xa
 4675 2207 EF05     		.2byte	0x5ef
 4676 2209 DD210000 		.4byte	0x21dd
 4677 220d 12       		.uleb128 0x12
 4678 220e 170C0000 		.4byte	.LASF660
 4679 2212 0A       		.byte	0xa
 4680 2213 F205     		.2byte	0x5f2
 4681 2215 19220000 		.4byte	0x2219
 4682 2219 06       		.uleb128 0x6
 4683 221a 04       		.byte	0x4
 4684 221b 1F220000 		.4byte	0x221f
 4685 221f 1F       		.uleb128 0x1f
 4686 2220 4D210000 		.4byte	0x214d
 4687 2224 33220000 		.4byte	0x2233
 4688 2228 20       		.uleb128 0x20
 4689 2229 33220000 		.4byte	0x2233
 4690 222d 20       		.uleb128 0x20
 4691 222e D1210000 		.4byte	0x21d1
 4692 2232 00       		.byte	0
 4693 2233 06       		.uleb128 0x6
 4694 2234 04       		.byte	0x4
 4695 2235 01220000 		.4byte	0x2201
 4696 2239 21       		.uleb128 0x21
 4697 223a 88390000 		.4byte	.LASF1115
 4698 223e 18       		.byte	0x18
 4699 223f 0A       		.byte	0xa
 4700 2240 F505     		.2byte	0x5f5
 4701 2242 95220000 		.4byte	0x2295
 4702 2246 19       		.uleb128 0x19
 4703 2247 E3320000 		.4byte	.LASF661
 4704 224b 0A       		.byte	0xa
 4705 224c F705     		.2byte	0x5f7
 4706 224e 0D220000 		.4byte	0x220d
 4707 2252 00       		.byte	0
 4708 2253 19       		.uleb128 0x19
 4709 2254 C6320000 		.4byte	.LASF662
ARM GAS  C:\Users\Nazar\AppData\Local\Temp\ccWQ1kO8.s 			page 114


 4710 2258 0A       		.byte	0xa
 4711 2259 F805     		.2byte	0x5f8
 4712 225b 9F210000 		.4byte	0x219f
 4713 225f 04       		.byte	0x4
 4714 2260 19       		.uleb128 0x19
 4715 2261 FA1F0000 		.4byte	.LASF663
 4716 2265 0A       		.byte	0xa
 4717 2266 F905     		.2byte	0x5f9
 4718 2268 D6000000 		.4byte	0xd6
 4719 226c 08       		.byte	0x8
 4720 226d 19       		.uleb128 0x19
 4721 226e 39390000 		.4byte	.LASF664
 4722 2272 0A       		.byte	0xa
 4723 2273 0106     		.2byte	0x601
 4724 2275 33220000 		.4byte	0x2233
 4725 2279 0C       		.byte	0xc
 4726 227a 19       		.uleb128 0x19
 4727 227b E2170000 		.4byte	.LASF665
 4728 227f 0A       		.byte	0xa
 4729 2280 0406     		.2byte	0x604
 4730 2282 95220000 		.4byte	0x2295
 4731 2286 10       		.byte	0x10
 4732 2287 19       		.uleb128 0x19
 4733 2288 D62B0000 		.4byte	.LASF666
 4734 228c 0A       		.byte	0xa
 4735 228d 0A06     		.2byte	0x60a
 4736 228f 95220000 		.4byte	0x2295
 4737 2293 14       		.byte	0x14
 4738 2294 00       		.byte	0
 4739 2295 06       		.uleb128 0x6
 4740 2296 04       		.byte	0x4
 4741 2297 39220000 		.4byte	0x2239
 4742 229b 12       		.uleb128 0x12
 4743 229c 15270000 		.4byte	.LASF667
 4744 22a0 0A       		.byte	0xa
 4745 22a1 0F06     		.2byte	0x60f
 4746 22a3 39220000 		.4byte	0x2239
 4747 22a7 1D       		.uleb128 0x1d
 4748 22a8 02       		.byte	0x2
 4749 22a9 77000000 		.4byte	0x77
 4750 22ad 0B       		.byte	0xb
 4751 22ae 5401     		.2byte	0x154
 4752 22b0 E7250000 		.4byte	0x25e7
 4753 22b4 11       		.uleb128 0x11
 4754 22b5 EC140000 		.4byte	.LASF668
 4755 22b9 00       		.byte	0
 4756 22ba 22       		.uleb128 0x22
 4757 22bb 63370000 		.4byte	.LASF669
 4758 22bf 0010     		.2byte	0x1000
 4759 22c1 22       		.uleb128 0x22
 4760 22c2 A7570000 		.4byte	.LASF670
 4761 22c6 0110     		.2byte	0x1001
 4762 22c8 22       		.uleb128 0x22
 4763 22c9 A2260000 		.4byte	.LASF671
 4764 22cd 0210     		.2byte	0x1002
 4765 22cf 22       		.uleb128 0x22
 4766 22d0 ED0A0000 		.4byte	.LASF672
ARM GAS  C:\Users\Nazar\AppData\Local\Temp\ccWQ1kO8.s 			page 115


 4767 22d4 0310     		.2byte	0x1003
 4768 22d6 22       		.uleb128 0x22
 4769 22d7 E0150000 		.4byte	.LASF673
 4770 22db 0410     		.2byte	0x1004
 4771 22dd 22       		.uleb128 0x22
 4772 22de 95590000 		.4byte	.LASF674
 4773 22e2 0510     		.2byte	0x1005
 4774 22e4 22       		.uleb128 0x22
 4775 22e5 12090000 		.4byte	.LASF675
 4776 22e9 0020     		.2byte	0x2000
 4777 22eb 22       		.uleb128 0x22
 4778 22ec C4030000 		.4byte	.LASF676
 4779 22f0 0120     		.2byte	0x2001
 4780 22f2 22       		.uleb128 0x22
 4781 22f3 BF260000 		.4byte	.LASF677
 4782 22f7 0220     		.2byte	0x2002
 4783 22f9 22       		.uleb128 0x22
 4784 22fa 58570000 		.4byte	.LASF678
 4785 22fe 0320     		.2byte	0x2003
 4786 2300 22       		.uleb128 0x22
 4787 2301 1C040000 		.4byte	.LASF679
 4788 2305 0420     		.2byte	0x2004
 4789 2307 22       		.uleb128 0x22
 4790 2308 F6380000 		.4byte	.LASF680
 4791 230c 0520     		.2byte	0x2005
 4792 230e 22       		.uleb128 0x22
 4793 230f 15060000 		.4byte	.LASF681
 4794 2313 0620     		.2byte	0x2006
 4795 2315 22       		.uleb128 0x22
 4796 2316 52080000 		.4byte	.LASF682
 4797 231a 0720     		.2byte	0x2007
 4798 231c 22       		.uleb128 0x22
 4799 231d 6F540000 		.4byte	.LASF683
 4800 2321 0820     		.2byte	0x2008
 4801 2323 22       		.uleb128 0x22
 4802 2324 820F0000 		.4byte	.LASF684
 4803 2328 0920     		.2byte	0x2009
 4804 232a 22       		.uleb128 0x22
 4805 232b E0000000 		.4byte	.LASF685
 4806 232f 0A20     		.2byte	0x200a
 4807 2331 22       		.uleb128 0x22
 4808 2332 E4270000 		.4byte	.LASF686
 4809 2336 0B20     		.2byte	0x200b
 4810 2338 22       		.uleb128 0x22
 4811 2339 C2110000 		.4byte	.LASF687
 4812 233d 0C20     		.2byte	0x200c
 4813 233f 22       		.uleb128 0x22
 4814 2340 611B0000 		.4byte	.LASF688
 4815 2344 0D20     		.2byte	0x200d
 4816 2346 22       		.uleb128 0x22
 4817 2347 513A0000 		.4byte	.LASF689
 4818 234b 0E20     		.2byte	0x200e
 4819 234d 22       		.uleb128 0x22
 4820 234e 8C480000 		.4byte	.LASF690
 4821 2352 0F20     		.2byte	0x200f
 4822 2354 22       		.uleb128 0x22
 4823 2355 46120000 		.4byte	.LASF691
ARM GAS  C:\Users\Nazar\AppData\Local\Temp\ccWQ1kO8.s 			page 116


 4824 2359 1020     		.2byte	0x2010
 4825 235b 22       		.uleb128 0x22
 4826 235c E8260000 		.4byte	.LASF692
 4827 2360 1120     		.2byte	0x2011
 4828 2362 22       		.uleb128 0x22
 4829 2363 330A0000 		.4byte	.LASF693
 4830 2367 1220     		.2byte	0x2012
 4831 2369 22       		.uleb128 0x22
 4832 236a F4290000 		.4byte	.LASF694
 4833 236e 1320     		.2byte	0x2013
 4834 2370 22       		.uleb128 0x22
 4835 2371 36170000 		.4byte	.LASF695
 4836 2375 1420     		.2byte	0x2014
 4837 2377 22       		.uleb128 0x22
 4838 2378 952D0000 		.4byte	.LASF696
 4839 237c 1520     		.2byte	0x2015
 4840 237e 22       		.uleb128 0x22
 4841 237f 57290000 		.4byte	.LASF697
 4842 2383 1620     		.2byte	0x2016
 4843 2385 22       		.uleb128 0x22
 4844 2386 2E2A0000 		.4byte	.LASF698
 4845 238a 1720     		.2byte	0x2017
 4846 238c 22       		.uleb128 0x22
 4847 238d 253C0000 		.4byte	.LASF699
 4848 2391 0030     		.2byte	0x3000
 4849 2393 22       		.uleb128 0x22
 4850 2394 36360000 		.4byte	.LASF700
 4851 2398 0130     		.2byte	0x3001
 4852 239a 22       		.uleb128 0x22
 4853 239b EB5A0000 		.4byte	.LASF701
 4854 239f 0230     		.2byte	0x3002
 4855 23a1 22       		.uleb128 0x22
 4856 23a2 E74E0000 		.4byte	.LASF702
 4857 23a6 0330     		.2byte	0x3003
 4858 23a8 22       		.uleb128 0x22
 4859 23a9 E01A0000 		.4byte	.LASF703
 4860 23ad 0430     		.2byte	0x3004
 4861 23af 22       		.uleb128 0x22
 4862 23b0 B33F0000 		.4byte	.LASF704
 4863 23b4 0530     		.2byte	0x3005
 4864 23b6 22       		.uleb128 0x22
 4865 23b7 26070000 		.4byte	.LASF705
 4866 23bb 0630     		.2byte	0x3006
 4867 23bd 22       		.uleb128 0x22
 4868 23be E2020000 		.4byte	.LASF706
 4869 23c2 0730     		.2byte	0x3007
 4870 23c4 22       		.uleb128 0x22
 4871 23c5 383E0000 		.4byte	.LASF707
 4872 23c9 0830     		.2byte	0x3008
 4873 23cb 22       		.uleb128 0x22
 4874 23cc AA530000 		.4byte	.LASF708
 4875 23d0 0930     		.2byte	0x3009
 4876 23d2 22       		.uleb128 0x22
 4877 23d3 C03E0000 		.4byte	.LASF709
 4878 23d7 0A30     		.2byte	0x300a
 4879 23d9 22       		.uleb128 0x22
 4880 23da 581D0000 		.4byte	.LASF710
ARM GAS  C:\Users\Nazar\AppData\Local\Temp\ccWQ1kO8.s 			page 117


 4881 23de 0B30     		.2byte	0x300b
 4882 23e0 22       		.uleb128 0x22
 4883 23e1 494E0000 		.4byte	.LASF711
 4884 23e5 0C30     		.2byte	0x300c
 4885 23e7 22       		.uleb128 0x22
 4886 23e8 AC4F0000 		.4byte	.LASF712
 4887 23ec 1130     		.2byte	0x3011
 4888 23ee 22       		.uleb128 0x22
 4889 23ef D4480000 		.4byte	.LASF713
 4890 23f3 1230     		.2byte	0x3012
 4891 23f5 22       		.uleb128 0x22
 4892 23f6 022D0000 		.4byte	.LASF714
 4893 23fa 1330     		.2byte	0x3013
 4894 23fc 22       		.uleb128 0x22
 4895 23fd BB070000 		.4byte	.LASF715
 4896 2401 1430     		.2byte	0x3014
 4897 2403 22       		.uleb128 0x22
 4898 2404 42370000 		.4byte	.LASF716
 4899 2408 1530     		.2byte	0x3015
 4900 240a 22       		.uleb128 0x22
 4901 240b 13120000 		.4byte	.LASF717
 4902 240f 1630     		.2byte	0x3016
 4903 2411 22       		.uleb128 0x22
 4904 2412 55360000 		.4byte	.LASF718
 4905 2416 1730     		.2byte	0x3017
 4906 2418 22       		.uleb128 0x22
 4907 2419 34440000 		.4byte	.LASF719
 4908 241d 1830     		.2byte	0x3018
 4909 241f 22       		.uleb128 0x22
 4910 2420 0D2F0000 		.4byte	.LASF720
 4911 2424 1930     		.2byte	0x3019
 4912 2426 22       		.uleb128 0x22
 4913 2427 DD2C0000 		.4byte	.LASF721
 4914 242b 0040     		.2byte	0x4000
 4915 242d 22       		.uleb128 0x22
 4916 242e 39550000 		.4byte	.LASF722
 4917 2432 0140     		.2byte	0x4001
 4918 2434 22       		.uleb128 0x22
 4919 2435 99430000 		.4byte	.LASF723
 4920 2439 0240     		.2byte	0x4002
 4921 243b 22       		.uleb128 0x22
 4922 243c 83370000 		.4byte	.LASF724
 4923 2440 0340     		.2byte	0x4003
 4924 2442 22       		.uleb128 0x22
 4925 2443 44340000 		.4byte	.LASF725
 4926 2447 0440     		.2byte	0x4004
 4927 2449 22       		.uleb128 0x22
 4928 244a A74E0000 		.4byte	.LASF726
 4929 244e 0540     		.2byte	0x4005
 4930 2450 22       		.uleb128 0x22
 4931 2451 F0100000 		.4byte	.LASF727
 4932 2455 0640     		.2byte	0x4006
 4933 2457 22       		.uleb128 0x22
 4934 2458 5E200000 		.4byte	.LASF728
 4935 245c 0740     		.2byte	0x4007
 4936 245e 22       		.uleb128 0x22
 4937 245f 90560000 		.4byte	.LASF729
ARM GAS  C:\Users\Nazar\AppData\Local\Temp\ccWQ1kO8.s 			page 118


 4938 2463 0840     		.2byte	0x4008
 4939 2465 22       		.uleb128 0x22
 4940 2466 AE470000 		.4byte	.LASF730
 4941 246a 0940     		.2byte	0x4009
 4942 246c 22       		.uleb128 0x22
 4943 246d 560E0000 		.4byte	.LASF731
 4944 2471 0A40     		.2byte	0x400a
 4945 2473 22       		.uleb128 0x22
 4946 2474 DA070000 		.4byte	.LASF732
 4947 2478 0B40     		.2byte	0x400b
 4948 247a 22       		.uleb128 0x22
 4949 247b 274A0000 		.4byte	.LASF733
 4950 247f 0C40     		.2byte	0x400c
 4951 2481 22       		.uleb128 0x22
 4952 2482 F6350000 		.4byte	.LASF734
 4953 2486 0D40     		.2byte	0x400d
 4954 2488 22       		.uleb128 0x22
 4955 2489 09540000 		.4byte	.LASF735
 4956 248d 0E40     		.2byte	0x400e
 4957 248f 22       		.uleb128 0x22
 4958 2490 31140000 		.4byte	.LASF736
 4959 2494 0F40     		.2byte	0x400f
 4960 2496 22       		.uleb128 0x22
 4961 2497 0D030000 		.4byte	.LASF737
 4962 249b 1040     		.2byte	0x4010
 4963 249d 22       		.uleb128 0x22
 4964 249e 8A2F0000 		.4byte	.LASF738
 4965 24a2 1140     		.2byte	0x4011
 4966 24a4 22       		.uleb128 0x22
 4967 24a5 FF150000 		.4byte	.LASF739
 4968 24a9 1240     		.2byte	0x4012
 4969 24ab 22       		.uleb128 0x22
 4970 24ac 0C230000 		.4byte	.LASF740
 4971 24b0 1340     		.2byte	0x4013
 4972 24b2 22       		.uleb128 0x22
 4973 24b3 81310000 		.4byte	.LASF741
 4974 24b7 1440     		.2byte	0x4014
 4975 24b9 22       		.uleb128 0x22
 4976 24ba 98090000 		.4byte	.LASF742
 4977 24be 1540     		.2byte	0x4015
 4978 24c0 22       		.uleb128 0x22
 4979 24c1 C83D0000 		.4byte	.LASF743
 4980 24c5 1640     		.2byte	0x4016
 4981 24c7 22       		.uleb128 0x22
 4982 24c8 D62D0000 		.4byte	.LASF744
 4983 24cc 1740     		.2byte	0x4017
 4984 24ce 22       		.uleb128 0x22
 4985 24cf 871F0000 		.4byte	.LASF745
 4986 24d3 1840     		.2byte	0x4018
 4987 24d5 22       		.uleb128 0x22
 4988 24d6 EC0D0000 		.4byte	.LASF746
 4989 24da 1940     		.2byte	0x4019
 4990 24dc 22       		.uleb128 0x22
 4991 24dd 42250000 		.4byte	.LASF747
 4992 24e1 1A40     		.2byte	0x401a
 4993 24e3 22       		.uleb128 0x22
 4994 24e4 8E2E0000 		.4byte	.LASF748
ARM GAS  C:\Users\Nazar\AppData\Local\Temp\ccWQ1kO8.s 			page 119


 4995 24e8 0050     		.2byte	0x5000
 4996 24ea 22       		.uleb128 0x22
 4997 24eb D7180000 		.4byte	.LASF749
 4998 24ef 0150     		.2byte	0x5001
 4999 24f1 22       		.uleb128 0x22
 5000 24f2 C41B0000 		.4byte	.LASF750
 5001 24f6 0250     		.2byte	0x5002
 5002 24f8 22       		.uleb128 0x22
 5003 24f9 AD4C0000 		.4byte	.LASF751
 5004 24fd 0350     		.2byte	0x5003
 5005 24ff 22       		.uleb128 0x22
 5006 2500 62470000 		.4byte	.LASF752
 5007 2504 0450     		.2byte	0x5004
 5008 2506 22       		.uleb128 0x22
 5009 2507 AB1D0000 		.4byte	.LASF753
 5010 250b 0550     		.2byte	0x5005
 5011 250d 22       		.uleb128 0x22
 5012 250e 06280000 		.4byte	.LASF754
 5013 2512 0650     		.2byte	0x5006
 5014 2514 22       		.uleb128 0x22
 5015 2515 D31C0000 		.4byte	.LASF755
 5016 2519 0750     		.2byte	0x5007
 5017 251b 22       		.uleb128 0x22
 5018 251c 9E210000 		.4byte	.LASF756
 5019 2520 0850     		.2byte	0x5008
 5020 2522 22       		.uleb128 0x22
 5021 2523 15290000 		.4byte	.LASF757
 5022 2527 0950     		.2byte	0x5009
 5023 2529 22       		.uleb128 0x22
 5024 252a A7320000 		.4byte	.LASF758
 5025 252e 0A50     		.2byte	0x500a
 5026 2530 22       		.uleb128 0x22
 5027 2531 DE230000 		.4byte	.LASF759
 5028 2535 0B50     		.2byte	0x500b
 5029 2537 22       		.uleb128 0x22
 5030 2538 7A590000 		.4byte	.LASF760
 5031 253c 0C50     		.2byte	0x500c
 5032 253e 22       		.uleb128 0x22
 5033 253f E70F0000 		.4byte	.LASF761
 5034 2543 0D50     		.2byte	0x500d
 5035 2545 22       		.uleb128 0x22
 5036 2546 0D3A0000 		.4byte	.LASF762
 5037 254a 0E50     		.2byte	0x500e
 5038 254c 22       		.uleb128 0x22
 5039 254d CF550000 		.4byte	.LASF763
 5040 2551 0F50     		.2byte	0x500f
 5041 2553 22       		.uleb128 0x22
 5042 2554 4F2C0000 		.4byte	.LASF764
 5043 2558 1050     		.2byte	0x5010
 5044 255a 22       		.uleb128 0x22
 5045 255b 0F320000 		.4byte	.LASF765
 5046 255f 1150     		.2byte	0x5011
 5047 2561 22       		.uleb128 0x22
 5048 2562 F94D0000 		.4byte	.LASF766
 5049 2566 1250     		.2byte	0x5012
 5050 2568 22       		.uleb128 0x22
 5051 2569 48020000 		.4byte	.LASF767
ARM GAS  C:\Users\Nazar\AppData\Local\Temp\ccWQ1kO8.s 			page 120


 5052 256d 1350     		.2byte	0x5013
 5053 256f 22       		.uleb128 0x22
 5054 2570 A24B0000 		.4byte	.LASF768
 5055 2574 1450     		.2byte	0x5014
 5056 2576 22       		.uleb128 0x22
 5057 2577 5A170000 		.4byte	.LASF769
 5058 257b 1550     		.2byte	0x5015
 5059 257d 22       		.uleb128 0x22
 5060 257e C0050000 		.4byte	.LASF770
 5061 2582 1650     		.2byte	0x5016
 5062 2584 22       		.uleb128 0x22
 5063 2585 0C300000 		.4byte	.LASF771
 5064 2589 1750     		.2byte	0x5017
 5065 258b 22       		.uleb128 0x22
 5066 258c 38210000 		.4byte	.LASF772
 5067 2590 1850     		.2byte	0x5018
 5068 2592 22       		.uleb128 0x22
 5069 2593 0E100000 		.4byte	.LASF773
 5070 2597 0060     		.2byte	0x6000
 5071 2599 22       		.uleb128 0x22
 5072 259a FD1A0000 		.4byte	.LASF774
 5073 259e 0160     		.2byte	0x6001
 5074 25a0 22       		.uleb128 0x22
 5075 25a1 61280000 		.4byte	.LASF775
 5076 25a5 0260     		.2byte	0x6002
 5077 25a7 22       		.uleb128 0x22
 5078 25a8 7E350000 		.4byte	.LASF776
 5079 25ac 0360     		.2byte	0x6003
 5080 25ae 22       		.uleb128 0x22
 5081 25af 201A0000 		.4byte	.LASF777
 5082 25b3 0460     		.2byte	0x6004
 5083 25b5 22       		.uleb128 0x22
 5084 25b6 C95A0000 		.4byte	.LASF778
 5085 25ba 0560     		.2byte	0x6005
 5086 25bc 22       		.uleb128 0x22
 5087 25bd F0430000 		.4byte	.LASF779
 5088 25c1 0660     		.2byte	0x6006
 5089 25c3 22       		.uleb128 0x22
 5090 25c4 5B3E0000 		.4byte	.LASF780
 5091 25c8 0760     		.2byte	0x6007
 5092 25ca 22       		.uleb128 0x22
 5093 25cb F83D0000 		.4byte	.LASF781
 5094 25cf 0860     		.2byte	0x6008
 5095 25d1 22       		.uleb128 0x22
 5096 25d2 90550000 		.4byte	.LASF782
 5097 25d6 0960     		.2byte	0x6009
 5098 25d8 22       		.uleb128 0x22
 5099 25d9 2C3A0000 		.4byte	.LASF783
 5100 25dd 0A60     		.2byte	0x600a
 5101 25df 22       		.uleb128 0x22
 5102 25e0 AB170000 		.4byte	.LASF784
 5103 25e4 FFFF     		.2byte	0xffff
 5104 25e6 00       		.byte	0
 5105 25e7 12       		.uleb128 0x12
 5106 25e8 1C470000 		.4byte	.LASF785
 5107 25ec 0B       		.byte	0xb
 5108 25ed D604     		.2byte	0x4d6
ARM GAS  C:\Users\Nazar\AppData\Local\Temp\ccWQ1kO8.s 			page 121


 5109 25ef A7220000 		.4byte	0x22a7
 5110 25f3 1D       		.uleb128 0x1d
 5111 25f4 04       		.byte	0x4
 5112 25f5 2C000000 		.4byte	0x2c
 5113 25f9 0B       		.byte	0xb
 5114 25fa E004     		.2byte	0x4e0
 5115 25fc 0C270000 		.4byte	0x270c
 5116 2600 11       		.uleb128 0x11
 5117 2601 20480000 		.4byte	.LASF786
 5118 2605 00       		.byte	0
 5119 2606 1E       		.uleb128 0x1e
 5120 2607 C62A0000 		.4byte	.LASF787
 5121 260b 01001400 		.4byte	0x140001
 5122 260f 1E       		.uleb128 0x1e
 5123 2610 23410000 		.4byte	.LASF788
 5124 2614 01001600 		.4byte	0x160001
 5125 2618 1E       		.uleb128 0x1e
 5126 2619 E44C0000 		.4byte	.LASF789
 5127 261d 02001600 		.4byte	0x160002
 5128 2621 1E       		.uleb128 0x1e
 5129 2622 A01C0000 		.4byte	.LASF790
 5130 2626 03001600 		.4byte	0x160003
 5131 262a 1E       		.uleb128 0x1e
 5132 262b 0F0A0000 		.4byte	.LASF791
 5133 262f 04001600 		.4byte	0x160004
 5134 2633 1E       		.uleb128 0x1e
 5135 2634 50350000 		.4byte	.LASF792
 5136 2638 05001600 		.4byte	0x160005
 5137 263c 1E       		.uleb128 0x1e
 5138 263d DD3B0000 		.4byte	.LASF793
 5139 2641 06001600 		.4byte	0x160006
 5140 2645 1E       		.uleb128 0x1e
 5141 2646 CC120000 		.4byte	.LASF794
 5142 264a 07001600 		.4byte	0x160007
 5143 264e 1E       		.uleb128 0x1e
 5144 264f FD190000 		.4byte	.LASF795
 5145 2653 08001600 		.4byte	0x160008
 5146 2657 1E       		.uleb128 0x1e
 5147 2658 18380000 		.4byte	.LASF796
 5148 265c 09001600 		.4byte	0x160009
 5149 2660 1E       		.uleb128 0x1e
 5150 2661 EB300000 		.4byte	.LASF797
 5151 2665 0A001600 		.4byte	0x16000a
 5152 2669 1E       		.uleb128 0x1e
 5153 266a CD540000 		.4byte	.LASF798
 5154 266e 0B001600 		.4byte	0x16000b
 5155 2672 1E       		.uleb128 0x1e
 5156 2673 16240000 		.4byte	.LASF799
 5157 2677 0C001600 		.4byte	0x16000c
 5158 267b 1E       		.uleb128 0x1e
 5159 267c ED1E0000 		.4byte	.LASF800
 5160 2680 0D001600 		.4byte	0x16000d
 5161 2684 1E       		.uleb128 0x1e
 5162 2685 C10F0000 		.4byte	.LASF801
 5163 2689 0E001600 		.4byte	0x16000e
 5164 268d 1E       		.uleb128 0x1e
 5165 268e 29490000 		.4byte	.LASF802
ARM GAS  C:\Users\Nazar\AppData\Local\Temp\ccWQ1kO8.s 			page 122


 5166 2692 0F001600 		.4byte	0x16000f
 5167 2696 1E       		.uleb128 0x1e
 5168 2697 264F0000 		.4byte	.LASF803
 5169 269b 10001600 		.4byte	0x160010
 5170 269f 1E       		.uleb128 0x1e
 5171 26a0 BF2E0000 		.4byte	.LASF804
 5172 26a4 11001600 		.4byte	0x160011
 5173 26a8 1E       		.uleb128 0x1e
 5174 26a9 19460000 		.4byte	.LASF805
 5175 26ad 12001600 		.4byte	0x160012
 5176 26b1 1E       		.uleb128 0x1e
 5177 26b2 82180000 		.4byte	.LASF806
 5178 26b6 13001600 		.4byte	0x160013
 5179 26ba 1E       		.uleb128 0x1e
 5180 26bb 4B270000 		.4byte	.LASF807
 5181 26bf 14001600 		.4byte	0x160014
 5182 26c3 1E       		.uleb128 0x1e
 5183 26c4 102A0000 		.4byte	.LASF808
 5184 26c8 15001600 		.4byte	0x160015
 5185 26cc 1E       		.uleb128 0x1e
 5186 26cd E0410000 		.4byte	.LASF809
 5187 26d1 16001600 		.4byte	0x160016
 5188 26d5 1E       		.uleb128 0x1e
 5189 26d6 5E5B0000 		.4byte	.LASF810
 5190 26da 17001600 		.4byte	0x160017
 5191 26de 1E       		.uleb128 0x1e
 5192 26df AC2F0000 		.4byte	.LASF811
 5193 26e3 18001600 		.4byte	0x160018
 5194 26e7 1E       		.uleb128 0x1e
 5195 26e8 9F490000 		.4byte	.LASF812
 5196 26ec 19001600 		.4byte	0x160019
 5197 26f0 1E       		.uleb128 0x1e
 5198 26f1 F53C0000 		.4byte	.LASF813
 5199 26f5 FE001600 		.4byte	0x1600fe
 5200 26f9 1E       		.uleb128 0x1e
 5201 26fa DE2B0000 		.4byte	.LASF814
 5202 26fe FF001600 		.4byte	0x1600ff
 5203 2702 1E       		.uleb128 0x1e
 5204 2703 9D470000 		.4byte	.LASF815
 5205 2707 FFFF1600 		.4byte	0x16ffff
 5206 270b 00       		.byte	0
 5207 270c 12       		.uleb128 0x12
 5208 270d 750C0000 		.4byte	.LASF816
 5209 2711 0B       		.byte	0xb
 5210 2712 4305     		.2byte	0x543
 5211 2714 F3250000 		.4byte	0x25f3
 5212 2718 12       		.uleb128 0x12
 5213 2719 B9120000 		.4byte	.LASF817
 5214 271d 0B       		.byte	0xb
 5215 271e 4B05     		.2byte	0x54b
 5216 2720 24270000 		.4byte	0x2724
 5217 2724 06       		.uleb128 0x6
 5218 2725 04       		.byte	0x4
 5219 2726 2A270000 		.4byte	0x272a
 5220 272a 23       		.uleb128 0x23
 5221 272b 3A270000 		.4byte	0x273a
 5222 272f 20       		.uleb128 0x20
ARM GAS  C:\Users\Nazar\AppData\Local\Temp\ccWQ1kO8.s 			page 123


 5223 2730 E7250000 		.4byte	0x25e7
 5224 2734 20       		.uleb128 0x20
 5225 2735 A5000000 		.4byte	0xa5
 5226 2739 00       		.byte	0
 5227 273a 1C       		.uleb128 0x1c
 5228 273b 07       		.byte	0x7
 5229 273c 0B       		.byte	0xb
 5230 273d 6105     		.2byte	0x561
 5231 273f 5E270000 		.4byte	0x275e
 5232 2743 19       		.uleb128 0x19
 5233 2744 7E240000 		.4byte	.LASF818
 5234 2748 0B       		.byte	0xb
 5235 2749 6405     		.2byte	0x564
 5236 274b 5E270000 		.4byte	0x275e
 5237 274f 00       		.byte	0
 5238 2750 19       		.uleb128 0x19
 5239 2751 C6320000 		.4byte	.LASF662
 5240 2755 0B       		.byte	0xb
 5241 2756 6705     		.2byte	0x567
 5242 2758 B5000000 		.4byte	0xb5
 5243 275c 06       		.byte	0x6
 5244 275d 00       		.byte	0
 5245 275e 0A       		.uleb128 0xa
 5246 275f B5000000 		.4byte	0xb5
 5247 2763 6E270000 		.4byte	0x276e
 5248 2767 0B       		.uleb128 0xb
 5249 2768 9E000000 		.4byte	0x9e
 5250 276c 05       		.byte	0x5
 5251 276d 00       		.byte	0
 5252 276e 12       		.uleb128 0x12
 5253 276f 24390000 		.4byte	.LASF819
 5254 2773 0B       		.byte	0xb
 5255 2774 6905     		.2byte	0x569
 5256 2776 3A270000 		.4byte	0x273a
 5257 277a 1C       		.uleb128 0x1c
 5258 277b 06       		.byte	0x6
 5259 277c 0B       		.byte	0xb
 5260 277d 7005     		.2byte	0x570
 5261 277f B8270000 		.4byte	0x27b8
 5262 2783 19       		.uleb128 0x19
 5263 2784 97520000 		.4byte	.LASF820
 5264 2788 0B       		.byte	0xb
 5265 2789 7605     		.2byte	0x576
 5266 278b CB000000 		.4byte	0xcb
 5267 278f 00       		.byte	0
 5268 2790 19       		.uleb128 0x19
 5269 2791 744A0000 		.4byte	.LASF821
 5270 2795 0B       		.byte	0xb
 5271 2796 7C05     		.2byte	0x57c
 5272 2798 CB000000 		.4byte	0xcb
 5273 279c 02       		.byte	0x2
 5274 279d 19       		.uleb128 0x19
 5275 279e 8A360000 		.4byte	.LASF822
 5276 27a2 0B       		.byte	0xb
 5277 27a3 8205     		.2byte	0x582
 5278 27a5 B5000000 		.4byte	0xb5
 5279 27a9 04       		.byte	0x4
ARM GAS  C:\Users\Nazar\AppData\Local\Temp\ccWQ1kO8.s 			page 124


 5280 27aa 19       		.uleb128 0x19
 5281 27ab 5D010000 		.4byte	.LASF823
 5282 27af 0B       		.byte	0xb
 5283 27b0 8805     		.2byte	0x588
 5284 27b2 B5000000 		.4byte	0xb5
 5285 27b6 05       		.byte	0x5
 5286 27b7 00       		.byte	0
 5287 27b8 12       		.uleb128 0x12
 5288 27b9 D6360000 		.4byte	.LASF824
 5289 27bd 0B       		.byte	0xb
 5290 27be 8A05     		.2byte	0x58a
 5291 27c0 7A270000 		.4byte	0x277a
 5292 27c4 1C       		.uleb128 0x1c
 5293 27c5 01       		.byte	0x1
 5294 27c6 0B       		.byte	0xb
 5295 27c7 8D05     		.2byte	0x58d
 5296 27c9 DB270000 		.4byte	0x27db
 5297 27cd 19       		.uleb128 0x19
 5298 27ce AE0F0000 		.4byte	.LASF825
 5299 27d2 0B       		.byte	0xb
 5300 27d3 9405     		.2byte	0x594
 5301 27d5 B5000000 		.4byte	0xb5
 5302 27d9 00       		.byte	0
 5303 27da 00       		.byte	0
 5304 27db 12       		.uleb128 0x12
 5305 27dc 8F3B0000 		.4byte	.LASF826
 5306 27e0 0B       		.byte	0xb
 5307 27e1 9605     		.2byte	0x596
 5308 27e3 C4270000 		.4byte	0x27c4
 5309 27e7 1C       		.uleb128 0x1c
 5310 27e8 01       		.byte	0x1
 5311 27e9 0B       		.byte	0xb
 5312 27ea 9A05     		.2byte	0x59a
 5313 27ec FE270000 		.4byte	0x27fe
 5314 27f0 19       		.uleb128 0x19
 5315 27f1 98330000 		.4byte	.LASF827
 5316 27f5 0B       		.byte	0xb
 5317 27f6 9D05     		.2byte	0x59d
 5318 27f8 B5000000 		.4byte	0xb5
 5319 27fc 00       		.byte	0
 5320 27fd 00       		.byte	0
 5321 27fe 12       		.uleb128 0x12
 5322 27ff 3D3F0000 		.4byte	.LASF828
 5323 2803 0B       		.byte	0xb
 5324 2804 9F05     		.2byte	0x59f
 5325 2806 E7270000 		.4byte	0x27e7
 5326 280a 1C       		.uleb128 0x1c
 5327 280b 01       		.byte	0x1
 5328 280c 0B       		.byte	0xb
 5329 280d A205     		.2byte	0x5a2
 5330 280f 21280000 		.4byte	0x2821
 5331 2813 19       		.uleb128 0x19
 5332 2814 CC470000 		.4byte	.LASF829
 5333 2818 0B       		.byte	0xb
 5334 2819 A605     		.2byte	0x5a6
 5335 281b B5000000 		.4byte	0xb5
 5336 281f 00       		.byte	0
ARM GAS  C:\Users\Nazar\AppData\Local\Temp\ccWQ1kO8.s 			page 125


 5337 2820 00       		.byte	0
 5338 2821 12       		.uleb128 0x12
 5339 2822 58490000 		.4byte	.LASF830
 5340 2826 0B       		.byte	0xb
 5341 2827 A805     		.2byte	0x5a8
 5342 2829 0A280000 		.4byte	0x280a
 5343 282d 1C       		.uleb128 0x1c
 5344 282e 01       		.byte	0x1
 5345 282f 0B       		.byte	0xb
 5346 2830 AB05     		.2byte	0x5ab
 5347 2832 44280000 		.4byte	0x2844
 5348 2836 19       		.uleb128 0x19
 5349 2837 61340000 		.4byte	.LASF831
 5350 283b 0B       		.byte	0xb
 5351 283c AE05     		.2byte	0x5ae
 5352 283e B5000000 		.4byte	0xb5
 5353 2842 00       		.byte	0
 5354 2843 00       		.byte	0
 5355 2844 12       		.uleb128 0x12
 5356 2845 0A4C0000 		.4byte	.LASF832
 5357 2849 0B       		.byte	0xb
 5358 284a B005     		.2byte	0x5b0
 5359 284c 2D280000 		.4byte	0x282d
 5360 2850 1C       		.uleb128 0x1c
 5361 2851 22       		.byte	0x22
 5362 2852 0B       		.byte	0xb
 5363 2853 B305     		.2byte	0x5b3
 5364 2855 9B280000 		.4byte	0x289b
 5365 2859 19       		.uleb128 0x19
 5366 285a 02100000 		.4byte	.LASF833
 5367 285e 0B       		.byte	0xb
 5368 285f C205     		.2byte	0x5c2
 5369 2861 9B280000 		.4byte	0x289b
 5370 2865 00       		.byte	0
 5371 2866 19       		.uleb128 0x19
 5372 2867 F1440000 		.4byte	.LASF834
 5373 286b 0B       		.byte	0xb
 5374 286c D505     		.2byte	0x5d5
 5375 286e AB280000 		.4byte	0x28ab
 5376 2872 08       		.byte	0x8
 5377 2873 19       		.uleb128 0x19
 5378 2874 09420000 		.4byte	.LASF835
 5379 2878 0B       		.byte	0xb
 5380 2879 DB05     		.2byte	0x5db
 5381 287b B5000000 		.4byte	0xb5
 5382 287f 16       		.byte	0x16
 5383 2880 19       		.uleb128 0x19
 5384 2881 97460000 		.4byte	.LASF836
 5385 2885 0B       		.byte	0xb
 5386 2886 E105     		.2byte	0x5e1
 5387 2888 CB000000 		.4byte	0xcb
 5388 288c 18       		.byte	0x18
 5389 288d 19       		.uleb128 0x19
 5390 288e 1E000000 		.4byte	.LASF837
 5391 2892 0B       		.byte	0xb
 5392 2893 F005     		.2byte	0x5f0
 5393 2895 9B280000 		.4byte	0x289b
ARM GAS  C:\Users\Nazar\AppData\Local\Temp\ccWQ1kO8.s 			page 126


 5394 2899 1A       		.byte	0x1a
 5395 289a 00       		.byte	0
 5396 289b 0A       		.uleb128 0xa
 5397 289c CB000000 		.4byte	0xcb
 5398 28a0 AB280000 		.4byte	0x28ab
 5399 28a4 0B       		.uleb128 0xb
 5400 28a5 9E000000 		.4byte	0x9e
 5401 28a9 03       		.byte	0x3
 5402 28aa 00       		.byte	0
 5403 28ab 0A       		.uleb128 0xa
 5404 28ac CB000000 		.4byte	0xcb
 5405 28b0 BB280000 		.4byte	0x28bb
 5406 28b4 0B       		.uleb128 0xb
 5407 28b5 9E000000 		.4byte	0x9e
 5408 28b9 06       		.byte	0x6
 5409 28ba 00       		.byte	0
 5410 28bb 12       		.uleb128 0x12
 5411 28bc 0F5B0000 		.4byte	.LASF838
 5412 28c0 0B       		.byte	0xb
 5413 28c1 F205     		.2byte	0x5f2
 5414 28c3 50280000 		.4byte	0x2850
 5415 28c7 1C       		.uleb128 0x1c
 5416 28c8 32       		.byte	0x32
 5417 28c9 0B       		.byte	0xb
 5418 28ca F805     		.2byte	0x5f8
 5419 28cc 46290000 		.4byte	0x2946
 5420 28d0 19       		.uleb128 0x19
 5421 28d1 7E280000 		.4byte	.LASF839
 5422 28d5 0B       		.byte	0xb
 5423 28d6 FB05     		.2byte	0x5fb
 5424 28d8 B8270000 		.4byte	0x27b8
 5425 28dc 00       		.byte	0
 5426 28dd 19       		.uleb128 0x19
 5427 28de D8220000 		.4byte	.LASF840
 5428 28e2 0B       		.byte	0xb
 5429 28e3 FE05     		.2byte	0x5fe
 5430 28e5 DB270000 		.4byte	0x27db
 5431 28e9 06       		.byte	0x6
 5432 28ea 19       		.uleb128 0x19
 5433 28eb 802E0000 		.4byte	.LASF841
 5434 28ef 0B       		.byte	0xb
 5435 28f0 0106     		.2byte	0x601
 5436 28f2 FE270000 		.4byte	0x27fe
 5437 28f6 07       		.byte	0x7
 5438 28f7 19       		.uleb128 0x19
 5439 28f8 89000000 		.4byte	.LASF842
 5440 28fc 0B       		.byte	0xb
 5441 28fd 0406     		.2byte	0x604
 5442 28ff 21280000 		.4byte	0x2821
 5443 2903 08       		.byte	0x8
 5444 2904 19       		.uleb128 0x19
 5445 2905 F92B0000 		.4byte	.LASF843
 5446 2909 0B       		.byte	0xb
 5447 290a 0706     		.2byte	0x607
 5448 290c 44280000 		.4byte	0x2844
 5449 2910 09       		.byte	0x9
 5450 2911 19       		.uleb128 0x19
ARM GAS  C:\Users\Nazar\AppData\Local\Temp\ccWQ1kO8.s 			page 127


 5451 2912 072B0000 		.4byte	.LASF844
 5452 2916 0B       		.byte	0xb
 5453 2917 0A06     		.2byte	0x60a
 5454 2919 BB280000 		.4byte	0x28bb
 5455 291d 0A       		.byte	0xa
 5456 291e 19       		.uleb128 0x19
 5457 291f 42590000 		.4byte	.LASF845
 5458 2923 0B       		.byte	0xb
 5459 2924 1906     		.2byte	0x619
 5460 2926 CB000000 		.4byte	0xcb
 5461 292a 2C       		.byte	0x2c
 5462 292b 19       		.uleb128 0x19
 5463 292c 05590000 		.4byte	.LASF846
 5464 2930 0B       		.byte	0xb
 5465 2931 1C06     		.2byte	0x61c
 5466 2933 CB000000 		.4byte	0xcb
 5467 2937 2E       		.byte	0x2e
 5468 2938 19       		.uleb128 0x19
 5469 2939 CD370000 		.4byte	.LASF847
 5470 293d 0B       		.byte	0xb
 5471 293e 2206     		.2byte	0x622
 5472 2940 B5000000 		.4byte	0xb5
 5473 2944 30       		.byte	0x30
 5474 2945 00       		.byte	0
 5475 2946 12       		.uleb128 0x12
 5476 2947 70580000 		.4byte	.LASF848
 5477 294b 0B       		.byte	0xb
 5478 294c 2406     		.2byte	0x624
 5479 294e C7280000 		.4byte	0x28c7
 5480 2952 1C       		.uleb128 0x1c
 5481 2953 04       		.byte	0x4
 5482 2954 0B       		.byte	0xb
 5483 2955 2806     		.2byte	0x628
 5484 2957 76290000 		.4byte	0x2976
 5485 295b 19       		.uleb128 0x19
 5486 295c 94490000 		.4byte	.LASF849
 5487 2960 0B       		.byte	0xb
 5488 2961 2B06     		.2byte	0x62b
 5489 2963 CB000000 		.4byte	0xcb
 5490 2967 00       		.byte	0
 5491 2968 19       		.uleb128 0x19
 5492 2969 B2340000 		.4byte	.LASF850
 5493 296d 0B       		.byte	0xb
 5494 296e 2E06     		.2byte	0x62e
 5495 2970 CB000000 		.4byte	0xcb
 5496 2974 02       		.byte	0x2
 5497 2975 00       		.byte	0
 5498 2976 12       		.uleb128 0x12
 5499 2977 21500000 		.4byte	.LASF851
 5500 297b 0B       		.byte	0xb
 5501 297c 3006     		.2byte	0x630
 5502 297e 52290000 		.4byte	0x2952
 5503 2982 1C       		.uleb128 0x1c
 5504 2983 14       		.byte	0x14
 5505 2984 0B       		.byte	0xb
 5506 2985 4206     		.2byte	0x642
 5507 2987 DA290000 		.4byte	0x29da
ARM GAS  C:\Users\Nazar\AppData\Local\Temp\ccWQ1kO8.s 			page 128


 5508 298b 19       		.uleb128 0x19
 5509 298c 26250000 		.4byte	.LASF852
 5510 2990 0B       		.byte	0xb
 5511 2991 4506     		.2byte	0x645
 5512 2993 DA290000 		.4byte	0x29da
 5513 2997 00       		.byte	0
 5514 2998 19       		.uleb128 0x19
 5515 2999 B0380000 		.4byte	.LASF853
 5516 299d 0B       		.byte	0xb
 5517 299e 4806     		.2byte	0x648
 5518 29a0 E0290000 		.4byte	0x29e0
 5519 29a4 04       		.byte	0x4
 5520 29a5 19       		.uleb128 0x19
 5521 29a6 58400000 		.4byte	.LASF854
 5522 29aa 0B       		.byte	0xb
 5523 29ab 4B06     		.2byte	0x64b
 5524 29ad CB000000 		.4byte	0xcb
 5525 29b1 08       		.byte	0x8
 5526 29b2 19       		.uleb128 0x19
 5527 29b3 540F0000 		.4byte	.LASF855
 5528 29b7 0B       		.byte	0xb
 5529 29b8 4E06     		.2byte	0x64e
 5530 29ba B5000000 		.4byte	0xb5
 5531 29be 0A       		.byte	0xa
 5532 29bf 19       		.uleb128 0x19
 5533 29c0 5B380000 		.4byte	.LASF856
 5534 29c4 0B       		.byte	0xb
 5535 29c5 5206     		.2byte	0x652
 5536 29c7 E6290000 		.4byte	0x29e6
 5537 29cb 0C       		.byte	0xc
 5538 29cc 19       		.uleb128 0x19
 5539 29cd 39010000 		.4byte	.LASF857
 5540 29d1 0B       		.byte	0xb
 5541 29d2 5506     		.2byte	0x655
 5542 29d4 D6000000 		.4byte	0xd6
 5543 29d8 10       		.byte	0x10
 5544 29d9 00       		.byte	0
 5545 29da 06       		.uleb128 0x6
 5546 29db 04       		.byte	0x4
 5547 29dc B5000000 		.4byte	0xb5
 5548 29e0 06       		.uleb128 0x6
 5549 29e1 04       		.byte	0x4
 5550 29e2 76290000 		.4byte	0x2976
 5551 29e6 06       		.uleb128 0x6
 5552 29e7 04       		.byte	0x4
 5553 29e8 EC290000 		.4byte	0x29ec
 5554 29ec 09       		.uleb128 0x9
 5555 29ed B5000000 		.4byte	0xb5
 5556 29f1 12       		.uleb128 0x12
 5557 29f2 C81E0000 		.4byte	.LASF858
 5558 29f6 0B       		.byte	0xb
 5559 29f7 5706     		.2byte	0x657
 5560 29f9 82290000 		.4byte	0x2982
 5561 29fd 1C       		.uleb128 0x1c
 5562 29fe 4C       		.byte	0x4c
 5563 29ff 0B       		.byte	0xb
 5564 2a00 5B06     		.2byte	0x65b
ARM GAS  C:\Users\Nazar\AppData\Local\Temp\ccWQ1kO8.s 			page 129


 5565 2a02 2E2A0000 		.4byte	0x2a2e
 5566 2a06 19       		.uleb128 0x19
 5567 2a07 534F0000 		.4byte	.LASF859
 5568 2a0b 0B       		.byte	0xb
 5569 2a0c 5E06     		.2byte	0x65e
 5570 2a0e 18270000 		.4byte	0x2718
 5571 2a12 00       		.byte	0
 5572 2a13 19       		.uleb128 0x19
 5573 2a14 30310000 		.4byte	.LASF860
 5574 2a18 0B       		.byte	0xb
 5575 2a19 6106     		.2byte	0x661
 5576 2a1b F1290000 		.4byte	0x29f1
 5577 2a1f 04       		.byte	0x4
 5578 2a20 19       		.uleb128 0x19
 5579 2a21 A6450000 		.4byte	.LASF861
 5580 2a25 0B       		.byte	0xb
 5581 2a26 6406     		.2byte	0x664
 5582 2a28 46290000 		.4byte	0x2946
 5583 2a2c 18       		.byte	0x18
 5584 2a2d 00       		.byte	0
 5585 2a2e 12       		.uleb128 0x12
 5586 2a2f 043F0000 		.4byte	.LASF862
 5587 2a33 0B       		.byte	0xb
 5588 2a34 6606     		.2byte	0x666
 5589 2a36 FD290000 		.4byte	0x29fd
 5590 2a3a 1D       		.uleb128 0x1d
 5591 2a3b 01       		.byte	0x1
 5592 2a3c 41000000 		.4byte	0x41
 5593 2a40 0B       		.byte	0xb
 5594 2a41 7B06     		.2byte	0x67b
 5595 2a43 6C2A0000 		.4byte	0x2a6c
 5596 2a47 10       		.uleb128 0x10
 5597 2a48 9E140000 		.4byte	.LASF863
 5598 2a4c 6C       		.sleb128 -20
 5599 2a4d 10       		.uleb128 0x10
 5600 2a4e B7480000 		.4byte	.LASF864
 5601 2a52 70       		.sleb128 -16
 5602 2a53 10       		.uleb128 0x10
 5603 2a54 390E0000 		.4byte	.LASF865
 5604 2a58 74       		.sleb128 -12
 5605 2a59 10       		.uleb128 0x10
 5606 2a5a C2230000 		.4byte	.LASF866
 5607 2a5e 7A       		.sleb128 -6
 5608 2a5f 11       		.uleb128 0x11
 5609 2a60 31160000 		.4byte	.LASF867
 5610 2a64 00       		.byte	0
 5611 2a65 11       		.uleb128 0x11
 5612 2a66 A92E0000 		.4byte	.LASF868
 5613 2a6a 04       		.byte	0x4
 5614 2a6b 00       		.byte	0
 5615 2a6c 12       		.uleb128 0x12
 5616 2a6d AA290000 		.4byte	.LASF869
 5617 2a71 0B       		.byte	0xb
 5618 2a72 8E06     		.2byte	0x68e
 5619 2a74 3A2A0000 		.4byte	0x2a3a
 5620 2a78 1D       		.uleb128 0x1d
 5621 2a79 01       		.byte	0x1
ARM GAS  C:\Users\Nazar\AppData\Local\Temp\ccWQ1kO8.s 			page 130


 5622 2a7a 53000000 		.4byte	0x53
 5623 2a7e 0B       		.byte	0xb
 5624 2a7f 5507     		.2byte	0x755
 5625 2a81 982A0000 		.4byte	0x2a98
 5626 2a85 11       		.uleb128 0x11
 5627 2a86 7F5A0000 		.4byte	.LASF870
 5628 2a8a 01       		.byte	0x1
 5629 2a8b 11       		.uleb128 0x11
 5630 2a8c 9E390000 		.4byte	.LASF871
 5631 2a90 02       		.byte	0x2
 5632 2a91 11       		.uleb128 0x11
 5633 2a92 29330000 		.4byte	.LASF872
 5634 2a96 FF       		.byte	0xff
 5635 2a97 00       		.byte	0
 5636 2a98 12       		.uleb128 0x12
 5637 2a99 252F0000 		.4byte	.LASF873
 5638 2a9d 0B       		.byte	0xb
 5639 2a9e 6607     		.2byte	0x766
 5640 2aa0 782A0000 		.4byte	0x2a78
 5641 2aa4 1D       		.uleb128 0x1d
 5642 2aa5 01       		.byte	0x1
 5643 2aa6 53000000 		.4byte	0x53
 5644 2aaa 0B       		.byte	0xb
 5645 2aab 6C07     		.2byte	0x76c
 5646 2aad DC2A0000 		.4byte	0x2adc
 5647 2ab1 11       		.uleb128 0x11
 5648 2ab2 A94A0000 		.4byte	.LASF874
 5649 2ab6 01       		.byte	0x1
 5650 2ab7 11       		.uleb128 0x11
 5651 2ab8 C4330000 		.4byte	.LASF875
 5652 2abc 02       		.byte	0x2
 5653 2abd 11       		.uleb128 0x11
 5654 2abe 63260000 		.4byte	.LASF876
 5655 2ac2 03       		.byte	0x3
 5656 2ac3 11       		.uleb128 0x11
 5657 2ac4 26340000 		.4byte	.LASF877
 5658 2ac8 04       		.byte	0x4
 5659 2ac9 11       		.uleb128 0x11
 5660 2aca 68440000 		.4byte	.LASF878
 5661 2ace 05       		.byte	0x5
 5662 2acf 11       		.uleb128 0x11
 5663 2ad0 B50D0000 		.4byte	.LASF879
 5664 2ad4 06       		.byte	0x6
 5665 2ad5 11       		.uleb128 0x11
 5666 2ad6 67180000 		.4byte	.LASF880
 5667 2ada FF       		.byte	0xff
 5668 2adb 00       		.byte	0
 5669 2adc 12       		.uleb128 0x12
 5670 2add CB320000 		.4byte	.LASF881
 5671 2ae1 0B       		.byte	0xb
 5672 2ae2 7407     		.2byte	0x774
 5673 2ae4 A42A0000 		.4byte	0x2aa4
 5674 2ae8 1D       		.uleb128 0x1d
 5675 2ae9 01       		.byte	0x1
 5676 2aea 53000000 		.4byte	0x53
 5677 2aee 0B       		.byte	0xb
 5678 2aef 7807     		.2byte	0x778
ARM GAS  C:\Users\Nazar\AppData\Local\Temp\ccWQ1kO8.s 			page 131


 5679 2af1 022B0000 		.4byte	0x2b02
 5680 2af5 11       		.uleb128 0x11
 5681 2af6 AA370000 		.4byte	.LASF882
 5682 2afa 01       		.byte	0x1
 5683 2afb 11       		.uleb128 0x11
 5684 2afc DE500000 		.4byte	.LASF883
 5685 2b00 02       		.byte	0x2
 5686 2b01 00       		.byte	0
 5687 2b02 1C       		.uleb128 0x1c
 5688 2b03 02       		.byte	0x2
 5689 2b04 0C       		.byte	0xc
 5690 2b05 6401     		.2byte	0x164
 5691 2b07 262B0000 		.4byte	0x2b26
 5692 2b0b 19       		.uleb128 0x19
 5693 2b0c 75250000 		.4byte	.LASF884
 5694 2b10 0C       		.byte	0xc
 5695 2b11 6E01     		.2byte	0x16e
 5696 2b13 B5000000 		.4byte	0xb5
 5697 2b17 00       		.byte	0
 5698 2b18 19       		.uleb128 0x19
 5699 2b19 4B010000 		.4byte	.LASF885
 5700 2b1d 0C       		.byte	0xc
 5701 2b1e 7201     		.2byte	0x172
 5702 2b20 B5000000 		.4byte	0xb5
 5703 2b24 01       		.byte	0x1
 5704 2b25 00       		.byte	0
 5705 2b26 12       		.uleb128 0x12
 5706 2b27 8A1D0000 		.4byte	.LASF886
 5707 2b2b 0C       		.byte	0xc
 5708 2b2c 7401     		.2byte	0x174
 5709 2b2e 022B0000 		.4byte	0x2b02
 5710 2b32 12       		.uleb128 0x12
 5711 2b33 BF420000 		.4byte	.LASF887
 5712 2b37 0D       		.byte	0xd
 5713 2b38 7F01     		.2byte	0x17f
 5714 2b3a CB000000 		.4byte	0xcb
 5715 2b3e 0F       		.uleb128 0xf
 5716 2b3f 01       		.byte	0x1
 5717 2b40 53000000 		.4byte	0x53
 5718 2b44 0E       		.byte	0xe
 5719 2b45 D5       		.byte	0xd5
 5720 2b46 692B0000 		.4byte	0x2b69
 5721 2b4a 11       		.uleb128 0x11
 5722 2b4b 22350000 		.4byte	.LASF888
 5723 2b4f 00       		.byte	0
 5724 2b50 11       		.uleb128 0x11
 5725 2b51 652B0000 		.4byte	.LASF889
 5726 2b55 01       		.byte	0x1
 5727 2b56 11       		.uleb128 0x11
 5728 2b57 CD4B0000 		.4byte	.LASF890
 5729 2b5b 02       		.byte	0x2
 5730 2b5c 11       		.uleb128 0x11
 5731 2b5d 4D3B0000 		.4byte	.LASF891
 5732 2b61 03       		.byte	0x3
 5733 2b62 11       		.uleb128 0x11
 5734 2b63 C9300000 		.4byte	.LASF892
 5735 2b67 04       		.byte	0x4
ARM GAS  C:\Users\Nazar\AppData\Local\Temp\ccWQ1kO8.s 			page 132


 5736 2b68 00       		.byte	0
 5737 2b69 04       		.uleb128 0x4
 5738 2b6a 79410000 		.4byte	.LASF893
 5739 2b6e 0E       		.byte	0xe
 5740 2b6f E7       		.byte	0xe7
 5741 2b70 3E2B0000 		.4byte	0x2b3e
 5742 2b74 0F       		.uleb128 0xf
 5743 2b75 01       		.byte	0x1
 5744 2b76 53000000 		.4byte	0x53
 5745 2b7a 0E       		.byte	0xe
 5746 2b7b EB       		.byte	0xeb
 5747 2b7c E72B0000 		.4byte	0x2be7
 5748 2b80 11       		.uleb128 0x11
 5749 2b81 30520000 		.4byte	.LASF894
 5750 2b85 00       		.byte	0
 5751 2b86 11       		.uleb128 0x11
 5752 2b87 0D0F0000 		.4byte	.LASF895
 5753 2b8b 01       		.byte	0x1
 5754 2b8c 11       		.uleb128 0x11
 5755 2b8d 550D0000 		.4byte	.LASF896
 5756 2b91 02       		.byte	0x2
 5757 2b92 11       		.uleb128 0x11
 5758 2b93 51550000 		.4byte	.LASF897
 5759 2b97 03       		.byte	0x3
 5760 2b98 11       		.uleb128 0x11
 5761 2b99 75160000 		.4byte	.LASF898
 5762 2b9d 04       		.byte	0x4
 5763 2b9e 11       		.uleb128 0x11
 5764 2b9f C5440000 		.4byte	.LASF899
 5765 2ba3 05       		.byte	0x5
 5766 2ba4 11       		.uleb128 0x11
 5767 2ba5 48390000 		.4byte	.LASF900
 5768 2ba9 06       		.byte	0x6
 5769 2baa 11       		.uleb128 0x11
 5770 2bab B4150000 		.4byte	.LASF901
 5771 2baf 07       		.byte	0x7
 5772 2bb0 11       		.uleb128 0x11
 5773 2bb1 90120000 		.4byte	.LASF902
 5774 2bb5 08       		.byte	0x8
 5775 2bb6 11       		.uleb128 0x11
 5776 2bb7 B3560000 		.4byte	.LASF903
 5777 2bbb 09       		.byte	0x9
 5778 2bbc 11       		.uleb128 0x11
 5779 2bbd 4C0C0000 		.4byte	.LASF904
 5780 2bc1 0A       		.byte	0xa
 5781 2bc2 11       		.uleb128 0x11
 5782 2bc3 2F480000 		.4byte	.LASF905
 5783 2bc7 0B       		.byte	0xb
 5784 2bc8 11       		.uleb128 0x11
 5785 2bc9 833F0000 		.4byte	.LASF906
 5786 2bcd 0C       		.byte	0xc
 5787 2bce 11       		.uleb128 0x11
 5788 2bcf 450B0000 		.4byte	.LASF907
 5789 2bd3 0D       		.byte	0xd
 5790 2bd4 11       		.uleb128 0x11
 5791 2bd5 F7570000 		.4byte	.LASF908
 5792 2bd9 0E       		.byte	0xe
ARM GAS  C:\Users\Nazar\AppData\Local\Temp\ccWQ1kO8.s 			page 133


 5793 2bda 11       		.uleb128 0x11
 5794 2bdb 8F410000 		.4byte	.LASF909
 5795 2bdf 15       		.byte	0x15
 5796 2be0 11       		.uleb128 0x11
 5797 2be1 142E0000 		.4byte	.LASF910
 5798 2be5 18       		.byte	0x18
 5799 2be6 00       		.byte	0
 5800 2be7 12       		.uleb128 0x12
 5801 2be8 980E0000 		.4byte	.LASF911
 5802 2bec 0E       		.byte	0xe
 5803 2bed 2801     		.2byte	0x128
 5804 2bef 742B0000 		.4byte	0x2b74
 5805 2bf3 12       		.uleb128 0x12
 5806 2bf4 690F0000 		.4byte	.LASF912
 5807 2bf8 0E       		.byte	0xe
 5808 2bf9 6601     		.2byte	0x166
 5809 2bfb 6E270000 		.4byte	0x276e
 5810 2bff 1C       		.uleb128 0x1c
 5811 2c00 06       		.byte	0x6
 5812 2c01 0E       		.byte	0xe
 5813 2c02 EA01     		.2byte	0x1ea
 5814 2c04 572C0000 		.4byte	0x2c57
 5815 2c08 19       		.uleb128 0x19
 5816 2c09 9C110000 		.4byte	.LASF913
 5817 2c0d 0E       		.byte	0xe
 5818 2c0e F301     		.2byte	0x1f3
 5819 2c10 B5000000 		.4byte	0xb5
 5820 2c14 00       		.byte	0
 5821 2c15 19       		.uleb128 0x19
 5822 2c16 0D290000 		.4byte	.LASF914
 5823 2c1a 0E       		.byte	0xe
 5824 2c1b F901     		.2byte	0x1f9
 5825 2c1d B5000000 		.4byte	0xb5
 5826 2c21 01       		.byte	0x1
 5827 2c22 19       		.uleb128 0x19
 5828 2c23 4A4F0000 		.4byte	.LASF915
 5829 2c27 0E       		.byte	0xe
 5830 2c28 0002     		.2byte	0x200
 5831 2c2a B5000000 		.4byte	0xb5
 5832 2c2e 02       		.byte	0x2
 5833 2c2f 19       		.uleb128 0x19
 5834 2c30 D92F0000 		.4byte	.LASF916
 5835 2c34 0E       		.byte	0xe
 5836 2c35 0402     		.2byte	0x204
 5837 2c37 E72B0000 		.4byte	0x2be7
 5838 2c3b 03       		.byte	0x3
 5839 2c3c 19       		.uleb128 0x19
 5840 2c3d 5B2D0000 		.4byte	.LASF917
 5841 2c41 0E       		.byte	0xe
 5842 2c42 0E02     		.2byte	0x20e
 5843 2c44 B5000000 		.4byte	0xb5
 5844 2c48 04       		.byte	0x4
 5845 2c49 19       		.uleb128 0x19
 5846 2c4a 75250000 		.4byte	.LASF884
 5847 2c4e 0E       		.byte	0xe
 5848 2c4f 1102     		.2byte	0x211
 5849 2c51 B5000000 		.4byte	0xb5
ARM GAS  C:\Users\Nazar\AppData\Local\Temp\ccWQ1kO8.s 			page 134


 5850 2c55 05       		.byte	0x5
 5851 2c56 00       		.byte	0
 5852 2c57 12       		.uleb128 0x12
 5853 2c58 D9510000 		.4byte	.LASF918
 5854 2c5c 0E       		.byte	0xe
 5855 2c5d 1302     		.2byte	0x213
 5856 2c5f FF2B0000 		.4byte	0x2bff
 5857 2c63 0D       		.uleb128 0xd
 5858 2c64 0C       		.byte	0xc
 5859 2c65 0F       		.byte	0xf
 5860 2c66 71       		.byte	0x71
 5861 2c67 CC2C0000 		.4byte	0x2ccc
 5862 2c6b 0E       		.uleb128 0xe
 5863 2c6c 8F340000 		.4byte	.LASF919
 5864 2c70 0F       		.byte	0xf
 5865 2c71 78       		.byte	0x78
 5866 2c72 B5000000 		.4byte	0xb5
 5867 2c76 00       		.byte	0
 5868 2c77 0E       		.uleb128 0xe
 5869 2c78 C24E0000 		.4byte	.LASF920
 5870 2c7c 0F       		.byte	0xf
 5871 2c7d 7E       		.byte	0x7e
 5872 2c7e B5000000 		.4byte	0xb5
 5873 2c82 01       		.byte	0x1
 5874 2c83 0E       		.uleb128 0xe
 5875 2c84 38560000 		.4byte	.LASF921
 5876 2c88 0F       		.byte	0xf
 5877 2c89 85       		.byte	0x85
 5878 2c8a CB000000 		.4byte	0xcb
 5879 2c8e 02       		.byte	0x2
 5880 2c8f 0E       		.uleb128 0xe
 5881 2c90 EA080000 		.4byte	.LASF922
 5882 2c94 0F       		.byte	0xf
 5883 2c95 8C       		.byte	0x8c
 5884 2c96 CB000000 		.4byte	0xcb
 5885 2c9a 04       		.byte	0x4
 5886 2c9b 0E       		.uleb128 0xe
 5887 2c9c EB280000 		.4byte	.LASF923
 5888 2ca0 0F       		.byte	0xf
 5889 2ca1 94       		.byte	0x94
 5890 2ca2 B5000000 		.4byte	0xb5
 5891 2ca6 06       		.byte	0x6
 5892 2ca7 0E       		.uleb128 0xe
 5893 2ca8 D31D0000 		.4byte	.LASF924
 5894 2cac 0F       		.byte	0xf
 5895 2cad 9C       		.byte	0x9c
 5896 2cae B5000000 		.4byte	0xb5
 5897 2cb2 07       		.byte	0x7
 5898 2cb3 0E       		.uleb128 0xe
 5899 2cb4 320E0000 		.4byte	.LASF925
 5900 2cb8 0F       		.byte	0xf
 5901 2cb9 A0       		.byte	0xa0
 5902 2cba CB000000 		.4byte	0xcb
 5903 2cbe 08       		.byte	0x8
 5904 2cbf 0E       		.uleb128 0xe
 5905 2cc0 AF0C0000 		.4byte	.LASF926
 5906 2cc4 0F       		.byte	0xf
ARM GAS  C:\Users\Nazar\AppData\Local\Temp\ccWQ1kO8.s 			page 135


 5907 2cc5 AA       		.byte	0xaa
 5908 2cc6 B5000000 		.4byte	0xb5
 5909 2cca 0A       		.byte	0xa
 5910 2ccb 00       		.byte	0
 5911 2ccc 04       		.uleb128 0x4
 5912 2ccd B0040000 		.4byte	.LASF927
 5913 2cd1 0F       		.byte	0xf
 5914 2cd2 AC       		.byte	0xac
 5915 2cd3 632C0000 		.4byte	0x2c63
 5916 2cd7 0F       		.uleb128 0xf
 5917 2cd8 01       		.byte	0x1
 5918 2cd9 53000000 		.4byte	0x53
 5919 2cdd 10       		.byte	0x10
 5920 2cde 3E       		.byte	0x3e
 5921 2cdf 022D0000 		.4byte	0x2d02
 5922 2ce3 11       		.uleb128 0x11
 5923 2ce4 75110000 		.4byte	.LASF928
 5924 2ce8 00       		.byte	0
 5925 2ce9 11       		.uleb128 0x11
 5926 2cea 9A400000 		.4byte	.LASF929
 5927 2cee 01       		.byte	0x1
 5928 2cef 11       		.uleb128 0x11
 5929 2cf0 7E050000 		.4byte	.LASF930
 5930 2cf4 02       		.byte	0x2
 5931 2cf5 11       		.uleb128 0x11
 5932 2cf6 35100000 		.4byte	.LASF931
 5933 2cfa 03       		.byte	0x3
 5934 2cfb 11       		.uleb128 0x11
 5935 2cfc 741C0000 		.4byte	.LASF932
 5936 2d00 04       		.byte	0x4
 5937 2d01 00       		.byte	0
 5938 2d02 04       		.uleb128 0x4
 5939 2d03 C93C0000 		.4byte	.LASF933
 5940 2d07 10       		.byte	0x10
 5941 2d08 4E       		.byte	0x4e
 5942 2d09 D72C0000 		.4byte	0x2cd7
 5943 2d0d 0D       		.uleb128 0xd
 5944 2d0e 10       		.byte	0x10
 5945 2d0f 10       		.byte	0x10
 5946 2d10 56       		.byte	0x56
 5947 2d11 762D0000 		.4byte	0x2d76
 5948 2d15 0E       		.uleb128 0xe
 5949 2d16 0E150000 		.4byte	.LASF934
 5950 2d1a 10       		.byte	0x10
 5951 2d1b 5E       		.byte	0x5e
 5952 2d1c CB000000 		.4byte	0xcb
 5953 2d20 00       		.byte	0
 5954 2d21 0E       		.uleb128 0xe
 5955 2d22 EE090000 		.4byte	.LASF935
 5956 2d26 10       		.byte	0x10
 5957 2d27 66       		.byte	0x66
 5958 2d28 CB000000 		.4byte	0xcb
 5959 2d2c 02       		.byte	0x2
 5960 2d2d 0E       		.uleb128 0xe
 5961 2d2e 14040000 		.4byte	.LASF936
 5962 2d32 10       		.byte	0x10
 5963 2d33 6F       		.byte	0x6f
ARM GAS  C:\Users\Nazar\AppData\Local\Temp\ccWQ1kO8.s 			page 136


 5964 2d34 022D0000 		.4byte	0x2d02
 5965 2d38 04       		.byte	0x4
 5966 2d39 0E       		.uleb128 0xe
 5967 2d3a EB280000 		.4byte	.LASF923
 5968 2d3e 10       		.byte	0x10
 5969 2d3f 77       		.byte	0x77
 5970 2d40 B5000000 		.4byte	0xb5
 5971 2d44 05       		.byte	0x5
 5972 2d45 0E       		.uleb128 0xe
 5973 2d46 1A080000 		.4byte	.LASF937
 5974 2d4a 10       		.byte	0x10
 5975 2d4b 7E       		.byte	0x7e
 5976 2d4c B5000000 		.4byte	0xb5
 5977 2d50 06       		.byte	0x6
 5978 2d51 0E       		.uleb128 0xe
 5979 2d52 633F0000 		.4byte	.LASF938
 5980 2d56 10       		.byte	0x10
 5981 2d57 84       		.byte	0x84
 5982 2d58 5E270000 		.4byte	0x275e
 5983 2d5c 07       		.byte	0x7
 5984 2d5d 0E       		.uleb128 0xe
 5985 2d5e 57070000 		.4byte	.LASF939
 5986 2d62 10       		.byte	0x10
 5987 2d63 8C       		.byte	0x8c
 5988 2d64 B5000000 		.4byte	0xb5
 5989 2d68 0D       		.byte	0xd
 5990 2d69 0E       		.uleb128 0xe
 5991 2d6a 58250000 		.4byte	.LASF940
 5992 2d6e 10       		.byte	0x10
 5993 2d6f 98       		.byte	0x98
 5994 2d70 B5000000 		.4byte	0xb5
 5995 2d74 0E       		.byte	0xe
 5996 2d75 00       		.byte	0
 5997 2d76 04       		.uleb128 0x4
 5998 2d77 6C000000 		.4byte	.LASF941
 5999 2d7b 10       		.byte	0x10
 6000 2d7c 9A       		.byte	0x9a
 6001 2d7d 0D2D0000 		.4byte	0x2d0d
 6002 2d81 0D       		.uleb128 0xd
 6003 2d82 20       		.byte	0x20
 6004 2d83 10       		.byte	0x10
 6005 2d84 9D       		.byte	0x9d
 6006 2d85 A22D0000 		.4byte	0x2da2
 6007 2d89 0E       		.uleb128 0xe
 6008 2d8a B05B0000 		.4byte	.LASF942
 6009 2d8e 10       		.byte	0x10
 6010 2d8f A0       		.byte	0xa0
 6011 2d90 A22D0000 		.4byte	0x2da2
 6012 2d94 00       		.byte	0
 6013 2d95 0E       		.uleb128 0xe
 6014 2d96 F6540000 		.4byte	.LASF943
 6015 2d9a 10       		.byte	0x10
 6016 2d9b A3       		.byte	0xa3
 6017 2d9c B5000000 		.4byte	0xb5
 6018 2da0 1F       		.byte	0x1f
 6019 2da1 00       		.byte	0
 6020 2da2 0A       		.uleb128 0xa
ARM GAS  C:\Users\Nazar\AppData\Local\Temp\ccWQ1kO8.s 			page 137


 6021 2da3 B5000000 		.4byte	0xb5
 6022 2da7 B22D0000 		.4byte	0x2db2
 6023 2dab 0B       		.uleb128 0xb
 6024 2dac 9E000000 		.4byte	0x9e
 6025 2db0 1E       		.byte	0x1e
 6026 2db1 00       		.byte	0
 6027 2db2 04       		.uleb128 0x4
 6028 2db3 1C3E0000 		.4byte	.LASF944
 6029 2db7 10       		.byte	0x10
 6030 2db8 A5       		.byte	0xa5
 6031 2db9 812D0000 		.4byte	0x2d81
 6032 2dbd 0D       		.uleb128 0xd
 6033 2dbe 20       		.byte	0x20
 6034 2dbf 10       		.byte	0x10
 6035 2dc0 A8       		.byte	0xa8
 6036 2dc1 DE2D0000 		.4byte	0x2dde
 6037 2dc5 0E       		.uleb128 0xe
 6038 2dc6 76290000 		.4byte	.LASF945
 6039 2dca 10       		.byte	0x10
 6040 2dcb AC       		.byte	0xac
 6041 2dcc A22D0000 		.4byte	0x2da2
 6042 2dd0 00       		.byte	0
 6043 2dd1 0E       		.uleb128 0xe
 6044 2dd2 A73C0000 		.4byte	.LASF946
 6045 2dd6 10       		.byte	0x10
 6046 2dd7 AF       		.byte	0xaf
 6047 2dd8 B5000000 		.4byte	0xb5
 6048 2ddc 1F       		.byte	0x1f
 6049 2ddd 00       		.byte	0
 6050 2dde 04       		.uleb128 0x4
 6051 2ddf FA320000 		.4byte	.LASF947
 6052 2de3 10       		.byte	0x10
 6053 2de4 B1       		.byte	0xb1
 6054 2de5 BD2D0000 		.4byte	0x2dbd
 6055 2de9 0D       		.uleb128 0xd
 6056 2dea 14       		.byte	0x14
 6057 2deb 10       		.byte	0x10
 6058 2dec B4       		.byte	0xb4
 6059 2ded 2E2E0000 		.4byte	0x2e2e
 6060 2df1 0E       		.uleb128 0xe
 6061 2df2 19110000 		.4byte	.LASF948
 6062 2df6 10       		.byte	0x10
 6063 2df7 BC       		.byte	0xbc
 6064 2df8 B5000000 		.4byte	0xb5
 6065 2dfc 00       		.byte	0
 6066 2dfd 0E       		.uleb128 0xe
 6067 2dfe D90B0000 		.4byte	.LASF949
 6068 2e02 10       		.byte	0x10
 6069 2e03 C1       		.byte	0xc1
 6070 2e04 2E2E0000 		.4byte	0x2e2e
 6071 2e08 04       		.byte	0x4
 6072 2e09 0E       		.uleb128 0xe
 6073 2e0a B05B0000 		.4byte	.LASF942
 6074 2e0e 10       		.byte	0x10
 6075 2e0f C3       		.byte	0xc3
 6076 2e10 342E0000 		.4byte	0x2e34
 6077 2e14 08       		.byte	0x8
ARM GAS  C:\Users\Nazar\AppData\Local\Temp\ccWQ1kO8.s 			page 138


 6078 2e15 0E       		.uleb128 0xe
 6079 2e16 76290000 		.4byte	.LASF945
 6080 2e1a 10       		.byte	0x10
 6081 2e1b C5       		.byte	0xc5
 6082 2e1c 3A2E0000 		.4byte	0x2e3a
 6083 2e20 0C       		.byte	0xc
 6084 2e21 0E       		.uleb128 0xe
 6085 2e22 85440000 		.4byte	.LASF950
 6086 2e26 10       		.byte	0x10
 6087 2e27 CF       		.byte	0xcf
 6088 2e28 CB000000 		.4byte	0xcb
 6089 2e2c 10       		.byte	0x10
 6090 2e2d 00       		.byte	0
 6091 2e2e 06       		.uleb128 0x6
 6092 2e2f 04       		.byte	0x4
 6093 2e30 762D0000 		.4byte	0x2d76
 6094 2e34 06       		.uleb128 0x6
 6095 2e35 04       		.byte	0x4
 6096 2e36 B22D0000 		.4byte	0x2db2
 6097 2e3a 06       		.uleb128 0x6
 6098 2e3b 04       		.byte	0x4
 6099 2e3c DE2D0000 		.4byte	0x2dde
 6100 2e40 04       		.uleb128 0x4
 6101 2e41 233D0000 		.4byte	.LASF951
 6102 2e45 10       		.byte	0x10
 6103 2e46 D1       		.byte	0xd1
 6104 2e47 E92D0000 		.4byte	0x2de9
 6105 2e4b 0F       		.uleb128 0xf
 6106 2e4c 01       		.byte	0x1
 6107 2e4d 53000000 		.4byte	0x53
 6108 2e51 02       		.byte	0x2
 6109 2e52 69       		.byte	0x69
 6110 2e53 6A2E0000 		.4byte	0x2e6a
 6111 2e57 11       		.uleb128 0x11
 6112 2e58 C3570000 		.4byte	.LASF952
 6113 2e5c 00       		.byte	0
 6114 2e5d 11       		.uleb128 0x11
 6115 2e5e 7B2D0000 		.4byte	.LASF953
 6116 2e62 01       		.byte	0x1
 6117 2e63 11       		.uleb128 0x11
 6118 2e64 38020000 		.4byte	.LASF954
 6119 2e68 02       		.byte	0x2
 6120 2e69 00       		.byte	0
 6121 2e6a 04       		.uleb128 0x4
 6122 2e6b 58240000 		.4byte	.LASF955
 6123 2e6f 02       		.byte	0x2
 6124 2e70 70       		.byte	0x70
 6125 2e71 4B2E0000 		.4byte	0x2e4b
 6126 2e75 0F       		.uleb128 0xf
 6127 2e76 01       		.byte	0x1
 6128 2e77 53000000 		.4byte	0x53
 6129 2e7b 02       		.byte	0x2
 6130 2e7c 7E       		.byte	0x7e
 6131 2e7d 9A2E0000 		.4byte	0x2e9a
 6132 2e81 11       		.uleb128 0x11
 6133 2e82 B6220000 		.4byte	.LASF956
 6134 2e86 00       		.byte	0
ARM GAS  C:\Users\Nazar\AppData\Local\Temp\ccWQ1kO8.s 			page 139


 6135 2e87 11       		.uleb128 0x11
 6136 2e88 43470000 		.4byte	.LASF957
 6137 2e8c 01       		.byte	0x1
 6138 2e8d 11       		.uleb128 0x11
 6139 2e8e 4E1C0000 		.4byte	.LASF958
 6140 2e92 02       		.byte	0x2
 6141 2e93 11       		.uleb128 0x11
 6142 2e94 1D510000 		.4byte	.LASF959
 6143 2e98 03       		.byte	0x3
 6144 2e99 00       		.byte	0
 6145 2e9a 04       		.uleb128 0x4
 6146 2e9b 95100000 		.4byte	.LASF960
 6147 2e9f 02       		.byte	0x2
 6148 2ea0 83       		.byte	0x83
 6149 2ea1 752E0000 		.4byte	0x2e75
 6150 2ea5 0F       		.uleb128 0xf
 6151 2ea6 01       		.byte	0x1
 6152 2ea7 53000000 		.4byte	0x53
 6153 2eab 02       		.byte	0x2
 6154 2eac 87       		.byte	0x87
 6155 2ead E22E0000 		.4byte	0x2ee2
 6156 2eb1 11       		.uleb128 0x11
 6157 2eb2 B72D0000 		.4byte	.LASF961
 6158 2eb6 00       		.byte	0
 6159 2eb7 11       		.uleb128 0x11
 6160 2eb8 301F0000 		.4byte	.LASF962
 6161 2ebc 01       		.byte	0x1
 6162 2ebd 11       		.uleb128 0x11
 6163 2ebe 81470000 		.4byte	.LASF963
 6164 2ec2 02       		.byte	0x2
 6165 2ec3 11       		.uleb128 0x11
 6166 2ec4 58480000 		.4byte	.LASF964
 6167 2ec8 03       		.byte	0x3
 6168 2ec9 11       		.uleb128 0x11
 6169 2eca 070B0000 		.4byte	.LASF965
 6170 2ece 04       		.byte	0x4
 6171 2ecf 11       		.uleb128 0x11
 6172 2ed0 5B420000 		.4byte	.LASF966
 6173 2ed4 05       		.byte	0x5
 6174 2ed5 11       		.uleb128 0x11
 6175 2ed6 F84A0000 		.4byte	.LASF967
 6176 2eda 06       		.byte	0x6
 6177 2edb 11       		.uleb128 0x11
 6178 2edc 1F200000 		.4byte	.LASF968
 6179 2ee0 07       		.byte	0x7
 6180 2ee1 00       		.byte	0
 6181 2ee2 04       		.uleb128 0x4
 6182 2ee3 C6210000 		.4byte	.LASF969
 6183 2ee7 02       		.byte	0x2
 6184 2ee8 90       		.byte	0x90
 6185 2ee9 A52E0000 		.4byte	0x2ea5
 6186 2eed 0D       		.uleb128 0xd
 6187 2eee 0C       		.byte	0xc
 6188 2eef 02       		.byte	0x2
 6189 2ef0 93       		.byte	0x93
 6190 2ef1 3E2F0000 		.4byte	0x2f3e
 6191 2ef5 0E       		.uleb128 0xe
ARM GAS  C:\Users\Nazar\AppData\Local\Temp\ccWQ1kO8.s 			page 140


 6192 2ef6 785B0000 		.4byte	.LASF970
 6193 2efa 02       		.byte	0x2
 6194 2efb 96       		.byte	0x96
 6195 2efc 322B0000 		.4byte	0x2b32
 6196 2f00 00       		.byte	0
 6197 2f01 0E       		.uleb128 0xe
 6198 2f02 47450000 		.4byte	.LASF971
 6199 2f06 02       		.byte	0x2
 6200 2f07 99       		.byte	0x99
 6201 2f08 322B0000 		.4byte	0x2b32
 6202 2f0c 02       		.byte	0x2
 6203 2f0d 0E       		.uleb128 0xe
 6204 2f0e 14590000 		.4byte	.LASF972
 6205 2f12 02       		.byte	0x2
 6206 2f13 9C       		.byte	0x9c
 6207 2f14 322B0000 		.4byte	0x2b32
 6208 2f18 04       		.byte	0x4
 6209 2f19 0E       		.uleb128 0xe
 6210 2f1a F83B0000 		.4byte	.LASF973
 6211 2f1e 02       		.byte	0x2
 6212 2f1f 9F       		.byte	0x9f
 6213 2f20 322B0000 		.4byte	0x2b32
 6214 2f24 06       		.byte	0x6
 6215 2f25 0E       		.uleb128 0xe
 6216 2f26 D9200000 		.4byte	.LASF974
 6217 2f2a 02       		.byte	0x2
 6218 2f2b A2       		.byte	0xa2
 6219 2f2c 322B0000 		.4byte	0x2b32
 6220 2f30 08       		.byte	0x8
 6221 2f31 0E       		.uleb128 0xe
 6222 2f32 A5110000 		.4byte	.LASF975
 6223 2f36 02       		.byte	0x2
 6224 2f37 A5       		.byte	0xa5
 6225 2f38 322B0000 		.4byte	0x2b32
 6226 2f3c 0A       		.byte	0xa
 6227 2f3d 00       		.byte	0
 6228 2f3e 04       		.uleb128 0x4
 6229 2f3f C6250000 		.4byte	.LASF976
 6230 2f43 02       		.byte	0x2
 6231 2f44 A6       		.byte	0xa6
 6232 2f45 ED2E0000 		.4byte	0x2eed
 6233 2f49 1C       		.uleb128 0x1c
 6234 2f4a 0E       		.byte	0xe
 6235 2f4b 02       		.byte	0x2
 6236 2f4c 2B01     		.2byte	0x12b
 6237 2f4e AE2F0000 		.4byte	0x2fae
 6238 2f52 19       		.uleb128 0x19
 6239 2f53 CC040000 		.4byte	.LASF977
 6240 2f57 02       		.byte	0x2
 6241 2f58 2E01     		.2byte	0x12e
 6242 2f5a CB000000 		.4byte	0xcb
 6243 2f5e 00       		.byte	0
 6244 2f5f 19       		.uleb128 0x19
 6245 2f60 6C5A0000 		.4byte	.LASF978
 6246 2f64 02       		.byte	0x2
 6247 2f65 3101     		.2byte	0x131
 6248 2f67 CB000000 		.4byte	0xcb
ARM GAS  C:\Users\Nazar\AppData\Local\Temp\ccWQ1kO8.s 			page 141


 6249 2f6b 02       		.byte	0x2
 6250 2f6c 19       		.uleb128 0x19
 6251 2f6d 650A0000 		.4byte	.LASF979
 6252 2f71 02       		.byte	0x2
 6253 2f72 3401     		.2byte	0x134
 6254 2f74 CB000000 		.4byte	0xcb
 6255 2f78 04       		.byte	0x4
 6256 2f79 19       		.uleb128 0x19
 6257 2f7a C14D0000 		.4byte	.LASF980
 6258 2f7e 02       		.byte	0x2
 6259 2f7f 3701     		.2byte	0x137
 6260 2f81 B5000000 		.4byte	0xb5
 6261 2f85 06       		.byte	0x6
 6262 2f86 19       		.uleb128 0x19
 6263 2f87 DD430000 		.4byte	.LASF981
 6264 2f8b 02       		.byte	0x2
 6265 2f8c 3A01     		.2byte	0x13a
 6266 2f8e CB000000 		.4byte	0xcb
 6267 2f92 08       		.byte	0x8
 6268 2f93 19       		.uleb128 0x19
 6269 2f94 703D0000 		.4byte	.LASF982
 6270 2f98 02       		.byte	0x2
 6271 2f99 3D01     		.2byte	0x13d
 6272 2f9b CB000000 		.4byte	0xcb
 6273 2f9f 0A       		.byte	0xa
 6274 2fa0 19       		.uleb128 0x19
 6275 2fa1 6F350000 		.4byte	.LASF983
 6276 2fa5 02       		.byte	0x2
 6277 2fa6 4001     		.2byte	0x140
 6278 2fa8 CB000000 		.4byte	0xcb
 6279 2fac 0C       		.byte	0xc
 6280 2fad 00       		.byte	0
 6281 2fae 12       		.uleb128 0x12
 6282 2faf 0A260000 		.4byte	.LASF984
 6283 2fb3 02       		.byte	0x2
 6284 2fb4 4101     		.2byte	0x141
 6285 2fb6 492F0000 		.4byte	0x2f49
 6286 2fba 1C       		.uleb128 0x1c
 6287 2fbb 16       		.byte	0x16
 6288 2fbc 02       		.byte	0x2
 6289 2fbd 4401     		.2byte	0x144
 6290 2fbf 53300000 		.4byte	0x3053
 6291 2fc3 19       		.uleb128 0x19
 6292 2fc4 DA490000 		.4byte	.LASF985
 6293 2fc8 02       		.byte	0x2
 6294 2fc9 4701     		.2byte	0x147
 6295 2fcb CB000000 		.4byte	0xcb
 6296 2fcf 00       		.byte	0
 6297 2fd0 19       		.uleb128 0x19
 6298 2fd1 09380000 		.4byte	.LASF986
 6299 2fd5 02       		.byte	0x2
 6300 2fd6 4A01     		.2byte	0x14a
 6301 2fd8 CB000000 		.4byte	0xcb
 6302 2fdc 02       		.byte	0x2
 6303 2fdd 19       		.uleb128 0x19
 6304 2fde 89300000 		.4byte	.LASF987
 6305 2fe2 02       		.byte	0x2
ARM GAS  C:\Users\Nazar\AppData\Local\Temp\ccWQ1kO8.s 			page 142


 6306 2fe3 4D01     		.2byte	0x14d
 6307 2fe5 CB000000 		.4byte	0xcb
 6308 2fe9 04       		.byte	0x4
 6309 2fea 19       		.uleb128 0x19
 6310 2feb B4200000 		.4byte	.LASF988
 6311 2fef 02       		.byte	0x2
 6312 2ff0 5001     		.2byte	0x150
 6313 2ff2 B5000000 		.4byte	0xb5
 6314 2ff6 06       		.byte	0x6
 6315 2ff7 19       		.uleb128 0x19
 6316 2ff8 A1240000 		.4byte	.LASF989
 6317 2ffc 02       		.byte	0x2
 6318 2ffd 5301     		.2byte	0x153
 6319 2fff CB000000 		.4byte	0xcb
 6320 3003 08       		.byte	0x8
 6321 3004 19       		.uleb128 0x19
 6322 3005 833D0000 		.4byte	.LASF990
 6323 3009 02       		.byte	0x2
 6324 300a 5601     		.2byte	0x156
 6325 300c CB000000 		.4byte	0xcb
 6326 3010 0A       		.byte	0xa
 6327 3011 19       		.uleb128 0x19
 6328 3012 36120000 		.4byte	.LASF991
 6329 3016 02       		.byte	0x2
 6330 3017 5901     		.2byte	0x159
 6331 3019 CB000000 		.4byte	0xcb
 6332 301d 0C       		.byte	0xc
 6333 301e 19       		.uleb128 0x19
 6334 301f 760B0000 		.4byte	.LASF992
 6335 3023 02       		.byte	0x2
 6336 3024 5C01     		.2byte	0x15c
 6337 3026 CB000000 		.4byte	0xcb
 6338 302a 0E       		.byte	0xe
 6339 302b 19       		.uleb128 0x19
 6340 302c C7460000 		.4byte	.LASF993
 6341 3030 02       		.byte	0x2
 6342 3031 5F01     		.2byte	0x15f
 6343 3033 CB000000 		.4byte	0xcb
 6344 3037 10       		.byte	0x10
 6345 3038 19       		.uleb128 0x19
 6346 3039 18450000 		.4byte	.LASF994
 6347 303d 02       		.byte	0x2
 6348 303e 6301     		.2byte	0x163
 6349 3040 CB000000 		.4byte	0xcb
 6350 3044 12       		.byte	0x12
 6351 3045 19       		.uleb128 0x19
 6352 3046 934A0000 		.4byte	.LASF995
 6353 304a 02       		.byte	0x2
 6354 304b 6601     		.2byte	0x166
 6355 304d CB000000 		.4byte	0xcb
 6356 3051 14       		.byte	0x14
 6357 3052 00       		.byte	0
 6358 3053 12       		.uleb128 0x12
 6359 3054 2D270000 		.4byte	.LASF996
 6360 3058 02       		.byte	0x2
 6361 3059 6701     		.2byte	0x167
 6362 305b BA2F0000 		.4byte	0x2fba
ARM GAS  C:\Users\Nazar\AppData\Local\Temp\ccWQ1kO8.s 			page 143


 6363 305f 0D       		.uleb128 0xd
 6364 3060 08       		.byte	0x8
 6365 3061 11       		.byte	0x11
 6366 3062 D6       		.byte	0xd6
 6367 3063 80300000 		.4byte	0x3080
 6368 3067 0E       		.uleb128 0xe
 6369 3068 80230000 		.4byte	.LASF997
 6370 306c 11       		.byte	0x11
 6371 306d D9       		.byte	0xd9
 6372 306e CB000000 		.4byte	0xcb
 6373 3072 00       		.byte	0
 6374 3073 0E       		.uleb128 0xe
 6375 3074 CD530000 		.4byte	.LASF998
 6376 3078 11       		.byte	0x11
 6377 3079 DE       		.byte	0xde
 6378 307a A5000000 		.4byte	0xa5
 6379 307e 04       		.byte	0x4
 6380 307f 00       		.byte	0
 6381 3080 04       		.uleb128 0x4
 6382 3081 8D230000 		.4byte	.LASF999
 6383 3085 11       		.byte	0x11
 6384 3086 E0       		.byte	0xe0
 6385 3087 5F300000 		.4byte	0x305f
 6386 308b 0D       		.uleb128 0xd
 6387 308c 08       		.byte	0x8
 6388 308d 11       		.byte	0x11
 6389 308e E3       		.byte	0xe3
 6390 308f AC300000 		.4byte	0x30ac
 6391 3093 0E       		.uleb128 0xe
 6392 3094 82550000 		.4byte	.LASF1000
 6393 3098 11       		.byte	0x11
 6394 3099 E6       		.byte	0xe6
 6395 309a CB000000 		.4byte	0xcb
 6396 309e 00       		.byte	0
 6397 309f 0E       		.uleb128 0xe
 6398 30a0 7E210000 		.4byte	.LASF1001
 6399 30a4 11       		.byte	0x11
 6400 30a5 EB       		.byte	0xeb
 6401 30a6 AC300000 		.4byte	0x30ac
 6402 30aa 04       		.byte	0x4
 6403 30ab 00       		.byte	0
 6404 30ac 06       		.uleb128 0x6
 6405 30ad 04       		.byte	0x4
 6406 30ae 80300000 		.4byte	0x3080
 6407 30b2 04       		.uleb128 0x4
 6408 30b3 6D4E0000 		.4byte	.LASF1002
 6409 30b7 11       		.byte	0x11
 6410 30b8 ED       		.byte	0xed
 6411 30b9 8B300000 		.4byte	0x308b
 6412 30bd 24       		.uleb128 0x24
 6413 30be 08       		.byte	0x8
 6414 30bf 11       		.byte	0x11
 6415 30c0 F0       		.byte	0xf0
 6416 30c1 DC300000 		.4byte	0x30dc
 6417 30c5 25       		.uleb128 0x25
 6418 30c6 67520000 		.4byte	.LASF1003
 6419 30ca 11       		.byte	0x11
ARM GAS  C:\Users\Nazar\AppData\Local\Temp\ccWQ1kO8.s 			page 144


 6420 30cb F6       		.byte	0xf6
 6421 30cc B2300000 		.4byte	0x30b2
 6422 30d0 25       		.uleb128 0x25
 6423 30d1 68250000 		.4byte	.LASF1004
 6424 30d5 11       		.byte	0x11
 6425 30d6 F9       		.byte	0xf9
 6426 30d7 CB000000 		.4byte	0xcb
 6427 30db 00       		.byte	0
 6428 30dc 04       		.uleb128 0x4
 6429 30dd 09070000 		.4byte	.LASF1005
 6430 30e1 11       		.byte	0x11
 6431 30e2 FB       		.byte	0xfb
 6432 30e3 BD300000 		.4byte	0x30bd
 6433 30e7 0D       		.uleb128 0xd
 6434 30e8 14       		.byte	0x14
 6435 30e9 11       		.byte	0x11
 6436 30ea FE       		.byte	0xfe
 6437 30eb 31310000 		.4byte	0x3131
 6438 30ef 19       		.uleb128 0x19
 6439 30f0 CC2B0000 		.4byte	.LASF1006
 6440 30f4 11       		.byte	0x11
 6441 30f5 0101     		.2byte	0x101
 6442 30f7 CB000000 		.4byte	0xcb
 6443 30fb 00       		.byte	0
 6444 30fc 19       		.uleb128 0x19
 6445 30fd A31D0000 		.4byte	.LASF1007
 6446 3101 11       		.byte	0x11
 6447 3102 0701     		.2byte	0x107
 6448 3104 CB000000 		.4byte	0xcb
 6449 3108 02       		.byte	0x2
 6450 3109 19       		.uleb128 0x19
 6451 310a F31B0000 		.4byte	.LASF1008
 6452 310e 11       		.byte	0x11
 6453 310f 1501     		.2byte	0x115
 6454 3111 D6000000 		.4byte	0xd6
 6455 3115 04       		.byte	0x4
 6456 3116 19       		.uleb128 0x19
 6457 3117 F4510000 		.4byte	.LASF1009
 6458 311b 11       		.byte	0x11
 6459 311c 1801     		.2byte	0x118
 6460 311e CB000000 		.4byte	0xcb
 6461 3122 08       		.byte	0x8
 6462 3123 19       		.uleb128 0x19
 6463 3124 2F560000 		.4byte	.LASF1010
 6464 3128 11       		.byte	0x11
 6465 3129 2101     		.2byte	0x121
 6466 312b DC300000 		.4byte	0x30dc
 6467 312f 0C       		.byte	0xc
 6468 3130 00       		.byte	0
 6469 3131 12       		.uleb128 0x12
 6470 3132 E41F0000 		.4byte	.LASF1011
 6471 3136 11       		.byte	0x11
 6472 3137 2301     		.2byte	0x123
 6473 3139 E7300000 		.4byte	0x30e7
 6474 313d 1C       		.uleb128 0x1c
 6475 313e 08       		.byte	0x8
 6476 313f 11       		.byte	0x11
ARM GAS  C:\Users\Nazar\AppData\Local\Temp\ccWQ1kO8.s 			page 145


 6477 3140 2601     		.2byte	0x126
 6478 3142 6E310000 		.4byte	0x316e
 6479 3146 19       		.uleb128 0x19
 6480 3147 D0280000 		.4byte	.LASF1012
 6481 314b 11       		.byte	0x11
 6482 314c 2901     		.2byte	0x129
 6483 314e 6E310000 		.4byte	0x316e
 6484 3152 00       		.byte	0
 6485 3153 19       		.uleb128 0x19
 6486 3154 3C260000 		.4byte	.LASF1013
 6487 3158 11       		.byte	0x11
 6488 3159 2C01     		.2byte	0x12c
 6489 315b CB000000 		.4byte	0xcb
 6490 315f 04       		.byte	0x4
 6491 3160 19       		.uleb128 0x19
 6492 3161 3A400000 		.4byte	.LASF1014
 6493 3165 11       		.byte	0x11
 6494 3166 2F01     		.2byte	0x12f
 6495 3168 CB000000 		.4byte	0xcb
 6496 316c 06       		.byte	0x6
 6497 316d 00       		.byte	0
 6498 316e 06       		.uleb128 0x6
 6499 316f 04       		.byte	0x4
 6500 3170 74310000 		.4byte	0x3174
 6501 3174 09       		.uleb128 0x9
 6502 3175 31310000 		.4byte	0x3131
 6503 3179 12       		.uleb128 0x12
 6504 317a B12B0000 		.4byte	.LASF1015
 6505 317e 11       		.byte	0x11
 6506 317f 3101     		.2byte	0x131
 6507 3181 3D310000 		.4byte	0x313d
 6508 3185 0D       		.uleb128 0xd
 6509 3186 06       		.byte	0x6
 6510 3187 12       		.byte	0x12
 6511 3188 87       		.byte	0x87
 6512 3189 B2310000 		.4byte	0x31b2
 6513 318d 0E       		.uleb128 0xe
 6514 318e 785B0000 		.4byte	.LASF970
 6515 3192 12       		.byte	0x12
 6516 3193 89       		.byte	0x89
 6517 3194 322B0000 		.4byte	0x2b32
 6518 3198 00       		.byte	0
 6519 3199 0E       		.uleb128 0xe
 6520 319a 69050000 		.4byte	.LASF1016
 6521 319e 12       		.byte	0x12
 6522 319f 8A       		.byte	0x8a
 6523 31a0 322B0000 		.4byte	0x2b32
 6524 31a4 02       		.byte	0x2
 6525 31a5 0E       		.uleb128 0xe
 6526 31a6 55580000 		.4byte	.LASF1017
 6527 31aa 12       		.byte	0x12
 6528 31ab 8B       		.byte	0x8b
 6529 31ac 322B0000 		.4byte	0x2b32
 6530 31b0 04       		.byte	0x4
 6531 31b1 00       		.byte	0
 6532 31b2 04       		.uleb128 0x4
 6533 31b3 89500000 		.4byte	.LASF1018
ARM GAS  C:\Users\Nazar\AppData\Local\Temp\ccWQ1kO8.s 			page 146


 6534 31b7 12       		.byte	0x12
 6535 31b8 8C       		.byte	0x8c
 6536 31b9 85310000 		.4byte	0x3185
 6537 31bd 04       		.uleb128 0x4
 6538 31be C7400000 		.4byte	.LASF1019
 6539 31c2 13       		.byte	0x13
 6540 31c3 40       		.byte	0x40
 6541 31c4 C8310000 		.4byte	0x31c8
 6542 31c8 06       		.uleb128 0x6
 6543 31c9 04       		.byte	0x4
 6544 31ca CE310000 		.4byte	0x31ce
 6545 31ce 23       		.uleb128 0x23
 6546 31cf DE310000 		.4byte	0x31de
 6547 31d3 20       		.uleb128 0x20
 6548 31d4 D6000000 		.4byte	0xd6
 6549 31d8 20       		.uleb128 0x20
 6550 31d9 A5000000 		.4byte	0xa5
 6551 31dd 00       		.byte	0
 6552 31de 03       		.uleb128 0x3
 6553 31df 01       		.byte	0x1
 6554 31e0 02       		.byte	0x2
 6555 31e1 AE200000 		.4byte	.LASF1020
 6556 31e5 1C       		.uleb128 0x1c
 6557 31e6 31       		.byte	0x31
 6558 31e7 13       		.byte	0x13
 6559 31e8 DE01     		.2byte	0x1de
 6560 31ea 23320000 		.4byte	0x3223
 6561 31ee 19       		.uleb128 0x19
 6562 31ef F63E0000 		.4byte	.LASF1021
 6563 31f3 13       		.byte	0x13
 6564 31f4 E101     		.2byte	0x1e1
 6565 31f6 23320000 		.4byte	0x3223
 6566 31fa 00       		.byte	0
 6567 31fb 19       		.uleb128 0x19
 6568 31fc 56540000 		.4byte	.LASF1022
 6569 3200 13       		.byte	0x13
 6570 3201 E401     		.2byte	0x1e4
 6571 3203 33320000 		.4byte	0x3233
 6572 3207 2A       		.byte	0x2a
 6573 3208 19       		.uleb128 0x19
 6574 3209 A1170000 		.4byte	.LASF1023
 6575 320d 13       		.byte	0x13
 6576 320e E701     		.2byte	0x1e7
 6577 3210 B5000000 		.4byte	0xb5
 6578 3214 2F       		.byte	0x2f
 6579 3215 19       		.uleb128 0x19
 6580 3216 513D0000 		.4byte	.LASF1024
 6581 321a 13       		.byte	0x13
 6582 321b EA01     		.2byte	0x1ea
 6583 321d B5000000 		.4byte	0xb5
 6584 3221 30       		.byte	0x30
 6585 3222 00       		.byte	0
 6586 3223 0A       		.uleb128 0xa
 6587 3224 B5000000 		.4byte	0xb5
 6588 3228 33320000 		.4byte	0x3233
 6589 322c 0B       		.uleb128 0xb
 6590 322d 9E000000 		.4byte	0x9e
ARM GAS  C:\Users\Nazar\AppData\Local\Temp\ccWQ1kO8.s 			page 147


 6591 3231 29       		.byte	0x29
 6592 3232 00       		.byte	0
 6593 3233 0A       		.uleb128 0xa
 6594 3234 B5000000 		.4byte	0xb5
 6595 3238 49320000 		.4byte	0x3249
 6596 323c 0B       		.uleb128 0xb
 6597 323d 9E000000 		.4byte	0x9e
 6598 3241 00       		.byte	0
 6599 3242 0B       		.uleb128 0xb
 6600 3243 9E000000 		.4byte	0x9e
 6601 3247 04       		.byte	0x4
 6602 3248 00       		.byte	0
 6603 3249 12       		.uleb128 0x12
 6604 324a 27150000 		.4byte	.LASF1025
 6605 324e 13       		.byte	0x13
 6606 324f EB01     		.2byte	0x1eb
 6607 3251 E5310000 		.4byte	0x31e5
 6608 3255 1C       		.uleb128 0x1c
 6609 3256 08       		.byte	0x8
 6610 3257 13       		.byte	0x13
 6611 3258 EE01     		.2byte	0x1ee
 6612 325a AD320000 		.4byte	0x32ad
 6613 325e 19       		.uleb128 0x19
 6614 325f 2F290000 		.4byte	.LASF1026
 6615 3263 13       		.byte	0x13
 6616 3264 F101     		.2byte	0x1f1
 6617 3266 6C2A0000 		.4byte	0x2a6c
 6618 326a 00       		.byte	0
 6619 326b 19       		.uleb128 0x19
 6620 326c E5540000 		.4byte	.LASF1027
 6621 3270 13       		.byte	0x13
 6622 3271 F401     		.2byte	0x1f4
 6623 3273 6C2A0000 		.4byte	0x2a6c
 6624 3277 01       		.byte	0x1
 6625 3278 19       		.uleb128 0x19
 6626 3279 B6100000 		.4byte	.LASF1028
 6627 327d 13       		.byte	0x13
 6628 327e F701     		.2byte	0x1f7
 6629 3280 692B0000 		.4byte	0x2b69
 6630 3284 02       		.byte	0x2
 6631 3285 19       		.uleb128 0x19
 6632 3286 F8590000 		.4byte	.LASF1029
 6633 328a 13       		.byte	0x13
 6634 328b FA01     		.2byte	0x1fa
 6635 328d B5000000 		.4byte	0xb5
 6636 3291 03       		.byte	0x3
 6637 3292 19       		.uleb128 0x19
 6638 3293 15420000 		.4byte	.LASF1030
 6639 3297 13       		.byte	0x13
 6640 3298 FD01     		.2byte	0x1fd
 6641 329a B5000000 		.4byte	0xb5
 6642 329e 04       		.byte	0x4
 6643 329f 19       		.uleb128 0x19
 6644 32a0 1D220000 		.4byte	.LASF1031
 6645 32a4 13       		.byte	0x13
 6646 32a5 0002     		.2byte	0x200
 6647 32a7 CB000000 		.4byte	0xcb
ARM GAS  C:\Users\Nazar\AppData\Local\Temp\ccWQ1kO8.s 			page 148


 6648 32ab 06       		.byte	0x6
 6649 32ac 00       		.byte	0
 6650 32ad 12       		.uleb128 0x12
 6651 32ae 25550000 		.4byte	.LASF1032
 6652 32b2 13       		.byte	0x13
 6653 32b3 0102     		.2byte	0x201
 6654 32b5 55320000 		.4byte	0x3255
 6655 32b9 1C       		.uleb128 0x1c
 6656 32ba 3C       		.byte	0x3c
 6657 32bb 13       		.byte	0x13
 6658 32bc 0502     		.2byte	0x205
 6659 32be 86330000 		.4byte	0x3386
 6660 32c2 19       		.uleb128 0x19
 6661 32c3 571E0000 		.4byte	.LASF1033
 6662 32c7 13       		.byte	0x13
 6663 32c8 0902     		.2byte	0x209
 6664 32ca 86330000 		.4byte	0x3386
 6665 32ce 00       		.byte	0
 6666 32cf 19       		.uleb128 0x19
 6667 32d0 624F0000 		.4byte	.LASF1034
 6668 32d4 13       		.byte	0x13
 6669 32d5 0C02     		.2byte	0x20c
 6670 32d7 8C330000 		.4byte	0x338c
 6671 32db 04       		.byte	0x4
 6672 32dc 19       		.uleb128 0x19
 6673 32dd 8C150000 		.4byte	.LASF1035
 6674 32e1 13       		.byte	0x13
 6675 32e2 0F02     		.2byte	0x20f
 6676 32e4 92330000 		.4byte	0x3392
 6677 32e8 08       		.byte	0x8
 6678 32e9 19       		.uleb128 0x19
 6679 32ea 93260000 		.4byte	.LASF1036
 6680 32ee 13       		.byte	0x13
 6681 32ef 1202     		.2byte	0x212
 6682 32f1 98330000 		.4byte	0x3398
 6683 32f5 0C       		.byte	0xc
 6684 32f6 19       		.uleb128 0x19
 6685 32f7 632E0000 		.4byte	.LASF1037
 6686 32fb 13       		.byte	0x13
 6687 32fc 1502     		.2byte	0x215
 6688 32fe 9E330000 		.4byte	0x339e
 6689 3302 10       		.byte	0x10
 6690 3303 19       		.uleb128 0x19
 6691 3304 A63D0000 		.4byte	.LASF1038
 6692 3308 13       		.byte	0x13
 6693 3309 1802     		.2byte	0x218
 6694 330b A9330000 		.4byte	0x33a9
 6695 330f 14       		.byte	0x14
 6696 3310 19       		.uleb128 0x19
 6697 3311 F4050000 		.4byte	.LASF1039
 6698 3315 13       		.byte	0x13
 6699 3316 1B02     		.2byte	0x21b
 6700 3318 B4330000 		.4byte	0x33b4
 6701 331c 18       		.byte	0x18
 6702 331d 19       		.uleb128 0x19
 6703 331e 6D2D0000 		.4byte	.LASF1040
 6704 3322 13       		.byte	0x13
ARM GAS  C:\Users\Nazar\AppData\Local\Temp\ccWQ1kO8.s 			page 149


 6705 3323 1E02     		.2byte	0x21e
 6706 3325 DA290000 		.4byte	0x29da
 6707 3329 1C       		.byte	0x1c
 6708 332a 19       		.uleb128 0x19
 6709 332b 864C0000 		.4byte	.LASF1041
 6710 332f 13       		.byte	0x13
 6711 3330 2102     		.2byte	0x221
 6712 3332 6E310000 		.4byte	0x316e
 6713 3336 20       		.byte	0x20
 6714 3337 19       		.uleb128 0x19
 6715 3338 B91F0000 		.4byte	.LASF1042
 6716 333c 13       		.byte	0x13
 6717 333d 2402     		.2byte	0x224
 6718 333f BF330000 		.4byte	0x33bf
 6719 3343 24       		.byte	0x24
 6720 3344 19       		.uleb128 0x19
 6721 3345 BB0E0000 		.4byte	.LASF1043
 6722 3349 13       		.byte	0x13
 6723 334a 2702     		.2byte	0x227
 6724 334c C5330000 		.4byte	0x33c5
 6725 3350 28       		.byte	0x28
 6726 3351 19       		.uleb128 0x19
 6727 3352 42150000 		.4byte	.LASF1044
 6728 3356 13       		.byte	0x13
 6729 3357 2B02     		.2byte	0x22b
 6730 3359 BD310000 		.4byte	0x31bd
 6731 335d 2C       		.byte	0x2c
 6732 335e 19       		.uleb128 0x19
 6733 335f 7C1D0000 		.4byte	.LASF1045
 6734 3363 13       		.byte	0x13
 6735 3364 2E02     		.2byte	0x22e
 6736 3366 D0330000 		.4byte	0x33d0
 6737 336a 30       		.byte	0x30
 6738 336b 19       		.uleb128 0x19
 6739 336c BC410000 		.4byte	.LASF1046
 6740 3370 13       		.byte	0x13
 6741 3371 3202     		.2byte	0x232
 6742 3373 D6330000 		.4byte	0x33d6
 6743 3377 34       		.byte	0x34
 6744 3378 19       		.uleb128 0x19
 6745 3379 072B0000 		.4byte	.LASF844
 6746 337d 13       		.byte	0x13
 6747 337e 3502     		.2byte	0x235
 6748 3380 E1330000 		.4byte	0x33e1
 6749 3384 38       		.byte	0x38
 6750 3385 00       		.byte	0
 6751 3386 06       		.uleb128 0x6
 6752 3387 04       		.byte	0x4
 6753 3388 402E0000 		.4byte	0x2e40
 6754 338c 06       		.uleb128 0x6
 6755 338d 04       		.byte	0x4
 6756 338e AE2F0000 		.4byte	0x2fae
 6757 3392 06       		.uleb128 0x6
 6758 3393 04       		.byte	0x4
 6759 3394 CC2C0000 		.4byte	0x2ccc
 6760 3398 06       		.uleb128 0x6
 6761 3399 04       		.byte	0x4
ARM GAS  C:\Users\Nazar\AppData\Local\Temp\ccWQ1kO8.s 			page 150


 6762 339a 53300000 		.4byte	0x3053
 6763 339e 06       		.uleb128 0x6
 6764 339f 04       		.byte	0x4
 6765 33a0 A4330000 		.4byte	0x33a4
 6766 33a4 09       		.uleb128 0x9
 6767 33a5 49320000 		.4byte	0x3249
 6768 33a9 06       		.uleb128 0x6
 6769 33aa 04       		.byte	0x4
 6770 33ab AF330000 		.4byte	0x33af
 6771 33af 09       		.uleb128 0x9
 6772 33b0 B2310000 		.4byte	0x31b2
 6773 33b4 06       		.uleb128 0x6
 6774 33b5 04       		.byte	0x4
 6775 33b6 BA330000 		.4byte	0x33ba
 6776 33ba 09       		.uleb128 0x9
 6777 33bb 3E2F0000 		.4byte	0x2f3e
 6778 33bf 06       		.uleb128 0x6
 6779 33c0 04       		.byte	0x4
 6780 33c1 572C0000 		.4byte	0x2c57
 6781 33c5 06       		.uleb128 0x6
 6782 33c6 04       		.byte	0x4
 6783 33c7 CB330000 		.4byte	0x33cb
 6784 33cb 09       		.uleb128 0x9
 6785 33cc AD320000 		.4byte	0x32ad
 6786 33d0 06       		.uleb128 0x6
 6787 33d1 04       		.byte	0x4
 6788 33d2 F32B0000 		.4byte	0x2bf3
 6789 33d6 06       		.uleb128 0x6
 6790 33d7 04       		.byte	0x4
 6791 33d8 DC330000 		.4byte	0x33dc
 6792 33dc 09       		.uleb128 0x9
 6793 33dd 00210000 		.4byte	0x2100
 6794 33e1 06       		.uleb128 0x6
 6795 33e2 04       		.byte	0x4
 6796 33e3 BB280000 		.4byte	0x28bb
 6797 33e7 12       		.uleb128 0x12
 6798 33e8 BB140000 		.4byte	.LASF1047
 6799 33ec 13       		.byte	0x13
 6800 33ed 4C02     		.2byte	0x24c
 6801 33ef B9320000 		.4byte	0x32b9
 6802 33f3 12       		.uleb128 0x12
 6803 33f4 F5080000 		.4byte	.LASF1048
 6804 33f8 13       		.byte	0x13
 6805 33f9 4F02     		.2byte	0x24f
 6806 33fb AE000000 		.4byte	0xae
 6807 33ff 0F       		.uleb128 0xf
 6808 3400 04       		.byte	0x4
 6809 3401 2C000000 		.4byte	0x2c
 6810 3405 14       		.byte	0x14
 6811 3406 47       		.byte	0x47
 6812 3407 5A340000 		.4byte	0x345a
 6813 340b 11       		.uleb128 0x11
 6814 340c C21F0000 		.4byte	.LASF1049
 6815 3410 00       		.byte	0
 6816 3411 1E       		.uleb128 0x1e
 6817 3412 07530000 		.4byte	.LASF1050
 6818 3416 01018A00 		.4byte	0x8a0101
ARM GAS  C:\Users\Nazar\AppData\Local\Temp\ccWQ1kO8.s 			page 151


 6819 341a 1E       		.uleb128 0x1e
 6820 341b EE370000 		.4byte	.LASF1051
 6821 341f 02018A00 		.4byte	0x8a0102
 6822 3423 1E       		.uleb128 0x1e
 6823 3424 8C4B0000 		.4byte	.LASF1052
 6824 3428 03018A00 		.4byte	0x8a0103
 6825 342c 1E       		.uleb128 0x1e
 6826 342d DF590000 		.4byte	.LASF1053
 6827 3431 04018A00 		.4byte	0x8a0104
 6828 3435 1E       		.uleb128 0x1e
 6829 3436 17570000 		.4byte	.LASF1054
 6830 343a 02018800 		.4byte	0x880102
 6831 343e 1E       		.uleb128 0x1e
 6832 343f 00120000 		.4byte	.LASF1055
 6833 3443 03018800 		.4byte	0x880103
 6834 3447 1E       		.uleb128 0x1e
 6835 3448 7C1A0000 		.4byte	.LASF1056
 6836 344c 01018800 		.4byte	0x880101
 6837 3450 1E       		.uleb128 0x1e
 6838 3451 74560000 		.4byte	.LASF1057
 6839 3455 00018800 		.4byte	0x880100
 6840 3459 00       		.byte	0
 6841 345a 26       		.uleb128 0x26
 6842 345b 080D0000 		.4byte	.LASF1116
 6843 345f 02       		.byte	0x2
 6844 3460 F902     		.2byte	0x2f9
 6845 3462 03       		.byte	0x3
 6846 3463 74340000 		.4byte	0x3474
 6847 3467 27       		.uleb128 0x27
 6848 3468 B2450000 		.4byte	.LASF1117
 6849 346c 02       		.byte	0x2
 6850 346d F902     		.2byte	0x2f9
 6851 346f 9A2E0000 		.4byte	0x2e9a
 6852 3473 00       		.byte	0
 6853 3474 28       		.uleb128 0x28
 6854 3475 20530000 		.4byte	.LASF1064
 6855 3479 01       		.byte	0x1
 6856 347a 0903     		.2byte	0x309
 6857 347c 4D210000 		.4byte	0x214d
 6858 3480 00000000 		.4byte	.LFB174
 6859 3484 C4000000 		.4byte	.LFE174-.LFB174
 6860 3488 01       		.uleb128 0x1
 6861 3489 9C       		.byte	0x9c
 6862 348a 91350000 		.4byte	0x3591
 6863 348e 29       		.uleb128 0x29
 6864 348f 39390000 		.4byte	.LASF664
 6865 3493 01       		.byte	0x1
 6866 3494 0903     		.2byte	0x309
 6867 3496 33220000 		.4byte	0x2233
 6868 349a 00000000 		.4byte	.LLST0
 6869 349e 29       		.uleb128 0x29
 6870 349f 53560000 		.4byte	.LASF1058
 6871 34a3 01       		.byte	0x1
 6872 34a4 0A03     		.2byte	0x30a
 6873 34a6 D1210000 		.4byte	0x21d1
 6874 34aa 53000000 		.4byte	.LLST1
 6875 34ae 2A       		.uleb128 0x2a
ARM GAS  C:\Users\Nazar\AppData\Local\Temp\ccWQ1kO8.s 			page 152


 6876 34af 63430000 		.4byte	.LASF1059
 6877 34b3 01       		.byte	0x1
 6878 34b4 0E03     		.2byte	0x30e
 6879 34b6 4D210000 		.4byte	0x214d
 6880 34ba A6000000 		.4byte	.LLST2
 6881 34be 2B       		.uleb128 0x2b
 6882 34bf 3F280000 		.4byte	.LASF1060
 6883 34c3 01       		.byte	0x1
 6884 34c4 0F03     		.2byte	0x30f
 6885 34c6 D6000000 		.4byte	0xd6
 6886 34ca 05       		.uleb128 0x5
 6887 34cb 03       		.byte	0x3
 6888 34cc 00000000 		.4byte	interruptState.14023
 6889 34d0 2A       		.uleb128 0x2a
 6890 34d1 B9380000 		.4byte	.LASF1061
 6891 34d5 01       		.byte	0x1
 6892 34d6 1003     		.2byte	0x310
 6893 34d8 DC2A0000 		.4byte	0x2adc
 6894 34dc DB000000 		.4byte	.LLST3
 6895 34e0 2A       		.uleb128 0x2a
 6896 34e1 0A2E0000 		.4byte	.LASF1062
 6897 34e5 01       		.byte	0x1
 6898 34e6 1303     		.2byte	0x313
 6899 34e8 982A0000 		.4byte	0x2a98
 6900 34ec 46010000 		.4byte	.LLST4
 6901 34f0 2C       		.uleb128 0x2c
 6902 34f1 28000000 		.4byte	.LBB5
 6903 34f5 6C000000 		.4byte	.LBE5-.LBB5
 6904 34f9 6B350000 		.4byte	0x356b
 6905 34fd 2A       		.uleb128 0x2a
 6906 34fe A60B0000 		.4byte	.LASF1063
 6907 3502 01       		.byte	0x1
 6908 3503 3503     		.2byte	0x335
 6909 3505 0C270000 		.4byte	0x270c
 6910 3509 64010000 		.4byte	.LLST5
 6911 350d 2D       		.uleb128 0x2d
 6912 350e 2E000000 		.4byte	.LVL4
 6913 3512 10390000 		.4byte	0x3910
 6914 3516 20350000 		.4byte	0x3520
 6915 351a 2E       		.uleb128 0x2e
 6916 351b 01       		.uleb128 0x1
 6917 351c 50       		.byte	0x50
 6918 351d 01       		.uleb128 0x1
 6919 351e 32       		.byte	0x32
 6920 351f 00       		.byte	0
 6921 3520 2F       		.uleb128 0x2f
 6922 3521 34000000 		.4byte	.LVL6
 6923 3525 1C390000 		.4byte	0x391c
 6924 3529 2F       		.uleb128 0x2f
 6925 352a 3C000000 		.4byte	.LVL7
 6926 352e 28390000 		.4byte	0x3928
 6927 3532 2D       		.uleb128 0x2d
 6928 3533 4C000000 		.4byte	.LVL10
 6929 3537 34390000 		.4byte	0x3934
 6930 353b 45350000 		.4byte	0x3545
 6931 353f 2E       		.uleb128 0x2e
 6932 3540 01       		.uleb128 0x1
ARM GAS  C:\Users\Nazar\AppData\Local\Temp\ccWQ1kO8.s 			page 153


 6933 3541 50       		.byte	0x50
 6934 3542 01       		.uleb128 0x1
 6935 3543 32       		.byte	0x32
 6936 3544 00       		.byte	0
 6937 3545 2D       		.uleb128 0x2d
 6938 3546 62000000 		.4byte	.LVL14
 6939 354a 34390000 		.4byte	0x3934
 6940 354e 58350000 		.4byte	0x3558
 6941 3552 2E       		.uleb128 0x2e
 6942 3553 01       		.uleb128 0x1
 6943 3554 50       		.byte	0x50
 6944 3555 01       		.uleb128 0x1
 6945 3556 31       		.byte	0x31
 6946 3557 00       		.byte	0
 6947 3558 2F       		.uleb128 0x2f
 6948 3559 6E000000 		.4byte	.LVL15
 6949 355d 40390000 		.4byte	0x3940
 6950 3561 2F       		.uleb128 0x2f
 6951 3562 92000000 		.4byte	.LVL26
 6952 3566 4C390000 		.4byte	0x394c
 6953 356a 00       		.byte	0
 6954 356b 2D       		.uleb128 0x2d
 6955 356c 1A000000 		.4byte	.LVL2
 6956 3570 58390000 		.4byte	0x3958
 6957 3574 7E350000 		.4byte	0x357e
 6958 3578 2E       		.uleb128 0x2e
 6959 3579 01       		.uleb128 0x1
 6960 357a 50       		.byte	0x50
 6961 357b 01       		.uleb128 0x1
 6962 357c 33       		.byte	0x33
 6963 357d 00       		.byte	0
 6964 357e 2F       		.uleb128 0x2f
 6965 357f 24000000 		.4byte	.LVL3
 6966 3583 63390000 		.4byte	0x3963
 6967 3587 2F       		.uleb128 0x2f
 6968 3588 9C000000 		.4byte	.LVL29
 6969 358c 4C390000 		.4byte	0x394c
 6970 3590 00       		.byte	0
 6971 3591 30       		.uleb128 0x30
 6972 3592 E9250000 		.4byte	.LASF1073
 6973 3596 01       		.byte	0x1
 6974 3597 5F       		.byte	0x5f
 6975 3598 00000000 		.4byte	.LFB167
 6976 359c 10000000 		.4byte	.LFE167-.LFB167
 6977 35a0 01       		.uleb128 0x1
 6978 35a1 9C       		.byte	0x9c
 6979 35a2 BA350000 		.4byte	0x35ba
 6980 35a6 31       		.uleb128 0x31
 6981 35a7 08000000 		.4byte	.LVL34
 6982 35ab 6E390000 		.4byte	0x396e
 6983 35af 2E       		.uleb128 0x2e
 6984 35b0 01       		.uleb128 0x1
 6985 35b1 50       		.byte	0x50
 6986 35b2 05       		.uleb128 0x5
 6987 35b3 03       		.byte	0x3
 6988 35b4 00000000 		.4byte	.LANCHOR1
 6989 35b8 00       		.byte	0
ARM GAS  C:\Users\Nazar\AppData\Local\Temp\ccWQ1kO8.s 			page 154


 6990 35b9 00       		.byte	0
 6991 35ba 32       		.uleb128 0x32
 6992 35bb 763A0000 		.4byte	.LASF1065
 6993 35bf 01       		.byte	0x1
 6994 35c0 85       		.byte	0x85
 6995 35c1 0C270000 		.4byte	0x270c
 6996 35c5 00000000 		.4byte	.LFB168
 6997 35c9 4C000000 		.4byte	.LFE168-.LFB168
 6998 35cd 01       		.uleb128 0x1
 6999 35ce 9C       		.byte	0x9c
 7000 35cf FB350000 		.4byte	0x35fb
 7001 35d3 33       		.uleb128 0x33
 7002 35d4 AA060000 		.4byte	.LASF1066
 7003 35d8 01       		.byte	0x1
 7004 35d9 85       		.byte	0x85
 7005 35da FB350000 		.4byte	0x35fb
 7006 35de 8D010000 		.4byte	.LLST6
 7007 35e2 34       		.uleb128 0x34
 7008 35e3 29590000 		.4byte	.LASF1067
 7009 35e7 01       		.byte	0x1
 7010 35e8 87       		.byte	0x87
 7011 35e9 0C270000 		.4byte	0x270c
 7012 35ed C7010000 		.4byte	.LLST7
 7013 35f1 2F       		.uleb128 0x2f
 7014 35f2 2A000000 		.4byte	.LVL37
 7015 35f6 7A390000 		.4byte	0x397a
 7016 35fa 00       		.byte	0
 7017 35fb 06       		.uleb128 0x6
 7018 35fc 04       		.byte	0x4
 7019 35fd E7330000 		.4byte	0x33e7
 7020 3601 28       		.uleb128 0x28
 7021 3602 865B0000 		.4byte	.LASF1068
 7022 3606 01       		.byte	0x1
 7023 3607 0D01     		.2byte	0x10d
 7024 3609 0C270000 		.4byte	0x270c
 7025 360d 00000000 		.4byte	.LFB169
 7026 3611 E4000000 		.4byte	.LFE169-.LFB169
 7027 3615 01       		.uleb128 0x1
 7028 3616 9C       		.byte	0x9c
 7029 3617 3A370000 		.4byte	0x373a
 7030 361b 2A       		.uleb128 0x2a
 7031 361c 29590000 		.4byte	.LASF1067
 7032 3620 01       		.byte	0x1
 7033 3621 0F01     		.2byte	0x10f
 7034 3623 0C270000 		.4byte	0x270c
 7035 3627 E6010000 		.4byte	.LLST8
 7036 362b 2B       		.uleb128 0x2b
 7037 362c 462D0000 		.4byte	.LASF1069
 7038 3630 01       		.byte	0x1
 7039 3631 1301     		.2byte	0x113
 7040 3633 3A370000 		.4byte	0x373a
 7041 3637 02       		.uleb128 0x2
 7042 3638 91       		.byte	0x91
 7043 3639 5C       		.sleb128 -36
 7044 363a 2B       		.uleb128 0x2b
 7045 363b E20B0000 		.4byte	.LASF1070
 7046 363f 01       		.byte	0x1
ARM GAS  C:\Users\Nazar\AppData\Local\Temp\ccWQ1kO8.s 			page 155


 7047 3640 1D01     		.2byte	0x11d
 7048 3642 2E2A0000 		.4byte	0x2a2e
 7049 3646 03       		.uleb128 0x3
 7050 3647 91       		.byte	0x91
 7051 3648 907F     		.sleb128 -112
 7052 364a 35       		.uleb128 0x35
 7053 364b 5A340000 		.4byte	0x345a
 7054 364f 92000000 		.4byte	.LBB6
 7055 3653 04000000 		.4byte	.LBE6-.LBB6
 7056 3657 01       		.byte	0x1
 7057 3658 8F01     		.2byte	0x18f
 7058 365a 68360000 		.4byte	0x3668
 7059 365e 36       		.uleb128 0x36
 7060 365f 67340000 		.4byte	0x3467
 7061 3663 28020000 		.4byte	.LLST9
 7062 3667 00       		.byte	0
 7063 3668 2C       		.uleb128 0x2c
 7064 3669 96000000 		.4byte	.LBB8
 7065 366d 1A000000 		.4byte	.LBE8-.LBB8
 7066 3671 96360000 		.4byte	0x3696
 7067 3675 2B       		.uleb128 0x2b
 7068 3676 B8450000 		.4byte	.LASF1071
 7069 367a 01       		.byte	0x1
 7070 367b 9801     		.2byte	0x198
 7071 367d 79310000 		.4byte	0x3179
 7072 3681 03       		.uleb128 0x3
 7073 3682 91       		.byte	0x91
 7074 3683 887F     		.sleb128 -120
 7075 3685 31       		.uleb128 0x31
 7076 3686 B0000000 		.4byte	.LVL54
 7077 368a 86390000 		.4byte	0x3986
 7078 368e 2E       		.uleb128 0x2e
 7079 368f 01       		.uleb128 0x1
 7080 3690 50       		.byte	0x50
 7081 3691 02       		.uleb128 0x2
 7082 3692 7D       		.byte	0x7d
 7083 3693 00       		.sleb128 0
 7084 3694 00       		.byte	0
 7085 3695 00       		.byte	0
 7086 3696 2D       		.uleb128 0x2d
 7087 3697 10000000 		.4byte	.LVL41
 7088 369b 92390000 		.4byte	0x3992
 7089 369f B8360000 		.4byte	0x36b8
 7090 36a3 2E       		.uleb128 0x2e
 7091 36a4 01       		.uleb128 0x1
 7092 36a5 50       		.byte	0x50
 7093 36a6 02       		.uleb128 0x2
 7094 36a7 75       		.byte	0x75
 7095 36a8 00       		.sleb128 0
 7096 36a9 2E       		.uleb128 0x2e
 7097 36aa 01       		.uleb128 0x1
 7098 36ab 51       		.byte	0x51
 7099 36ac 05       		.uleb128 0x5
 7100 36ad 03       		.byte	0x3
 7101 36ae 00000000 		.4byte	.LANCHOR2
 7102 36b2 2E       		.uleb128 0x2e
 7103 36b3 01       		.uleb128 0x1
ARM GAS  C:\Users\Nazar\AppData\Local\Temp\ccWQ1kO8.s 			page 156


 7104 36b4 52       		.byte	0x52
 7105 36b5 01       		.uleb128 0x1
 7106 36b6 44       		.byte	0x44
 7107 36b7 00       		.byte	0
 7108 36b8 2D       		.uleb128 0x2d
 7109 36b9 1C000000 		.4byte	.LVL42
 7110 36bd 9B390000 		.4byte	0x399b
 7111 36c1 D7360000 		.4byte	0x36d7
 7112 36c5 2E       		.uleb128 0x2e
 7113 36c6 01       		.uleb128 0x1
 7114 36c7 50       		.byte	0x50
 7115 36c8 02       		.uleb128 0x2
 7116 36c9 74       		.byte	0x74
 7117 36ca 00       		.sleb128 0
 7118 36cb 2E       		.uleb128 0x2e
 7119 36cc 01       		.uleb128 0x1
 7120 36cd 51       		.byte	0x51
 7121 36ce 01       		.uleb128 0x1
 7122 36cf 30       		.byte	0x30
 7123 36d0 2E       		.uleb128 0x2e
 7124 36d1 01       		.uleb128 0x1
 7125 36d2 52       		.byte	0x52
 7126 36d3 02       		.uleb128 0x2
 7127 36d4 08       		.byte	0x8
 7128 36d5 4C       		.byte	0x4c
 7129 36d6 00       		.byte	0
 7130 36d7 2D       		.uleb128 0x2d
 7131 36d8 52000000 		.4byte	.LVL43
 7132 36dc A4390000 		.4byte	0x39a4
 7133 36e0 EE360000 		.4byte	0x36ee
 7134 36e4 2E       		.uleb128 0x2e
 7135 36e5 01       		.uleb128 0x1
 7136 36e6 50       		.byte	0x50
 7137 36e7 05       		.uleb128 0x5
 7138 36e8 03       		.byte	0x3
 7139 36e9 00000000 		.4byte	.LANCHOR1
 7140 36ed 00       		.byte	0
 7141 36ee 2F       		.uleb128 0x2f
 7142 36ef 56000000 		.4byte	.LVL44
 7143 36f3 B0390000 		.4byte	0x39b0
 7144 36f7 2F       		.uleb128 0x2f
 7145 36f8 5A000000 		.4byte	.LVL45
 7146 36fc BC390000 		.4byte	0x39bc
 7147 3700 2D       		.uleb128 0x2d
 7148 3701 60000000 		.4byte	.LVL46
 7149 3705 C8390000 		.4byte	0x39c8
 7150 3709 15370000 		.4byte	0x3715
 7151 370d 2E       		.uleb128 0x2e
 7152 370e 01       		.uleb128 0x1
 7153 370f 50       		.byte	0x50
 7154 3710 03       		.uleb128 0x3
 7155 3711 91       		.byte	0x91
 7156 3712 A87F     		.sleb128 -88
 7157 3714 00       		.byte	0
 7158 3715 2D       		.uleb128 0x2d
 7159 3716 7C000000 		.4byte	.LVL49
 7160 371a 92390000 		.4byte	0x3992
ARM GAS  C:\Users\Nazar\AppData\Local\Temp\ccWQ1kO8.s 			page 157


 7161 371e 29370000 		.4byte	0x3729
 7162 3722 2E       		.uleb128 0x2e
 7163 3723 01       		.uleb128 0x1
 7164 3724 52       		.byte	0x52
 7165 3725 02       		.uleb128 0x2
 7166 3726 08       		.byte	0x8
 7167 3727 22       		.byte	0x22
 7168 3728 00       		.byte	0
 7169 3729 31       		.uleb128 0x31
 7170 372a 82000000 		.4byte	.LVL50
 7171 372e D4390000 		.4byte	0x39d4
 7172 3732 2E       		.uleb128 0x2e
 7173 3733 01       		.uleb128 0x1
 7174 3734 50       		.byte	0x50
 7175 3735 02       		.uleb128 0x2
 7176 3736 74       		.byte	0x74
 7177 3737 00       		.sleb128 0
 7178 3738 00       		.byte	0
 7179 3739 00       		.byte	0
 7180 373a 0A       		.uleb128 0xa
 7181 373b 76290000 		.4byte	0x2976
 7182 373f 4A370000 		.4byte	0x374a
 7183 3743 0B       		.uleb128 0xb
 7184 3744 9E000000 		.4byte	0x9e
 7185 3748 04       		.byte	0x4
 7186 3749 00       		.byte	0
 7187 374a 28       		.uleb128 0x28
 7188 374b 5E410000 		.4byte	.LASF1072
 7189 374f 01       		.byte	0x1
 7190 3750 D001     		.2byte	0x1d0
 7191 3752 0C270000 		.4byte	0x270c
 7192 3756 00000000 		.4byte	.LFB170
 7193 375a 08000000 		.4byte	.LFE170-.LFB170
 7194 375e 01       		.uleb128 0x1
 7195 375f 9C       		.byte	0x9c
 7196 3760 7C370000 		.4byte	0x377c
 7197 3764 2B       		.uleb128 0x2b
 7198 3765 29590000 		.4byte	.LASF1067
 7199 3769 01       		.byte	0x1
 7200 376a D201     		.2byte	0x1d2
 7201 376c 0C270000 		.4byte	0x270c
 7202 3770 01       		.uleb128 0x1
 7203 3771 50       		.byte	0x50
 7204 3772 2F       		.uleb128 0x2f
 7205 3773 06000000 		.4byte	.LVL55
 7206 3777 E0390000 		.4byte	0x39e0
 7207 377b 00       		.byte	0
 7208 377c 37       		.uleb128 0x37
 7209 377d 30570000 		.4byte	.LASF1074
 7210 3781 01       		.byte	0x1
 7211 3782 0802     		.2byte	0x208
 7212 3784 00000000 		.4byte	.LFB171
 7213 3788 10000000 		.4byte	.LFE171-.LFB171
 7214 378c 01       		.uleb128 0x1
 7215 378d 9C       		.byte	0x9c
 7216 378e A1370000 		.4byte	0x37a1
 7217 3792 38       		.uleb128 0x38
ARM GAS  C:\Users\Nazar\AppData\Local\Temp\ccWQ1kO8.s 			page 158


 7218 3793 8D400000 		.4byte	.LASF1075
 7219 3797 01       		.byte	0x1
 7220 3798 0802     		.2byte	0x208
 7221 379a D6000000 		.4byte	0xd6
 7222 379e 01       		.uleb128 0x1
 7223 379f 50       		.byte	0x50
 7224 37a0 00       		.byte	0
 7225 37a1 28       		.uleb128 0x28
 7226 37a2 FB420000 		.4byte	.LASF1076
 7227 37a6 01       		.byte	0x1
 7228 37a7 C702     		.2byte	0x2c7
 7229 37a9 0C270000 		.4byte	0x270c
 7230 37ad 00000000 		.4byte	.LFB172
 7231 37b1 18000000 		.4byte	.LFE172-.LFB172
 7232 37b5 01       		.uleb128 0x1
 7233 37b6 9C       		.byte	0x9c
 7234 37b7 DC370000 		.4byte	0x37dc
 7235 37bb 29       		.uleb128 0x29
 7236 37bc 2E470000 		.4byte	.LASF1077
 7237 37c0 01       		.byte	0x1
 7238 37c1 C702     		.2byte	0x2c7
 7239 37c3 F3330000 		.4byte	0x33f3
 7240 37c7 3C020000 		.4byte	.LLST10
 7241 37cb 2A       		.uleb128 0x2a
 7242 37cc 29590000 		.4byte	.LASF1067
 7243 37d0 01       		.byte	0x1
 7244 37d1 C902     		.2byte	0x2c9
 7245 37d3 0C270000 		.4byte	0x270c
 7246 37d7 77020000 		.4byte	.LLST11
 7247 37db 00       		.byte	0
 7248 37dc 39       		.uleb128 0x39
 7249 37dd 4B000000 		.4byte	.LASF1118
 7250 37e1 01       		.byte	0x1
 7251 37e2 DD02     		.2byte	0x2dd
 7252 37e4 00000000 		.4byte	.LFB173
 7253 37e8 0C000000 		.4byte	.LFE173-.LFB173
 7254 37ec 01       		.uleb128 0x1
 7255 37ed 9C       		.byte	0x9c
 7256 37ee 3A       		.uleb128 0x3a
 7257 37ef ED0C0000 		.4byte	.LASF1078
 7258 37f3 01       		.byte	0x1
 7259 37f4 38       		.byte	0x38
 7260 37f5 01220000 		.4byte	0x2201
 7261 37f9 05       		.uleb128 0x5
 7262 37fa 03       		.byte	0x3
 7263 37fb 10000000 		.4byte	bleDeepSleepCallbackParams
 7264 37ff 3A       		.uleb128 0x3a
 7265 3800 27260000 		.4byte	.LASF1079
 7266 3804 01       		.byte	0x1
 7267 3805 39       		.byte	0x39
 7268 3806 9B220000 		.4byte	0x229b
 7269 380a 05       		.uleb128 0x5
 7270 380b 03       		.byte	0x3
 7271 380c 00000000 		.4byte	bleDeepSleepCallback
 7272 3810 3B       		.uleb128 0x3b
 7273 3811 27160000 		.4byte	.LASF1080
 7274 3815 05       		.byte	0x5
ARM GAS  C:\Users\Nazar\AppData\Local\Temp\ccWQ1kO8.s 			page 159


 7275 3816 A7       		.byte	0xa7
 7276 3817 1B380000 		.4byte	0x381b
 7277 381b 06       		.uleb128 0x6
 7278 381c 04       		.byte	0x4
 7279 381d 21380000 		.4byte	0x3821
 7280 3821 09       		.uleb128 0x9
 7281 3822 13060000 		.4byte	0x613
 7282 3826 3C       		.uleb128 0x3c
 7283 3827 2F1D0000 		.4byte	.LASF1081
 7284 382b 02       		.byte	0x2
 7285 382c 1802     		.2byte	0x218
 7286 382e 9B010000 		.4byte	0x19b
 7287 3832 3C       		.uleb128 0x3c
 7288 3833 7A1F0000 		.4byte	.LASF1082
 7289 3837 02       		.byte	0x2
 7290 3838 1B02     		.2byte	0x21b
 7291 383a 6A2E0000 		.4byte	0x2e6a
 7292 383e 3C       		.uleb128 0x3c
 7293 383f EF340000 		.4byte	.LASF1083
 7294 3843 02       		.byte	0x2
 7295 3844 2202     		.2byte	0x222
 7296 3846 9A2E0000 		.4byte	0x2e9a
 7297 384a 0A       		.uleb128 0xa
 7298 384b 262B0000 		.4byte	0x2b26
 7299 384f 5A380000 		.4byte	0x385a
 7300 3853 0B       		.uleb128 0xb
 7301 3854 9E000000 		.4byte	0x9e
 7302 3858 00       		.byte	0
 7303 3859 00       		.byte	0
 7304 385a 3C       		.uleb128 0x3c
 7305 385b 45070000 		.4byte	.LASF1084
 7306 385f 02       		.byte	0x2
 7307 3860 2C02     		.2byte	0x22c
 7308 3862 4A380000 		.4byte	0x384a
 7309 3866 0A       		.uleb128 0xa
 7310 3867 E22E0000 		.4byte	0x2ee2
 7311 386b 76380000 		.4byte	0x3876
 7312 386f 0B       		.uleb128 0xb
 7313 3870 9E000000 		.4byte	0x9e
 7314 3874 00       		.byte	0
 7315 3875 00       		.byte	0
 7316 3876 3C       		.uleb128 0x3c
 7317 3877 B1060000 		.4byte	.LASF1085
 7318 387b 02       		.byte	0x2
 7319 387c 2D02     		.2byte	0x22d
 7320 387e 66380000 		.4byte	0x3866
 7321 3882 3D       		.uleb128 0x3d
 7322 3883 05410000 		.4byte	.LASF1086
 7323 3887 01       		.byte	0x1
 7324 3888 2E       		.byte	0x2e
 7325 3889 F3330000 		.4byte	0x33f3
 7326 388d 05       		.uleb128 0x5
 7327 388e 03       		.byte	0x3
 7328 388f 00000000 		.4byte	Cy_BLE_HostRegisteredCallback
 7329 3893 3D       		.uleb128 0x3d
 7330 3894 310B0000 		.4byte	.LASF1087
 7331 3898 01       		.byte	0x1
ARM GAS  C:\Users\Nazar\AppData\Local\Temp\ccWQ1kO8.s 			page 160


 7332 3899 2B       		.byte	0x2b
 7333 389a BD310000 		.4byte	0x31bd
 7334 389e 05       		.uleb128 0x5
 7335 389f 03       		.byte	0x3
 7336 38a0 00000000 		.4byte	Cy_BLE_ApplCallback
 7337 38a4 0A       		.uleb128 0xa
 7338 38a5 B5000000 		.4byte	0xb5
 7339 38a9 B5380000 		.4byte	0x38b5
 7340 38ad 0C       		.uleb128 0xc
 7341 38ae 9E000000 		.4byte	0x9e
 7342 38b2 6B26     		.2byte	0x266b
 7343 38b4 00       		.byte	0
 7344 38b5 3D       		.uleb128 0x3d
 7345 38b6 20360000 		.4byte	.LASF1088
 7346 38ba 01       		.byte	0x1
 7347 38bb 26       		.byte	0x26
 7348 38bc A4380000 		.4byte	0x38a4
 7349 38c0 05       		.uleb128 0x5
 7350 38c1 03       		.byte	0x3
 7351 38c2 00000000 		.4byte	cy_ble_stackMemoryRam
 7352 38c6 3D       		.uleb128 0x3d
 7353 38c7 471D0000 		.4byte	.LASF1089
 7354 38cb 01       		.byte	0x1
 7355 38cc 33       		.byte	0x33
 7356 38cd FB350000 		.4byte	0x35fb
 7357 38d1 05       		.uleb128 0x5
 7358 38d2 03       		.byte	0x3
 7359 38d3 00000000 		.4byte	cy_ble_configPtr
 7360 38d7 0A       		.uleb128 0xa
 7361 38d8 9B010000 		.4byte	0x19b
 7362 38dc E7380000 		.4byte	0x38e7
 7363 38e0 0B       		.uleb128 0xb
 7364 38e1 9E000000 		.4byte	0x9e
 7365 38e5 00       		.byte	0
 7366 38e6 00       		.byte	0
 7367 38e7 3C       		.uleb128 0x3c
 7368 38e8 95320000 		.4byte	.LASF1090
 7369 38ec 15       		.byte	0x15
 7370 38ed 7309     		.2byte	0x973
 7371 38ef F3380000 		.4byte	0x38f3
 7372 38f3 08       		.uleb128 0x8
 7373 38f4 D7380000 		.4byte	0x38d7
 7374 38f8 3C       		.uleb128 0x3c
 7375 38f9 034D0000 		.4byte	.LASF1091
 7376 38fd 15       		.byte	0x15
 7377 38fe 7409     		.2byte	0x974
 7378 3900 E1000000 		.4byte	0xe1
 7379 3904 3C       		.uleb128 0x3c
 7380 3905 D8570000 		.4byte	.LASF1092
 7381 3909 15       		.byte	0x15
 7382 390a 7709     		.2byte	0x977
 7383 390c B5000000 		.4byte	0xb5
 7384 3910 3E       		.uleb128 0x3e
 7385 3911 4D4D0000 		.4byte	.LASF1093
 7386 3915 4D4D0000 		.4byte	.LASF1093
 7387 3919 0B       		.byte	0xb
 7388 391a 8F09     		.2byte	0x98f
ARM GAS  C:\Users\Nazar\AppData\Local\Temp\ccWQ1kO8.s 			page 161


 7389 391c 3E       		.uleb128 0x3e
 7390 391d C20E0000 		.4byte	.LASF1094
 7391 3921 C20E0000 		.4byte	.LASF1094
 7392 3925 16       		.byte	0x16
 7393 3926 B203     		.2byte	0x3b2
 7394 3928 3E       		.uleb128 0x3e
 7395 3929 3F110000 		.4byte	.LASF1095
 7396 392d 3F110000 		.4byte	.LASF1095
 7397 3931 0B       		.byte	0xb
 7398 3932 CD09     		.2byte	0x9cd
 7399 3934 3E       		.uleb128 0x3e
 7400 3935 3B0D0000 		.4byte	.LASF1096
 7401 3939 3B0D0000 		.4byte	.LASF1096
 7402 393d 0B       		.byte	0xb
 7403 393e E509     		.2byte	0x9e5
 7404 3940 3E       		.uleb128 0x3e
 7405 3941 49160000 		.4byte	.LASF1097
 7406 3945 49160000 		.4byte	.LASF1097
 7407 3949 0A       		.byte	0xa
 7408 394a 4706     		.2byte	0x647
 7409 394c 3E       		.uleb128 0x3e
 7410 394d 873E0000 		.4byte	.LASF1098
 7411 3951 873E0000 		.4byte	.LASF1098
 7412 3955 16       		.byte	0x16
 7413 3956 C103     		.2byte	0x3c1
 7414 3958 3F       		.uleb128 0x3f
 7415 3959 4E280000 		.4byte	.LASF1099
 7416 395d 4E280000 		.4byte	.LASF1099
 7417 3961 14       		.byte	0x14
 7418 3962 77       		.byte	0x77
 7419 3963 3F       		.uleb128 0x3f
 7420 3964 A3460000 		.4byte	.LASF1100
 7421 3968 A3460000 		.4byte	.LASF1100
 7422 396c 17       		.byte	0x17
 7423 396d A6       		.byte	0xa6
 7424 396e 3E       		.uleb128 0x3e
 7425 396f 7C090000 		.4byte	.LASF1101
 7426 3973 7C090000 		.4byte	.LASF1101
 7427 3977 0A       		.byte	0xa
 7428 3978 9E06     		.2byte	0x69e
 7429 397a 3E       		.uleb128 0x3e
 7430 397b CB390000 		.4byte	.LASF1102
 7431 397f CB390000 		.4byte	.LASF1102
 7432 3983 02       		.byte	0x2
 7433 3984 D801     		.2byte	0x1d8
 7434 3986 3E       		.uleb128 0x3e
 7435 3987 05510000 		.4byte	.LASF1103
 7436 398b 05510000 		.4byte	.LASF1103
 7437 398f 11       		.byte	0x11
 7438 3990 A201     		.2byte	0x1a2
 7439 3992 40       		.uleb128 0x40
 7440 3993 5C210000 		.4byte	.LASF1104
 7441 3997 5C210000 		.4byte	.LASF1104
 7442 399b 40       		.uleb128 0x40
 7443 399c 32030000 		.4byte	.LASF1105
 7444 39a0 32030000 		.4byte	.LASF1105
 7445 39a4 3E       		.uleb128 0x3e
ARM GAS  C:\Users\Nazar\AppData\Local\Temp\ccWQ1kO8.s 			page 162


 7446 39a5 F2330000 		.4byte	.LASF1106
 7447 39a9 F2330000 		.4byte	.LASF1106
 7448 39ad 0A       		.byte	0xa
 7449 39ae 9D06     		.2byte	0x69d
 7450 39b0 3E       		.uleb128 0x3e
 7451 39b1 E04A0000 		.4byte	.LASF1107
 7452 39b5 E04A0000 		.4byte	.LASF1107
 7453 39b9 0B       		.byte	0xb
 7454 39ba 300A     		.2byte	0xa30
 7455 39bc 3E       		.uleb128 0x3e
 7456 39bd EC4B0000 		.4byte	.LASF1108
 7457 39c1 EC4B0000 		.4byte	.LASF1108
 7458 39c5 0B       		.byte	0xb
 7459 39c6 670A     		.2byte	0xa67
 7460 39c8 3E       		.uleb128 0x3e
 7461 39c9 823A0000 		.4byte	.LASF1109
 7462 39cd 823A0000 		.4byte	.LASF1109
 7463 39d1 0B       		.byte	0xb
 7464 39d2 F308     		.2byte	0x8f3
 7465 39d4 3E       		.uleb128 0x3e
 7466 39d5 72140000 		.4byte	.LASF1110
 7467 39d9 72140000 		.4byte	.LASF1110
 7468 39dd 0B       		.byte	0xb
 7469 39de 2A08     		.2byte	0x82a
 7470 39e0 3E       		.uleb128 0x3e
 7471 39e1 60160000 		.4byte	.LASF1111
 7472 39e5 60160000 		.4byte	.LASF1111
 7473 39e9 0B       		.byte	0xb
 7474 39ea 8C08     		.2byte	0x88c
 7475 39ec 00       		.byte	0
 7476              		.section	.debug_abbrev,"",%progbits
 7477              	.Ldebug_abbrev0:
 7478 0000 01       		.uleb128 0x1
 7479 0001 11       		.uleb128 0x11
 7480 0002 01       		.byte	0x1
 7481 0003 25       		.uleb128 0x25
 7482 0004 0E       		.uleb128 0xe
 7483 0005 13       		.uleb128 0x13
 7484 0006 0B       		.uleb128 0xb
 7485 0007 03       		.uleb128 0x3
 7486 0008 0E       		.uleb128 0xe
 7487 0009 1B       		.uleb128 0x1b
 7488 000a 0E       		.uleb128 0xe
 7489 000b 55       		.uleb128 0x55
 7490 000c 17       		.uleb128 0x17
 7491 000d 11       		.uleb128 0x11
 7492 000e 01       		.uleb128 0x1
 7493 000f 10       		.uleb128 0x10
 7494 0010 17       		.uleb128 0x17
 7495 0011 00       		.byte	0
 7496 0012 00       		.byte	0
 7497 0013 02       		.uleb128 0x2
 7498 0014 24       		.uleb128 0x24
 7499 0015 00       		.byte	0
 7500 0016 0B       		.uleb128 0xb
 7501 0017 0B       		.uleb128 0xb
 7502 0018 3E       		.uleb128 0x3e
ARM GAS  C:\Users\Nazar\AppData\Local\Temp\ccWQ1kO8.s 			page 163


 7503 0019 0B       		.uleb128 0xb
 7504 001a 03       		.uleb128 0x3
 7505 001b 08       		.uleb128 0x8
 7506 001c 00       		.byte	0
 7507 001d 00       		.byte	0
 7508 001e 03       		.uleb128 0x3
 7509 001f 24       		.uleb128 0x24
 7510 0020 00       		.byte	0
 7511 0021 0B       		.uleb128 0xb
 7512 0022 0B       		.uleb128 0xb
 7513 0023 3E       		.uleb128 0x3e
 7514 0024 0B       		.uleb128 0xb
 7515 0025 03       		.uleb128 0x3
 7516 0026 0E       		.uleb128 0xe
 7517 0027 00       		.byte	0
 7518 0028 00       		.byte	0
 7519 0029 04       		.uleb128 0x4
 7520 002a 16       		.uleb128 0x16
 7521 002b 00       		.byte	0
 7522 002c 03       		.uleb128 0x3
 7523 002d 0E       		.uleb128 0xe
 7524 002e 3A       		.uleb128 0x3a
 7525 002f 0B       		.uleb128 0xb
 7526 0030 3B       		.uleb128 0x3b
 7527 0031 0B       		.uleb128 0xb
 7528 0032 49       		.uleb128 0x49
 7529 0033 13       		.uleb128 0x13
 7530 0034 00       		.byte	0
 7531 0035 00       		.byte	0
 7532 0036 05       		.uleb128 0x5
 7533 0037 0F       		.uleb128 0xf
 7534 0038 00       		.byte	0
 7535 0039 0B       		.uleb128 0xb
 7536 003a 0B       		.uleb128 0xb
 7537 003b 00       		.byte	0
 7538 003c 00       		.byte	0
 7539 003d 06       		.uleb128 0x6
 7540 003e 0F       		.uleb128 0xf
 7541 003f 00       		.byte	0
 7542 0040 0B       		.uleb128 0xb
 7543 0041 0B       		.uleb128 0xb
 7544 0042 49       		.uleb128 0x49
 7545 0043 13       		.uleb128 0x13
 7546 0044 00       		.byte	0
 7547 0045 00       		.byte	0
 7548 0046 07       		.uleb128 0x7
 7549 0047 15       		.uleb128 0x15
 7550 0048 00       		.byte	0
 7551 0049 27       		.uleb128 0x27
 7552 004a 19       		.uleb128 0x19
 7553 004b 00       		.byte	0
 7554 004c 00       		.byte	0
 7555 004d 08       		.uleb128 0x8
 7556 004e 35       		.uleb128 0x35
 7557 004f 00       		.byte	0
 7558 0050 49       		.uleb128 0x49
 7559 0051 13       		.uleb128 0x13
ARM GAS  C:\Users\Nazar\AppData\Local\Temp\ccWQ1kO8.s 			page 164


 7560 0052 00       		.byte	0
 7561 0053 00       		.byte	0
 7562 0054 09       		.uleb128 0x9
 7563 0055 26       		.uleb128 0x26
 7564 0056 00       		.byte	0
 7565 0057 49       		.uleb128 0x49
 7566 0058 13       		.uleb128 0x13
 7567 0059 00       		.byte	0
 7568 005a 00       		.byte	0
 7569 005b 0A       		.uleb128 0xa
 7570 005c 01       		.uleb128 0x1
 7571 005d 01       		.byte	0x1
 7572 005e 49       		.uleb128 0x49
 7573 005f 13       		.uleb128 0x13
 7574 0060 01       		.uleb128 0x1
 7575 0061 13       		.uleb128 0x13
 7576 0062 00       		.byte	0
 7577 0063 00       		.byte	0
 7578 0064 0B       		.uleb128 0xb
 7579 0065 21       		.uleb128 0x21
 7580 0066 00       		.byte	0
 7581 0067 49       		.uleb128 0x49
 7582 0068 13       		.uleb128 0x13
 7583 0069 2F       		.uleb128 0x2f
 7584 006a 0B       		.uleb128 0xb
 7585 006b 00       		.byte	0
 7586 006c 00       		.byte	0
 7587 006d 0C       		.uleb128 0xc
 7588 006e 21       		.uleb128 0x21
 7589 006f 00       		.byte	0
 7590 0070 49       		.uleb128 0x49
 7591 0071 13       		.uleb128 0x13
 7592 0072 2F       		.uleb128 0x2f
 7593 0073 05       		.uleb128 0x5
 7594 0074 00       		.byte	0
 7595 0075 00       		.byte	0
 7596 0076 0D       		.uleb128 0xd
 7597 0077 13       		.uleb128 0x13
 7598 0078 01       		.byte	0x1
 7599 0079 0B       		.uleb128 0xb
 7600 007a 0B       		.uleb128 0xb
 7601 007b 3A       		.uleb128 0x3a
 7602 007c 0B       		.uleb128 0xb
 7603 007d 3B       		.uleb128 0x3b
 7604 007e 0B       		.uleb128 0xb
 7605 007f 01       		.uleb128 0x1
 7606 0080 13       		.uleb128 0x13
 7607 0081 00       		.byte	0
 7608 0082 00       		.byte	0
 7609 0083 0E       		.uleb128 0xe
 7610 0084 0D       		.uleb128 0xd
 7611 0085 00       		.byte	0
 7612 0086 03       		.uleb128 0x3
 7613 0087 0E       		.uleb128 0xe
 7614 0088 3A       		.uleb128 0x3a
 7615 0089 0B       		.uleb128 0xb
 7616 008a 3B       		.uleb128 0x3b
ARM GAS  C:\Users\Nazar\AppData\Local\Temp\ccWQ1kO8.s 			page 165


 7617 008b 0B       		.uleb128 0xb
 7618 008c 49       		.uleb128 0x49
 7619 008d 13       		.uleb128 0x13
 7620 008e 38       		.uleb128 0x38
 7621 008f 0B       		.uleb128 0xb
 7622 0090 00       		.byte	0
 7623 0091 00       		.byte	0
 7624 0092 0F       		.uleb128 0xf
 7625 0093 04       		.uleb128 0x4
 7626 0094 01       		.byte	0x1
 7627 0095 0B       		.uleb128 0xb
 7628 0096 0B       		.uleb128 0xb
 7629 0097 49       		.uleb128 0x49
 7630 0098 13       		.uleb128 0x13
 7631 0099 3A       		.uleb128 0x3a
 7632 009a 0B       		.uleb128 0xb
 7633 009b 3B       		.uleb128 0x3b
 7634 009c 0B       		.uleb128 0xb
 7635 009d 01       		.uleb128 0x1
 7636 009e 13       		.uleb128 0x13
 7637 009f 00       		.byte	0
 7638 00a0 00       		.byte	0
 7639 00a1 10       		.uleb128 0x10
 7640 00a2 28       		.uleb128 0x28
 7641 00a3 00       		.byte	0
 7642 00a4 03       		.uleb128 0x3
 7643 00a5 0E       		.uleb128 0xe
 7644 00a6 1C       		.uleb128 0x1c
 7645 00a7 0D       		.uleb128 0xd
 7646 00a8 00       		.byte	0
 7647 00a9 00       		.byte	0
 7648 00aa 11       		.uleb128 0x11
 7649 00ab 28       		.uleb128 0x28
 7650 00ac 00       		.byte	0
 7651 00ad 03       		.uleb128 0x3
 7652 00ae 0E       		.uleb128 0xe
 7653 00af 1C       		.uleb128 0x1c
 7654 00b0 0B       		.uleb128 0xb
 7655 00b1 00       		.byte	0
 7656 00b2 00       		.byte	0
 7657 00b3 12       		.uleb128 0x12
 7658 00b4 16       		.uleb128 0x16
 7659 00b5 00       		.byte	0
 7660 00b6 03       		.uleb128 0x3
 7661 00b7 0E       		.uleb128 0xe
 7662 00b8 3A       		.uleb128 0x3a
 7663 00b9 0B       		.uleb128 0xb
 7664 00ba 3B       		.uleb128 0x3b
 7665 00bb 05       		.uleb128 0x5
 7666 00bc 49       		.uleb128 0x49
 7667 00bd 13       		.uleb128 0x13
 7668 00be 00       		.byte	0
 7669 00bf 00       		.byte	0
 7670 00c0 13       		.uleb128 0x13
 7671 00c1 13       		.uleb128 0x13
 7672 00c2 01       		.byte	0x1
 7673 00c3 0B       		.uleb128 0xb
ARM GAS  C:\Users\Nazar\AppData\Local\Temp\ccWQ1kO8.s 			page 166


 7674 00c4 05       		.uleb128 0x5
 7675 00c5 3A       		.uleb128 0x3a
 7676 00c6 0B       		.uleb128 0xb
 7677 00c7 3B       		.uleb128 0x3b
 7678 00c8 0B       		.uleb128 0xb
 7679 00c9 01       		.uleb128 0x1
 7680 00ca 13       		.uleb128 0x13
 7681 00cb 00       		.byte	0
 7682 00cc 00       		.byte	0
 7683 00cd 14       		.uleb128 0x14
 7684 00ce 0D       		.uleb128 0xd
 7685 00cf 00       		.byte	0
 7686 00d0 03       		.uleb128 0x3
 7687 00d1 0E       		.uleb128 0xe
 7688 00d2 3A       		.uleb128 0x3a
 7689 00d3 0B       		.uleb128 0xb
 7690 00d4 3B       		.uleb128 0x3b
 7691 00d5 0B       		.uleb128 0xb
 7692 00d6 49       		.uleb128 0x49
 7693 00d7 13       		.uleb128 0x13
 7694 00d8 38       		.uleb128 0x38
 7695 00d9 05       		.uleb128 0x5
 7696 00da 00       		.byte	0
 7697 00db 00       		.byte	0
 7698 00dc 15       		.uleb128 0x15
 7699 00dd 13       		.uleb128 0x13
 7700 00de 01       		.byte	0x1
 7701 00df 0B       		.uleb128 0xb
 7702 00e0 06       		.uleb128 0x6
 7703 00e1 3A       		.uleb128 0x3a
 7704 00e2 0B       		.uleb128 0xb
 7705 00e3 3B       		.uleb128 0x3b
 7706 00e4 0B       		.uleb128 0xb
 7707 00e5 01       		.uleb128 0x1
 7708 00e6 13       		.uleb128 0x13
 7709 00e7 00       		.byte	0
 7710 00e8 00       		.byte	0
 7711 00e9 16       		.uleb128 0x16
 7712 00ea 0D       		.uleb128 0xd
 7713 00eb 00       		.byte	0
 7714 00ec 03       		.uleb128 0x3
 7715 00ed 0E       		.uleb128 0xe
 7716 00ee 3A       		.uleb128 0x3a
 7717 00ef 0B       		.uleb128 0xb
 7718 00f0 3B       		.uleb128 0x3b
 7719 00f1 05       		.uleb128 0x5
 7720 00f2 49       		.uleb128 0x49
 7721 00f3 13       		.uleb128 0x13
 7722 00f4 38       		.uleb128 0x38
 7723 00f5 05       		.uleb128 0x5
 7724 00f6 00       		.byte	0
 7725 00f7 00       		.byte	0
 7726 00f8 17       		.uleb128 0x17
 7727 00f9 0D       		.uleb128 0xd
 7728 00fa 00       		.byte	0
 7729 00fb 03       		.uleb128 0x3
 7730 00fc 0E       		.uleb128 0xe
ARM GAS  C:\Users\Nazar\AppData\Local\Temp\ccWQ1kO8.s 			page 167


 7731 00fd 3A       		.uleb128 0x3a
 7732 00fe 0B       		.uleb128 0xb
 7733 00ff 3B       		.uleb128 0x3b
 7734 0100 05       		.uleb128 0x5
 7735 0101 49       		.uleb128 0x49
 7736 0102 13       		.uleb128 0x13
 7737 0103 38       		.uleb128 0x38
 7738 0104 06       		.uleb128 0x6
 7739 0105 00       		.byte	0
 7740 0106 00       		.byte	0
 7741 0107 18       		.uleb128 0x18
 7742 0108 13       		.uleb128 0x13
 7743 0109 01       		.byte	0x1
 7744 010a 0B       		.uleb128 0xb
 7745 010b 05       		.uleb128 0x5
 7746 010c 3A       		.uleb128 0x3a
 7747 010d 0B       		.uleb128 0xb
 7748 010e 3B       		.uleb128 0x3b
 7749 010f 05       		.uleb128 0x5
 7750 0110 01       		.uleb128 0x1
 7751 0111 13       		.uleb128 0x13
 7752 0112 00       		.byte	0
 7753 0113 00       		.byte	0
 7754 0114 19       		.uleb128 0x19
 7755 0115 0D       		.uleb128 0xd
 7756 0116 00       		.byte	0
 7757 0117 03       		.uleb128 0x3
 7758 0118 0E       		.uleb128 0xe
 7759 0119 3A       		.uleb128 0x3a
 7760 011a 0B       		.uleb128 0xb
 7761 011b 3B       		.uleb128 0x3b
 7762 011c 05       		.uleb128 0x5
 7763 011d 49       		.uleb128 0x49
 7764 011e 13       		.uleb128 0x13
 7765 011f 38       		.uleb128 0x38
 7766 0120 0B       		.uleb128 0xb
 7767 0121 00       		.byte	0
 7768 0122 00       		.byte	0
 7769 0123 1A       		.uleb128 0x1a
 7770 0124 13       		.uleb128 0x13
 7771 0125 01       		.byte	0x1
 7772 0126 0B       		.uleb128 0xb
 7773 0127 06       		.uleb128 0x6
 7774 0128 3A       		.uleb128 0x3a
 7775 0129 0B       		.uleb128 0xb
 7776 012a 3B       		.uleb128 0x3b
 7777 012b 05       		.uleb128 0x5
 7778 012c 01       		.uleb128 0x1
 7779 012d 13       		.uleb128 0x13
 7780 012e 00       		.byte	0
 7781 012f 00       		.byte	0
 7782 0130 1B       		.uleb128 0x1b
 7783 0131 0D       		.uleb128 0xd
 7784 0132 00       		.byte	0
 7785 0133 03       		.uleb128 0x3
 7786 0134 08       		.uleb128 0x8
 7787 0135 3A       		.uleb128 0x3a
ARM GAS  C:\Users\Nazar\AppData\Local\Temp\ccWQ1kO8.s 			page 168


 7788 0136 0B       		.uleb128 0xb
 7789 0137 3B       		.uleb128 0x3b
 7790 0138 05       		.uleb128 0x5
 7791 0139 49       		.uleb128 0x49
 7792 013a 13       		.uleb128 0x13
 7793 013b 38       		.uleb128 0x38
 7794 013c 0B       		.uleb128 0xb
 7795 013d 00       		.byte	0
 7796 013e 00       		.byte	0
 7797 013f 1C       		.uleb128 0x1c
 7798 0140 13       		.uleb128 0x13
 7799 0141 01       		.byte	0x1
 7800 0142 0B       		.uleb128 0xb
 7801 0143 0B       		.uleb128 0xb
 7802 0144 3A       		.uleb128 0x3a
 7803 0145 0B       		.uleb128 0xb
 7804 0146 3B       		.uleb128 0x3b
 7805 0147 05       		.uleb128 0x5
 7806 0148 01       		.uleb128 0x1
 7807 0149 13       		.uleb128 0x13
 7808 014a 00       		.byte	0
 7809 014b 00       		.byte	0
 7810 014c 1D       		.uleb128 0x1d
 7811 014d 04       		.uleb128 0x4
 7812 014e 01       		.byte	0x1
 7813 014f 0B       		.uleb128 0xb
 7814 0150 0B       		.uleb128 0xb
 7815 0151 49       		.uleb128 0x49
 7816 0152 13       		.uleb128 0x13
 7817 0153 3A       		.uleb128 0x3a
 7818 0154 0B       		.uleb128 0xb
 7819 0155 3B       		.uleb128 0x3b
 7820 0156 05       		.uleb128 0x5
 7821 0157 01       		.uleb128 0x1
 7822 0158 13       		.uleb128 0x13
 7823 0159 00       		.byte	0
 7824 015a 00       		.byte	0
 7825 015b 1E       		.uleb128 0x1e
 7826 015c 28       		.uleb128 0x28
 7827 015d 00       		.byte	0
 7828 015e 03       		.uleb128 0x3
 7829 015f 0E       		.uleb128 0xe
 7830 0160 1C       		.uleb128 0x1c
 7831 0161 06       		.uleb128 0x6
 7832 0162 00       		.byte	0
 7833 0163 00       		.byte	0
 7834 0164 1F       		.uleb128 0x1f
 7835 0165 15       		.uleb128 0x15
 7836 0166 01       		.byte	0x1
 7837 0167 27       		.uleb128 0x27
 7838 0168 19       		.uleb128 0x19
 7839 0169 49       		.uleb128 0x49
 7840 016a 13       		.uleb128 0x13
 7841 016b 01       		.uleb128 0x1
 7842 016c 13       		.uleb128 0x13
 7843 016d 00       		.byte	0
 7844 016e 00       		.byte	0
ARM GAS  C:\Users\Nazar\AppData\Local\Temp\ccWQ1kO8.s 			page 169


 7845 016f 20       		.uleb128 0x20
 7846 0170 05       		.uleb128 0x5
 7847 0171 00       		.byte	0
 7848 0172 49       		.uleb128 0x49
 7849 0173 13       		.uleb128 0x13
 7850 0174 00       		.byte	0
 7851 0175 00       		.byte	0
 7852 0176 21       		.uleb128 0x21
 7853 0177 13       		.uleb128 0x13
 7854 0178 01       		.byte	0x1
 7855 0179 03       		.uleb128 0x3
 7856 017a 0E       		.uleb128 0xe
 7857 017b 0B       		.uleb128 0xb
 7858 017c 0B       		.uleb128 0xb
 7859 017d 3A       		.uleb128 0x3a
 7860 017e 0B       		.uleb128 0xb
 7861 017f 3B       		.uleb128 0x3b
 7862 0180 05       		.uleb128 0x5
 7863 0181 01       		.uleb128 0x1
 7864 0182 13       		.uleb128 0x13
 7865 0183 00       		.byte	0
 7866 0184 00       		.byte	0
 7867 0185 22       		.uleb128 0x22
 7868 0186 28       		.uleb128 0x28
 7869 0187 00       		.byte	0
 7870 0188 03       		.uleb128 0x3
 7871 0189 0E       		.uleb128 0xe
 7872 018a 1C       		.uleb128 0x1c
 7873 018b 05       		.uleb128 0x5
 7874 018c 00       		.byte	0
 7875 018d 00       		.byte	0
 7876 018e 23       		.uleb128 0x23
 7877 018f 15       		.uleb128 0x15
 7878 0190 01       		.byte	0x1
 7879 0191 27       		.uleb128 0x27
 7880 0192 19       		.uleb128 0x19
 7881 0193 01       		.uleb128 0x1
 7882 0194 13       		.uleb128 0x13
 7883 0195 00       		.byte	0
 7884 0196 00       		.byte	0
 7885 0197 24       		.uleb128 0x24
 7886 0198 17       		.uleb128 0x17
 7887 0199 01       		.byte	0x1
 7888 019a 0B       		.uleb128 0xb
 7889 019b 0B       		.uleb128 0xb
 7890 019c 3A       		.uleb128 0x3a
 7891 019d 0B       		.uleb128 0xb
 7892 019e 3B       		.uleb128 0x3b
 7893 019f 0B       		.uleb128 0xb
 7894 01a0 01       		.uleb128 0x1
 7895 01a1 13       		.uleb128 0x13
 7896 01a2 00       		.byte	0
 7897 01a3 00       		.byte	0
 7898 01a4 25       		.uleb128 0x25
 7899 01a5 0D       		.uleb128 0xd
 7900 01a6 00       		.byte	0
 7901 01a7 03       		.uleb128 0x3
ARM GAS  C:\Users\Nazar\AppData\Local\Temp\ccWQ1kO8.s 			page 170


 7902 01a8 0E       		.uleb128 0xe
 7903 01a9 3A       		.uleb128 0x3a
 7904 01aa 0B       		.uleb128 0xb
 7905 01ab 3B       		.uleb128 0x3b
 7906 01ac 0B       		.uleb128 0xb
 7907 01ad 49       		.uleb128 0x49
 7908 01ae 13       		.uleb128 0x13
 7909 01af 00       		.byte	0
 7910 01b0 00       		.byte	0
 7911 01b1 26       		.uleb128 0x26
 7912 01b2 2E       		.uleb128 0x2e
 7913 01b3 01       		.byte	0x1
 7914 01b4 03       		.uleb128 0x3
 7915 01b5 0E       		.uleb128 0xe
 7916 01b6 3A       		.uleb128 0x3a
 7917 01b7 0B       		.uleb128 0xb
 7918 01b8 3B       		.uleb128 0x3b
 7919 01b9 05       		.uleb128 0x5
 7920 01ba 27       		.uleb128 0x27
 7921 01bb 19       		.uleb128 0x19
 7922 01bc 20       		.uleb128 0x20
 7923 01bd 0B       		.uleb128 0xb
 7924 01be 01       		.uleb128 0x1
 7925 01bf 13       		.uleb128 0x13
 7926 01c0 00       		.byte	0
 7927 01c1 00       		.byte	0
 7928 01c2 27       		.uleb128 0x27
 7929 01c3 05       		.uleb128 0x5
 7930 01c4 00       		.byte	0
 7931 01c5 03       		.uleb128 0x3
 7932 01c6 0E       		.uleb128 0xe
 7933 01c7 3A       		.uleb128 0x3a
 7934 01c8 0B       		.uleb128 0xb
 7935 01c9 3B       		.uleb128 0x3b
 7936 01ca 05       		.uleb128 0x5
 7937 01cb 49       		.uleb128 0x49
 7938 01cc 13       		.uleb128 0x13
 7939 01cd 00       		.byte	0
 7940 01ce 00       		.byte	0
 7941 01cf 28       		.uleb128 0x28
 7942 01d0 2E       		.uleb128 0x2e
 7943 01d1 01       		.byte	0x1
 7944 01d2 3F       		.uleb128 0x3f
 7945 01d3 19       		.uleb128 0x19
 7946 01d4 03       		.uleb128 0x3
 7947 01d5 0E       		.uleb128 0xe
 7948 01d6 3A       		.uleb128 0x3a
 7949 01d7 0B       		.uleb128 0xb
 7950 01d8 3B       		.uleb128 0x3b
 7951 01d9 05       		.uleb128 0x5
 7952 01da 27       		.uleb128 0x27
 7953 01db 19       		.uleb128 0x19
 7954 01dc 49       		.uleb128 0x49
 7955 01dd 13       		.uleb128 0x13
 7956 01de 11       		.uleb128 0x11
 7957 01df 01       		.uleb128 0x1
 7958 01e0 12       		.uleb128 0x12
ARM GAS  C:\Users\Nazar\AppData\Local\Temp\ccWQ1kO8.s 			page 171


 7959 01e1 06       		.uleb128 0x6
 7960 01e2 40       		.uleb128 0x40
 7961 01e3 18       		.uleb128 0x18
 7962 01e4 9742     		.uleb128 0x2117
 7963 01e6 19       		.uleb128 0x19
 7964 01e7 01       		.uleb128 0x1
 7965 01e8 13       		.uleb128 0x13
 7966 01e9 00       		.byte	0
 7967 01ea 00       		.byte	0
 7968 01eb 29       		.uleb128 0x29
 7969 01ec 05       		.uleb128 0x5
 7970 01ed 00       		.byte	0
 7971 01ee 03       		.uleb128 0x3
 7972 01ef 0E       		.uleb128 0xe
 7973 01f0 3A       		.uleb128 0x3a
 7974 01f1 0B       		.uleb128 0xb
 7975 01f2 3B       		.uleb128 0x3b
 7976 01f3 05       		.uleb128 0x5
 7977 01f4 49       		.uleb128 0x49
 7978 01f5 13       		.uleb128 0x13
 7979 01f6 02       		.uleb128 0x2
 7980 01f7 17       		.uleb128 0x17
 7981 01f8 00       		.byte	0
 7982 01f9 00       		.byte	0
 7983 01fa 2A       		.uleb128 0x2a
 7984 01fb 34       		.uleb128 0x34
 7985 01fc 00       		.byte	0
 7986 01fd 03       		.uleb128 0x3
 7987 01fe 0E       		.uleb128 0xe
 7988 01ff 3A       		.uleb128 0x3a
 7989 0200 0B       		.uleb128 0xb
 7990 0201 3B       		.uleb128 0x3b
 7991 0202 05       		.uleb128 0x5
 7992 0203 49       		.uleb128 0x49
 7993 0204 13       		.uleb128 0x13
 7994 0205 02       		.uleb128 0x2
 7995 0206 17       		.uleb128 0x17
 7996 0207 00       		.byte	0
 7997 0208 00       		.byte	0
 7998 0209 2B       		.uleb128 0x2b
 7999 020a 34       		.uleb128 0x34
 8000 020b 00       		.byte	0
 8001 020c 03       		.uleb128 0x3
 8002 020d 0E       		.uleb128 0xe
 8003 020e 3A       		.uleb128 0x3a
 8004 020f 0B       		.uleb128 0xb
 8005 0210 3B       		.uleb128 0x3b
 8006 0211 05       		.uleb128 0x5
 8007 0212 49       		.uleb128 0x49
 8008 0213 13       		.uleb128 0x13
 8009 0214 02       		.uleb128 0x2
 8010 0215 18       		.uleb128 0x18
 8011 0216 00       		.byte	0
 8012 0217 00       		.byte	0
 8013 0218 2C       		.uleb128 0x2c
 8014 0219 0B       		.uleb128 0xb
 8015 021a 01       		.byte	0x1
ARM GAS  C:\Users\Nazar\AppData\Local\Temp\ccWQ1kO8.s 			page 172


 8016 021b 11       		.uleb128 0x11
 8017 021c 01       		.uleb128 0x1
 8018 021d 12       		.uleb128 0x12
 8019 021e 06       		.uleb128 0x6
 8020 021f 01       		.uleb128 0x1
 8021 0220 13       		.uleb128 0x13
 8022 0221 00       		.byte	0
 8023 0222 00       		.byte	0
 8024 0223 2D       		.uleb128 0x2d
 8025 0224 898201   		.uleb128 0x4109
 8026 0227 01       		.byte	0x1
 8027 0228 11       		.uleb128 0x11
 8028 0229 01       		.uleb128 0x1
 8029 022a 31       		.uleb128 0x31
 8030 022b 13       		.uleb128 0x13
 8031 022c 01       		.uleb128 0x1
 8032 022d 13       		.uleb128 0x13
 8033 022e 00       		.byte	0
 8034 022f 00       		.byte	0
 8035 0230 2E       		.uleb128 0x2e
 8036 0231 8A8201   		.uleb128 0x410a
 8037 0234 00       		.byte	0
 8038 0235 02       		.uleb128 0x2
 8039 0236 18       		.uleb128 0x18
 8040 0237 9142     		.uleb128 0x2111
 8041 0239 18       		.uleb128 0x18
 8042 023a 00       		.byte	0
 8043 023b 00       		.byte	0
 8044 023c 2F       		.uleb128 0x2f
 8045 023d 898201   		.uleb128 0x4109
 8046 0240 00       		.byte	0
 8047 0241 11       		.uleb128 0x11
 8048 0242 01       		.uleb128 0x1
 8049 0243 31       		.uleb128 0x31
 8050 0244 13       		.uleb128 0x13
 8051 0245 00       		.byte	0
 8052 0246 00       		.byte	0
 8053 0247 30       		.uleb128 0x30
 8054 0248 2E       		.uleb128 0x2e
 8055 0249 01       		.byte	0x1
 8056 024a 3F       		.uleb128 0x3f
 8057 024b 19       		.uleb128 0x19
 8058 024c 03       		.uleb128 0x3
 8059 024d 0E       		.uleb128 0xe
 8060 024e 3A       		.uleb128 0x3a
 8061 024f 0B       		.uleb128 0xb
 8062 0250 3B       		.uleb128 0x3b
 8063 0251 0B       		.uleb128 0xb
 8064 0252 27       		.uleb128 0x27
 8065 0253 19       		.uleb128 0x19
 8066 0254 11       		.uleb128 0x11
 8067 0255 01       		.uleb128 0x1
 8068 0256 12       		.uleb128 0x12
 8069 0257 06       		.uleb128 0x6
 8070 0258 40       		.uleb128 0x40
 8071 0259 18       		.uleb128 0x18
 8072 025a 9742     		.uleb128 0x2117
ARM GAS  C:\Users\Nazar\AppData\Local\Temp\ccWQ1kO8.s 			page 173


 8073 025c 19       		.uleb128 0x19
 8074 025d 01       		.uleb128 0x1
 8075 025e 13       		.uleb128 0x13
 8076 025f 00       		.byte	0
 8077 0260 00       		.byte	0
 8078 0261 31       		.uleb128 0x31
 8079 0262 898201   		.uleb128 0x4109
 8080 0265 01       		.byte	0x1
 8081 0266 11       		.uleb128 0x11
 8082 0267 01       		.uleb128 0x1
 8083 0268 31       		.uleb128 0x31
 8084 0269 13       		.uleb128 0x13
 8085 026a 00       		.byte	0
 8086 026b 00       		.byte	0
 8087 026c 32       		.uleb128 0x32
 8088 026d 2E       		.uleb128 0x2e
 8089 026e 01       		.byte	0x1
 8090 026f 3F       		.uleb128 0x3f
 8091 0270 19       		.uleb128 0x19
 8092 0271 03       		.uleb128 0x3
 8093 0272 0E       		.uleb128 0xe
 8094 0273 3A       		.uleb128 0x3a
 8095 0274 0B       		.uleb128 0xb
 8096 0275 3B       		.uleb128 0x3b
 8097 0276 0B       		.uleb128 0xb
 8098 0277 27       		.uleb128 0x27
 8099 0278 19       		.uleb128 0x19
 8100 0279 49       		.uleb128 0x49
 8101 027a 13       		.uleb128 0x13
 8102 027b 11       		.uleb128 0x11
 8103 027c 01       		.uleb128 0x1
 8104 027d 12       		.uleb128 0x12
 8105 027e 06       		.uleb128 0x6
 8106 027f 40       		.uleb128 0x40
 8107 0280 18       		.uleb128 0x18
 8108 0281 9742     		.uleb128 0x2117
 8109 0283 19       		.uleb128 0x19
 8110 0284 01       		.uleb128 0x1
 8111 0285 13       		.uleb128 0x13
 8112 0286 00       		.byte	0
 8113 0287 00       		.byte	0
 8114 0288 33       		.uleb128 0x33
 8115 0289 05       		.uleb128 0x5
 8116 028a 00       		.byte	0
 8117 028b 03       		.uleb128 0x3
 8118 028c 0E       		.uleb128 0xe
 8119 028d 3A       		.uleb128 0x3a
 8120 028e 0B       		.uleb128 0xb
 8121 028f 3B       		.uleb128 0x3b
 8122 0290 0B       		.uleb128 0xb
 8123 0291 49       		.uleb128 0x49
 8124 0292 13       		.uleb128 0x13
 8125 0293 02       		.uleb128 0x2
 8126 0294 17       		.uleb128 0x17
 8127 0295 00       		.byte	0
 8128 0296 00       		.byte	0
 8129 0297 34       		.uleb128 0x34
ARM GAS  C:\Users\Nazar\AppData\Local\Temp\ccWQ1kO8.s 			page 174


 8130 0298 34       		.uleb128 0x34
 8131 0299 00       		.byte	0
 8132 029a 03       		.uleb128 0x3
 8133 029b 0E       		.uleb128 0xe
 8134 029c 3A       		.uleb128 0x3a
 8135 029d 0B       		.uleb128 0xb
 8136 029e 3B       		.uleb128 0x3b
 8137 029f 0B       		.uleb128 0xb
 8138 02a0 49       		.uleb128 0x49
 8139 02a1 13       		.uleb128 0x13
 8140 02a2 02       		.uleb128 0x2
 8141 02a3 17       		.uleb128 0x17
 8142 02a4 00       		.byte	0
 8143 02a5 00       		.byte	0
 8144 02a6 35       		.uleb128 0x35
 8145 02a7 1D       		.uleb128 0x1d
 8146 02a8 01       		.byte	0x1
 8147 02a9 31       		.uleb128 0x31
 8148 02aa 13       		.uleb128 0x13
 8149 02ab 11       		.uleb128 0x11
 8150 02ac 01       		.uleb128 0x1
 8151 02ad 12       		.uleb128 0x12
 8152 02ae 06       		.uleb128 0x6
 8153 02af 58       		.uleb128 0x58
 8154 02b0 0B       		.uleb128 0xb
 8155 02b1 59       		.uleb128 0x59
 8156 02b2 05       		.uleb128 0x5
 8157 02b3 01       		.uleb128 0x1
 8158 02b4 13       		.uleb128 0x13
 8159 02b5 00       		.byte	0
 8160 02b6 00       		.byte	0
 8161 02b7 36       		.uleb128 0x36
 8162 02b8 05       		.uleb128 0x5
 8163 02b9 00       		.byte	0
 8164 02ba 31       		.uleb128 0x31
 8165 02bb 13       		.uleb128 0x13
 8166 02bc 02       		.uleb128 0x2
 8167 02bd 17       		.uleb128 0x17
 8168 02be 00       		.byte	0
 8169 02bf 00       		.byte	0
 8170 02c0 37       		.uleb128 0x37
 8171 02c1 2E       		.uleb128 0x2e
 8172 02c2 01       		.byte	0x1
 8173 02c3 3F       		.uleb128 0x3f
 8174 02c4 19       		.uleb128 0x19
 8175 02c5 03       		.uleb128 0x3
 8176 02c6 0E       		.uleb128 0xe
 8177 02c7 3A       		.uleb128 0x3a
 8178 02c8 0B       		.uleb128 0xb
 8179 02c9 3B       		.uleb128 0x3b
 8180 02ca 05       		.uleb128 0x5
 8181 02cb 27       		.uleb128 0x27
 8182 02cc 19       		.uleb128 0x19
 8183 02cd 11       		.uleb128 0x11
 8184 02ce 01       		.uleb128 0x1
 8185 02cf 12       		.uleb128 0x12
 8186 02d0 06       		.uleb128 0x6
ARM GAS  C:\Users\Nazar\AppData\Local\Temp\ccWQ1kO8.s 			page 175


 8187 02d1 40       		.uleb128 0x40
 8188 02d2 18       		.uleb128 0x18
 8189 02d3 9742     		.uleb128 0x2117
 8190 02d5 19       		.uleb128 0x19
 8191 02d6 01       		.uleb128 0x1
 8192 02d7 13       		.uleb128 0x13
 8193 02d8 00       		.byte	0
 8194 02d9 00       		.byte	0
 8195 02da 38       		.uleb128 0x38
 8196 02db 05       		.uleb128 0x5
 8197 02dc 00       		.byte	0
 8198 02dd 03       		.uleb128 0x3
 8199 02de 0E       		.uleb128 0xe
 8200 02df 3A       		.uleb128 0x3a
 8201 02e0 0B       		.uleb128 0xb
 8202 02e1 3B       		.uleb128 0x3b
 8203 02e2 05       		.uleb128 0x5
 8204 02e3 49       		.uleb128 0x49
 8205 02e4 13       		.uleb128 0x13
 8206 02e5 02       		.uleb128 0x2
 8207 02e6 18       		.uleb128 0x18
 8208 02e7 00       		.byte	0
 8209 02e8 00       		.byte	0
 8210 02e9 39       		.uleb128 0x39
 8211 02ea 2E       		.uleb128 0x2e
 8212 02eb 00       		.byte	0
 8213 02ec 3F       		.uleb128 0x3f
 8214 02ed 19       		.uleb128 0x19
 8215 02ee 03       		.uleb128 0x3
 8216 02ef 0E       		.uleb128 0xe
 8217 02f0 3A       		.uleb128 0x3a
 8218 02f1 0B       		.uleb128 0xb
 8219 02f2 3B       		.uleb128 0x3b
 8220 02f3 05       		.uleb128 0x5
 8221 02f4 27       		.uleb128 0x27
 8222 02f5 19       		.uleb128 0x19
 8223 02f6 11       		.uleb128 0x11
 8224 02f7 01       		.uleb128 0x1
 8225 02f8 12       		.uleb128 0x12
 8226 02f9 06       		.uleb128 0x6
 8227 02fa 40       		.uleb128 0x40
 8228 02fb 18       		.uleb128 0x18
 8229 02fc 9742     		.uleb128 0x2117
 8230 02fe 19       		.uleb128 0x19
 8231 02ff 00       		.byte	0
 8232 0300 00       		.byte	0
 8233 0301 3A       		.uleb128 0x3a
 8234 0302 34       		.uleb128 0x34
 8235 0303 00       		.byte	0
 8236 0304 03       		.uleb128 0x3
 8237 0305 0E       		.uleb128 0xe
 8238 0306 3A       		.uleb128 0x3a
 8239 0307 0B       		.uleb128 0xb
 8240 0308 3B       		.uleb128 0x3b
 8241 0309 0B       		.uleb128 0xb
 8242 030a 49       		.uleb128 0x49
 8243 030b 13       		.uleb128 0x13
ARM GAS  C:\Users\Nazar\AppData\Local\Temp\ccWQ1kO8.s 			page 176


 8244 030c 02       		.uleb128 0x2
 8245 030d 18       		.uleb128 0x18
 8246 030e 00       		.byte	0
 8247 030f 00       		.byte	0
 8248 0310 3B       		.uleb128 0x3b
 8249 0311 34       		.uleb128 0x34
 8250 0312 00       		.byte	0
 8251 0313 03       		.uleb128 0x3
 8252 0314 0E       		.uleb128 0xe
 8253 0315 3A       		.uleb128 0x3a
 8254 0316 0B       		.uleb128 0xb
 8255 0317 3B       		.uleb128 0x3b
 8256 0318 0B       		.uleb128 0xb
 8257 0319 49       		.uleb128 0x49
 8258 031a 13       		.uleb128 0x13
 8259 031b 3F       		.uleb128 0x3f
 8260 031c 19       		.uleb128 0x19
 8261 031d 3C       		.uleb128 0x3c
 8262 031e 19       		.uleb128 0x19
 8263 031f 00       		.byte	0
 8264 0320 00       		.byte	0
 8265 0321 3C       		.uleb128 0x3c
 8266 0322 34       		.uleb128 0x34
 8267 0323 00       		.byte	0
 8268 0324 03       		.uleb128 0x3
 8269 0325 0E       		.uleb128 0xe
 8270 0326 3A       		.uleb128 0x3a
 8271 0327 0B       		.uleb128 0xb
 8272 0328 3B       		.uleb128 0x3b
 8273 0329 05       		.uleb128 0x5
 8274 032a 49       		.uleb128 0x49
 8275 032b 13       		.uleb128 0x13
 8276 032c 3F       		.uleb128 0x3f
 8277 032d 19       		.uleb128 0x19
 8278 032e 3C       		.uleb128 0x3c
 8279 032f 19       		.uleb128 0x19
 8280 0330 00       		.byte	0
 8281 0331 00       		.byte	0
 8282 0332 3D       		.uleb128 0x3d
 8283 0333 34       		.uleb128 0x34
 8284 0334 00       		.byte	0
 8285 0335 03       		.uleb128 0x3
 8286 0336 0E       		.uleb128 0xe
 8287 0337 3A       		.uleb128 0x3a
 8288 0338 0B       		.uleb128 0xb
 8289 0339 3B       		.uleb128 0x3b
 8290 033a 0B       		.uleb128 0xb
 8291 033b 49       		.uleb128 0x49
 8292 033c 13       		.uleb128 0x13
 8293 033d 3F       		.uleb128 0x3f
 8294 033e 19       		.uleb128 0x19
 8295 033f 02       		.uleb128 0x2
 8296 0340 18       		.uleb128 0x18
 8297 0341 00       		.byte	0
 8298 0342 00       		.byte	0
 8299 0343 3E       		.uleb128 0x3e
 8300 0344 2E       		.uleb128 0x2e
ARM GAS  C:\Users\Nazar\AppData\Local\Temp\ccWQ1kO8.s 			page 177


 8301 0345 00       		.byte	0
 8302 0346 3F       		.uleb128 0x3f
 8303 0347 19       		.uleb128 0x19
 8304 0348 3C       		.uleb128 0x3c
 8305 0349 19       		.uleb128 0x19
 8306 034a 6E       		.uleb128 0x6e
 8307 034b 0E       		.uleb128 0xe
 8308 034c 03       		.uleb128 0x3
 8309 034d 0E       		.uleb128 0xe
 8310 034e 3A       		.uleb128 0x3a
 8311 034f 0B       		.uleb128 0xb
 8312 0350 3B       		.uleb128 0x3b
 8313 0351 05       		.uleb128 0x5
 8314 0352 00       		.byte	0
 8315 0353 00       		.byte	0
 8316 0354 3F       		.uleb128 0x3f
 8317 0355 2E       		.uleb128 0x2e
 8318 0356 00       		.byte	0
 8319 0357 3F       		.uleb128 0x3f
 8320 0358 19       		.uleb128 0x19
 8321 0359 3C       		.uleb128 0x3c
 8322 035a 19       		.uleb128 0x19
 8323 035b 6E       		.uleb128 0x6e
 8324 035c 0E       		.uleb128 0xe
 8325 035d 03       		.uleb128 0x3
 8326 035e 0E       		.uleb128 0xe
 8327 035f 3A       		.uleb128 0x3a
 8328 0360 0B       		.uleb128 0xb
 8329 0361 3B       		.uleb128 0x3b
 8330 0362 0B       		.uleb128 0xb
 8331 0363 00       		.byte	0
 8332 0364 00       		.byte	0
 8333 0365 40       		.uleb128 0x40
 8334 0366 2E       		.uleb128 0x2e
 8335 0367 00       		.byte	0
 8336 0368 3F       		.uleb128 0x3f
 8337 0369 19       		.uleb128 0x19
 8338 036a 3C       		.uleb128 0x3c
 8339 036b 19       		.uleb128 0x19
 8340 036c 6E       		.uleb128 0x6e
 8341 036d 0E       		.uleb128 0xe
 8342 036e 03       		.uleb128 0x3
 8343 036f 0E       		.uleb128 0xe
 8344 0370 00       		.byte	0
 8345 0371 00       		.byte	0
 8346 0372 00       		.byte	0
 8347              		.section	.debug_loc,"",%progbits
 8348              	.Ldebug_loc0:
 8349              	.LLST0:
 8350 0000 00000000 		.4byte	.LVL0
 8351 0004 16000000 		.4byte	.LVL1
 8352 0008 0100     		.2byte	0x1
 8353 000a 50       		.byte	0x50
 8354 000b 16000000 		.4byte	.LVL1
 8355 000f 94000000 		.4byte	.LVL27
 8356 0013 0400     		.2byte	0x4
 8357 0015 F3       		.byte	0xf3
ARM GAS  C:\Users\Nazar\AppData\Local\Temp\ccWQ1kO8.s 			page 178


 8358 0016 01       		.uleb128 0x1
 8359 0017 50       		.byte	0x50
 8360 0018 9F       		.byte	0x9f
 8361 0019 94000000 		.4byte	.LVL27
 8362 001d 98000000 		.4byte	.LVL28
 8363 0021 0100     		.2byte	0x1
 8364 0023 50       		.byte	0x50
 8365 0024 98000000 		.4byte	.LVL28
 8366 0028 A0000000 		.4byte	.LVL30
 8367 002c 0400     		.2byte	0x4
 8368 002e F3       		.byte	0xf3
 8369 002f 01       		.uleb128 0x1
 8370 0030 50       		.byte	0x50
 8371 0031 9F       		.byte	0x9f
 8372 0032 A0000000 		.4byte	.LVL30
 8373 0036 A8000000 		.4byte	.LVL31
 8374 003a 0100     		.2byte	0x1
 8375 003c 50       		.byte	0x50
 8376 003d A8000000 		.4byte	.LVL31
 8377 0041 C4000000 		.4byte	.LFE174
 8378 0045 0400     		.2byte	0x4
 8379 0047 F3       		.byte	0xf3
 8380 0048 01       		.uleb128 0x1
 8381 0049 50       		.byte	0x50
 8382 004a 9F       		.byte	0x9f
 8383 004b 00000000 		.4byte	0
 8384 004f 00000000 		.4byte	0
 8385              	.LLST1:
 8386 0053 00000000 		.4byte	.LVL0
 8387 0057 19000000 		.4byte	.LVL2-1
 8388 005b 0100     		.2byte	0x1
 8389 005d 51       		.byte	0x51
 8390 005e 19000000 		.4byte	.LVL2-1
 8391 0062 94000000 		.4byte	.LVL27
 8392 0066 0400     		.2byte	0x4
 8393 0068 F3       		.byte	0xf3
 8394 0069 01       		.uleb128 0x1
 8395 006a 51       		.byte	0x51
 8396 006b 9F       		.byte	0x9f
 8397 006c 94000000 		.4byte	.LVL27
 8398 0070 9B000000 		.4byte	.LVL29-1
 8399 0074 0100     		.2byte	0x1
 8400 0076 51       		.byte	0x51
 8401 0077 9B000000 		.4byte	.LVL29-1
 8402 007b A0000000 		.4byte	.LVL30
 8403 007f 0400     		.2byte	0x4
 8404 0081 F3       		.byte	0xf3
 8405 0082 01       		.uleb128 0x1
 8406 0083 51       		.byte	0x51
 8407 0084 9F       		.byte	0x9f
 8408 0085 A0000000 		.4byte	.LVL30
 8409 0089 A8000000 		.4byte	.LVL31
 8410 008d 0100     		.2byte	0x1
 8411 008f 51       		.byte	0x51
 8412 0090 A8000000 		.4byte	.LVL31
 8413 0094 C4000000 		.4byte	.LFE174
 8414 0098 0400     		.2byte	0x4
ARM GAS  C:\Users\Nazar\AppData\Local\Temp\ccWQ1kO8.s 			page 179


 8415 009a F3       		.byte	0xf3
 8416 009b 01       		.uleb128 0x1
 8417 009c 51       		.byte	0x51
 8418 009d 9F       		.byte	0x9f
 8419 009e 00000000 		.4byte	0
 8420 00a2 00000000 		.4byte	0
 8421              	.LLST2:
 8422 00a6 84000000 		.4byte	.LVL25
 8423 00aa 94000000 		.4byte	.LVL27
 8424 00ae 0100     		.2byte	0x1
 8425 00b0 54       		.byte	0x54
 8426 00b1 9C000000 		.4byte	.LVL29
 8427 00b5 A0000000 		.4byte	.LVL30
 8428 00b9 0200     		.2byte	0x2
 8429 00bb 30       		.byte	0x30
 8430 00bc 9F       		.byte	0x9f
 8431 00bd AE000000 		.4byte	.LVL32
 8432 00c1 B0000000 		.4byte	.LVL33
 8433 00c5 0100     		.2byte	0x1
 8434 00c7 54       		.byte	0x54
 8435 00c8 B0000000 		.4byte	.LVL33
 8436 00cc C4000000 		.4byte	.LFE174
 8437 00d0 0100     		.2byte	0x1
 8438 00d2 50       		.byte	0x50
 8439 00d3 00000000 		.4byte	0
 8440 00d7 00000000 		.4byte	0
 8441              	.LLST3:
 8442 00db 3E000000 		.4byte	.LVL8
 8443 00df 48000000 		.4byte	.LVL9
 8444 00e3 0100     		.2byte	0x1
 8445 00e5 50       		.byte	0x50
 8446 00e6 48000000 		.4byte	.LVL9
 8447 00ea 5A000000 		.4byte	.LVL11
 8448 00ee 0100     		.2byte	0x1
 8449 00f0 54       		.byte	0x54
 8450 00f1 5C000000 		.4byte	.LVL12
 8451 00f5 5E000000 		.4byte	.LVL13
 8452 00f9 0100     		.2byte	0x1
 8453 00fb 50       		.byte	0x50
 8454 00fc 5E000000 		.4byte	.LVL13
 8455 0100 70000000 		.4byte	.LVL16
 8456 0104 0100     		.2byte	0x1
 8457 0106 54       		.byte	0x54
 8458 0107 72000000 		.4byte	.LVL17
 8459 010b 76000000 		.4byte	.LVL18
 8460 010f 0100     		.2byte	0x1
 8461 0111 50       		.byte	0x50
 8462 0112 76000000 		.4byte	.LVL18
 8463 0116 78000000 		.4byte	.LVL19
 8464 011a 0100     		.2byte	0x1
 8465 011c 54       		.byte	0x54
 8466 011d 7A000000 		.4byte	.LVL20
 8467 0121 7C000000 		.4byte	.LVL21
 8468 0125 0100     		.2byte	0x1
 8469 0127 54       		.byte	0x54
 8470 0128 7E000000 		.4byte	.LVL22
 8471 012c 80000000 		.4byte	.LVL23
ARM GAS  C:\Users\Nazar\AppData\Local\Temp\ccWQ1kO8.s 			page 180


 8472 0130 0100     		.2byte	0x1
 8473 0132 54       		.byte	0x54
 8474 0133 82000000 		.4byte	.LVL24
 8475 0137 84000000 		.4byte	.LVL25
 8476 013b 0100     		.2byte	0x1
 8477 013d 54       		.byte	0x54
 8478 013e 00000000 		.4byte	0
 8479 0142 00000000 		.4byte	0
 8480              	.LLST4:
 8481 0146 30000000 		.4byte	.LVL5
 8482 014a 33000000 		.4byte	.LVL6-1
 8483 014e 0100     		.2byte	0x1
 8484 0150 50       		.byte	0x50
 8485 0151 33000000 		.4byte	.LVL6-1
 8486 0155 94000000 		.4byte	.LVL27
 8487 0159 0100     		.2byte	0x1
 8488 015b 55       		.byte	0x55
 8489 015c 00000000 		.4byte	0
 8490 0160 00000000 		.4byte	0
 8491              	.LLST5:
 8492 0164 4C000000 		.4byte	.LVL10
 8493 0168 5C000000 		.4byte	.LVL12
 8494 016c 0100     		.2byte	0x1
 8495 016e 50       		.byte	0x50
 8496 016f 62000000 		.4byte	.LVL14
 8497 0173 6D000000 		.4byte	.LVL15-1
 8498 0177 0100     		.2byte	0x1
 8499 0179 50       		.byte	0x50
 8500 017a 76000000 		.4byte	.LVL18
 8501 017e 84000000 		.4byte	.LVL25
 8502 0182 0100     		.2byte	0x1
 8503 0184 50       		.byte	0x50
 8504 0185 00000000 		.4byte	0
 8505 0189 00000000 		.4byte	0
 8506              	.LLST6:
 8507 018d 00000000 		.4byte	.LVL35
 8508 0191 29000000 		.4byte	.LVL37-1
 8509 0195 0100     		.2byte	0x1
 8510 0197 50       		.byte	0x50
 8511 0198 29000000 		.4byte	.LVL37-1
 8512 019c 2E000000 		.4byte	.LVL38
 8513 01a0 0400     		.2byte	0x4
 8514 01a2 F3       		.byte	0xf3
 8515 01a3 01       		.uleb128 0x1
 8516 01a4 50       		.byte	0x50
 8517 01a5 9F       		.byte	0x9f
 8518 01a6 2E000000 		.4byte	.LVL38
 8519 01aa 30000000 		.4byte	.LVL39
 8520 01ae 0100     		.2byte	0x1
 8521 01b0 50       		.byte	0x50
 8522 01b1 30000000 		.4byte	.LVL39
 8523 01b5 4C000000 		.4byte	.LFE168
 8524 01b9 0400     		.2byte	0x4
 8525 01bb F3       		.byte	0xf3
 8526 01bc 01       		.uleb128 0x1
 8527 01bd 50       		.byte	0x50
 8528 01be 9F       		.byte	0x9f
ARM GAS  C:\Users\Nazar\AppData\Local\Temp\ccWQ1kO8.s 			page 181


 8529 01bf 00000000 		.4byte	0
 8530 01c3 00000000 		.4byte	0
 8531              	.LLST7:
 8532 01c7 02000000 		.4byte	.LVL36
 8533 01cb 30000000 		.4byte	.LVL39
 8534 01cf 0200     		.2byte	0x2
 8535 01d1 30       		.byte	0x30
 8536 01d2 9F       		.byte	0x9f
 8537 01d3 30000000 		.4byte	.LVL39
 8538 01d7 4C000000 		.4byte	.LFE168
 8539 01db 0100     		.2byte	0x1
 8540 01dd 50       		.byte	0x50
 8541 01de 00000000 		.4byte	0
 8542 01e2 00000000 		.4byte	0
 8543              	.LLST8:
 8544 01e6 04000000 		.4byte	.LVL40
 8545 01ea 60000000 		.4byte	.LVL46
 8546 01ee 0200     		.2byte	0x2
 8547 01f0 30       		.byte	0x30
 8548 01f1 9F       		.byte	0x9f
 8549 01f2 60000000 		.4byte	.LVL46
 8550 01f6 76000000 		.4byte	.LVL47
 8551 01fa 0100     		.2byte	0x1
 8552 01fc 50       		.byte	0x50
 8553 01fd 76000000 		.4byte	.LVL47
 8554 0201 78000000 		.4byte	.LVL48
 8555 0205 0300     		.2byte	0x3
 8556 0207 70       		.byte	0x70
 8557 0208 56       		.sleb128 -42
 8558 0209 9F       		.byte	0x9f
 8559 020a 82000000 		.4byte	.LVL50
 8560 020e AC000000 		.4byte	.LVL53
 8561 0212 0100     		.2byte	0x1
 8562 0214 50       		.byte	0x50
 8563 0215 B0000000 		.4byte	.LVL54
 8564 0219 E4000000 		.4byte	.LFE169
 8565 021d 0100     		.2byte	0x1
 8566 021f 50       		.byte	0x50
 8567 0220 00000000 		.4byte	0
 8568 0224 00000000 		.4byte	0
 8569              	.LLST9:
 8570 0228 92000000 		.4byte	.LVL51
 8571 022c 96000000 		.4byte	.LVL52
 8572 0230 0200     		.2byte	0x2
 8573 0232 30       		.byte	0x30
 8574 0233 9F       		.byte	0x9f
 8575 0234 00000000 		.4byte	0
 8576 0238 00000000 		.4byte	0
 8577              	.LLST10:
 8578 023c 00000000 		.4byte	.LVL57
 8579 0240 0A000000 		.4byte	.LVL58
 8580 0244 0100     		.2byte	0x1
 8581 0246 50       		.byte	0x50
 8582 0247 0A000000 		.4byte	.LVL58
 8583 024b 0C000000 		.4byte	.LVL59
 8584 024f 0500     		.2byte	0x5
 8585 0251 03       		.byte	0x3
ARM GAS  C:\Users\Nazar\AppData\Local\Temp\ccWQ1kO8.s 			page 182


 8586 0252 00000000 		.4byte	Cy_BLE_HostRegisteredCallback
 8587 0256 0C000000 		.4byte	.LVL59
 8588 025a 0E000000 		.4byte	.LVL60
 8589 025e 0100     		.2byte	0x1
 8590 0260 50       		.byte	0x50
 8591 0261 0E000000 		.4byte	.LVL60
 8592 0265 18000000 		.4byte	.LFE172
 8593 0269 0400     		.2byte	0x4
 8594 026b F3       		.byte	0xf3
 8595 026c 01       		.uleb128 0x1
 8596 026d 50       		.byte	0x50
 8597 026e 9F       		.byte	0x9f
 8598 026f 00000000 		.4byte	0
 8599 0273 00000000 		.4byte	0
 8600              	.LLST11:
 8601 0277 00000000 		.4byte	.LVL57
 8602 027b 0E000000 		.4byte	.LVL60
 8603 027f 0200     		.2byte	0x2
 8604 0281 30       		.byte	0x30
 8605 0282 9F       		.byte	0x9f
 8606 0283 0E000000 		.4byte	.LVL60
 8607 0287 18000000 		.4byte	.LFE172
 8608 028b 0100     		.2byte	0x1
 8609 028d 50       		.byte	0x50
 8610 028e 00000000 		.4byte	0
 8611 0292 00000000 		.4byte	0
 8612              		.section	.debug_aranges,"",%progbits
 8613 0000 54000000 		.4byte	0x54
 8614 0004 0200     		.2byte	0x2
 8615 0006 00000000 		.4byte	.Ldebug_info0
 8616 000a 04       		.byte	0x4
 8617 000b 00       		.byte	0
 8618 000c 0000     		.2byte	0
 8619 000e 0000     		.2byte	0
 8620 0010 00000000 		.4byte	.LFB174
 8621 0014 C4000000 		.4byte	.LFE174-.LFB174
 8622 0018 00000000 		.4byte	.LFB167
 8623 001c 10000000 		.4byte	.LFE167-.LFB167
 8624 0020 00000000 		.4byte	.LFB168
 8625 0024 4C000000 		.4byte	.LFE168-.LFB168
 8626 0028 00000000 		.4byte	.LFB169
 8627 002c E4000000 		.4byte	.LFE169-.LFB169
 8628 0030 00000000 		.4byte	.LFB170
 8629 0034 08000000 		.4byte	.LFE170-.LFB170
 8630 0038 00000000 		.4byte	.LFB171
 8631 003c 10000000 		.4byte	.LFE171-.LFB171
 8632 0040 00000000 		.4byte	.LFB172
 8633 0044 18000000 		.4byte	.LFE172-.LFB172
 8634 0048 00000000 		.4byte	.LFB173
 8635 004c 0C000000 		.4byte	.LFE173-.LFB173
 8636 0050 00000000 		.4byte	0
 8637 0054 00000000 		.4byte	0
 8638              		.section	.debug_ranges,"",%progbits
 8639              	.Ldebug_ranges0:
 8640 0000 00000000 		.4byte	.LFB174
 8641 0004 C4000000 		.4byte	.LFE174
 8642 0008 00000000 		.4byte	.LFB167
ARM GAS  C:\Users\Nazar\AppData\Local\Temp\ccWQ1kO8.s 			page 183


 8643 000c 10000000 		.4byte	.LFE167
 8644 0010 00000000 		.4byte	.LFB168
 8645 0014 4C000000 		.4byte	.LFE168
 8646 0018 00000000 		.4byte	.LFB169
 8647 001c E4000000 		.4byte	.LFE169
 8648 0020 00000000 		.4byte	.LFB170
 8649 0024 08000000 		.4byte	.LFE170
 8650 0028 00000000 		.4byte	.LFB171
 8651 002c 10000000 		.4byte	.LFE171
 8652 0030 00000000 		.4byte	.LFB172
 8653 0034 18000000 		.4byte	.LFE172
 8654 0038 00000000 		.4byte	.LFB173
 8655 003c 0C000000 		.4byte	.LFE173
 8656 0040 00000000 		.4byte	0
 8657 0044 00000000 		.4byte	0
 8658              		.section	.debug_line,"",%progbits
 8659              	.Ldebug_line0:
 8660 0000 4C050000 		.section	.debug_str,"MS",%progbits,1
 8660      02003F04 
 8660      00000201 
 8660      FB0E0D00 
 8660      01010101 
 8661              	.LASF392:
 8662 0000 44415441 		.ascii	"DATA_LIST_SENT_UPDATE__STATUS\000"
 8662      5F4C4953 
 8662      545F5345 
 8662      4E545F55 
 8662      50444154 
 8663              	.LASF837:
 8664 001e 6C646F56 		.ascii	"ldoVoltageTable\000"
 8664      6F6C7461 
 8664      67655461 
 8664      626C6500 
 8665              	.LASF26:
 8666 002e 6770696F 		.ascii	"gpioBase\000"
 8666      42617365 
 8666      00
 8667              	.LASF1:
 8668 0037 6C6F6E67 		.ascii	"long long int\000"
 8668      206C6F6E 
 8668      6720696E 
 8668      7400
 8669              	.LASF627:
 8670 0045 424C454C 		.ascii	"BLELL\000"
 8670      4C00
 8671              	.LASF1118:
 8672 004b 43795F42 		.ascii	"Cy_BLE_UnRegisterAppHostCallback\000"
 8672      4C455F55 
 8672      6E526567 
 8672      69737465 
 8672      72417070 
 8673              	.LASF941:
 8674 006c 63795F73 		.ascii	"cy_stc_ble_gapp_disc_param_t\000"
 8674      74635F62 
 8674      6C655F67 
 8674      6170705F 
 8674      64697363 
ARM GAS  C:\Users\Nazar\AppData\Local\Temp\ccWQ1kO8.s 			page 184


 8675              	.LASF842:
 8676 0089 626F6E64 		.ascii	"bondListConfig\000"
 8676      4C697374 
 8676      436F6E66 
 8676      696700
 8677              	.LASF190:
 8678 0098 7363625F 		.ascii	"scb_2_interrupt_IRQn\000"
 8678      325F696E 
 8678      74657272 
 8678      7570745F 
 8678      4952516E 
 8679              	.LASF651:
 8680 00ad 63795F65 		.ascii	"cy_en_syspm_callback_type_t\000"
 8680      6E5F7379 
 8680      73706D5F 
 8680      63616C6C 
 8680      6261636B 
 8681              	.LASF280:
 8682 00c9 7564625F 		.ascii	"udb_interrupts_11_IRQn\000"
 8682      696E7465 
 8682      72727570 
 8682      74735F31 
 8682      315F4952 
 8683              	.LASF685:
 8684 00e0 43595F42 		.ascii	"CY_BLE_EVT_GET_PEER_RPA_COMPLETE\000"
 8684      4C455F45 
 8684      56545F47 
 8684      45545F50 
 8684      4545525F 
 8685              	.LASF12:
 8686 0101 6C6F6E67 		.ascii	"long unsigned int\000"
 8686      20756E73 
 8686      69676E65 
 8686      6420696E 
 8686      7400
 8687              	.LASF192:
 8688 0113 7363625F 		.ascii	"scb_4_interrupt_IRQn\000"
 8688      345F696E 
 8688      74657272 
 8688      7570745F 
 8688      4952516E 
 8689              	.LASF54:
 8690 0128 73797350 		.ascii	"sysPmSimoPresent\000"
 8690      6D53696D 
 8690      6F507265 
 8690      73656E74 
 8690      00
 8691              	.LASF857:
 8692 0139 626C6553 		.ascii	"bleStackFlashSize\000"
 8692      7461636B 
 8692      466C6173 
 8692      6853697A 
 8692      6500
 8693              	.LASF885:
 8694 014b 61747449 		.ascii	"attId\000"
 8694      6400
 8695              	.LASF41:
ARM GAS  C:\Users\Nazar\AppData\Local\Temp\ccWQ1kO8.s 			page 185


 8696 0151 63707573 		.ascii	"cpussDwChNr\000"
 8696      73447743 
 8696      684E7200 
 8697              	.LASF823:
 8698 015d 646C654E 		.ascii	"dleNumRxBuffer\000"
 8698      756D5278 
 8698      42756666 
 8698      657200
 8699              	.LASF368:
 8700 016c 52455345 		.ascii	"RESERVED10\000"
 8700      52564544 
 8700      313000
 8701              	.LASF373:
 8702 0177 52455345 		.ascii	"RESERVED11\000"
 8702      52564544 
 8702      313100
 8703              	.LASF375:
 8704 0182 52455345 		.ascii	"RESERVED12\000"
 8704      52564544 
 8704      313200
 8705              	.LASF377:
 8706 018d 52455345 		.ascii	"RESERVED13\000"
 8706      52564544 
 8706      313300
 8707              	.LASF379:
 8708 0198 52455345 		.ascii	"RESERVED14\000"
 8708      52564544 
 8708      313400
 8709              	.LASF381:
 8710 01a3 52455345 		.ascii	"RESERVED15\000"
 8710      52564544 
 8710      313500
 8711              	.LASF397:
 8712 01ae 52455345 		.ascii	"RESERVED16\000"
 8712      52564544 
 8712      313600
 8713              	.LASF399:
 8714 01b9 52455345 		.ascii	"RESERVED17\000"
 8714      52564544 
 8714      313700
 8715              	.LASF402:
 8716 01c4 52455345 		.ascii	"RESERVED18\000"
 8716      52564544 
 8716      313800
 8717              	.LASF406:
 8718 01cf 52455345 		.ascii	"RESERVED19\000"
 8718      52564544 
 8718      313900
 8719              	.LASF336:
 8720 01da 5343414E 		.ascii	"SCAN_NEXT_INSTANT\000"
 8720      5F4E4558 
 8720      545F494E 
 8720      5354414E 
 8720      5400
 8721              	.LASF194:
 8722 01ec 7363625F 		.ascii	"scb_6_interrupt_IRQn\000"
 8722      365F696E 
ARM GAS  C:\Users\Nazar\AppData\Local\Temp\ccWQ1kO8.s 			page 186


 8722      74657272 
 8722      7570745F 
 8722      4952516E 
 8723              	.LASF155:
 8724 0201 696F7373 		.ascii	"ioss_interrupts_gpio_8_IRQn\000"
 8724      5F696E74 
 8724      65727275 
 8724      7074735F 
 8724      6770696F 
 8725              	.LASF256:
 8726 021d 74637077 		.ascii	"tcpwm_1_interrupts_11_IRQn\000"
 8726      6D5F315F 
 8726      696E7465 
 8726      72727570 
 8726      74735F31 
 8727              	.LASF954:
 8728 0238 43595F42 		.ascii	"CY_BLE_STATE_ON\000"
 8728      4C455F53 
 8728      54415445 
 8728      5F4F4E00 
 8729              	.LASF767:
 8730 0248 43595F42 		.ascii	"CY_BLE_EVT_GATTC_HANDLE_VALUE_IND\000"
 8730      4C455F45 
 8730      56545F47 
 8730      41545443 
 8730      5F48414E 
 8731              	.LASF408:
 8732 026a 52455345 		.ascii	"RESERVED20\000"
 8732      52564544 
 8732      323000
 8733              	.LASF410:
 8734 0275 52455345 		.ascii	"RESERVED21\000"
 8734      52564544 
 8734      323100
 8735              	.LASF420:
 8736 0280 52455345 		.ascii	"RESERVED22\000"
 8736      52564544 
 8736      323200
 8737              	.LASF426:
 8738 028b 52455345 		.ascii	"RESERVED23\000"
 8738      52564544 
 8738      323300
 8739              	.LASF432:
 8740 0296 52455345 		.ascii	"RESERVED24\000"
 8740      52564544 
 8740      323400
 8741              	.LASF443:
 8742 02a1 52455345 		.ascii	"RESERVED25\000"
 8742      52564544 
 8742      323500
 8743              	.LASF452:
 8744 02ac 52455345 		.ascii	"RESERVED26\000"
 8744      52564544 
 8744      323600
 8745              	.LASF454:
 8746 02b7 52455345 		.ascii	"RESERVED27\000"
 8746      52564544 
ARM GAS  C:\Users\Nazar\AppData\Local\Temp\ccWQ1kO8.s 			page 187


 8746      323700
 8747              	.LASF165:
 8748 02c2 7363625F 		.ascii	"scb_8_interrupt_IRQn\000"
 8748      385F696E 
 8748      74657272 
 8748      7570745F 
 8748      4952516E 
 8749              	.LASF463:
 8750 02d7 52455345 		.ascii	"RESERVED29\000"
 8750      52564544 
 8750      323900
 8751              	.LASF706:
 8752 02e2 43595F42 		.ascii	"CY_BLE_EVT_GET_CLK_CONFIG_COMPLETE\000"
 8752      4C455F45 
 8752      56545F47 
 8752      45545F43 
 8752      4C4B5F43 
 8753              	.LASF313:
 8754 0305 54585F43 		.ascii	"TX_CTRL\000"
 8754      54524C00 
 8755              	.LASF737:
 8756 030d 43595F42 		.ascii	"CY_BLE_EVT_GAP_ENHANCE_CONN_COMPLETE\000"
 8756      4C455F45 
 8756      56545F47 
 8756      41505F45 
 8756      4E48414E 
 8757              	.LASF1105:
 8758 0332 6D656D73 		.ascii	"memset\000"
 8758      657400
 8759              	.LASF185:
 8760 0339 63707573 		.ascii	"cpuss_interrupts_ipc_13_IRQn\000"
 8760      735F696E 
 8760      74657272 
 8760      75707473 
 8760      5F697063 
 8761              	.LASF476:
 8762 0356 52455345 		.ascii	"RESERVED30\000"
 8762      52564544 
 8762      333000
 8763              	.LASF488:
 8764 0361 52455345 		.ascii	"RESERVED31\000"
 8764      52564544 
 8764      333100
 8765              	.LASF492:
 8766 036c 52455345 		.ascii	"RESERVED32\000"
 8766      52564544 
 8766      333200
 8767              	.LASF494:
 8768 0377 52455345 		.ascii	"RESERVED33\000"
 8768      52564544 
 8768      333300
 8769              	.LASF500:
 8770 0382 52455345 		.ascii	"RESERVED34\000"
 8770      52564544 
 8770      333400
 8771              	.LASF502:
 8772 038d 52455345 		.ascii	"RESERVED35\000"
ARM GAS  C:\Users\Nazar\AppData\Local\Temp\ccWQ1kO8.s 			page 188


 8772      52564544 
 8772      333500
 8773              	.LASF504:
 8774 0398 52455345 		.ascii	"RESERVED36\000"
 8774      52564544 
 8774      333600
 8775              	.LASF506:
 8776 03a3 52455345 		.ascii	"RESERVED37\000"
 8776      52564544 
 8776      333700
 8777              	.LASF508:
 8778 03ae 52455345 		.ascii	"RESERVED38\000"
 8778      52564544 
 8778      333800
 8779              	.LASF510:
 8780 03b9 52455345 		.ascii	"RESERVED39\000"
 8780      52564544 
 8780      333900
 8781              	.LASF676:
 8782 03c4 43595F42 		.ascii	"CY_BLE_EVT_WRITE_AUTH_PAYLOAD_TO_COMPLETE\000"
 8782      4C455F45 
 8782      56545F57 
 8782      52495445 
 8782      5F415554 
 8783              	.LASF401:
 8784 03ee 57494E44 		.ascii	"WINDOW_WIDEN_WINOFF\000"
 8784      4F575F57 
 8784      4944454E 
 8784      5F57494E 
 8784      4F464600 
 8785              	.LASF641:
 8786 0402 43595F53 		.ascii	"CY_SYSPM_CANCELED\000"
 8786      5953504D 
 8786      5F43414E 
 8786      43454C45 
 8786      4400
 8787              	.LASF936:
 8788 0414 61647654 		.ascii	"advType\000"
 8788      79706500 
 8789              	.LASF679:
 8790 041c 43595F42 		.ascii	"CY_BLE_EVT_LE_SET_EVENT_MASK_COMPLETE\000"
 8790      4C455F45 
 8790      56545F4C 
 8790      455F5345 
 8790      545F4556 
 8791              	.LASF512:
 8792 0442 52455345 		.ascii	"RESERVED40\000"
 8792      52564544 
 8792      343000
 8793              	.LASF514:
 8794 044d 52455345 		.ascii	"RESERVED41\000"
 8794      52564544 
 8794      343100
 8795              	.LASF519:
 8796 0458 52455345 		.ascii	"RESERVED42\000"
 8796      52564544 
 8796      343200
ARM GAS  C:\Users\Nazar\AppData\Local\Temp\ccWQ1kO8.s 			page 189


 8797              	.LASF532:
 8798 0463 52455345 		.ascii	"RESERVED43\000"
 8798      52564544 
 8798      343300
 8799              	.LASF536:
 8800 046e 52455345 		.ascii	"RESERVED44\000"
 8800      52564544 
 8800      343400
 8801              	.LASF538:
 8802 0479 52455345 		.ascii	"RESERVED45\000"
 8802      52564544 
 8802      343500
 8803              	.LASF542:
 8804 0484 52455345 		.ascii	"RESERVED46\000"
 8804      52564544 
 8804      343600
 8805              	.LASF546:
 8806 048f 52455345 		.ascii	"RESERVED47\000"
 8806      52564544 
 8806      343700
 8807              	.LASF550:
 8808 049a 52455345 		.ascii	"RESERVED48\000"
 8808      52564544 
 8808      343800
 8809              	.LASF554:
 8810 04a5 52455345 		.ascii	"RESERVED49\000"
 8810      52564544 
 8810      343900
 8811              	.LASF927:
 8812 04b0 63795F73 		.ascii	"cy_stc_ble_gapc_disc_info_t\000"
 8812      74635F62 
 8812      6C655F67 
 8812      6170635F 
 8812      64697363 
 8813              	.LASF977:
 8814 04cc 66617374 		.ascii	"fastAdvIntervalMin\000"
 8814      41647649 
 8814      6E746572 
 8814      76616C4D 
 8814      696E00
 8815              	.LASF123:
 8816 04df 4E766963 		.ascii	"NvicMux10_IRQn\000"
 8816      4D757831 
 8816      305F4952 
 8816      516E00
 8817              	.LASF367:
 8818 04ee 57414B45 		.ascii	"WAKEUP_CONFIG\000"
 8818      55505F43 
 8818      4F4E4649 
 8818      4700
 8819              	.LASF558:
 8820 04fc 52455345 		.ascii	"RESERVED50\000"
 8820      52564544 
 8820      353000
 8821              	.LASF561:
 8822 0507 52455345 		.ascii	"RESERVED51\000"
 8822      52564544 
ARM GAS  C:\Users\Nazar\AppData\Local\Temp\ccWQ1kO8.s 			page 190


 8822      353100
 8823              	.LASF565:
 8824 0512 52455345 		.ascii	"RESERVED52\000"
 8824      52564544 
 8824      353200
 8825              	.LASF567:
 8826 051d 52455345 		.ascii	"RESERVED53\000"
 8826      52564544 
 8826      353300
 8827              	.LASF569:
 8828 0528 52455345 		.ascii	"RESERVED54\000"
 8828      52564544 
 8828      353400
 8829              	.LASF571:
 8830 0533 52455345 		.ascii	"RESERVED55\000"
 8830      52564544 
 8830      353500
 8831              	.LASF573:
 8832 053e 52455345 		.ascii	"RESERVED56\000"
 8832      52564544 
 8832      353600
 8833              	.LASF47:
 8834 0549 73727373 		.ascii	"srssNumPll\000"
 8834      4E756D50 
 8834      6C6C00
 8835              	.LASF577:
 8836 0554 52455345 		.ascii	"RESERVED58\000"
 8836      52564544 
 8836      353800
 8837              	.LASF363:
 8838 055f 434F4E4E 		.ascii	"CONN_INTR\000"
 8838      5F494E54 
 8838      5200
 8839              	.LASF1016:
 8840 0569 73657276 		.ascii	"serviceChangedHandle\000"
 8840      69636543 
 8840      68616E67 
 8840      65644861 
 8840      6E646C65 
 8841              	.LASF930:
 8842 057e 43595F42 		.ascii	"CY_BLE_GAPP_SCANNABLE_UNDIRECTED_ADV\000"
 8842      4C455F47 
 8842      4150505F 
 8842      5343414E 
 8842      4E41424C 
 8843              	.LASF211:
 8844 05a3 63707573 		.ascii	"cpuss_interrupts_dw0_14_IRQn\000"
 8844      735F696E 
 8844      74657272 
 8844      75707473 
 8844      5F647730 
 8845              	.LASF770:
 8846 05c0 43595F42 		.ascii	"CY_BLE_EVT_GATTC_STOP_CMD_COMPLETE\000"
 8846      4C455F45 
 8846      56545F47 
 8846      41545443 
 8846      5F53544F 
ARM GAS  C:\Users\Nazar\AppData\Local\Temp\ccWQ1kO8.s 			page 191


 8847              	.LASF71:
 8848 05e3 64775374 		.ascii	"dwStatusChIdxPos\000"
 8848      61747573 
 8848      43684964 
 8848      78506F73 
 8848      00
 8849              	.LASF1039:
 8850 05f4 67617073 		.ascii	"gaps\000"
 8850      00
 8851              	.LASF166:
 8852 05f9 73727373 		.ascii	"srss_interrupt_mcwdt_0_IRQn\000"
 8852      5F696E74 
 8852      65727275 
 8852      70745F6D 
 8852      63776474 
 8853              	.LASF681:
 8854 0615 43595F42 		.ascii	"CY_BLE_EVT_SET_DATA_LENGTH_COMPLETE\000"
 8854      4C455F45 
 8854      56545F53 
 8854      45545F44 
 8854      4154415F 
 8855              	.LASF243:
 8856 0639 74637077 		.ascii	"tcpwm_0_interrupts_6_IRQn\000"
 8856      6D5F305F 
 8856      696E7465 
 8856      72727570 
 8856      74735F36 
 8857              	.LASF419:
 8858 0653 4445565F 		.ascii	"DEV_PUB_ADDR_H\000"
 8858      5055425F 
 8858      41444452 
 8858      5F4800
 8859              	.LASF417:
 8860 0662 4445565F 		.ascii	"DEV_PUB_ADDR_L\000"
 8860      5055425F 
 8860      41444452 
 8860      5F4C00
 8861              	.LASF418:
 8862 0671 4445565F 		.ascii	"DEV_PUB_ADDR_M\000"
 8862      5055425F 
 8862      41444452 
 8862      5F4D00
 8863              	.LASF278:
 8864 0680 7564625F 		.ascii	"udb_interrupts_9_IRQn\000"
 8864      696E7465 
 8864      72727570 
 8864      74735F39 
 8864      5F495251 
 8865              	.LASF19:
 8866 0696 75696E74 		.ascii	"uint32_t\000"
 8866      33325F74 
 8866      00
 8867              	.LASF495:
 8868 069f 4C4C5F43 		.ascii	"LL_CONTROL\000"
 8868      4F4E5452 
 8868      4F4C00
 8869              	.LASF1066:
ARM GAS  C:\Users\Nazar\AppData\Local\Temp\ccWQ1kO8.s 			page 192


 8870 06aa 636F6E66 		.ascii	"config\000"
 8870      696700
 8871              	.LASF1085:
 8872 06b1 63795F62 		.ascii	"cy_ble_connState\000"
 8872      6C655F63 
 8872      6F6E6E53 
 8872      74617465 
 8872      00
 8873              	.LASF293:
 8874 06c2 70617373 		.ascii	"pass_interrupt_dacs_IRQn\000"
 8874      5F696E74 
 8874      65727275 
 8874      70745F64 
 8874      6163735F 
 8875              	.LASF425:
 8876 06db 434F4E4E 		.ascii	"CONN_CONFIG\000"
 8876      5F434F4E 
 8876      46494700 
 8877              	.LASF89:
 8878 06e7 6770696F 		.ascii	"gpioPrtCfgSioOffset\000"
 8878      50727443 
 8878      66675369 
 8878      6F4F6666 
 8878      73657400 
 8879              	.LASF642:
 8880 06fb 43595F53 		.ascii	"CY_SYSPM_FAIL\000"
 8880      5953504D 
 8880      5F464149 
 8880      4C00
 8881              	.LASF1005:
 8882 0709 63795F73 		.ascii	"cy_stc_ble_gatts_att_value_t\000"
 8882      74635F62 
 8882      6C655F67 
 8882      61747473 
 8882      5F617474 
 8883              	.LASF705:
 8884 0726 43595F42 		.ascii	"CY_BLE_EVT_SET_TX_PWR_COMPLETE\000"
 8884      4C455F45 
 8884      56545F53 
 8884      45545F54 
 8884      585F5057 
 8885              	.LASF1084:
 8886 0745 63795F62 		.ascii	"cy_ble_connHandle\000"
 8886      6C655F63 
 8886      6F6E6E48 
 8886      616E646C 
 8886      6500
 8887              	.LASF939:
 8888 0757 61647643 		.ascii	"advChannelMap\000"
 8888      68616E6E 
 8888      656C4D61 
 8888      7000
 8889              	.LASF169:
 8890 0765 73727373 		.ascii	"srss_interrupt_IRQn\000"
 8890      5F696E74 
 8890      65727275 
 8890      70745F49 
ARM GAS  C:\Users\Nazar\AppData\Local\Temp\ccWQ1kO8.s 			page 193


 8890      52516E00 
 8891              	.LASF388:
 8892 0779 434F4E4E 		.ascii	"CONN_CE_INSTANT\000"
 8892      5F43455F 
 8892      494E5354 
 8892      414E5400 
 8893              	.LASF152:
 8894 0789 696F7373 		.ascii	"ioss_interrupts_gpio_5_IRQn\000"
 8894      5F696E74 
 8894      65727275 
 8894      7074735F 
 8894      6770696F 
 8895              	.LASF20:
 8896 07a5 63707573 		.ascii	"cpussBase\000"
 8896      73426173 
 8896      6500
 8897              	.LASF2:
 8898 07af 6C6F6E67 		.ascii	"long double\000"
 8898      20646F75 
 8898      626C6500 
 8899              	.LASF715:
 8900 07bb 43595F42 		.ascii	"CY_BLE_EVT_RADIO_VOLTAGE_LEVEL\000"
 8900      4C455F45 
 8900      56545F52 
 8900      4144494F 
 8900      5F564F4C 
 8901              	.LASF732:
 8902 07da 43595F42 		.ascii	"CY_BLE_EVT_GAPC_SCAN_START_STOP\000"
 8902      4C455F45 
 8902      56545F47 
 8902      4150435F 
 8902      5343414E 
 8903              	.LASF236:
 8904 07fa 63707573 		.ascii	"cpuss_interrupts_cm4_cti_1_IRQn\000"
 8904      735F696E 
 8904      74657272 
 8904      75707473 
 8904      5F636D34 
 8905              	.LASF937:
 8906 081a 64697265 		.ascii	"directAddrType\000"
 8906      63744164 
 8906      64725479 
 8906      706500
 8907              	.LASF533:
 8908 0829 4D4D4D53 		.ascii	"MMMS_MASTER_CREATE_BT_CAPT\000"
 8908      5F4D4153 
 8908      5445525F 
 8908      43524541 
 8908      54455F42 
 8909              	.LASF121:
 8910 0844 4E766963 		.ascii	"NvicMux8_IRQn\000"
 8910      4D757838 
 8910      5F495251 
 8910      6E00
 8911              	.LASF682:
 8912 0852 43595F42 		.ascii	"CY_BLE_EVT_SET_SUGGESTED_DATA_LENGTH_COMPLETE\000"
 8912      4C455F45 
ARM GAS  C:\Users\Nazar\AppData\Local\Temp\ccWQ1kO8.s 			page 194


 8912      56545F53 
 8912      45545F53 
 8912      55474745 
 8913              	.LASF481:
 8914 0880 57494E5F 		.ascii	"WIN_MIN_STEP_SIZE\000"
 8914      4D494E5F 
 8914      53544550 
 8914      5F53495A 
 8914      4500
 8915              	.LASF75:
 8916 0892 70657269 		.ascii	"periTrGrOffset\000"
 8916      54724772 
 8916      4F666673 
 8916      657400
 8917              	.LASF234:
 8918 08a1 63707573 		.ascii	"cpuss_interrupts_cm0_cti_1_IRQn\000"
 8918      735F696E 
 8918      74657272 
 8918      75707473 
 8918      5F636D30 
 8919              	.LASF552:
 8920 08c1 434F4E4E 		.ascii	"CONN_4_DATA_LIST_ACK\000"
 8920      5F345F44 
 8920      4154415F 
 8920      4C495354 
 8920      5F41434B 
 8921              	.LASF77:
 8922 08d6 70657269 		.ascii	"periDivCmdDivSelMsk\000"
 8922      44697643 
 8922      6D644469 
 8922      7653656C 
 8922      4D736B00 
 8923              	.LASF922:
 8924 08ea 7363616E 		.ascii	"scanWindow\000"
 8924      57696E64 
 8924      6F7700
 8925              	.LASF1048:
 8926 08f5 63795F62 		.ascii	"cy_ble_app_notify_callback_t\000"
 8926      6C655F61 
 8926      70705F6E 
 8926      6F746966 
 8926      795F6361 
 8927              	.LASF675:
 8928 0912 43595F42 		.ascii	"CY_BLE_EVT_HARDWARE_ERROR\000"
 8928      4C455F45 
 8928      56545F48 
 8928      41524457 
 8928      4152455F 
 8929              	.LASF182:
 8930 092c 63707573 		.ascii	"cpuss_interrupts_ipc_10_IRQn\000"
 8930      735F696E 
 8930      74657272 
 8930      75707473 
 8930      5F697063 
 8931              	.LASF65:
 8932 0949 666C6173 		.ascii	"flashCtlMainWs3Freq\000"
 8932      6843746C 
ARM GAS  C:\Users\Nazar\AppData\Local\Temp\ccWQ1kO8.s 			page 195


 8932      4D61696E 
 8932      57733346 
 8932      72657100 
 8933              	.LASF540:
 8934 095d 434F4E4E 		.ascii	"CONN_1_DATA_LIST_ACK\000"
 8934      5F315F44 
 8934      4154415F 
 8934      4C495354 
 8934      5F41434B 
 8935              	.LASF352:
 8936 0972 574C5F45 		.ascii	"WL_ENABLE\000"
 8936      4E41424C 
 8936      4500
 8937              	.LASF1101:
 8938 097c 43795F53 		.ascii	"Cy_SysPm_UnregisterCallback\000"
 8938      7973506D 
 8938      5F556E72 
 8938      65676973 
 8938      74657243 
 8939              	.LASF742:
 8940 0998 43595F42 		.ascii	"CY_BLE_EVT_GAP_RESOLVE_DEVICE_COMPLETE\000"
 8940      4C455F45 
 8940      56545F47 
 8940      41505F52 
 8940      45534F4C 
 8941              	.LASF559:
 8942 09bf 434F4E4E 		.ascii	"CONN_PARAM_NEXT_SUP_TO\000"
 8942      5F504152 
 8942      414D5F4E 
 8942      4558545F 
 8942      5355505F 
 8943              	.LASF421:
 8944 09d6 4F464653 		.ascii	"OFFSET_TO_FIRST_INSTANT\000"
 8944      45545F54 
 8944      4F5F4649 
 8944      5253545F 
 8944      494E5354 
 8945              	.LASF935:
 8946 09ee 61647649 		.ascii	"advIntvMax\000"
 8946      6E74764D 
 8946      617800
 8947              	.LASF543:
 8948 09f9 434F4E4E 		.ascii	"CONN_2_DATA_LIST_SENT\000"
 8948      5F325F44 
 8948      4154415F 
 8948      4C495354 
 8948      5F53454E 
 8949              	.LASF791:
 8950 0a0f 43595F42 		.ascii	"CY_BLE_ERROR_INSUFFICIENT_RESOURCES\000"
 8950      4C455F45 
 8950      52524F52 
 8950      5F494E53 
 8950      55464649 
 8951              	.LASF693:
 8952 0a33 43595F42 		.ascii	"CY_BLE_EVT_REMOVE_DEVICE_FROM_WHITE_LIST_COMPLETE\000"
 8952      4C455F45 
 8952      56545F52 
ARM GAS  C:\Users\Nazar\AppData\Local\Temp\ccWQ1kO8.s 			page 196


 8952      454D4F56 
 8952      455F4445 
 8953              	.LASF979:
 8954 0a65 66617374 		.ascii	"fastAdvTimeOut\000"
 8954      41647654 
 8954      696D654F 
 8954      757400
 8955              	.LASF252:
 8956 0a74 74637077 		.ascii	"tcpwm_1_interrupts_7_IRQn\000"
 8956      6D5F315F 
 8956      696E7465 
 8956      72727570 
 8956      74735F37 
 8957              	.LASF609:
 8958 0a8e 49565F53 		.ascii	"IV_SLAVE0\000"
 8958      4C415645 
 8958      3000
 8959              	.LASF32:
 8960 0a98 64775665 		.ascii	"dwVersion\000"
 8960      7273696F 
 8960      6E00
 8961              	.LASF289:
 8962 0aa2 736D6966 		.ascii	"smif_interrupt_IRQn\000"
 8962      5F696E74 
 8962      65727275 
 8962      70745F49 
 8962      52516E00 
 8963              	.LASF322:
 8964 0ab6 5243424C 		.ascii	"RCBLL\000"
 8964      4C00
 8965              	.LASF295:
 8966 0abc 63795F65 		.ascii	"cy_en_intr_t\000"
 8966      6E5F696E 
 8966      74725F74 
 8966      00
 8967              	.LASF551:
 8968 0ac9 434F4E4E 		.ascii	"CONN_4_DATA_LIST_SENT\000"
 8968      5F345F44 
 8968      4154415F 
 8968      4C495354 
 8968      5F53454E 
 8969              	.LASF40:
 8970 0adf 63707573 		.ascii	"cpussIpcIrqNr\000"
 8970      73497063 
 8970      4972714E 
 8970      7200
 8971              	.LASF672:
 8972 0aed 43595F42 		.ascii	"CY_BLE_EVT_MEMORY_REQUEST\000"
 8972      4C455F45 
 8972      56545F4D 
 8972      454D4F52 
 8972      595F5245 
 8973              	.LASF965:
 8974 0b07 43595F42 		.ascii	"CY_BLE_CONN_STATE_CLIENT_INCL_DISCOVERING\000"
 8974      4C455F43 
 8974      4F4E4E5F 
 8974      53544154 
ARM GAS  C:\Users\Nazar\AppData\Local\Temp\ccWQ1kO8.s 			page 197


 8974      455F434C 
 8975              	.LASF1087:
 8976 0b31 43795F42 		.ascii	"Cy_BLE_ApplCallback\000"
 8976      4C455F41 
 8976      70706C43 
 8976      616C6C62 
 8976      61636B00 
 8977              	.LASF907:
 8978 0b45 43595F42 		.ascii	"CY_BLE_GAP_AUTH_ERROR_BR_EDR_PAIRING_IN_PROGRESS\000"
 8978      4C455F47 
 8978      41505F41 
 8978      5554485F 
 8978      4552524F 
 8979              	.LASF992:
 8980 0b76 67617063 		.ascii	"gapcConnectionIntervalMin\000"
 8980      436F6E6E 
 8980      65637469 
 8980      6F6E496E 
 8980      74657276 
 8981              	.LASF95:
 8982 0b90 63707573 		.ascii	"cpussTrimRamCtlOffset\000"
 8982      73547269 
 8982      6D52616D 
 8982      43746C4F 
 8982      66667365 
 8983              	.LASF1063:
 8984 0ba6 72657449 		.ascii	"retIsControllerActive\000"
 8984      73436F6E 
 8984      74726F6C 
 8984      6C657241 
 8984      63746976 
 8985              	.LASF208:
 8986 0bbc 63707573 		.ascii	"cpuss_interrupts_dw0_11_IRQn\000"
 8986      735F696E 
 8986      74657272 
 8986      75707473 
 8986      5F647730 
 8987              	.LASF949:
 8988 0bd9 61647650 		.ascii	"advParam\000"
 8988      6172616D 
 8988      00
 8989              	.LASF1070:
 8990 0be2 73746163 		.ascii	"stackInitParam\000"
 8990      6B496E69 
 8990      74506172 
 8990      616D00
 8991              	.LASF595:
 8992 0bf1 4D495343 		.ascii	"MISC_EN_CTRL\000"
 8992      5F454E5F 
 8992      4354524C 
 8992      00
 8993              	.LASF305:
 8994 0bfe 52414449 		.ascii	"RADIO_REG4_ADDR\000"
 8994      4F5F5245 
 8994      47345F41 
 8994      44445200 
 8995              	.LASF515:
ARM GAS  C:\Users\Nazar\AppData\Local\Temp\ccWQ1kO8.s 			page 198


 8996 0c0e 4E495F54 		.ascii	"NI_TIMER\000"
 8996      494D4552 
 8996      00
 8997              	.LASF660:
 8998 0c17 43795F53 		.ascii	"Cy_SysPmCallback\000"
 8998      7973506D 
 8998      43616C6C 
 8998      6261636B 
 8998      00
 8999              	.LASF339:
 9000 0c28 494E4954 		.ascii	"INIT_PARAM\000"
 9000      5F504152 
 9000      414D00
 9001              	.LASF505:
 9002 0c33 434F4E4E 		.ascii	"CONN_TXMEM_BASE_ADDR_DLE\000"
 9002      5F54584D 
 9002      454D5F42 
 9002      4153455F 
 9002      41444452 
 9003              	.LASF904:
 9004 0c4c 43595F42 		.ascii	"CY_BLE_GAP_AUTH_ERROR_INVALID_PARAMETERS\000"
 9004      4C455F47 
 9004      41505F41 
 9004      5554485F 
 9004      4552524F 
 9005              	.LASF816:
 9006 0c75 63795F65 		.ascii	"cy_en_ble_api_result_t\000"
 9006      6E5F626C 
 9006      655F6170 
 9006      695F7265 
 9006      73756C74 
 9007              	.LASF518:
 9008 0c8c 4E495F41 		.ascii	"NI_ABORT\000"
 9008      424F5254 
 9008      00
 9009              	.LASF240:
 9010 0c95 74637077 		.ascii	"tcpwm_0_interrupts_3_IRQn\000"
 9010      6D5F305F 
 9010      696E7465 
 9010      72727570 
 9010      74735F33 
 9011              	.LASF926:
 9012 0caf 66696C74 		.ascii	"filterDuplicates\000"
 9012      65724475 
 9012      706C6963 
 9012      61746573 
 9012      00
 9013              	.LASF503:
 9014 0cc0 434F4E4E 		.ascii	"CONN_RXMEM_BASE_ADDR_DLE\000"
 9014      5F52584D 
 9014      454D5F42 
 9014      4153455F 
 9014      41444452 
 9015              	.LASF523:
 9016 0cd9 42545F53 		.ascii	"BT_SLOT_CAPT_STATUS\000"
 9016      4C4F545F 
 9016      43415054 
ARM GAS  C:\Users\Nazar\AppData\Local\Temp\ccWQ1kO8.s 			page 199


 9016      5F535441 
 9016      54555300 
 9017              	.LASF1078:
 9018 0ced 626C6544 		.ascii	"bleDeepSleepCallbackParams\000"
 9018      65657053 
 9018      6C656570 
 9018      43616C6C 
 9018      6261636B 
 9019              	.LASF1116:
 9020 0d08 43795F42 		.ascii	"Cy_BLE_SetAdvertisementState\000"
 9020      4C455F53 
 9020      65744164 
 9020      76657274 
 9020      6973656D 
 9021              	.LASF275:
 9022 0d25 7564625F 		.ascii	"udb_interrupts_6_IRQn\000"
 9022      696E7465 
 9022      72727570 
 9022      74735F36 
 9022      5F495251 
 9023              	.LASF1096:
 9024 0d3b 43795F42 		.ascii	"Cy_BLE_IsControllerActive\000"
 9024      4C455F49 
 9024      73436F6E 
 9024      74726F6C 
 9024      6C657241 
 9025              	.LASF896:
 9026 0d55 43595F42 		.ascii	"CY_BLE_GAP_AUTH_ERROR_OOB_DATA_NOT_AVAILABLE\000"
 9026      4C455F47 
 9026      41505F41 
 9026      5554485F 
 9026      4552524F 
 9027              	.LASF446:
 9028 0d82 50454552 		.ascii	"PEER_ADDR_INIT_H\000"
 9028      5F414444 
 9028      525F494E 
 9028      49545F48 
 9028      00
 9029              	.LASF444:
 9030 0d93 50454552 		.ascii	"PEER_ADDR_INIT_L\000"
 9030      5F414444 
 9030      525F494E 
 9030      49545F4C 
 9030      00
 9031              	.LASF445:
 9032 0da4 50454552 		.ascii	"PEER_ADDR_INIT_M\000"
 9032      5F414444 
 9032      525F494E 
 9032      49545F4D 
 9032      00
 9033              	.LASF879:
 9034 0db5 43595F42 		.ascii	"CY_BLE_BLESS_STATE_STOPPED\000"
 9034      4C455F42 
 9034      4C455353 
 9034      5F535441 
 9034      54455F53 
 9035              	.LASF221:
ARM GAS  C:\Users\Nazar\AppData\Local\Temp\ccWQ1kO8.s 			page 200


 9036 0dd0 63707573 		.ascii	"cpuss_interrupts_dw1_8_IRQn\000"
 9036      735F696E 
 9036      74657272 
 9036      75707473 
 9036      5F647731 
 9037              	.LASF746:
 9038 0dec 43595F42 		.ascii	"CY_BLE_EVT_GAPP_UPDATE_ADV_SCAN_DATA_COMPLETE\000"
 9038      4C455F45 
 9038      56545F47 
 9038      4150505F 
 9038      55504441 
 9039              	.LASF645:
 9040 0e1a 43595F53 		.ascii	"CY_SYSPM_WAIT_FOR_EVENT\000"
 9040      5953504D 
 9040      5F574149 
 9040      545F464F 
 9040      525F4556 
 9041              	.LASF925:
 9042 0e32 7363616E 		.ascii	"scanTo\000"
 9042      546F00
 9043              	.LASF865:
 9044 0e39 43595F42 		.ascii	"CY_BLE_LL_PWR_LVL_NEG_12_DBM\000"
 9044      4C455F4C 
 9044      4C5F5057 
 9044      525F4C56 
 9044      4C5F4E45 
 9045              	.LASF731:
 9046 0e56 43595F42 		.ascii	"CY_BLE_EVT_GAP_CONNECTION_UPDATE_COMPLETE\000"
 9046      4C455F45 
 9046      56545F47 
 9046      41505F43 
 9046      4F4E4E45 
 9047              	.LASF427:
 9048 0e80 434F4E4E 		.ascii	"CONN_PARAM1\000"
 9048      5F504152 
 9048      414D3100 
 9049              	.LASF428:
 9050 0e8c 434F4E4E 		.ascii	"CONN_PARAM2\000"
 9050      5F504152 
 9050      414D3200 
 9051              	.LASF911:
 9052 0e98 63795F65 		.ascii	"cy_en_ble_gap_auth_failed_reason_t\000"
 9052      6E5F626C 
 9052      655F6761 
 9052      705F6175 
 9052      74685F66 
 9053              	.LASF1043:
 9054 0ebb 70617261 		.ascii	"params\000"
 9054      6D7300
 9055              	.LASF1094:
 9056 0ec2 43795F53 		.ascii	"Cy_SysLib_EnterCriticalSection\000"
 9056      79734C69 
 9056      625F456E 
 9056      74657243 
 9056      72697469 
 9057              	.LASF226:
 9058 0ee1 63707573 		.ascii	"cpuss_interrupts_dw1_13_IRQn\000"
ARM GAS  C:\Users\Nazar\AppData\Local\Temp\ccWQ1kO8.s 			page 201


 9058      735F696E 
 9058      74657272 
 9058      75707473 
 9058      5F647731 
 9059              	.LASF140:
 9060 0efe 4E766963 		.ascii	"NvicMux27_IRQn\000"
 9060      4D757832 
 9060      375F4952 
 9060      516E00
 9061              	.LASF895:
 9062 0f0d 43595F42 		.ascii	"CY_BLE_GAP_AUTH_ERROR_PASSKEY_ENTRY_FAILED\000"
 9062      4C455F47 
 9062      41505F41 
 9062      5554485F 
 9062      4552524F 
 9063              	.LASF149:
 9064 0f38 696F7373 		.ascii	"ioss_interrupts_gpio_2_IRQn\000"
 9064      5F696E74 
 9064      65727275 
 9064      7074735F 
 9064      6770696F 
 9065              	.LASF855:
 9066 0f54 746F7461 		.ascii	"totalDataBufferPools\000"
 9066      6C446174 
 9066      61427566 
 9066      66657250 
 9066      6F6F6C73 
 9067              	.LASF912:
 9068 0f69 63795F73 		.ascii	"cy_stc_ble_gap_bd_addr_t\000"
 9068      74635F62 
 9068      6C655F67 
 9068      61705F62 
 9068      645F6164 
 9069              	.LASF684:
 9070 0f82 43595F42 		.ascii	"CY_BLE_EVT_DATA_LENGTH_CHANGE\000"
 9070      4C455F45 
 9070      56545F44 
 9070      4154415F 
 9070      4C454E47 
 9071              	.LASF118:
 9072 0fa0 4E766963 		.ascii	"NvicMux5_IRQn\000"
 9072      4D757835 
 9072      5F495251 
 9072      6E00
 9073              	.LASF825:
 9074 0fae 6C326361 		.ascii	"l2capBufferPerConn\000"
 9074      70427566 
 9074      66657250 
 9074      6572436F 
 9074      6E6E00
 9075              	.LASF801:
 9076 0fc1 43595F42 		.ascii	"CY_BLE_ERROR_L2CAP_PSM_NOT_REGISTERED\000"
 9076      4C455F45 
 9076      52524F52 
 9076      5F4C3243 
 9076      41505F50 
 9077              	.LASF761:
ARM GAS  C:\Users\Nazar\AppData\Local\Temp\ccWQ1kO8.s 			page 202


 9078 0fe7 43595F42 		.ascii	"CY_BLE_EVT_GATTC_WRITE_RSP\000"
 9078      4C455F45 
 9078      56545F47 
 9078      41545443 
 9078      5F575249 
 9079              	.LASF833:
 9080 1002 6C6F6275 		.ascii	"lobuffTable\000"
 9080      66665461 
 9080      626C6500 
 9081              	.LASF773:
 9082 100e 43595F42 		.ascii	"CY_BLE_EVT_L2CAP_CONN_PARAM_UPDATE_REQ\000"
 9082      4C455F45 
 9082      56545F4C 
 9082      32434150 
 9082      5F434F4E 
 9083              	.LASF931:
 9084 1035 43595F42 		.ascii	"CY_BLE_GAPP_NON_CONNECTABLE_UNDIRECTED_ADV\000"
 9084      4C455F47 
 9084      4150505F 
 9084      4E4F4E5F 
 9084      434F4E4E 
 9085              	.LASF618:
 9086 1060 454E435F 		.ascii	"ENC_MEM_BASE_ADDR\000"
 9086      4D454D5F 
 9086      42415345 
 9086      5F414444 
 9086      5200
 9087              	.LASF290:
 9088 1072 7573625F 		.ascii	"usb_interrupt_hi_IRQn\000"
 9088      696E7465 
 9088      72727570 
 9088      745F6869 
 9088      5F495251 
 9089              	.LASF112:
 9090 1088 53797354 		.ascii	"SysTick_IRQn\000"
 9090      69636B5F 
 9090      4952516E 
 9090      00
 9091              	.LASF960:
 9092 1095 63795F65 		.ascii	"cy_en_ble_adv_state_t\000"
 9092      6E5F626C 
 9092      655F6164 
 9092      765F7374 
 9092      6174655F 
 9093              	.LASF620:
 9094 10ab 5452494D 		.ascii	"TRIM_LDO_1\000"
 9094      5F4C444F 
 9094      5F3100
 9095              	.LASF1028:
 9096 10b6 73656375 		.ascii	"securityIoCapability\000"
 9096      72697479 
 9096      496F4361 
 9096      70616269 
 9096      6C697479 
 9097              	.LASF97:
 9098 10cb 63707573 		.ascii	"cpussSysTickCtlOffset\000"
 9098      73537973 
ARM GAS  C:\Users\Nazar\AppData\Local\Temp\ccWQ1kO8.s 			page 203


 9098      5469636B 
 9098      43746C4F 
 9098      66667365 
 9099              	.LASF477:
 9100 10e1 5044555F 		.ascii	"PDU_RESP_TIMER\000"
 9100      52455350 
 9100      5F54494D 
 9100      455200
 9101              	.LASF727:
 9102 10f0 43595F42 		.ascii	"CY_BLE_EVT_GAPP_ADVERTISEMENT_START_STOP\000"
 9102      4C455F45 
 9102      56545F47 
 9102      4150505F 
 9102      41445645 
 9103              	.LASF948:
 9104 1119 64697363 		.ascii	"discMode\000"
 9104      4D6F6465 
 9104      00
 9105              	.LASF159:
 9106 1122 696F7373 		.ascii	"ioss_interrupts_gpio_12_IRQn\000"
 9106      5F696E74 
 9106      65727275 
 9106      7074735F 
 9106      6770696F 
 9107              	.LASF1095:
 9108 113f 43795F42 		.ascii	"Cy_BLE_StackGetBleSsState\000"
 9108      4C455F53 
 9108      7461636B 
 9108      47657442 
 9108      6C655373 
 9109              	.LASF206:
 9110 1159 63707573 		.ascii	"cpuss_interrupts_dw0_9_IRQn\000"
 9110      735F696E 
 9110      74657272 
 9110      75707473 
 9110      5F647730 
 9111              	.LASF928:
 9112 1175 43595F42 		.ascii	"CY_BLE_GAPP_CONNECTABLE_UNDIRECTED_ADV\000"
 9112      4C455F47 
 9112      4150505F 
 9112      434F4E4E 
 9112      45435441 
 9113              	.LASF913:
 9114 119c 73656375 		.ascii	"security\000"
 9114      72697479 
 9114      00
 9115              	.LASF975:
 9116 11a5 7265736F 		.ascii	"resolvablePrivateAddressOnly\000"
 9116      6C766162 
 9116      6C655072 
 9116      69766174 
 9116      65416464 
 9117              	.LASF687:
 9118 11c2 43595F42 		.ascii	"CY_BLE_EVT_SET_RPA_TO_COMPLETE\000"
 9118      4C455F45 
 9118      56545F53 
 9118      45545F52 
ARM GAS  C:\Users\Nazar\AppData\Local\Temp\ccWQ1kO8.s 			page 204


 9118      50415F54 
 9119              	.LASF302:
 9120 11e1 52414449 		.ascii	"RADIO_REG1_ADDR\000"
 9120      4F5F5245 
 9120      47315F41 
 9120      44445200 
 9121              	.LASF144:
 9122 11f1 4E766963 		.ascii	"NvicMux31_IRQn\000"
 9122      4D757833 
 9122      315F4952 
 9122      516E00
 9123              	.LASF1055:
 9124 1200 43595F49 		.ascii	"CY_IPC_SEMA_LOCKED\000"
 9124      50435F53 
 9124      454D415F 
 9124      4C4F434B 
 9124      454400
 9125              	.LASF717:
 9126 1213 43595F42 		.ascii	"CY_BLE_EVT_SET_EVENT_MASK_COMPLETE\000"
 9126      4C455F45 
 9126      56545F53 
 9126      45545F45 
 9126      56454E54 
 9127              	.LASF991:
 9128 1236 736C6F77 		.ascii	"slowScanTimeOut\000"
 9128      5363616E 
 9128      54696D65 
 9128      4F757400 
 9129              	.LASF691:
 9130 1246 43595F42 		.ascii	"CY_BLE_EVT_REMOVE_DEVICE_FROM_RPA_LIST_COMPLETE\000"
 9130      4C455F45 
 9130      56545F52 
 9130      454D4F56 
 9130      455F4445 
 9131              	.LASF237:
 9132 1276 74637077 		.ascii	"tcpwm_0_interrupts_0_IRQn\000"
 9132      6D5F305F 
 9132      696E7465 
 9132      72727570 
 9132      74735F30 
 9133              	.LASF902:
 9134 1290 43595F42 		.ascii	"CY_BLE_GAP_AUTH_ERROR_UNSPECIFIED_REASON\000"
 9134      4C455F47 
 9134      41505F41 
 9134      5554485F 
 9134      4552524F 
 9135              	.LASF817:
 9136 12b9 63795F62 		.ascii	"cy_ble_app_ev_cb_t\000"
 9136      6C655F61 
 9136      70705F65 
 9136      765F6362 
 9136      5F7400
 9137              	.LASF794:
 9138 12cc 43595F42 		.ascii	"CY_BLE_ERROR_NO_DEVICE_ENTITY\000"
 9138      4C455F45 
 9138      52524F52 
 9138      5F4E4F5F 
ARM GAS  C:\Users\Nazar\AppData\Local\Temp\ccWQ1kO8.s 			page 205


 9138      44455649 
 9139              	.LASF36:
 9140 12ea 69706356 		.ascii	"ipcVersion\000"
 9140      65727369 
 9140      6F6E00
 9141              	.LASF79:
 9142 12f5 70657269 		.ascii	"periDivCmdPaDivSelPos\000"
 9142      44697643 
 9142      6D645061 
 9142      44697653 
 9142      656C506F 
 9143              	.LASF331:
 9144 130b 5343414E 		.ascii	"SCAN_INTERVAL\000"
 9144      5F494E54 
 9144      45525641 
 9144      4C00
 9145              	.LASF37:
 9146 1319 70657269 		.ascii	"periVersion\000"
 9146      56657273 
 9146      696F6E00 
 9147              	.LASF5:
 9148 1325 5F5F7569 		.ascii	"__uint8_t\000"
 9148      6E74385F 
 9148      7400
 9149              	.LASF413:
 9150 132f 4144565F 		.ascii	"ADV_CH_TX_POWER_LVL_LS\000"
 9150      43485F54 
 9150      585F504F 
 9150      5745525F 
 9150      4C564C5F 
 9151              	.LASF357:
 9152 1346 44415441 		.ascii	"DATA_CHANNELS_H0\000"
 9152      5F434841 
 9152      4E4E454C 
 9152      535F4830 
 9152      00
 9153              	.LASF361:
 9154 1357 44415441 		.ascii	"DATA_CHANNELS_H1\000"
 9154      5F434841 
 9154      4E4E454C 
 9154      535F4831 
 9154      00
 9155              	.LASF272:
 9156 1368 7564625F 		.ascii	"udb_interrupts_3_IRQn\000"
 9156      696E7465 
 9156      72727570 
 9156      74735F33 
 9156      5F495251 
 9157              	.LASF235:
 9158 137e 63707573 		.ascii	"cpuss_interrupts_cm4_cti_0_IRQn\000"
 9158      735F696E 
 9158      74657272 
 9158      75707473 
 9158      5F636D34 
 9159              	.LASF345:
 9160 139e 44455649 		.ascii	"DEVICE_RAND_ADDR_H\000"
 9160      43455F52 
ARM GAS  C:\Users\Nazar\AppData\Local\Temp\ccWQ1kO8.s 			page 206


 9160      414E445F 
 9160      41444452 
 9160      5F4800
 9161              	.LASF525:
 9162 13b1 55535F4F 		.ascii	"US_OFFSET_STATUS\000"
 9162      46465345 
 9162      545F5354 
 9162      41545553 
 9162      00
 9163              	.LASF343:
 9164 13c2 44455649 		.ascii	"DEVICE_RAND_ADDR_L\000"
 9164      43455F52 
 9164      414E445F 
 9164      41444452 
 9164      5F4C00
 9165              	.LASF344:
 9166 13d5 44455649 		.ascii	"DEVICE_RAND_ADDR_M\000"
 9166      43455F52 
 9166      414E445F 
 9166      41444452 
 9166      5F4D00
 9167              	.LASF218:
 9168 13e8 63707573 		.ascii	"cpuss_interrupts_dw1_5_IRQn\000"
 9168      735F696E 
 9168      74657272 
 9168      75707473 
 9168      5F647731 
 9169              	.LASF638:
 9170 1404 43595F53 		.ascii	"CY_SYSPM_BAD_PARAM\000"
 9170      5953504D 
 9170      5F424144 
 9170      5F504152 
 9170      414D00
 9171              	.LASF249:
 9172 1417 74637077 		.ascii	"tcpwm_1_interrupts_4_IRQn\000"
 9172      6D5F315F 
 9172      696E7465 
 9172      72727570 
 9172      74735F34 
 9173              	.LASF736:
 9174 1431 43595F42 		.ascii	"CY_BLE_EVT_GAP_OOB_GENERATED_NOTIFICATION\000"
 9174      4C455F45 
 9174      56545F47 
 9174      41505F4F 
 9174      4F425F47 
 9175              	.LASF414:
 9176 145b 4144565F 		.ascii	"ADV_CH_TX_POWER_LVL_MS\000"
 9176      43485F54 
 9176      585F504F 
 9176      5745525F 
 9176      4C564C5F 
 9177              	.LASF1110:
 9178 1472 43795F42 		.ascii	"Cy_BLE_StackInit\000"
 9178      4C455F53 
 9178      7461636B 
 9178      496E6974 
 9178      00
ARM GAS  C:\Users\Nazar\AppData\Local\Temp\ccWQ1kO8.s 			page 207


 9179              	.LASF263:
 9180 1483 74637077 		.ascii	"tcpwm_1_interrupts_18_IRQn\000"
 9180      6D5F315F 
 9180      696E7465 
 9180      72727570 
 9180      74735F31 
 9181              	.LASF863:
 9182 149e 43595F42 		.ascii	"CY_BLE_LL_PWR_LVL_NEG_20_DBM\000"
 9182      4C455F4C 
 9182      4C5F5057 
 9182      525F4C56 
 9182      4C5F4E45 
 9183              	.LASF1047:
 9184 14bb 63795F73 		.ascii	"cy_stc_ble_config_t\000"
 9184      74635F62 
 9184      6C655F63 
 9184      6F6E6669 
 9184      675F7400 
 9185              	.LASF223:
 9186 14cf 63707573 		.ascii	"cpuss_interrupts_dw1_10_IRQn\000"
 9186      735F696E 
 9186      74657272 
 9186      75707473 
 9186      5F647731 
 9187              	.LASF668:
 9188 14ec 43595F42 		.ascii	"CY_BLE_EVT_INVALID\000"
 9188      4C455F45 
 9188      56545F49 
 9188      4E56414C 
 9188      494400
 9189              	.LASF137:
 9190 14ff 4E766963 		.ascii	"NvicMux24_IRQn\000"
 9190      4D757832 
 9190      345F4952 
 9190      516E00
 9191              	.LASF934:
 9192 150e 61647649 		.ascii	"advIntvMin\000"
 9192      6E74764D 
 9192      696E00
 9193              	.LASF115:
 9194 1519 4E766963 		.ascii	"NvicMux2_IRQn\000"
 9194      4D757832 
 9194      5F495251 
 9194      6E00
 9195              	.LASF1025:
 9196 1527 63795F73 		.ascii	"cy_stc_ble_flash_storage_t\000"
 9196      74635F62 
 9196      6C655F66 
 9196      6C617368 
 9196      5F73746F 
 9197              	.LASF1044:
 9198 1542 63616C6C 		.ascii	"callbackFunc\000"
 9198      6261636B 
 9198      46756E63 
 9198      00
 9199              	.LASF431:
 9200 154f 52454345 		.ascii	"RECEIVE_TRIG_CTRL\000"
ARM GAS  C:\Users\Nazar\AppData\Local\Temp\ccWQ1kO8.s 			page 208


 9200      4956455F 
 9200      54524947 
 9200      5F435452 
 9200      4C00
 9201              	.LASF615:
 9202 1561 454E435F 		.ascii	"ENC_INTR_EN\000"
 9202      494E5452 
 9202      5F454E00 
 9203              	.LASF566:
 9204 156d 434F4E4E 		.ascii	"CONN_RX_PKT_CNTR\000"
 9204      5F52585F 
 9204      504B545F 
 9204      434E5452 
 9204      00
 9205              	.LASF531:
 9206 157e 4541524C 		.ascii	"EARLY_INTR_NI\000"
 9206      595F494E 
 9206      54525F4E 
 9206      4900
 9207              	.LASF1035:
 9208 158c 64697363 		.ascii	"discoveryInfo\000"
 9208      6F766572 
 9208      79496E66 
 9208      6F00
 9209              	.LASF246:
 9210 159a 74637077 		.ascii	"tcpwm_1_interrupts_1_IRQn\000"
 9210      6D5F315F 
 9210      696E7465 
 9210      72727570 
 9210      74735F31 
 9211              	.LASF901:
 9212 15b4 43595F42 		.ascii	"CY_BLE_GAP_AUTH_ERROR_COMMAND_NOT_SUPPORTED\000"
 9212      4C455F47 
 9212      41505F41 
 9212      5554485F 
 9212      4552524F 
 9213              	.LASF673:
 9214 15e0 43595F42 		.ascii	"CY_BLE_EVT_PENDING_FLASH_WRITE\000"
 9214      4C455F45 
 9214      56545F50 
 9214      454E4449 
 9214      4E475F46 
 9215              	.LASF739:
 9216 15ff 43595F42 		.ascii	"CY_BLE_EVT_GAP_SMP_NEGOTIATED_AUTH_INFO\000"
 9216      4C455F45 
 9216      56545F47 
 9216      41505F53 
 9216      4D505F4E 
 9217              	.LASF1080:
 9218 1627 63795F64 		.ascii	"cy_device\000"
 9218      65766963 
 9218      6500
 9219              	.LASF867:
 9220 1631 43595F42 		.ascii	"CY_BLE_LL_PWR_LVL_0_DBM\000"
 9220      4C455F4C 
 9220      4C5F5057 
 9220      525F4C56 
ARM GAS  C:\Users\Nazar\AppData\Local\Temp\ccWQ1kO8.s 			page 209


 9220      4C5F305F 
 9221              	.LASF1097:
 9222 1649 43795F53 		.ascii	"Cy_SysPm_CpuEnterSleep\000"
 9222      7973506D 
 9222      5F437075 
 9222      456E7465 
 9222      72536C65 
 9223              	.LASF1111:
 9224 1660 43795F42 		.ascii	"Cy_BLE_StackShutdown\000"
 9224      4C455F53 
 9224      7461636B 
 9224      53687574 
 9224      646F776E 
 9225              	.LASF898:
 9226 1675 43595F42 		.ascii	"CY_BLE_GAP_AUTH_ERROR_CONFIRM_VALUE_NOT_MATCH\000"
 9226      4C455F47 
 9226      41505F41 
 9226      5554485F 
 9226      4552524F 
 9227              	.LASF562:
 9228 16a3 48575F4C 		.ascii	"HW_LOAD_OFFSET\000"
 9228      4F41445F 
 9228      4F464653 
 9228      455400
 9229              	.LASF108:
 9230 16b2 4E6F6E4D 		.ascii	"NonMaskableInt_IRQn\000"
 9230      61736B61 
 9230      626C6549 
 9230      6E745F49 
 9230      52516E00 
 9231              	.LASF355:
 9232 16c6 44415441 		.ascii	"DATA_CHANNELS_L0\000"
 9232      5F434841 
 9232      4E4E454C 
 9232      535F4C30 
 9232      00
 9233              	.LASF325:
 9234 16d7 4556454E 		.ascii	"EVENT_INTR\000"
 9234      545F494E 
 9234      545200
 9235              	.LASF509:
 9236 16e2 434F4E4E 		.ascii	"CONN_2_PARAM_MEM_BASE_ADDR\000"
 9236      5F325F50 
 9236      4152414D 
 9236      5F4D454D 
 9236      5F424153 
 9237              	.LASF130:
 9238 16fd 4E766963 		.ascii	"NvicMux17_IRQn\000"
 9238      4D757831 
 9238      375F4952 
 9238      516E00
 9239              	.LASF101:
 9240 170c 63707573 		.ascii	"cpussRam0Ctl0\000"
 9240      7352616D 
 9240      3043746C 
 9240      3000
 9241              	.LASF203:
ARM GAS  C:\Users\Nazar\AppData\Local\Temp\ccWQ1kO8.s 			page 210


 9242 171a 63707573 		.ascii	"cpuss_interrupts_dw0_6_IRQn\000"
 9242      735F696E 
 9242      74657272 
 9242      75707473 
 9242      5F647730 
 9243              	.LASF695:
 9244 1736 43595F42 		.ascii	"CY_BLE_EVT_SET_DEFAULT_PHY_COMPLETE\000"
 9244      4C455F45 
 9244      56545F53 
 9244      45545F44 
 9244      45464155 
 9245              	.LASF769:
 9246 175a 43595F42 		.ascii	"CY_BLE_EVT_GATTS_DATA_SIGNED_CMD_REQ\000"
 9246      4C455F45 
 9246      56545F47 
 9246      41545453 
 9246      5F444154 
 9247              	.LASF356:
 9248 177f 44415441 		.ascii	"DATA_CHANNELS_M0\000"
 9248      5F434841 
 9248      4E4E454C 
 9248      535F4D30 
 9248      00
 9249              	.LASF360:
 9250 1790 44415441 		.ascii	"DATA_CHANNELS_M1\000"
 9250      5F434841 
 9250      4E4E454C 
 9250      535F4D31 
 9250      00
 9251              	.LASF1023:
 9252 17a1 63636364 		.ascii	"cccdCount\000"
 9252      436F756E 
 9252      7400
 9253              	.LASF784:
 9254 17ab 43595F42 		.ascii	"CY_BLE_EVT_MAX\000"
 9254      4C455F45 
 9254      56545F4D 
 9254      415800
 9255              	.LASF391:
 9256 17ba 434F4E4E 		.ascii	"CONN_CE_COUNTER\000"
 9256      5F43455F 
 9256      434F554E 
 9256      54455200 
 9257              	.LASF424:
 9258 17ca 494E4954 		.ascii	"INIT_CONFIG\000"
 9258      5F434F4E 
 9258      46494700 
 9259              	.LASF423:
 9260 17d6 5343414E 		.ascii	"SCAN_CONFIG\000"
 9260      5F434F4E 
 9260      46494700 
 9261              	.LASF665:
 9262 17e2 70726576 		.ascii	"prevItm\000"
 9262      49746D00 
 9263              	.LASF284:
 9264 17ea 7564625F 		.ascii	"udb_interrupts_15_IRQn\000"
 9264      696E7465 
ARM GAS  C:\Users\Nazar\AppData\Local\Temp\ccWQ1kO8.s 			page 211


 9264      72727570 
 9264      74735F31 
 9264      355F4952 
 9265              	.LASF98:
 9266 1801 63707573 		.ascii	"cpussCm0NmiCtlOffset\000"
 9266      73436D30 
 9266      4E6D6943 
 9266      746C4F66 
 9266      66736574 
 9267              	.LASF145:
 9268 1816 756E636F 		.ascii	"unconnected_IRQn\000"
 9268      6E6E6563 
 9268      7465645F 
 9268      4952516E 
 9268      00
 9269              	.LASF66:
 9270 1827 666C6173 		.ascii	"flashCtlMainWs4Freq\000"
 9270      6843746C 
 9270      4D61696E 
 9270      57733446 
 9270      72657100 
 9271              	.LASF499:
 9272 183b 52534C56 		.ascii	"RSLV_LIST_ENABLE\000"
 9272      5F4C4953 
 9272      545F454E 
 9272      41424C45 
 9272      00
 9273              	.LASF267:
 9274 184c 74637077 		.ascii	"tcpwm_1_interrupts_22_IRQn\000"
 9274      6D5F315F 
 9274      696E7465 
 9274      72727570 
 9274      74735F32 
 9275              	.LASF880:
 9276 1867 43595F42 		.ascii	"CY_BLE_BLESS_STATE_INVALID\000"
 9276      4C455F42 
 9276      4C455353 
 9276      5F535441 
 9276      54455F49 
 9277              	.LASF806:
 9278 1882 43595F42 		.ascii	"CY_BLE_ERROR_FLASH_WRITE\000"
 9278      4C455F45 
 9278      52524F52 
 9278      5F464C41 
 9278      53485F57 
 9279              	.LASF269:
 9280 189b 7564625F 		.ascii	"udb_interrupts_0_IRQn\000"
 9280      696E7465 
 9280      72727570 
 9280      74735F30 
 9280      5F495251 
 9281              	.LASF586:
 9282 18b1 42545F43 		.ascii	"BT_CLOCK_CAPT\000"
 9282      4C4F434B 
 9282      5F434150 
 9282      5400
 9283              	.LASF285:
ARM GAS  C:\Users\Nazar\AppData\Local\Temp\ccWQ1kO8.s 			page 212


 9284 18bf 70617373 		.ascii	"pass_interrupt_sar_IRQn\000"
 9284      5F696E74 
 9284      65727275 
 9284      70745F73 
 9284      61725F49 
 9285              	.LASF749:
 9286 18d7 43595F42 		.ascii	"CY_BLE_EVT_GATT_CONNECT_IND\000"
 9286      4C455F45 
 9286      56545F47 
 9286      4154545F 
 9286      434F4E4E 
 9287              	.LASF287:
 9288 18f3 61756469 		.ascii	"audioss_interrupt_pdm_IRQn\000"
 9288      6F73735F 
 9288      696E7465 
 9288      72727570 
 9288      745F7064 
 9289              	.LASF78:
 9290 190e 70657269 		.ascii	"periDivCmdTypeSelPos\000"
 9290      44697643 
 9290      6D645479 
 9290      70655365 
 9290      6C506F73 
 9291              	.LASF464:
 9292 1923 434F4E4E 		.ascii	"CONN_REQ_WORD0\000"
 9292      5F524551 
 9292      5F574F52 
 9292      443000
 9293              	.LASF465:
 9294 1932 434F4E4E 		.ascii	"CONN_REQ_WORD1\000"
 9294      5F524551 
 9294      5F574F52 
 9294      443100
 9295              	.LASF466:
 9296 1941 434F4E4E 		.ascii	"CONN_REQ_WORD2\000"
 9296      5F524551 
 9296      5F574F52 
 9296      443200
 9297              	.LASF467:
 9298 1950 434F4E4E 		.ascii	"CONN_REQ_WORD3\000"
 9298      5F524551 
 9298      5F574F52 
 9298      443300
 9299              	.LASF468:
 9300 195f 434F4E4E 		.ascii	"CONN_REQ_WORD4\000"
 9300      5F524551 
 9300      5F574F52 
 9300      443400
 9301              	.LASF469:
 9302 196e 434F4E4E 		.ascii	"CONN_REQ_WORD5\000"
 9302      5F524551 
 9302      5F574F52 
 9302      443500
 9303              	.LASF470:
 9304 197d 434F4E4E 		.ascii	"CONN_REQ_WORD6\000"
 9304      5F524551 
 9304      5F574F52 
ARM GAS  C:\Users\Nazar\AppData\Local\Temp\ccWQ1kO8.s 			page 213


 9304      443600
 9305              	.LASF471:
 9306 198c 434F4E4E 		.ascii	"CONN_REQ_WORD7\000"
 9306      5F524551 
 9306      5F574F52 
 9306      443700
 9307              	.LASF472:
 9308 199b 434F4E4E 		.ascii	"CONN_REQ_WORD8\000"
 9308      5F524551 
 9308      5F574F52 
 9308      443800
 9309              	.LASF473:
 9310 19aa 434F4E4E 		.ascii	"CONN_REQ_WORD9\000"
 9310      5F524551 
 9310      5F574F52 
 9310      443900
 9311              	.LASF176:
 9312 19b9 63707573 		.ascii	"cpuss_interrupts_ipc_4_IRQn\000"
 9312      735F696E 
 9312      74657272 
 9312      75707473 
 9312      5F697063 
 9313              	.LASF215:
 9314 19d5 63707573 		.ascii	"cpuss_interrupts_dw1_2_IRQn\000"
 9314      735F696E 
 9314      74657272 
 9314      75707473 
 9314      5F647731 
 9315              	.LASF364:
 9316 19f1 434F4E4E 		.ascii	"CONN_STATUS\000"
 9316      5F535441 
 9316      54555300 
 9317              	.LASF795:
 9318 19fd 43595F42 		.ascii	"CY_BLE_ERROR_DEVICE_ALREADY_EXISTS\000"
 9318      4C455F45 
 9318      52524F52 
 9318      5F444556 
 9318      4943455F 
 9319              	.LASF777:
 9320 1a20 43595F42 		.ascii	"CY_BLE_EVT_L2CAP_CBFC_CONN_CNF\000"
 9320      4C455F45 
 9320      56545F4C 
 9320      32434150 
 9320      5F434246 
 9321              	.LASF596:
 9322 1a3f 45465553 		.ascii	"EFUSE_CONFIG\000"
 9322      455F434F 
 9322      4E464947 
 9322      00
 9323              	.LASF374:
 9324 1a4c 504F435F 		.ascii	"POC_REG__TIM_CONTROL\000"
 9324      5245475F 
 9324      5F54494D 
 9324      5F434F4E 
 9324      54524F4C 
 9325              	.LASF260:
 9326 1a61 74637077 		.ascii	"tcpwm_1_interrupts_15_IRQn\000"
ARM GAS  C:\Users\Nazar\AppData\Local\Temp\ccWQ1kO8.s 			page 214


 9326      6D5F315F 
 9326      696E7465 
 9326      72727570 
 9326      74735F31 
 9327              	.LASF1056:
 9328 1a7c 43595F49 		.ascii	"CY_IPC_SEMA_STATUS_LOCKED\000"
 9328      50435F53 
 9328      454D415F 
 9328      53544154 
 9328      55535F4C 
 9329              	.LASF541:
 9330 1a96 434F4E4E 		.ascii	"CONN_1_CE_DATA_LIST_CFG\000"
 9330      5F315F43 
 9330      455F4441 
 9330      54415F4C 
 9330      4953545F 
 9331              	.LASF69:
 9332 1aae 64774368 		.ascii	"dwChCtlPrioPos\000"
 9332      43746C50 
 9332      72696F50 
 9332      6F7300
 9333              	.LASF594:
 9334 1abd 48564C44 		.ascii	"HVLDO_CTRL\000"
 9334      4F5F4354 
 9334      524C00
 9335              	.LASF630:
 9336 1ac8 424C455F 		.ascii	"BLE_Type\000"
 9336      54797065 
 9336      00
 9337              	.LASF134:
 9338 1ad1 4E766963 		.ascii	"NvicMux21_IRQn\000"
 9338      4D757832 
 9338      315F4952 
 9338      516E00
 9339              	.LASF703:
 9340 1ae0 43595F42 		.ascii	"CY_BLE_EVT_GET_RSSI_COMPLETE\000"
 9340      4C455F45 
 9340      56545F47 
 9340      45545F52 
 9340      5353495F 
 9341              	.LASF774:
 9342 1afd 43595F42 		.ascii	"CY_BLE_EVT_L2CAP_CONN_PARAM_UPDATE_RSP\000"
 9342      4C455F45 
 9342      56545F4C 
 9342      32434150 
 9342      5F434F4E 
 9343              	.LASF39:
 9344 1b24 63707573 		.ascii	"cpussIpcNr\000"
 9344      73497063 
 9344      4E7200
 9345              	.LASF459:
 9346 1b2f 434F4E4E 		.ascii	"CONN_UPDATE_NEW_INTERVAL\000"
 9346      5F555044 
 9346      4154455F 
 9346      4E45575F 
 9346      494E5445 
 9347              	.LASF383:
ARM GAS  C:\Users\Nazar\AppData\Local\Temp\ccWQ1kO8.s 			page 215


 9348 1b48 5355505F 		.ascii	"SUP_TIMEOUT\000"
 9348      54494D45 
 9348      4F555400 
 9349              	.LASF50:
 9350 1b54 736D6966 		.ascii	"smifDeviceNr\000"
 9350      44657669 
 9350      63654E72 
 9350      00
 9351              	.LASF688:
 9352 1b61 43595F42 		.ascii	"CY_BLE_EVT_SET_RPA_ENABLE_COMPLETE\000"
 9352      4C455F45 
 9352      56545F53 
 9352      45545F52 
 9352      50415F45 
 9353              	.LASF396:
 9354 1b84 434F4E4E 		.ascii	"CONN_EXT_INTR_MASK\000"
 9354      5F455854 
 9354      5F494E54 
 9354      525F4D41 
 9354      534B00
 9355              	.LASF291:
 9356 1b97 7573625F 		.ascii	"usb_interrupt_med_IRQn\000"
 9356      696E7465 
 9356      72727570 
 9356      745F6D65 
 9356      645F4952 
 9357              	.LASF585:
 9358 1bae 4C4C5F50 		.ascii	"LL_PKT_RSSI_CH_ENERGY\000"
 9358      4B545F52 
 9358      5353495F 
 9358      43485F45 
 9358      4E455247 
 9359              	.LASF750:
 9360 1bc4 43595F42 		.ascii	"CY_BLE_EVT_GATT_DISCONNECT_IND\000"
 9360      4C455F45 
 9360      56545F47 
 9360      4154545F 
 9360      44495343 
 9361              	.LASF390:
 9362 1be3 4E455854 		.ascii	"NEXT_CE_INSTANT\000"
 9362      5F43455F 
 9362      494E5354 
 9362      414E5400 
 9363              	.LASF1008:
 9364 1bf3 7065726D 		.ascii	"permission\000"
 9364      69737369 
 9364      6F6E00
 9365              	.LASF82:
 9366 1bfe 70657269 		.ascii	"periDiv16CtlOffset\000"
 9366      44697631 
 9366      3643746C 
 9366      4F666673 
 9366      657400
 9367              	.LASF309:
 9368 1c11 4350555F 		.ascii	"CPU_READ_REG\000"
 9368      52454144 
 9368      5F524547 
ARM GAS  C:\Users\Nazar\AppData\Local\Temp\ccWQ1kO8.s 			page 216


 9368      00
 9369              	.LASF394:
 9370 1c1e 43455F43 		.ascii	"CE_CNFG_STS_REGISTER_EXT\000"
 9370      4E46475F 
 9370      5354535F 
 9370      52454749 
 9370      53544552 
 9371              	.LASF486:
 9372 1c37 4C455F50 		.ascii	"LE_PING_TIMER_NEXT_EXP\000"
 9372      494E475F 
 9372      54494D45 
 9372      525F4E45 
 9372      58545F45 
 9373              	.LASF958:
 9374 1c4e 43595F42 		.ascii	"CY_BLE_ADV_STATE_ADVERTISING\000"
 9374      4C455F41 
 9374      44565F53 
 9374      54415445 
 9374      5F414456 
 9375              	.LASF329:
 9376 1c6b 4144565F 		.ascii	"ADV_INTR\000"
 9376      494E5452 
 9376      00
 9377              	.LASF932:
 9378 1c74 43595F42 		.ascii	"CY_BLE_GAPP_CONNECTABLE_LOW_DC_DIRECTED_ADV\000"
 9378      4C455F47 
 9378      4150505F 
 9378      434F4E4E 
 9378      45435441 
 9379              	.LASF790:
 9380 1ca0 43595F42 		.ascii	"CY_BLE_ERROR_MEMORY_ALLOCATION_FAILED\000"
 9380      4C455F45 
 9380      52524F52 
 9380      5F4D454D 
 9380      4F52595F 
 9381              	.LASF370:
 9382 1cc6 434C4F43 		.ascii	"CLOCK_CONFIG\000"
 9382      4B5F434F 
 9382      4E464947 
 9382      00
 9383              	.LASF755:
 9384 1cd3 43595F42 		.ascii	"CY_BLE_EVT_GATTC_FIND_INFO_RSP\000"
 9384      4C455F45 
 9384      56545F47 
 9384      41545443 
 9384      5F46494E 
 9385              	.LASF127:
 9386 1cf2 4E766963 		.ascii	"NvicMux14_IRQn\000"
 9386      4D757831 
 9386      345F4952 
 9386      516E00
 9387              	.LASF68:
 9388 1d01 64774368 		.ascii	"dwChSize\000"
 9388      53697A65 
 9388      00
 9389              	.LASF200:
 9390 1d0a 63707573 		.ascii	"cpuss_interrupts_dw0_3_IRQn\000"
ARM GAS  C:\Users\Nazar\AppData\Local\Temp\ccWQ1kO8.s 			page 217


 9390      735F696E 
 9390      74657272 
 9390      75707473 
 9390      5F647730 
 9391              	.LASF22:
 9392 1d26 70657269 		.ascii	"periBase\000"
 9392      42617365 
 9392      00
 9393              	.LASF1081:
 9394 1d2f 63795F62 		.ascii	"cy_ble_eventHandlerFlag\000"
 9394      6C655F65 
 9394      76656E74 
 9394      48616E64 
 9394      6C657246 
 9395              	.LASF1089:
 9396 1d47 63795F62 		.ascii	"cy_ble_configPtr\000"
 9396      6C655F63 
 9396      6F6E6669 
 9396      67507472 
 9396      00
 9397              	.LASF710:
 9398 1d58 43595F42 		.ascii	"CY_BLE_EVT_AES_CCM_ENCRYPT_COMPLETE\000"
 9398      4C455F45 
 9398      56545F41 
 9398      45535F43 
 9398      434D5F45 
 9399              	.LASF1045:
 9400 1d7c 64657669 		.ascii	"deviceAddress\000"
 9400      63654164 
 9400      64726573 
 9400      7300
 9401              	.LASF886:
 9402 1d8a 63795F73 		.ascii	"cy_stc_ble_conn_handle_t\000"
 9402      74635F62 
 9402      6C655F63 
 9402      6F6E6E5F 
 9402      68616E64 
 9403              	.LASF1007:
 9404 1da3 61747454 		.ascii	"attType\000"
 9404      79706500 
 9405              	.LASF753:
 9406 1dab 43595F42 		.ascii	"CY_BLE_EVT_GATTC_READ_BY_GROUP_TYPE_RSP\000"
 9406      4C455F45 
 9406      56545F47 
 9406      41545443 
 9406      5F524541 
 9407              	.LASF924:
 9408 1dd3 7363616E 		.ascii	"scanFilterPolicy\000"
 9408      46696C74 
 9408      6572506F 
 9408      6C696379 
 9408      00
 9409              	.LASF453:
 9410 1de4 44504C4C 		.ascii	"DPLL_CONFIG\000"
 9410      5F434F4E 
 9410      46494700 
 9411              	.LASF31:
ARM GAS  C:\Users\Nazar\AppData\Local\Temp\ccWQ1kO8.s 			page 218


 9412 1df0 63727970 		.ascii	"cryptoVersion\000"
 9412      746F5665 
 9412      7273696F 
 9412      6E00
 9413              	.LASF489:
 9414 1dfe 54585F45 		.ascii	"TX_EN_EXT_DELAY\000"
 9414      4E5F4558 
 9414      545F4445 
 9414      4C415900 
 9415              	.LASF389:
 9416 1e0e 43455F43 		.ascii	"CE_CNFG_STS_REGISTER\000"
 9416      4E46475F 
 9416      5354535F 
 9416      52454749 
 9416      53544552 
 9417              	.LASF281:
 9418 1e23 7564625F 		.ascii	"udb_interrupts_12_IRQn\000"
 9418      696E7465 
 9418      72727570 
 9418      74735F31 
 9418      325F4952 
 9419              	.LASF8:
 9420 1e3a 5F5F7569 		.ascii	"__uint16_t\000"
 9420      6E743136 
 9420      5F7400
 9421              	.LASF422:
 9422 1e45 4144565F 		.ascii	"ADV_CONFIG\000"
 9422      434F4E46 
 9422      494700
 9423              	.LASF632:
 9424 1e50 646F7562 		.ascii	"double\000"
 9424      6C6500
 9425              	.LASF1033:
 9426 1e57 64697363 		.ascii	"discoveryModeInfo\000"
 9426      6F766572 
 9426      794D6F64 
 9426      65496E66 
 9426      6F00
 9427              	.LASF88:
 9428 1e69 6770696F 		.ascii	"gpioPrtCfgOutOffset\000"
 9428      50727443 
 9428      66674F75 
 9428      744F6666 
 9428      73657400 
 9429              	.LASF80:
 9430 1e7d 70657269 		.ascii	"periDivCmdPaTypeSelPos\000"
 9430      44697643 
 9430      6D645061 
 9430      54797065 
 9430      53656C50 
 9431              	.LASF353:
 9432 1e94 5452414E 		.ascii	"TRANSMIT_WINDOW_OFFSET\000"
 9432      534D4954 
 9432      5F57494E 
 9432      444F575F 
 9432      4F464653 
 9433              	.LASF81:
ARM GAS  C:\Users\Nazar\AppData\Local\Temp\ccWQ1kO8.s 			page 219


 9434 1eab 70657269 		.ascii	"periDiv8CtlOffset\000"
 9434      44697638 
 9434      43746C4F 
 9434      66667365 
 9434      7400
 9435              	.LASF365:
 9436 1ebd 434F4E4E 		.ascii	"CONN_INDEX\000"
 9436      5F494E44 
 9436      455800
 9437              	.LASF858:
 9438 1ec8 63795F73 		.ascii	"cy_stc_ble_stack_mgr_mem_cfg_param_t\000"
 9438      74635F62 
 9438      6C655F73 
 9438      7461636B 
 9438      5F6D6772 
 9439              	.LASF800:
 9440 1eed 43595F42 		.ascii	"CY_BLE_ERROR_L2CAP_PSM_ALREADY_REGISTERED\000"
 9440      4C455F45 
 9440      52524F52 
 9440      5F4C3243 
 9440      41505F50 
 9441              	.LASF384:
 9442 1f17 534C4156 		.ascii	"SLAVE_LATENCY\000"
 9442      455F4C41 
 9442      54454E43 
 9442      5900
 9443              	.LASF614:
 9444 1f25 454E435F 		.ascii	"ENC_CONFIG\000"
 9444      434F4E46 
 9444      494700
 9445              	.LASF962:
 9446 1f30 43595F42 		.ascii	"CY_BLE_CONN_STATE_CLIENT_DISCONNECTED_DISCOVERED\000"
 9446      4C455F43 
 9446      4F4E4E5F 
 9446      53544154 
 9446      455F434C 
 9447              	.LASF537:
 9448 1f61 4D4D4D53 		.ascii	"MMMS_DATA_MEM_DESCRIPTOR\000"
 9448      5F444154 
 9448      415F4D45 
 9448      4D5F4445 
 9448      53435249 
 9449              	.LASF1082:
 9450 1f7a 63795F62 		.ascii	"cy_ble_state\000"
 9450      6C655F73 
 9450      74617465 
 9450      00
 9451              	.LASF745:
 9452 1f87 43595F42 		.ascii	"CY_BLE_EVT_GAP_CONN_ESTB\000"
 9452      4C455F45 
 9452      56545F47 
 9452      41505F43 
 9452      4F4E4E5F 
 9453              	.LASF487:
 9454 1fa0 4C455F50 		.ascii	"LE_PING_TIMER_WRAP_COUNT\000"
 9454      494E475F 
 9454      54494D45 
ARM GAS  C:\Users\Nazar\AppData\Local\Temp\ccWQ1kO8.s 			page 220


 9454      525F5752 
 9454      41505F43 
 9455              	.LASF1042:
 9456 1fb9 61757468 		.ascii	"authInfo\000"
 9456      496E666F 
 9456      00
 9457              	.LASF1049:
 9458 1fc2 43595F49 		.ascii	"CY_IPC_SEMA_SUCCESS\000"
 9458      50435F53 
 9458      454D415F 
 9458      53554343 
 9458      45535300 
 9459              	.LASF33:
 9460 1fd6 666C6173 		.ascii	"flashcVersion\000"
 9460      68635665 
 9460      7273696F 
 9460      6E00
 9461              	.LASF1011:
 9462 1fe4 63795F73 		.ascii	"cy_stc_ble_gatts_db_t\000"
 9462      74635F62 
 9462      6C655F67 
 9462      61747473 
 9462      5F64625F 
 9463              	.LASF663:
 9464 1ffa 736B6970 		.ascii	"skipMode\000"
 9464      4D6F6465 
 9464      00
 9465              	.LASF156:
 9466 2003 696F7373 		.ascii	"ioss_interrupts_gpio_9_IRQn\000"
 9466      5F696E74 
 9466      65727275 
 9466      7074735F 
 9466      6770696F 
 9467              	.LASF968:
 9468 201f 43595F42 		.ascii	"CY_BLE_CONN_STATE_CLIENT_DISCOVERED\000"
 9468      4C455F43 
 9468      4F4E4E5F 
 9468      53544154 
 9468      455F434C 
 9469              	.LASF257:
 9470 2043 74637077 		.ascii	"tcpwm_1_interrupts_12_IRQn\000"
 9470      6D5F315F 
 9470      696E7465 
 9470      72727570 
 9470      74735F31 
 9471              	.LASF728:
 9472 205e 43595F42 		.ascii	"CY_BLE_EVT_GAP_DEVICE_CONNECTED\000"
 9472      4C455F45 
 9472      56545F47 
 9472      41505F44 
 9472      45564943 
 9473              	.LASF597:
 9474 207e 45465553 		.ascii	"EFUSE_TIM_CTRL1\000"
 9474      455F5449 
 9474      4D5F4354 
 9474      524C3100 
 9475              	.LASF598:
ARM GAS  C:\Users\Nazar\AppData\Local\Temp\ccWQ1kO8.s 			page 221


 9476 208e 45465553 		.ascii	"EFUSE_TIM_CTRL2\000"
 9476      455F5449 
 9476      4D5F4354 
 9476      524C3200 
 9477              	.LASF599:
 9478 209e 45465553 		.ascii	"EFUSE_TIM_CTRL3\000"
 9478      455F5449 
 9478      4D5F4354 
 9478      524C3300 
 9479              	.LASF1020:
 9480 20ae 5F426F6F 		.ascii	"_Bool\000"
 9480      6C00
 9481              	.LASF988:
 9482 20b4 736C6F77 		.ascii	"slowScanEnabled\000"
 9482      5363616E 
 9482      456E6162 
 9482      6C656400 
 9483              	.LASF92:
 9484 20c4 63707573 		.ascii	"cpussCm4StatusOffset\000"
 9484      73436D34 
 9484      53746174 
 9484      75734F66 
 9484      66736574 
 9485              	.LASF974:
 9486 20d9 63656E74 		.ascii	"centralAddrResolutionCharHandle\000"
 9486      72616C41 
 9486      64647252 
 9486      65736F6C 
 9486      7574696F 
 9487              	.LASF171:
 9488 20f9 626C6573 		.ascii	"bless_interrupt_IRQn\000"
 9488      735F696E 
 9488      74657272 
 9488      7570745F 
 9488      4952516E 
 9489              	.LASF186:
 9490 210e 63707573 		.ascii	"cpuss_interrupts_ipc_14_IRQn\000"
 9490      735F696E 
 9490      74657272 
 9490      75707473 
 9490      5F697063 
 9491              	.LASF588:
 9492 212b 4D545F44 		.ascii	"MT_DELAY_CFG\000"
 9492      454C4159 
 9492      5F434647 
 9492      00
 9493              	.LASF772:
 9494 2138 43595F42 		.ascii	"CY_BLE_EVT_GATTC_LONG_PROCEDURE_END\000"
 9494      4C455F45 
 9494      56545F47 
 9494      41545443 
 9494      5F4C4F4E 
 9495              	.LASF1104:
 9496 215c 6D656D63 		.ascii	"memcpy\000"
 9496      707900
 9497              	.LASF386:
 9498 2163 5044555F 		.ascii	"PDU_ACCESS_ADDR_L_REGISTER\000"
ARM GAS  C:\Users\Nazar\AppData\Local\Temp\ccWQ1kO8.s 			page 222


 9498      41434345 
 9498      53535F41 
 9498      4444525F 
 9498      4C5F5245 
 9499              	.LASF1001:
 9500 217e 61747447 		.ascii	"attGenericValLen\000"
 9500      656E6572 
 9500      69635661 
 9500      6C4C656E 
 9500      00
 9501              	.LASF524:
 9502 218f 55535F43 		.ascii	"US_CAPT_STATUS\000"
 9502      4150545F 
 9502      53544154 
 9502      555300
 9503              	.LASF756:
 9504 219e 43595F42 		.ascii	"CY_BLE_EVT_GATTC_FIND_BY_TYPE_VALUE_RSP\000"
 9504      4C455F45 
 9504      56545F47 
 9504      41545443 
 9504      5F46494E 
 9505              	.LASF969:
 9506 21c6 63795F65 		.ascii	"cy_en_ble_conn_state_t\000"
 9506      6E5F626C 
 9506      655F636F 
 9506      6E6E5F73 
 9506      74617465 
 9507              	.LASF124:
 9508 21dd 4E766963 		.ascii	"NvicMux11_IRQn\000"
 9508      4D757831 
 9508      315F4952 
 9508      516E00
 9509              	.LASF197:
 9510 21ec 63707573 		.ascii	"cpuss_interrupts_dw0_0_IRQn\000"
 9510      735F696E 
 9510      74657272 
 9510      75707473 
 9510      5F647730 
 9511              	.LASF611:
 9512 2208 4D49435F 		.ascii	"MIC_IN0\000"
 9512      494E3000 
 9513              	.LASF30:
 9514 2210 63707573 		.ascii	"cpussVersion\000"
 9514      73566572 
 9514      73696F6E 
 9514      00
 9515              	.LASF1031:
 9516 221d 67617474 		.ascii	"gattDbIndexCount\000"
 9516      4462496E 
 9516      64657843 
 9516      6F756E74 
 9516      00
 9517              	.LASF529:
 9518 222e 55535F43 		.ascii	"US_COUNTER\000"
 9518      4F554E54 
 9518      455200
 9519              	.LASF100:
ARM GAS  C:\Users\Nazar\AppData\Local\Temp\ccWQ1kO8.s 			page 223


 9520 2239 63707573 		.ascii	"cpussRomCtl\000"
 9520      73526F6D 
 9520      43746C00 
 9521              	.LASF212:
 9522 2245 63707573 		.ascii	"cpuss_interrupts_dw0_15_IRQn\000"
 9522      735F696E 
 9522      74657272 
 9522      75707473 
 9522      5F647730 
 9523              	.LASF244:
 9524 2262 74637077 		.ascii	"tcpwm_0_interrupts_7_IRQn\000"
 9524      6D5F305F 
 9524      696E7465 
 9524      72727570 
 9524      74735F37 
 9525              	.LASF167:
 9526 227c 73727373 		.ascii	"srss_interrupt_mcwdt_1_IRQn\000"
 9526      5F696E74 
 9526      65727275 
 9526      70745F6D 
 9526      63776474 
 9527              	.LASF229:
 9528 2298 63707573 		.ascii	"cpuss_interrupts_fault_0_IRQn\000"
 9528      735F696E 
 9528      74657272 
 9528      75707473 
 9528      5F666175 
 9529              	.LASF956:
 9530 22b6 43595F42 		.ascii	"CY_BLE_ADV_STATE_STOPPED\000"
 9530      4C455F41 
 9530      44565F53 
 9530      54415445 
 9530      5F53544F 
 9531              	.LASF612:
 9532 22cf 4D49435F 		.ascii	"MIC_OUT0\000"
 9532      4F555430 
 9532      00
 9533              	.LASF840:
 9534 22d8 6C326361 		.ascii	"l2capConfig\000"
 9534      70436F6E 
 9534      66696700 
 9535              	.LASF306:
 9536 22e4 52414449 		.ascii	"RADIO_REG5_ADDR\000"
 9536      4F5F5245 
 9536      47355F41 
 9536      44445200 
 9537              	.LASF48:
 9538 22f4 73727373 		.ascii	"srssNumHfroot\000"
 9538      4E756D48 
 9538      66726F6F 
 9538      7400
 9539              	.LASF335:
 9540 2302 5343414E 		.ascii	"SCAN_INTR\000"
 9540      5F494E54 
 9540      5200
 9541              	.LASF740:
 9542 230c 43595F42 		.ascii	"CY_BLE_EVT_GAP_DEVICE_ADDR_GEN_COMPLETE\000"
ARM GAS  C:\Users\Nazar\AppData\Local\Temp\ccWQ1kO8.s 			page 224


 9542      4C455F45 
 9542      56545F47 
 9542      41505F44 
 9542      45564943 
 9543              	.LASF58:
 9544 2334 666C6173 		.ascii	"flashPipeRequired\000"
 9544      68506970 
 9544      65526571 
 9544      75697265 
 9544      6400
 9545              	.LASF382:
 9546 2346 434F4E4E 		.ascii	"CONN_INTERVAL\000"
 9546      5F494E54 
 9546      45525641 
 9546      4C00
 9547              	.LASF327:
 9548 2354 4144565F 		.ascii	"ADV_PARAMS\000"
 9548      50415241 
 9548      4D5300
 9549              	.LASF102:
 9550 235f 63707573 		.ascii	"cpussRam1Ctl0\000"
 9550      7352616D 
 9550      3143746C 
 9550      3000
 9551              	.LASF648:
 9552 236d 43595F53 		.ascii	"CY_SYSPM_HIBERNATE\000"
 9552      5953504D 
 9552      5F484942 
 9552      45524E41 
 9552      544500
 9553              	.LASF997:
 9554 2380 61637475 		.ascii	"actualLength\000"
 9554      616C4C65 
 9554      6E677468 
 9554      00
 9555              	.LASF999:
 9556 238d 63795F73 		.ascii	"cy_stc_ble_gatts_att_gen_val_len_t\000"
 9556      74635F62 
 9556      6C655F67 
 9556      61747473 
 9556      5F617474 
 9557              	.LASF321:
 9558 23b0 52585F46 		.ascii	"RX_FIFO_RD_SILENT\000"
 9558      49464F5F 
 9558      52445F53 
 9558      494C454E 
 9558      5400
 9559              	.LASF866:
 9560 23c2 43595F42 		.ascii	"CY_BLE_LL_PWR_LVL_NEG_6_DBM\000"
 9560      4C455F4C 
 9560      4C5F5057 
 9560      525F4C56 
 9560      4C5F4E45 
 9561              	.LASF759:
 9562 23de 43595F42 		.ascii	"CY_BLE_EVT_GATTC_READ_MULTI_RSP\000"
 9562      4C455F45 
 9562      56545F47 
ARM GAS  C:\Users\Nazar\AppData\Local\Temp\ccWQ1kO8.s 			page 225


 9562      41545443 
 9562      5F524541 
 9563              	.LASF530:
 9564 23fe 55535F43 		.ascii	"US_CAPT_PREV\000"
 9564      4150545F 
 9564      50524556 
 9564      00
 9565              	.LASF613:
 9566 240b 454E435F 		.ascii	"ENC_PARAMS\000"
 9566      50415241 
 9566      4D5300
 9567              	.LASF799:
 9568 2416 43595F42 		.ascii	"CY_BLE_ERROR_L2CAP_PSM_WRONG_ENCODING\000"
 9568      4C455F45 
 9568      52524F52 
 9568      5F4C3243 
 9568      41505F50 
 9569              	.LASF56:
 9570 243c 63727970 		.ascii	"cryptoMemSize\000"
 9570      746F4D65 
 9570      6D53697A 
 9570      6500
 9571              	.LASF371:
 9572 244a 54494D5F 		.ascii	"TIM_COUNTER_L\000"
 9572      434F554E 
 9572      5445525F 
 9572      4C00
 9573              	.LASF955:
 9574 2458 63795F65 		.ascii	"cy_en_ble_state_t\000"
 9574      6E5F626C 
 9574      655F7374 
 9574      6174655F 
 9574      7400
 9575              	.LASF556:
 9576 246a 4D4D4D53 		.ascii	"MMMS_ADVCH_NI_VALID\000"
 9576      5F414456 
 9576      43485F4E 
 9576      495F5641 
 9576      4C494400 
 9577              	.LASF818:
 9578 247e 62644164 		.ascii	"bdAddr\000"
 9578      647200
 9579              	.LASF153:
 9580 2485 696F7373 		.ascii	"ioss_interrupts_gpio_6_IRQn\000"
 9580      5F696E74 
 9580      65727275 
 9580      7074735F 
 9580      6770696F 
 9581              	.LASF989:
 9582 24a1 736C6F77 		.ascii	"slowScanInterval\000"
 9582      5363616E 
 9582      496E7465 
 9582      7276616C 
 9582      00
 9583              	.LASF61:
 9584 24b2 666C6173 		.ascii	"flashEraseDelay\000"
 9584      68457261 
ARM GAS  C:\Users\Nazar\AppData\Local\Temp\ccWQ1kO8.s 			page 226


 9584      73654465 
 9584      6C617900 
 9585              	.LASF501:
 9586 24c2 574C5F43 		.ascii	"WL_CONNECTION_STATUS\000"
 9586      4F4E4E45 
 9586      4354494F 
 9586      4E5F5354 
 9586      41545553 
 9587              	.LASF640:
 9588 24d7 43595F53 		.ascii	"CY_SYSPM_INVALID_STATE\000"
 9588      5953504D 
 9588      5F494E56 
 9588      414C4944 
 9588      5F535441 
 9589              	.LASF122:
 9590 24ee 4E766963 		.ascii	"NvicMux9_IRQn\000"
 9590      4D757839 
 9590      5F495251 
 9590      6E00
 9591              	.LASF601:
 9592 24fc 45465553 		.ascii	"EFUSE_RDATA_H\000"
 9592      455F5244 
 9592      4154415F 
 9592      4800
 9593              	.LASF462:
 9594 250a 434F4E4E 		.ascii	"CONN_UPDATE_NEW_SL_INTERVAL\000"
 9594      5F555044 
 9594      4154455F 
 9594      4E45575F 
 9594      534C5F49 
 9595              	.LASF852:
 9596 2526 6D656D6F 		.ascii	"memoryHeapPtr\000"
 9596      72794865 
 9596      61705074 
 9596      7200
 9597              	.LASF600:
 9598 2534 45465553 		.ascii	"EFUSE_RDATA_L\000"
 9598      455F5244 
 9598      4154415F 
 9598      4C00
 9599              	.LASF747:
 9600 2542 43595F42 		.ascii	"CY_BLE_EVT_GAP_ADV_TX\000"
 9600      4C455F45 
 9600      56545F47 
 9600      41505F41 
 9600      44565F54 
 9601              	.LASF940:
 9602 2558 61647646 		.ascii	"advFilterPolicy\000"
 9602      696C7465 
 9602      72506F6C 
 9602      69637900 
 9603              	.LASF1004:
 9604 2568 61747456 		.ascii	"attValueUuid\000"
 9604      616C7565 
 9604      55756964 
 9604      00
 9605              	.LASF884:
ARM GAS  C:\Users\Nazar\AppData\Local\Temp\ccWQ1kO8.s 			page 227


 9606 2575 62644861 		.ascii	"bdHandle\000"
 9606      6E646C65 
 9606      00
 9607              	.LASF404:
 9608 257e 44544D5F 		.ascii	"DTM_RX_PKT_COUNT\000"
 9608      52585F50 
 9608      4B545F43 
 9608      4F554E54 
 9608      00
 9609              	.LASF183:
 9610 258f 63707573 		.ascii	"cpuss_interrupts_ipc_11_IRQn\000"
 9610      735F696E 
 9610      74657272 
 9610      75707473 
 9610      5F697063 
 9611              	.LASF253:
 9612 25ac 74637077 		.ascii	"tcpwm_1_interrupts_8_IRQn\000"
 9612      6D5F315F 
 9612      696E7465 
 9612      72727570 
 9612      74735F38 
 9613              	.LASF976:
 9614 25c6 63795F73 		.ascii	"cy_stc_ble_gaps_t\000"
 9614      74635F62 
 9614      6C655F67 
 9614      6170735F 
 9614      7400
 9615              	.LASF639:
 9616 25d8 43595F53 		.ascii	"CY_SYSPM_TIMEOUT\000"
 9616      5953504D 
 9616      5F54494D 
 9616      454F5554 
 9616      00
 9617              	.LASF1073:
 9618 25e9 43795F42 		.ascii	"Cy_BLE_UnregisterHostPMCallbacks\000"
 9618      4C455F55 
 9618      6E726567 
 9618      69737465 
 9618      72486F73 
 9619              	.LASF984:
 9620 260a 63795F73 		.ascii	"cy_stc_ble_gapp_adv_params_t\000"
 9620      74635F62 
 9620      6C655F67 
 9620      6170705F 
 9620      6164765F 
 9621              	.LASF1079:
 9622 2627 626C6544 		.ascii	"bleDeepSleepCallback\000"
 9622      65657053 
 9622      6C656570 
 9622      43616C6C 
 9622      6261636B 
 9623              	.LASF1013:
 9624 263c 67617474 		.ascii	"gattDbTotalEntries\000"
 9624      4462546F 
 9624      74616C45 
 9624      6E747269 
 9624      657300
ARM GAS  C:\Users\Nazar\AppData\Local\Temp\ccWQ1kO8.s 			page 228


 9625              	.LASF478:
 9626 264f 4E455854 		.ascii	"NEXT_RESP_TIMER_EXP\000"
 9626      5F524553 
 9626      505F5449 
 9626      4D45525F 
 9626      45585000 
 9627              	.LASF876:
 9628 2663 43595F42 		.ascii	"CY_BLE_BLESS_STATE_ECO_ON\000"
 9628      4C455F42 
 9628      4C455353 
 9628      5F535441 
 9628      54455F45 
 9629              	.LASF96:
 9630 267d 63707573 		.ascii	"cpussTrimRomCtlOffset\000"
 9630      73547269 
 9630      6D526F6D 
 9630      43746C4F 
 9630      66667365 
 9631              	.LASF1036:
 9632 2693 67617063 		.ascii	"gapcScanParams\000"
 9632      5363616E 
 9632      50617261 
 9632      6D7300
 9633              	.LASF671:
 9634 26a2 43595F42 		.ascii	"CY_BLE_EVT_STACK_BUSY_STATUS\000"
 9634      4C455F45 
 9634      56545F53 
 9634      5441434B 
 9634      5F425553 
 9635              	.LASF677:
 9636 26bf 43595F42 		.ascii	"CY_BLE_EVT_READ_AUTH_PAYLOAD_TO_COMPLETE\000"
 9636      4C455F45 
 9636      56545F52 
 9636      4541445F 
 9636      41555448 
 9637              	.LASF692:
 9638 26e8 43595F42 		.ascii	"CY_BLE_EVT_ADD_DEVICE_TO_WHITE_LIST_COMPLETE\000"
 9638      4C455F45 
 9638      56545F41 
 9638      44445F44 
 9638      45564943 
 9639              	.LASF667:
 9640 2715 63795F73 		.ascii	"cy_stc_syspm_callback_t\000"
 9640      74635F73 
 9640      7973706D 
 9640      5F63616C 
 9640      6C626163 
 9641              	.LASF996:
 9642 272d 63795F73 		.ascii	"cy_stc_ble_gapc_scan_params_t\000"
 9642      74635F62 
 9642      6C655F67 
 9642      6170635F 
 9642      7363616E 
 9643              	.LASF807:
 9644 274b 43595F42 		.ascii	"CY_BLE_ERROR_MIC_AUTH_FAILED\000"
 9644      4C455F45 
 9644      52524F52 
ARM GAS  C:\Users\Nazar\AppData\Local\Temp\ccWQ1kO8.s 			page 229


 9644      5F4D4943 
 9644      5F415554 
 9645              	.LASF209:
 9646 2768 63707573 		.ascii	"cpuss_interrupts_dw0_12_IRQn\000"
 9646      735F696E 
 9646      74657272 
 9646      75707473 
 9646      5F647730 
 9647              	.LASF527:
 9648 2785 4541524C 		.ascii	"EARLY_INTR_STATUS\000"
 9648      595F494E 
 9648      54525F53 
 9648      54415455 
 9648      5300
 9649              	.LASF1113:
 9650 2797 47656E65 		.ascii	"Generated_Source\\PSoC6\\pdl\\middleware\\ble\\cy_b"
 9650      72617465 
 9650      645F536F 
 9650      75726365 
 9650      5C50536F 
 9651 27c5 6C652E63 		.ascii	"le.c\000"
 9651      00
 9652              	.LASF241:
 9653 27ca 74637077 		.ascii	"tcpwm_0_interrupts_4_IRQn\000"
 9653      6D5F305F 
 9653      696E7465 
 9653      72727570 
 9653      74735F34 
 9654              	.LASF686:
 9655 27e4 43595F42 		.ascii	"CY_BLE_EVT_GET_LOCAL_RPA_COMPLETE\000"
 9655      4C455F45 
 9655      56545F47 
 9655      45545F4C 
 9655      4F43414C 
 9656              	.LASF754:
 9657 2806 43595F42 		.ascii	"CY_BLE_EVT_GATTC_READ_BY_TYPE_RSP\000"
 9657      4C455F45 
 9657      56545F47 
 9657      41545443 
 9657      5F524541 
 9658              	.LASF450:
 9659 2828 494E4954 		.ascii	"INIT_WINDOW_TIMER_CTRL\000"
 9659      5F57494E 
 9659      444F575F 
 9659      54494D45 
 9659      525F4354 
 9660              	.LASF1060:
 9661 283f 696E7465 		.ascii	"interruptState\000"
 9661      72727570 
 9661      74537461 
 9661      746500
 9662              	.LASF1099:
 9663 284e 43795F49 		.ascii	"Cy_IPC_Sema_Status\000"
 9663      50435F53 
 9663      656D615F 
 9663      53746174 
 9663      757300
ARM GAS  C:\Users\Nazar\AppData\Local\Temp\ccWQ1kO8.s 			page 230


 9664              	.LASF775:
 9665 2861 43595F42 		.ascii	"CY_BLE_EVT_L2CAP_COMMAND_REJ\000"
 9665      4C455F45 
 9665      56545F4C 
 9665      32434150 
 9665      5F434F4D 
 9666              	.LASF839:
 9667 287e 646C6543 		.ascii	"dleConfig\000"
 9667      6F6E6669 
 9667      6700
 9668              	.LASF301:
 9669 2888 494E5452 		.ascii	"INTR_MASKED\000"
 9669      5F4D4153 
 9669      4B454400 
 9670              	.LASF442:
 9671 2894 4C4C5F44 		.ascii	"LL_DBG_10\000"
 9671      42475F31 
 9671      3000
 9672              	.LASF299:
 9673 289e 494E5452 		.ascii	"INTR_SET\000"
 9673      5F534554 
 9673      00
 9674              	.LASF196:
 9675 28a7 6373645F 		.ascii	"csd_interrupt_IRQn\000"
 9675      696E7465 
 9675      72727570 
 9675      745F4952 
 9675      516E00
 9676              	.LASF276:
 9677 28ba 7564625F 		.ascii	"udb_interrupts_7_IRQn\000"
 9677      696E7465 
 9677      72727570 
 9677      74735F37 
 9677      5F495251 
 9678              	.LASF1012:
 9679 28d0 67617474 		.ascii	"gattDbPtr\000"
 9679      44625074 
 9679      7200
 9680              	.LASF72:
 9681 28da 64775374 		.ascii	"dwStatusChIdxMsk\000"
 9681      61747573 
 9681      43684964 
 9681      784D736B 
 9681      00
 9682              	.LASF923:
 9683 28eb 6F776E41 		.ascii	"ownAddrType\000"
 9683      64647254 
 9683      79706500 
 9684              	.LASF164:
 9685 28f7 6C70636F 		.ascii	"lpcomp_interrupt_IRQn\000"
 9685      6D705F69 
 9685      6E746572 
 9685      72757074 
 9685      5F495251 
 9686              	.LASF914:
 9687 290d 626F6E64 		.ascii	"bonding\000"
 9687      696E6700 
ARM GAS  C:\Users\Nazar\AppData\Local\Temp\ccWQ1kO8.s 			page 231


 9688              	.LASF757:
 9689 2915 43595F42 		.ascii	"CY_BLE_EVT_GATTC_READ_RSP\000"
 9689      4C455F45 
 9689      56545F47 
 9689      41545443 
 9689      5F524541 
 9690              	.LASF1026:
 9691 292f 7478506F 		.ascii	"txPowerLevelAdv\000"
 9691      7765724C 
 9691      6576656C 
 9691      41647600 
 9692              	.LASF545:
 9693 293f 434F4E4E 		.ascii	"CONN_2_CE_DATA_LIST_CFG\000"
 9693      5F325F43 
 9693      455F4441 
 9693      54415F4C 
 9693      4953545F 
 9694              	.LASF697:
 9695 2957 43595F42 		.ascii	"CY_BLE_EVT_PHY_UPDATE_COMPLETE\000"
 9695      4C455F45 
 9695      56545F50 
 9695      48595F55 
 9695      50444154 
 9696              	.LASF945:
 9697 2976 7363616E 		.ascii	"scanRspData\000"
 9697      52737044 
 9697      61746100 
 9698              	.LASF222:
 9699 2982 63707573 		.ascii	"cpuss_interrupts_dw1_9_IRQn\000"
 9699      735F696E 
 9699      74657272 
 9699      75707473 
 9699      5F647731 
 9700              	.LASF479:
 9701 299e 4E455854 		.ascii	"NEXT_SUP_TO\000"
 9701      5F535550 
 9701      5F544F00 
 9702              	.LASF869:
 9703 29aa 63795F65 		.ascii	"cy_en_ble_bless_pwr_lvl_t\000"
 9703      6E5F626C 
 9703      655F626C 
 9703      6573735F 
 9703      7077725F 
 9704              	.LASF9:
 9705 29c4 73686F72 		.ascii	"short unsigned int\000"
 9705      7420756E 
 9705      7369676E 
 9705      65642069 
 9705      6E7400
 9706              	.LASF572:
 9707 29d7 52534C56 		.ascii	"RSLV_LIST_PEER_RPA_BASE_ADDR\000"
 9707      5F4C4953 
 9707      545F5045 
 9707      45525F52 
 9707      50415F42 
 9708              	.LASF694:
 9709 29f4 43595F42 		.ascii	"CY_BLE_EVT_GET_PHY_COMPLETE\000"
ARM GAS  C:\Users\Nazar\AppData\Local\Temp\ccWQ1kO8.s 			page 232


 9709      4C455F45 
 9709      56545F47 
 9709      45545F50 
 9709      48595F43 
 9710              	.LASF808:
 9711 2a10 43595F42 		.ascii	"CY_BLE_ERROR_HARDWARE_FAILURE\000"
 9711      4C455F45 
 9711      52524F52 
 9711      5F484152 
 9711      44574152 
 9712              	.LASF698:
 9713 2a2e 43595F42 		.ascii	"CY_BLE_EVT_SET_PRIVACY_MODE_COMPLETE\000"
 9713      4C455F45 
 9713      56545F53 
 9713      45545F50 
 9713      52495641 
 9714              	.LASF307:
 9715 2a53 52455345 		.ascii	"RESERVED1\000"
 9715      52564544 
 9715      3100
 9716              	.LASF310:
 9717 2a5d 52455345 		.ascii	"RESERVED2\000"
 9717      52564544 
 9717      3200
 9718              	.LASF334:
 9719 2a67 52455345 		.ascii	"RESERVED3\000"
 9719      52564544 
 9719      3300
 9720              	.LASF340:
 9721 2a71 52455345 		.ascii	"RESERVED4\000"
 9721      52564544 
 9721      3400
 9722              	.LASF346:
 9723 2a7b 52455345 		.ascii	"RESERVED5\000"
 9723      52564544 
 9723      3500
 9724              	.LASF350:
 9725 2a85 52455345 		.ascii	"RESERVED6\000"
 9725      52564544 
 9725      3600
 9726              	.LASF358:
 9727 2a8f 52455345 		.ascii	"RESERVED7\000"
 9727      52564544 
 9727      3700
 9728              	.LASF362:
 9729 2a99 52455345 		.ascii	"RESERVED8\000"
 9729      52564544 
 9729      3800
 9730              	.LASF366:
 9731 2aa3 52455345 		.ascii	"RESERVED9\000"
 9731      52564544 
 9731      3900
 9732              	.LASF141:
 9733 2aad 4E766963 		.ascii	"NvicMux28_IRQn\000"
 9733      4D757832 
 9733      385F4952 
 9733      516E00
ARM GAS  C:\Users\Nazar\AppData\Local\Temp\ccWQ1kO8.s 			page 233


 9734              	.LASF6:
 9735 2abc 5F5F696E 		.ascii	"__int16_t\000"
 9735      7431365F 
 9735      7400
 9736              	.LASF787:
 9737 2ac6 43595F42 		.ascii	"CY_BLE_INFO_FLASH_WRITE_IN_PROGRESS\000"
 9737      4C455F49 
 9737      4E464F5F 
 9737      464C4153 
 9737      485F5752 
 9738              	.LASF227:
 9739 2aea 63707573 		.ascii	"cpuss_interrupts_dw1_14_IRQn\000"
 9739      735F696E 
 9739      74657272 
 9739      75707473 
 9739      5F647731 
 9740              	.LASF844:
 9741 2b07 70614361 		.ascii	"paCalConfig\000"
 9741      6C436F6E 
 9741      66696700 
 9742              	.LASF592:
 9743 2b13 4D545F53 		.ascii	"MT_STATUS\000"
 9743      54415455 
 9743      5300
 9744              	.LASF584:
 9745 2b1d 4558545F 		.ascii	"EXT_PA_LNA_CTRL\000"
 9745      50415F4C 
 9745      4E415F43 
 9745      54524C00 
 9746              	.LASF180:
 9747 2b2d 63707573 		.ascii	"cpuss_interrupts_ipc_8_IRQn\000"
 9747      735F696E 
 9747      74657272 
 9747      75707473 
 9747      5F697063 
 9748              	.LASF150:
 9749 2b49 696F7373 		.ascii	"ioss_interrupts_gpio_3_IRQn\000"
 9749      5F696E74 
 9749      65727275 
 9749      7074735F 
 9749      6770696F 
 9750              	.LASF889:
 9751 2b65 43595F42 		.ascii	"CY_BLE_GAP_IOCAP_DISPLAY_YESNO\000"
 9751      4C455F47 
 9751      41505F49 
 9751      4F434150 
 9751      5F444953 
 9752              	.LASF480:
 9753 2b84 4C4C485F 		.ascii	"LLH_FEATURE_CONFIG\000"
 9753      46454154 
 9753      5552455F 
 9753      434F4E46 
 9753      494700
 9754              	.LASF629:
 9755 2b97 424C455F 		.ascii	"BLE_V1_Type\000"
 9755      56315F54 
 9755      79706500 
ARM GAS  C:\Users\Nazar\AppData\Local\Temp\ccWQ1kO8.s 			page 234


 9756              	.LASF119:
 9757 2ba3 4E766963 		.ascii	"NvicMux6_IRQn\000"
 9757      4D757836 
 9757      5F495251 
 9757      6E00
 9758              	.LASF1015:
 9759 2bb1 63795F73 		.ascii	"cy_stc_ble_gatts_db_info_t\000"
 9759      74635F62 
 9759      6C655F67 
 9759      61747473 
 9759      5F64625F 
 9760              	.LASF1006:
 9761 2bcc 61747448 		.ascii	"attHandle\000"
 9761      616E646C 
 9761      6500
 9762              	.LASF666:
 9763 2bd6 6E657874 		.ascii	"nextItm\000"
 9763      49746D00 
 9764              	.LASF814:
 9765 2bde 43595F42 		.ascii	"CY_BLE_ERROR_INVALID_STATE\000"
 9765      4C455F45 
 9765      52524F52 
 9765      5F494E56 
 9765      414C4944 
 9766              	.LASF843:
 9767 2bf9 77686974 		.ascii	"whiteListConfig\000"
 9767      654C6973 
 9767      74436F6E 
 9767      66696700 
 9768              	.LASF657:
 9769 2c09 62617365 		.ascii	"base\000"
 9769      00
 9770              	.LASF593:
 9771 2c0e 5057525F 		.ascii	"PWR_CTRL_SM_ST\000"
 9771      4354524C 
 9771      5F534D5F 
 9771      535400
 9772              	.LASF51:
 9773 2c1d 70617373 		.ascii	"passSarChannels\000"
 9773      53617243 
 9773      68616E6E 
 9773      656C7300 
 9774              	.LASF16:
 9775 2c2d 75696E74 		.ascii	"uint8_t\000"
 9775      385F7400 
 9776              	.LASF250:
 9777 2c35 74637077 		.ascii	"tcpwm_1_interrupts_5_IRQn\000"
 9777      6D5F315F 
 9777      696E7465 
 9777      72727570 
 9777      74735F35 
 9778              	.LASF764:
 9779 2c4f 43595F42 		.ascii	"CY_BLE_EVT_GATTS_EXEC_WRITE_REQ\000"
 9779      4C455F45 
 9779      56545F47 
 9779      41545453 
 9779      5F455845 
ARM GAS  C:\Users\Nazar\AppData\Local\Temp\ccWQ1kO8.s 			page 235


 9780              	.LASF319:
 9781 2c6f 52585F46 		.ascii	"RX_FIFO_STATUS\000"
 9781      49464F5F 
 9781      53544154 
 9781      555300
 9782              	.LASF405:
 9783 2c7e 4C455F52 		.ascii	"LE_RF_TEST_MODE_EXT\000"
 9783      465F5445 
 9783      53545F4D 
 9783      4F44455F 
 9783      45585400 
 9784              	.LASF372:
 9785 2c92 57414B45 		.ascii	"WAKEUP_CONFIG_EXTD\000"
 9785      55505F43 
 9785      4F4E4649 
 9785      475F4558 
 9785      544400
 9786              	.LASF168:
 9787 2ca5 73727373 		.ascii	"srss_interrupt_backup_IRQn\000"
 9787      5F696E74 
 9787      65727275 
 9787      70745F62 
 9787      61636B75 
 9788              	.LASF160:
 9789 2cc0 696F7373 		.ascii	"ioss_interrupts_gpio_13_IRQn\000"
 9789      5F696E74 
 9789      65727275 
 9789      7074735F 
 9789      6770696F 
 9790              	.LASF721:
 9791 2cdd 43595F42 		.ascii	"CY_BLE_EVT_GAPC_SCAN_PROGRESS_RESULT\000"
 9791      4C455F45 
 9791      56545F47 
 9791      4150435F 
 9791      5343414E 
 9792              	.LASF714:
 9793 2d02 43595F42 		.ascii	"CY_BLE_EVT_RADIO_TEMPERATURE\000"
 9793      4C455F45 
 9793      56545F52 
 9793      4144494F 
 9793      5F54454D 
 9794              	.LASF286:
 9795 2d1f 61756469 		.ascii	"audioss_interrupt_i2s_IRQn\000"
 9795      6F73735F 
 9795      696E7465 
 9795      72727570 
 9795      745F6932 
 9796              	.LASF338:
 9797 2d3a 494E4954 		.ascii	"INIT_WINDOW\000"
 9797      5F57494E 
 9797      444F5700 
 9798              	.LASF1069:
 9799 2d46 63795F62 		.ascii	"cy_ble_stackDataBuff\000"
 9799      6C655F73 
 9799      7461636B 
 9799      44617461 
 9799      42756666 
ARM GAS  C:\Users\Nazar\AppData\Local\Temp\ccWQ1kO8.s 			page 236


 9800              	.LASF917:
 9801 2d5b 70616972 		.ascii	"pairingProperties\000"
 9801      696E6750 
 9801      726F7065 
 9801      72746965 
 9801      7300
 9802              	.LASF1040:
 9803 2d6d 61747456 		.ascii	"attValuesCCCD\000"
 9803      616C7565 
 9803      73434343 
 9803      4400
 9804              	.LASF953:
 9805 2d7b 43595F42 		.ascii	"CY_BLE_STATE_INITIALIZING\000"
 9805      4C455F53 
 9805      54415445 
 9805      5F494E49 
 9805      5449414C 
 9806              	.LASF696:
 9807 2d95 43595F42 		.ascii	"CY_BLE_EVT_SET_PHY_COMPLETE\000"
 9807      4C455F45 
 9807      56545F53 
 9807      45545F50 
 9807      48595F43 
 9808              	.LASF631:
 9809 2db1 666C6F61 		.ascii	"float\000"
 9809      7400
 9810              	.LASF961:
 9811 2db7 43595F42 		.ascii	"CY_BLE_CONN_STATE_DISCONNECTED\000"
 9811      4C455F43 
 9811      4F4E4E5F 
 9811      53544154 
 9811      455F4449 
 9812              	.LASF744:
 9813 2dd6 43595F42 		.ascii	"CY_BLE_EVT_GAP_CREATE_CONN_CANCEL_COMPLETE\000"
 9813      4C455F45 
 9813      56545F47 
 9813      41505F43 
 9813      52454154 
 9814              	.LASF27:
 9815 2e01 70617373 		.ascii	"passBase\000"
 9815      42617365 
 9815      00
 9816              	.LASF1062:
 9817 2e0a 736C6565 		.ascii	"sleepMode\000"
 9817      704D6F64 
 9817      6500
 9818              	.LASF910:
 9819 2e14 43595F42 		.ascii	"CY_BLE_GAP_AUTH_ERROR_LINK_DISCONNECTED\000"
 9819      4C455F47 
 9819      41505F41 
 9819      5554485F 
 9819      4552524F 
 9820              	.LASF4:
 9821 2e3c 756E7369 		.ascii	"unsigned char\000"
 9821      676E6564 
 9821      20636861 
 9821      7200
ARM GAS  C:\Users\Nazar\AppData\Local\Temp\ccWQ1kO8.s 			page 237


 9822              	.LASF633:
 9823 2e4a 696E7472 		.ascii	"intrSrc\000"
 9823      53726300 
 9824              	.LASF564:
 9825 2e52 4D4D4D53 		.ascii	"MMMS_RX_PKT_CNTR\000"
 9825      5F52585F 
 9825      504B545F 
 9825      434E5452 
 9825      00
 9826              	.LASF1037:
 9827 2e63 666C6173 		.ascii	"flashStorage\000"
 9827      6853746F 
 9827      72616765 
 9827      00
 9828              	.LASF303:
 9829 2e70 52414449 		.ascii	"RADIO_REG2_ADDR\000"
 9829      4F5F5245 
 9829      47325F41 
 9829      44445200 
 9830              	.LASF841:
 9831 2e80 70726976 		.ascii	"privacyConfig\000"
 9831      61637943 
 9831      6F6E6669 
 9831      6700
 9832              	.LASF748:
 9833 2e8e 43595F42 		.ascii	"CY_BLE_EVT_GATTC_ERROR_RSP\000"
 9833      4C455F45 
 9833      56545F47 
 9833      41545443 
 9833      5F455252 
 9834              	.LASF868:
 9835 2ea9 43595F42 		.ascii	"CY_BLE_LL_PWR_LVL_MAX\000"
 9835      4C455F4C 
 9835      4C5F5057 
 9835      525F4C56 
 9835      4C5F4D41 
 9836              	.LASF804:
 9837 2ebf 43595F42 		.ascii	"CY_BLE_ERROR_UNSUPPORTED_FEATURE_OR_PARAMETER_VALUE"
 9837      4C455F45 
 9837      52524F52 
 9837      5F554E53 
 9837      5550504F 
 9838 2ef2 00       		.ascii	"\000"
 9839              	.LASF238:
 9840 2ef3 74637077 		.ascii	"tcpwm_0_interrupts_1_IRQn\000"
 9840      6D5F305F 
 9840      696E7465 
 9840      72727570 
 9840      74735F31 
 9841              	.LASF720:
 9842 2f0d 43595F42 		.ascii	"CY_BLE_EVT_HCI_PKT_RCVD\000"
 9842      4C455F45 
 9842      56545F48 
 9842      43495F50 
 9842      4B545F52 
 9843              	.LASF873:
 9844 2f25 63795F65 		.ascii	"cy_en_ble_lp_mode_t\000"
ARM GAS  C:\Users\Nazar\AppData\Local\Temp\ccWQ1kO8.s 			page 238


 9844      6E5F626C 
 9844      655F6C70 
 9844      5F6D6F64 
 9844      655F7400 
 9845              	.LASF433:
 9846 2f39 4C4C5F44 		.ascii	"LL_DBG_1\000"
 9846      42475F31 
 9846      00
 9847              	.LASF434:
 9848 2f42 4C4C5F44 		.ascii	"LL_DBG_2\000"
 9848      42475F32 
 9848      00
 9849              	.LASF435:
 9850 2f4b 4C4C5F44 		.ascii	"LL_DBG_3\000"
 9850      42475F33 
 9850      00
 9851              	.LASF436:
 9852 2f54 4C4C5F44 		.ascii	"LL_DBG_4\000"
 9852      42475F34 
 9852      00
 9853              	.LASF437:
 9854 2f5d 4C4C5F44 		.ascii	"LL_DBG_5\000"
 9854      42475F35 
 9854      00
 9855              	.LASF438:
 9856 2f66 4C4C5F44 		.ascii	"LL_DBG_6\000"
 9856      42475F36 
 9856      00
 9857              	.LASF439:
 9858 2f6f 4C4C5F44 		.ascii	"LL_DBG_7\000"
 9858      42475F37 
 9858      00
 9859              	.LASF440:
 9860 2f78 4C4C5F44 		.ascii	"LL_DBG_8\000"
 9860      42475F38 
 9860      00
 9861              	.LASF441:
 9862 2f81 4C4C5F44 		.ascii	"LL_DBG_9\000"
 9862      42475F39 
 9862      00
 9863              	.LASF738:
 9864 2f8a 43595F42 		.ascii	"CY_BLE_EVT_GAPC_DIRECT_ADV_REPORT\000"
 9864      4C455F45 
 9864      56545F47 
 9864      4150435F 
 9864      44495245 
 9865              	.LASF811:
 9866 2fac 43595F42 		.ascii	"CY_BLE_ERROR_IND_DISABLED\000"
 9866      4C455F45 
 9866      52524F52 
 9866      5F494E44 
 9866      5F444953 
 9867              	.LASF484:
 9868 2fc6 4C455F50 		.ascii	"LE_PING_TIMER_ADDR\000"
 9868      494E475F 
 9868      54494D45 
 9868      525F4144 
ARM GAS  C:\Users\Nazar\AppData\Local\Temp\ccWQ1kO8.s 			page 239


 9868      445200
 9869              	.LASF916:
 9870 2fd9 61757468 		.ascii	"authErr\000"
 9870      45727200 
 9871              	.LASF189:
 9872 2fe1 7363625F 		.ascii	"scb_1_interrupt_IRQn\000"
 9872      315F696E 
 9872      74657272 
 9872      7570745F 
 9872      4952516E 
 9873              	.LASF273:
 9874 2ff6 7564625F 		.ascii	"udb_interrupts_4_IRQn\000"
 9874      696E7465 
 9874      72727570 
 9874      74735F34 
 9874      5F495251 
 9875              	.LASF771:
 9876 300c 43595F42 		.ascii	"CY_BLE_EVT_GATTS_READ_CHAR_VAL_ACCESS_REQ\000"
 9876      4C455F45 
 9876      56545F47 
 9876      41545453 
 9876      5F524541 
 9877              	.LASF650:
 9878 3036 43595F53 		.ascii	"CY_SYSPM_ULP\000"
 9878      5953504D 
 9878      5F554C50 
 9878      00
 9879              	.LASF57:
 9880 3043 666C6173 		.ascii	"flashRwwRequired\000"
 9880      68527777 
 9880      52657175 
 9880      69726564 
 9880      00
 9881              	.LASF219:
 9882 3054 63707573 		.ascii	"cpuss_interrupts_dw1_6_IRQn\000"
 9882      735F696E 
 9882      74657272 
 9882      75707473 
 9882      5F647731 
 9883              	.LASF526:
 9884 3070 41434355 		.ascii	"ACCU_WINDOW_WIDEN_STATUS\000"
 9884      5F57494E 
 9884      444F575F 
 9884      57494445 
 9884      4E5F5354 
 9885              	.LASF987:
 9886 3089 66617374 		.ascii	"fastScanTimeOut\000"
 9886      5363616E 
 9886      54696D65 
 9886      4F757400 
 9887              	.LASF191:
 9888 3099 7363625F 		.ascii	"scb_3_interrupt_IRQn\000"
 9888      335F696E 
 9888      74657272 
 9888      7570745F 
 9888      4952516E 
 9889              	.LASF520:
ARM GAS  C:\Users\Nazar\AppData\Local\Temp\ccWQ1kO8.s 			page 240


 9890 30ae 434F4E4E 		.ascii	"CONN_NI_STATUS\000"
 9890      5F4E495F 
 9890      53544154 
 9890      555300
 9891              	.LASF332:
 9892 30bd 5343414E 		.ascii	"SCAN_WINDOW\000"
 9892      5F57494E 
 9892      444F5700 
 9893              	.LASF892:
 9894 30c9 43595F42 		.ascii	"CY_BLE_GAP_IOCAP_KEYBOARD_DISPLAY\000"
 9894      4C455F47 
 9894      41505F49 
 9894      4F434150 
 9894      5F4B4559 
 9895              	.LASF797:
 9896 30eb 43595F42 		.ascii	"CY_BLE_ERROR_GAP_ROLE\000"
 9896      4C455F45 
 9896      52524F52 
 9896      5F474150 
 9896      5F524F4C 
 9897              	.LASF451:
 9898 3101 434F4E4E 		.ascii	"CONN_CONFIG_EXT\000"
 9898      5F434F4E 
 9898      4649475F 
 9898      45585400 
 9899              	.LASF555:
 9900 3111 4D4D4D53 		.ascii	"MMMS_ADVCH_NI_ENABLE\000"
 9900      5F414456 
 9900      43485F4E 
 9900      495F454E 
 9900      41424C45 
 9901              	.LASF341:
 9902 3126 494E4954 		.ascii	"INIT_INTR\000"
 9902      5F494E54 
 9902      5200
 9903              	.LASF860:
 9904 3130 6D656D50 		.ascii	"memParam\000"
 9904      6172616D 
 9904      00
 9905              	.LASF458:
 9906 3139 52455345 		.ascii	"RESERVED28\000"
 9906      52564544 
 9906      323800
 9907              	.LASF138:
 9908 3144 4E766963 		.ascii	"NvicMux25_IRQn\000"
 9908      4D757832 
 9908      355F4952 
 9908      516E00
 9909              	.LASF193:
 9910 3153 7363625F 		.ascii	"scb_5_interrupt_IRQn\000"
 9910      355F696E 
 9910      74657272 
 9910      7570745F 
 9910      4952516E 
 9911              	.LASF162:
 9912 3168 696F7373 		.ascii	"ioss_interrupt_gpio_IRQn\000"
 9912      5F696E74 
ARM GAS  C:\Users\Nazar\AppData\Local\Temp\ccWQ1kO8.s 			page 241


 9912      65727275 
 9912      70745F67 
 9912      70696F5F 
 9913              	.LASF741:
 9914 3181 43595F42 		.ascii	"CY_BLE_EVT_GAP_KEYS_GEN_COMPLETE\000"
 9914      4C455F45 
 9914      56545F47 
 9914      41505F4B 
 9914      4559535F 
 9915              	.LASF264:
 9916 31a2 74637077 		.ascii	"tcpwm_1_interrupts_19_IRQn\000"
 9916      6D5F315F 
 9916      696E7465 
 9916      72727570 
 9916      74735F31 
 9917              	.LASF224:
 9918 31bd 63707573 		.ascii	"cpuss_interrupts_dw1_11_IRQn\000"
 9918      735F696E 
 9918      74657272 
 9918      75707473 
 9918      5F647731 
 9919              	.LASF576:
 9920 31da 52534C56 		.ascii	"RSLV_LIST_TX_INIT_RPA_BASE_ADDR\000"
 9920      5F4C4953 
 9920      545F5458 
 9920      5F494E49 
 9920      545F5250 
 9921              	.LASF195:
 9922 31fa 7363625F 		.ascii	"scb_7_interrupt_IRQn\000"
 9922      375F696E 
 9922      74657272 
 9922      7570745F 
 9922      4952516E 
 9923              	.LASF765:
 9924 320f 43595F42 		.ascii	"CY_BLE_EVT_GATTC_EXEC_WRITE_RSP\000"
 9924      4C455F45 
 9924      56545F47 
 9924      41545443 
 9924      5F455845 
 9925              	.LASF177:
 9926 322f 63707573 		.ascii	"cpuss_interrupts_ipc_5_IRQn\000"
 9926      735F696E 
 9926      74657272 
 9926      75707473 
 9926      5F697063 
 9927              	.LASF147:
 9928 324b 696F7373 		.ascii	"ioss_interrupts_gpio_0_IRQn\000"
 9928      5F696E74 
 9928      65727275 
 9928      7074735F 
 9928      6770696F 
 9929              	.LASF1114:
 9930 3267 433A5C49 		.ascii	"C:\\Infineon\\Hackathon-Infineon\\Hackaton.cydsn\000"
 9930      6E66696E 
 9930      656F6E5C 
 9930      4861636B 
 9930      6174686F 
ARM GAS  C:\Users\Nazar\AppData\Local\Temp\ccWQ1kO8.s 			page 242


 9931              	.LASF1090:
 9932 3295 63795F62 		.ascii	"cy_ble_busyStatus\000"
 9932      6C655F62 
 9932      75737953 
 9932      74617475 
 9932      7300
 9933              	.LASF758:
 9934 32a7 43595F42 		.ascii	"CY_BLE_EVT_GATTC_READ_BLOB_RSP\000"
 9934      4C455F45 
 9934      56545F47 
 9934      41545443 
 9934      5F524541 
 9935              	.LASF662:
 9936 32c6 74797065 		.ascii	"type\000"
 9936      00
 9937              	.LASF881:
 9938 32cb 63795F65 		.ascii	"cy_en_ble_bless_state_t\000"
 9938      6E5F626C 
 9938      655F626C 
 9938      6573735F 
 9938      73746174 
 9939              	.LASF661:
 9940 32e3 63616C6C 		.ascii	"callback\000"
 9940      6261636B 
 9940      00
 9941              	.LASF116:
 9942 32ec 4E766963 		.ascii	"NvicMux3_IRQn\000"
 9942      4D757833 
 9942      5F495251 
 9942      6E00
 9943              	.LASF947:
 9944 32fa 63795F73 		.ascii	"cy_stc_ble_gapp_scan_rsp_data_t\000"
 9944      74635F62 
 9944      6C655F67 
 9944      6170705F 
 9944      7363616E 
 9945              	.LASF109:
 9946 331a 48617264 		.ascii	"HardFault_IRQn\000"
 9946      4661756C 
 9946      745F4952 
 9946      516E00
 9947              	.LASF872:
 9948 3329 43595F42 		.ascii	"CY_BLE_BLESS_INVALID\000"
 9948      4C455F42 
 9948      4C455353 
 9948      5F494E56 
 9948      414C4944 
 9949              	.LASF91:
 9950 333e 63707573 		.ascii	"cpussCm4ClockCtlOffset\000"
 9950      73436D34 
 9950      436C6F63 
 9950      6B43746C 
 9950      4F666673 
 9951              	.LASF70:
 9952 3355 64774368 		.ascii	"dwChCtlPreemptablePos\000"
 9952      43746C50 
 9952      7265656D 
ARM GAS  C:\Users\Nazar\AppData\Local\Temp\ccWQ1kO8.s 			page 243


 9952      70746162 
 9952      6C65506F 
 9953              	.LASF568:
 9954 336b 57484954 		.ascii	"WHITELIST_BASE_ADDR\000"
 9954      454C4953 
 9954      545F4241 
 9954      53455F41 
 9954      44445200 
 9955              	.LASF560:
 9956 337f 434F4E4E 		.ascii	"CONN_PARAM_ACC_WIN_WIDEN\000"
 9956      5F504152 
 9956      414D5F41 
 9956      43435F57 
 9956      494E5F57 
 9957              	.LASF827:
 9958 3398 7265736F 		.ascii	"resolvingListSize\000"
 9958      6C76696E 
 9958      674C6973 
 9958      7453697A 
 9958      6500
 9959              	.LASF247:
 9960 33aa 74637077 		.ascii	"tcpwm_1_interrupts_2_IRQn\000"
 9960      6D5F315F 
 9960      696E7465 
 9960      72727570 
 9960      74735F32 
 9961              	.LASF875:
 9962 33c4 43595F42 		.ascii	"CY_BLE_BLESS_STATE_EVENT_CLOSE\000"
 9962      4C455F42 
 9962      4C455353 
 9962      5F535441 
 9962      54455F45 
 9963              	.LASF131:
 9964 33e3 4E766963 		.ascii	"NvicMux18_IRQn\000"
 9964      4D757831 
 9964      385F4952 
 9964      516E00
 9965              	.LASF1106:
 9966 33f2 43795F53 		.ascii	"Cy_SysPm_RegisterCallback\000"
 9966      7973506D 
 9966      5F526567 
 9966      69737465 
 9966      7243616C 
 9967              	.LASF528:
 9968 340c 4D4D4D53 		.ascii	"MMMS_CONFIG\000"
 9968      5F434F4E 
 9968      46494700 
 9969              	.LASF103:
 9970 3418 63707573 		.ascii	"cpussRam2Ctl0\000"
 9970      7352616D 
 9970      3243746C 
 9970      3000
 9971              	.LASF877:
 9972 3426 43595F42 		.ascii	"CY_BLE_BLESS_STATE_ECO_STABLE\000"
 9972      4C455F42 
 9972      4C455353 
 9972      5F535441 
ARM GAS  C:\Users\Nazar\AppData\Local\Temp\ccWQ1kO8.s 			page 244


 9972      54455F45 
 9973              	.LASF725:
 9974 3444 43595F42 		.ascii	"CY_BLE_EVT_GAP_AUTH_COMPLETE\000"
 9974      4C455F45 
 9974      56545F47 
 9974      41505F41 
 9974      5554485F 
 9975              	.LASF831:
 9976 3461 77686974 		.ascii	"whiteListSize\000"
 9976      654C6973 
 9976      7453697A 
 9976      6500
 9977              	.LASF233:
 9978 346f 63707573 		.ascii	"cpuss_interrupts_cm0_cti_0_IRQn\000"
 9978      735F696E 
 9978      74657272 
 9978      75707473 
 9978      5F636D30 
 9979              	.LASF919:
 9980 348f 64697363 		.ascii	"discProcedure\000"
 9980      50726F63 
 9980      65647572 
 9980      6500
 9981              	.LASF45:
 9982 349d 63707573 		.ascii	"cpussNotConnectedIrq\000"
 9982      734E6F74 
 9982      436F6E6E 
 9982      65637465 
 9982      64497271 
 9983              	.LASF850:
 9984 34b2 62756666 		.ascii	"bufferUnits\000"
 9984      6572556E 
 9984      69747300 
 9985              	.LASF157:
 9986 34be 696F7373 		.ascii	"ioss_interrupts_gpio_10_IRQn\000"
 9986      5F696E74 
 9986      65727275 
 9986      7074735F 
 9986      6770696F 
 9987              	.LASF580:
 9988 34db 5854414C 		.ascii	"XTAL_CLK_DIV_CONFIG\000"
 9988      5F434C4B 
 9988      5F444956 
 9988      5F434F4E 
 9988      46494700 
 9989              	.LASF1083:
 9990 34ef 63795F62 		.ascii	"cy_ble_advState\000"
 9990      6C655F61 
 9990      64765374 
 9990      61746500 
 9991              	.LASF312:
 9992 34ff 53544154 		.ascii	"STATUS\000"
 9992      555300
 9993              	.LASF204:
 9994 3506 63707573 		.ascii	"cpuss_interrupts_dw0_7_IRQn\000"
 9994      735F696E 
 9994      74657272 
ARM GAS  C:\Users\Nazar\AppData\Local\Temp\ccWQ1kO8.s 			page 245


 9994      75707473 
 9994      5F647730 
 9995              	.LASF888:
 9996 3522 43595F42 		.ascii	"CY_BLE_GAP_IOCAP_DISPLAY_ONLY\000"
 9996      4C455F47 
 9996      41505F49 
 9996      4F434150 
 9996      5F444953 
 9997              	.LASF636:
 9998 3540 63795F73 		.ascii	"cy_stc_sysint_t\000"
 9998      74635F73 
 9998      7973696E 
 9998      745F7400 
 9999              	.LASF792:
 10000 3550 43595F42 		.ascii	"CY_BLE_ERROR_OOB_NOT_AVAILABLE\000"
 10000      4C455F45 
 10000      52524F52 
 10000      5F4F4F42 
 10000      5F4E4F54 
 10001              	.LASF983:
 10002 356f 736C6F77 		.ascii	"slowAdvTimeOut\000"
 10002      41647654 
 10002      696D654F 
 10002      757400
 10003              	.LASF776:
 10004 357e 43595F42 		.ascii	"CY_BLE_EVT_L2CAP_CBFC_CONN_IND\000"
 10004      4C455F45 
 10004      56545F4C 
 10004      32434150 
 10004      5F434246 
 10005              	.LASF11:
 10006 359d 5F5F7569 		.ascii	"__uint32_t\000"
 10006      6E743332 
 10006      5F7400
 10007              	.LASF268:
 10008 35a8 74637077 		.ascii	"tcpwm_1_interrupts_23_IRQn\000"
 10008      6D5F315F 
 10008      696E7465 
 10008      72727570 
 10008      74735F32 
 10009              	.LASF605:
 10010 35c3 4449565F 		.ascii	"DIV_BY_625_STS\000"
 10010      42595F36 
 10010      32355F53 
 10010      545300
 10011              	.LASF655:
 10012 35d2 43595F53 		.ascii	"CY_SYSPM_AFTER_TRANSITION\000"
 10012      5953504D 
 10012      5F414654 
 10012      45525F54 
 10012      52414E53 
 10013              	.LASF581:
 10014 35ec 494E5452 		.ascii	"INTR_STAT\000"
 10014      5F535441 
 10014      5400
 10015              	.LASF734:
 10016 35f6 43595F42 		.ascii	"CY_BLE_EVT_GAP_NUMERIC_COMPARISON_REQUEST\000"
ARM GAS  C:\Users\Nazar\AppData\Local\Temp\ccWQ1kO8.s 			page 246


 10016      4C455F45 
 10016      56545F47 
 10016      41505F4E 
 10016      554D4552 
 10017              	.LASF1088:
 10018 3620 63795F62 		.ascii	"cy_ble_stackMemoryRam\000"
 10018      6C655F73 
 10018      7461636B 
 10018      4D656D6F 
 10018      72795261 
 10019              	.LASF700:
 10020 3636 43595F42 		.ascii	"CY_BLE_EVT_SOFT_RESET_COMPLETE\000"
 10020      4C455F45 
 10020      56545F53 
 10020      4F46545F 
 10020      52455345 
 10021              	.LASF718:
 10022 3655 43595F42 		.ascii	"CY_BLE_EVT_SET_CE_LENGTH_COMPLETE\000"
 10022      4C455F45 
 10022      56545F53 
 10022      45545F43 
 10022      455F4C45 
 10023              	.LASF456:
 10024 3677 494E4954 		.ascii	"INIT_WINDOW_OFFSET\000"
 10024      5F57494E 
 10024      444F575F 
 10024      4F464653 
 10024      455400
 10025              	.LASF822:
 10026 368a 646C654E 		.ascii	"dleNumTxBuffer\000"
 10026      756D5478 
 10026      42756666 
 10026      657200
 10027              	.LASF575:
 10028 3699 52455345 		.ascii	"RESERVED57\000"
 10028      52564544 
 10028      353700
 10029              	.LASF589:
 10030 36a4 4D545F44 		.ascii	"MT_DELAY_CFG2\000"
 10030      454C4159 
 10030      5F434647 
 10030      3200
 10031              	.LASF590:
 10032 36b2 4D545F44 		.ascii	"MT_DELAY_CFG3\000"
 10032      454C4159 
 10032      5F434647 
 10032      3300
 10033              	.LASF270:
 10034 36c0 7564625F 		.ascii	"udb_interrupts_1_IRQn\000"
 10034      696E7465 
 10034      72727570 
 10034      74735F31 
 10034      5F495251 
 10035              	.LASF824:
 10036 36d6 63795F73 		.ascii	"cy_stc_ble_dle_config_param_t\000"
 10036      74635F62 
 10036      6C655F64 
ARM GAS  C:\Users\Nazar\AppData\Local\Temp\ccWQ1kO8.s 			page 247


 10036      6C655F63 
 10036      6F6E6669 
 10037              	.LASF511:
 10038 36f4 434F4E4E 		.ascii	"CONN_3_PARAM_MEM_BASE_ADDR\000"
 10038      5F335F50 
 10038      4152414D 
 10038      5F4D454D 
 10038      5F424153 
 10039              	.LASF316:
 10040 370f 54585F46 		.ascii	"TX_FIFO_WR\000"
 10040      49464F5F 
 10040      575200
 10041              	.LASF583:
 10042 371a 4C465F43 		.ascii	"LF_CLK_CTRL\000"
 10042      4C4B5F43 
 10042      54524C00 
 10043              	.LASF216:
 10044 3726 63707573 		.ascii	"cpuss_interrupts_dw1_3_IRQn\000"
 10044      735F696E 
 10044      74657272 
 10044      75707473 
 10044      5F647731 
 10045              	.LASF716:
 10046 3742 43595F42 		.ascii	"CY_BLE_EVT_AES_CMAC_GEN_COMPLETE\000"
 10046      4C455F45 
 10046      56545F41 
 10046      45535F43 
 10046      4D41435F 
 10047              	.LASF669:
 10048 3763 43595F42 		.ascii	"CY_BLE_EVT_STACK_ON\000"
 10048      4C455F45 
 10048      56545F53 
 10048      5441434B 
 10048      5F4F4E00 
 10049              	.LASF34:
 10050 3777 6770696F 		.ascii	"gpioVersion\000"
 10050      56657273 
 10050      696F6E00 
 10051              	.LASF724:
 10052 3783 43595F42 		.ascii	"CY_BLE_EVT_GAP_PASSKEY_DISPLAY_REQUEST\000"
 10052      4C455F45 
 10052      56545F47 
 10052      41505F50 
 10052      4153534B 
 10053              	.LASF882:
 10054 37aa 43595F42 		.ascii	"CY_BLE_CONTROLLER_SLEEP_MODE_SLEEP\000"
 10054      4C455F43 
 10054      4F4E5452 
 10054      4F4C4C45 
 10054      525F534C 
 10055              	.LASF847:
 10056 37cd 6D617842 		.ascii	"maxBleConnections\000"
 10056      6C65436F 
 10056      6E6E6563 
 10056      74696F6E 
 10056      7300
 10057              	.LASF135:
ARM GAS  C:\Users\Nazar\AppData\Local\Temp\ccWQ1kO8.s 			page 248


 10058 37df 4E766963 		.ascii	"NvicMux22_IRQn\000"
 10058      4D757832 
 10058      325F4952 
 10058      516E00
 10059              	.LASF1051:
 10060 37ee 43595F49 		.ascii	"CY_IPC_SEMA_ERROR_UNLOCKED\000"
 10060      50435F53 
 10060      454D415F 
 10060      4552524F 
 10060      525F554E 
 10061              	.LASF986:
 10062 3809 66617374 		.ascii	"fastScanWindow\000"
 10062      5363616E 
 10062      57696E64 
 10062      6F7700
 10063              	.LASF796:
 10064 3818 43595F42 		.ascii	"CY_BLE_ERROR_REPEATED_ATTEMPTS\000"
 10064      4C455F45 
 10064      52524F52 
 10064      5F524550 
 10064      45415445 
 10065              	.LASF563:
 10066 3837 4144565F 		.ascii	"ADV_RAND\000"
 10066      52414E44 
 10066      00
 10067              	.LASF261:
 10068 3840 74637077 		.ascii	"tcpwm_1_interrupts_16_IRQn\000"
 10068      6D5F315F 
 10068      696E7465 
 10068      72727570 
 10068      74735F31 
 10069              	.LASF856:
 10070 385b 626C6553 		.ascii	"bleStackFlashPointer\000"
 10070      7461636B 
 10070      466C6173 
 10070      68506F69 
 10070      6E746572 
 10071              	.LASF490:
 10072 3870 54585F52 		.ascii	"TX_RX_SYNTH_DELAY\000"
 10072      585F5359 
 10072      4E54485F 
 10072      44454C41 
 10072      5900
 10073              	.LASF174:
 10074 3882 63707573 		.ascii	"cpuss_interrupts_ipc_2_IRQn\000"
 10074      735F696E 
 10074      74657272 
 10074      75707473 
 10074      5F697063 
 10075              	.LASF294:
 10076 389e 64697363 		.ascii	"disconnected_IRQn\000"
 10076      6F6E6E65 
 10076      63746564 
 10076      5F495251 
 10076      6E00
 10077              	.LASF853:
 10078 38b0 64617461 		.ascii	"dataBuff\000"
ARM GAS  C:\Users\Nazar\AppData\Local\Temp\ccWQ1kO8.s 			page 249


 10078      42756666 
 10078      00
 10079              	.LASF1061:
 10080 38b9 626C6573 		.ascii	"blessState\000"
 10080      73537461 
 10080      746500
 10081              	.LASF644:
 10082 38c4 43595F53 		.ascii	"CY_SYSPM_WAIT_FOR_INTERRUPT\000"
 10082      5953504D 
 10082      5F574149 
 10082      545F464F 
 10082      525F494E 
 10083              	.LASF539:
 10084 38e0 434F4E4E 		.ascii	"CONN_1_DATA_LIST_SENT\000"
 10084      5F315F44 
 10084      4154415F 
 10084      4C495354 
 10084      5F53454E 
 10085              	.LASF680:
 10086 38f6 43595F42 		.ascii	"CY_BLE_EVT_LE_PING_AUTH_TIMEOUT\000"
 10086      4C455F45 
 10086      56545F4C 
 10086      455F5049 
 10086      4E475F41 
 10087              	.LASF113:
 10088 3916 4E766963 		.ascii	"NvicMux0_IRQn\000"
 10088      4D757830 
 10088      5F495251 
 10088      6E00
 10089              	.LASF819:
 10090 3924 63795F73 		.ascii	"cy_stc_ble_bd_addr_t\000"
 10090      74635F62 
 10090      6C655F62 
 10090      645F6164 
 10090      64725F74 
 10091              	.LASF664:
 10092 3939 63616C6C 		.ascii	"callbackParams\000"
 10092      6261636B 
 10092      50617261 
 10092      6D7300
 10093              	.LASF900:
 10094 3948 43595F42 		.ascii	"CY_BLE_GAP_AUTH_ERROR_INSUFFICIENT_ENCRYPTION_KEY_S"
 10094      4C455F47 
 10094      41505F41 
 10094      5554485F 
 10094      4552524F 
 10095 397b 495A4500 		.ascii	"IZE\000"
 10096              	.LASF616:
 10097 397f 454E435F 		.ascii	"ENC_INTR\000"
 10097      494E5452 
 10097      00
 10098              	.LASF1115:
 10099 3988 63795F73 		.ascii	"cy_stc_syspm_callback\000"
 10099      74635F73 
 10099      7973706D 
 10099      5F63616C 
 10099      6C626163 
ARM GAS  C:\Users\Nazar\AppData\Local\Temp\ccWQ1kO8.s 			page 250


 10100              	.LASF871:
 10101 399e 43595F42 		.ascii	"CY_BLE_BLESS_DEEPSLEEP\000"
 10101      4C455F42 
 10101      4C455353 
 10101      5F444545 
 10101      50534C45 
 10102              	.LASF547:
 10103 39b5 434F4E4E 		.ascii	"CONN_3_DATA_LIST_SENT\000"
 10103      5F335F44 
 10103      4154415F 
 10103      4C495354 
 10103      5F53454E 
 10104              	.LASF1102:
 10105 39cb 43795F42 		.ascii	"Cy_BLE_ServiceInit\000"
 10105      4C455F53 
 10105      65727669 
 10105      6365496E 
 10105      697400
 10106              	.LASF579:
 10107 39de 44444654 		.ascii	"DDFT_CONFIG\000"
 10107      5F434F4E 
 10107      46494700 
 10108              	.LASF557:
 10109 39ea 4D4D4D53 		.ascii	"MMMS_ADVCH_NI_ABORT\000"
 10109      5F414456 
 10109      43485F4E 
 10109      495F4142 
 10109      4F525400 
 10110              	.LASF128:
 10111 39fe 4E766963 		.ascii	"NvicMux15_IRQn\000"
 10111      4D757831 
 10111      355F4952 
 10111      516E00
 10112              	.LASF762:
 10113 3a0d 43595F42 		.ascii	"CY_BLE_EVT_GATTS_WRITE_CMD_REQ\000"
 10113      4C455F45 
 10113      56545F47 
 10113      41545453 
 10113      5F575249 
 10114              	.LASF783:
 10115 3a2c 43595F42 		.ascii	"CY_BLE_EVT_L2CAP_CBFC_DATA_WRITE_IND\000"
 10115      4C455F45 
 10115      56545F4C 
 10115      32434150 
 10115      5F434246 
 10116              	.LASF689:
 10117 3a51 43595F42 		.ascii	"CY_BLE_EVT_SET_HOST_CHANNEL_COMPLETE\000"
 10117      4C455F45 
 10117      56545F53 
 10117      45545F48 
 10117      4F53545F 
 10118              	.LASF1065:
 10119 3a76 43795F42 		.ascii	"Cy_BLE_Init\000"
 10119      4C455F49 
 10119      6E697400 
 10120              	.LASF1109:
 10121 3a82 43795F42 		.ascii	"Cy_BLE_StackSetFeatureConfig\000"
ARM GAS  C:\Users\Nazar\AppData\Local\Temp\ccWQ1kO8.s 			page 251


 10121      4C455F53 
 10121      7461636B 
 10121      53657446 
 10121      65617475 
 10122              	.LASF201:
 10123 3a9f 63707573 		.ascii	"cpuss_interrupts_dw0_4_IRQn\000"
 10123      735F696E 
 10123      74657272 
 10123      75707473 
 10123      5F647730 
 10124              	.LASF1112:
 10125 3abb 474E5520 		.ascii	"GNU C11 5.4.1 20160609 (release) [ARM/embedded-5-br"
 10125      43313120 
 10125      352E342E 
 10125      31203230 
 10125      31363036 
 10126 3aee 616E6368 		.ascii	"anch revision 237715] -mcpu=cortex-m0plus -mthumb -"
 10126      20726576 
 10126      6973696F 
 10126      6E203233 
 10126      37373135 
 10127 3b21 67202D4F 		.ascii	"g -Og -ffunction-sections -ffat-lto-objects\000"
 10127      67202D66 
 10127      66756E63 
 10127      74696F6E 
 10127      2D736563 
 10128              	.LASF891:
 10129 3b4d 43595F42 		.ascii	"CY_BLE_GAP_IOCAP_NOINPUT_NOOUTPUT\000"
 10129      4C455F47 
 10129      41505F49 
 10129      4F434150 
 10129      5F4E4F49 
 10130              	.LASF485:
 10131 3b6f 4C455F50 		.ascii	"LE_PING_TIMER_OFFSET\000"
 10131      494E475F 
 10131      54494D45 
 10131      525F4F46 
 10131      46534554 
 10132              	.LASF67:
 10133 3b84 64774368 		.ascii	"dwChOffset\000"
 10133      4F666673 
 10133      657400
 10134              	.LASF826:
 10135 3b8f 63795F73 		.ascii	"cy_stc_ble_l2cap_config_param_t\000"
 10135      74635F62 
 10135      6C655F6C 
 10135      32636170 
 10135      5F636F6E 
 10136              	.LASF55:
 10137 3baf 70726F74 		.ascii	"protBusMasterMask\000"
 10137      4275734D 
 10137      61737465 
 10137      724D6173 
 10137      6B00
 10138              	.LASF231:
 10139 3bc1 63707573 		.ascii	"cpuss_interrupt_crypto_IRQn\000"
 10139      735F696E 
ARM GAS  C:\Users\Nazar\AppData\Local\Temp\ccWQ1kO8.s 			page 252


 10139      74657272 
 10139      7570745F 
 10139      63727970 
 10140              	.LASF793:
 10141 3bdd 43595F42 		.ascii	"CY_BLE_ERROR_NO_CONNECTION\000"
 10141      4C455F45 
 10141      52524F52 
 10141      5F4E4F5F 
 10141      434F4E4E 
 10142              	.LASF973:
 10143 3bf8 70726566 		.ascii	"prefConnParamCharHandle\000"
 10143      436F6E6E 
 10143      50617261 
 10143      6D436861 
 10143      7248616E 
 10144              	.LASF85:
 10145 3c10 6770696F 		.ascii	"gpioPrtIntrCfgOffset\000"
 10145      50727449 
 10145      6E747243 
 10145      66674F66 
 10145      66736574 
 10146              	.LASF699:
 10147 3c25 43595F42 		.ascii	"CY_BLE_EVT_LL_CNTRL_PROC_PENDING_COMPLETE\000"
 10147      4C455F45 
 10147      56545F4C 
 10147      4C5F434E 
 10147      54524C5F 
 10148              	.LASF317:
 10149 3c4f 52585F43 		.ascii	"RX_CTRL\000"
 10149      54524C00 
 10150              	.LASF73:
 10151 3c57 70657269 		.ascii	"periTrCmdOffset\000"
 10151      5472436D 
 10151      644F6666 
 10151      73657400 
 10152              	.LASF35:
 10153 3c67 6873696F 		.ascii	"hsiomVersion\000"
 10153      6D566572 
 10153      73696F6E 
 10153      00
 10154              	.LASF265:
 10155 3c74 74637077 		.ascii	"tcpwm_1_interrupts_20_IRQn\000"
 10155      6D5F315F 
 10155      696E7465 
 10155      72727570 
 10155      74735F32 
 10156              	.LASF549:
 10157 3c8f 434F4E4E 		.ascii	"CONN_3_CE_DATA_LIST_CFG\000"
 10157      5F335F43 
 10157      455F4441 
 10157      54415F4C 
 10157      4953545F 
 10158              	.LASF946:
 10159 3ca7 7363616E 		.ascii	"scanRspDataLen\000"
 10159      52737044 
 10159      6174614C 
 10159      656E00
ARM GAS  C:\Users\Nazar\AppData\Local\Temp\ccWQ1kO8.s 			page 253


 10160              	.LASF647:
 10161 3cb6 43595F53 		.ascii	"CY_SYSPM_DEEPSLEEP\000"
 10161      5953504D 
 10161      5F444545 
 10161      50534C45 
 10161      455000
 10162              	.LASF933:
 10163 3cc9 63795F65 		.ascii	"cy_en_ble_gapp_adv_t\000"
 10163      6E5F626C 
 10163      655F6761 
 10163      70705F61 
 10163      64765F74 
 10164              	.LASF282:
 10165 3cde 7564625F 		.ascii	"udb_interrupts_13_IRQn\000"
 10165      696E7465 
 10165      72727570 
 10165      74735F31 
 10165      335F4952 
 10166              	.LASF813:
 10167 3cf5 43595F42 		.ascii	"CY_BLE_ERROR_CONTROLLER_BUSY\000"
 10167      4C455F45 
 10167      52524F52 
 10167      5F434F4E 
 10167      54524F4C 
 10168              	.LASF483:
 10169 3d12 534C5F43 		.ascii	"SL_CONN_INTERVAL\000"
 10169      4F4E4E5F 
 10169      494E5445 
 10169      5256414C 
 10169      00
 10170              	.LASF951:
 10171 3d23 63795F73 		.ascii	"cy_stc_ble_gapp_disc_mode_info_t\000"
 10171      74635F62 
 10171      6C655F67 
 10171      6170705F 
 10171      64697363 
 10172              	.LASF326:
 10173 3d44 4556454E 		.ascii	"EVENT_ENABLE\000"
 10173      545F454E 
 10173      41424C45 
 10173      00
 10174              	.LASF1024:
 10175 3d51 626F756E 		.ascii	"boundedDevCount\000"
 10175      64656444 
 10175      6576436F 
 10175      756E7400 
 10176              	.LASF46:
 10177 3d61 73727373 		.ascii	"srssNumClkpath\000"
 10177      4E756D43 
 10177      6C6B7061 
 10177      746800
 10178              	.LASF982:
 10179 3d70 736C6F77 		.ascii	"slowAdvIntervalMax\000"
 10179      41647649 
 10179      6E746572 
 10179      76616C4D 
 10179      617800
ARM GAS  C:\Users\Nazar\AppData\Local\Temp\ccWQ1kO8.s 			page 254


 10180              	.LASF990:
 10181 3d83 736C6F77 		.ascii	"slowScanWindow\000"
 10181      5363616E 
 10181      57696E64 
 10181      6F7700
 10182              	.LASF62:
 10183 3d92 666C6173 		.ascii	"flashCtlMainWs0Freq\000"
 10183      6843746C 
 10183      4D61696E 
 10183      57733046 
 10183      72657100 
 10184              	.LASF1038:
 10185 3da6 67617474 		.ascii	"gatts\000"
 10185      7300
 10186              	.LASF213:
 10187 3dac 63707573 		.ascii	"cpuss_interrupts_dw1_0_IRQn\000"
 10187      735F696E 
 10187      74657272 
 10187      75707473 
 10187      5F647731 
 10188              	.LASF743:
 10189 3dc8 43595F42 		.ascii	"CY_BLE_EVT_GAP_GEN_SET_LOCAL_P256_KEYS_COMPLETE\000"
 10189      4C455F45 
 10189      56545F47 
 10189      41505F47 
 10189      454E5F53 
 10190              	.LASF781:
 10191 3df8 43595F42 		.ascii	"CY_BLE_EVT_L2CAP_CBFC_RX_CREDIT_IND\000"
 10191      4C455F45 
 10191      56545F4C 
 10191      32434150 
 10191      5F434246 
 10192              	.LASF944:
 10193 3e1c 63795F73 		.ascii	"cy_stc_ble_gapp_disc_data_t\000"
 10193      74635F62 
 10193      6C655F67 
 10193      6170705F 
 10193      64697363 
 10194              	.LASF707:
 10195 3e38 43595F42 		.ascii	"CY_BLE_EVT_SET_CLK_CONFIG_COMPLETE\000"
 10195      4C455F45 
 10195      56545F53 
 10195      45545F43 
 10195      4C4B5F43 
 10196              	.LASF780:
 10197 3e5b 43595F42 		.ascii	"CY_BLE_EVT_L2CAP_CBFC_DATA_READ\000"
 10197      4C455F45 
 10197      56545F4C 
 10197      32434150 
 10197      5F434246 
 10198              	.LASF591:
 10199 3e7b 4D545F56 		.ascii	"MT_VIO_CTRL\000"
 10199      494F5F43 
 10199      54524C00 
 10200              	.LASF1098:
 10201 3e87 43795F53 		.ascii	"Cy_SysLib_ExitCriticalSection\000"
 10201      79734C69 
ARM GAS  C:\Users\Nazar\AppData\Local\Temp\ccWQ1kO8.s 			page 255


 10201      625F4578 
 10201      69744372 
 10201      69746963 
 10202              	.LASF258:
 10203 3ea5 74637077 		.ascii	"tcpwm_1_interrupts_13_IRQn\000"
 10203      6D5F315F 
 10203      696E7465 
 10203      72727570 
 10203      74735F31 
 10204              	.LASF709:
 10205 3ec0 43595F42 		.ascii	"CY_BLE_EVT_AES_ENCRYPT_COMPLETE\000"
 10205      4C455F45 
 10205      56545F41 
 10205      45535F45 
 10205      4E435259 
 10206              	.LASF311:
 10207 3ee0 424C455F 		.ascii	"BLE_RCB_RCBLL_V1_Type\000"
 10207      5243425F 
 10207      5243424C 
 10207      4C5F5631 
 10207      5F547970 
 10208              	.LASF1021:
 10209 3ef6 73746163 		.ascii	"stackFlashptr\000"
 10209      6B466C61 
 10209      73687074 
 10209      7200
 10210              	.LASF862:
 10211 3f04 63795F73 		.ascii	"cy_stc_ble_stack_init_info_t\000"
 10211      74635F62 
 10211      6C655F73 
 10211      7461636B 
 10211      5F696E69 
 10212              	.LASF656:
 10213 3f21 63795F65 		.ascii	"cy_en_syspm_callback_mode_t\000"
 10213      6E5F7379 
 10213      73706D5F 
 10213      63616C6C 
 10213      6261636B 
 10214              	.LASF828:
 10215 3f3d 63795F73 		.ascii	"cy_stc_ble_privacy_1_2_config_param_t\000"
 10215      74635F62 
 10215      6C655F70 
 10215      72697661 
 10215      63795F31 
 10216              	.LASF938:
 10217 3f63 64697265 		.ascii	"directAddr\000"
 10217      63744164 
 10217      647200
 10218              	.LASF328:
 10219 3f6e 4144565F 		.ascii	"ADV_INTERVAL_TIMEOUT\000"
 10219      494E5445 
 10219      5256414C 
 10219      5F54494D 
 10219      454F5554 
 10220              	.LASF906:
 10221 3f83 43595F42 		.ascii	"CY_BLE_GAP_AUTH_ERROR_NUMERIC_COMPARISON_FAILED\000"
 10221      4C455F47 
ARM GAS  C:\Users\Nazar\AppData\Local\Temp\ccWQ1kO8.s 			page 256


 10221      41505F41 
 10221      5554485F 
 10221      4552524F 
 10222              	.LASF704:
 10223 3fb3 43595F42 		.ascii	"CY_BLE_EVT_GET_TX_PWR_COMPLETE\000"
 10223      4C455F45 
 10223      56545F47 
 10223      45545F54 
 10223      585F5057 
 10224              	.LASF7:
 10225 3fd2 73686F72 		.ascii	"short int\000"
 10225      7420696E 
 10225      7400
 10226              	.LASF187:
 10227 3fdc 63707573 		.ascii	"cpuss_interrupts_ipc_15_IRQn\000"
 10227      735F696E 
 10227      74657272 
 10227      75707473 
 10227      5F697063 
 10228              	.LASF619:
 10229 3ff9 5452494D 		.ascii	"TRIM_LDO_0\000"
 10229      5F4C444F 
 10229      5F3000
 10230              	.LASF493:
 10231 4004 4C4C5F43 		.ascii	"LL_CONFIG\000"
 10231      4F4E4649 
 10231      4700
 10232              	.LASF621:
 10233 400e 5452494D 		.ascii	"TRIM_LDO_2\000"
 10233      5F4C444F 
 10233      5F3200
 10234              	.LASF622:
 10235 4019 5452494D 		.ascii	"TRIM_LDO_3\000"
 10235      5F4C444F 
 10235      5F3300
 10236              	.LASF624:
 10237 4024 5452494D 		.ascii	"TRIM_LDO_4\000"
 10237      5F4C444F 
 10237      5F3400
 10238              	.LASF625:
 10239 402f 5452494D 		.ascii	"TRIM_LDO_5\000"
 10239      5F4C444F 
 10239      5F3500
 10240              	.LASF1014:
 10241 403a 67617474 		.ascii	"gattDbMaxValue\000"
 10241      44624D61 
 10241      7856616C 
 10241      756500
 10242              	.LASF125:
 10243 4049 4E766963 		.ascii	"NvicMux12_IRQn\000"
 10243      4D757831 
 10243      325F4952 
 10243      516E00
 10244              	.LASF854:
 10245 4058 746F7461 		.ascii	"totalHeapSz\000"
 10245      6C486561 
 10245      70537A00 
ARM GAS  C:\Users\Nazar\AppData\Local\Temp\ccWQ1kO8.s 			page 257


 10246              	.LASF521:
 10247 4064 4E455854 		.ascii	"NEXT_SUP_TO_STATUS\000"
 10247      5F535550 
 10247      5F544F5F 
 10247      53544154 
 10247      555300
 10248              	.LASF297:
 10249 4077 52455345 		.ascii	"RESERVED\000"
 10249      52564544 
 10249      00
 10250              	.LASF318:
 10251 4080 52585F46 		.ascii	"RX_FIFO_CTRL\000"
 10251      49464F5F 
 10251      4354524C 
 10251      00
 10252              	.LASF1075:
 10253 408d 636F6E74 		.ascii	"controlValue\000"
 10253      726F6C56 
 10253      616C7565 
 10253      00
 10254              	.LASF929:
 10255 409a 43595F42 		.ascii	"CY_BLE_GAPP_CONNECTABLE_HIGH_DC_DIRECTED_ADV\000"
 10255      4C455F47 
 10255      4150505F 
 10255      434F4E4E 
 10255      45435441 
 10256              	.LASF1019:
 10257 40c7 63795F62 		.ascii	"cy_ble_callback_t\000"
 10257      6C655F63 
 10257      616C6C62 
 10257      61636B5F 
 10257      7400
 10258              	.LASF393:
 10259 40d9 44415441 		.ascii	"DATA_LIST_ACK_UPDATE__STATUS\000"
 10259      5F4C4953 
 10259      545F4143 
 10259      4B5F5550 
 10259      44415445 
 10260              	.LASF604:
 10261 40f6 4449565F 		.ascii	"DIV_BY_625_CFG\000"
 10261      42595F36 
 10261      32355F43 
 10261      464700
 10262              	.LASF1086:
 10263 4105 43795F42 		.ascii	"Cy_BLE_HostRegisteredCallback\000"
 10263      4C455F48 
 10263      6F737452 
 10263      65676973 
 10263      74657265 
 10264              	.LASF788:
 10265 4123 43595F42 		.ascii	"CY_BLE_ERROR_INVALID_PARAMETER\000"
 10265      4C455F45 
 10265      52524F52 
 10265      5F494E56 
 10265      414C4944 
 10266              	.LASF198:
 10267 4142 63707573 		.ascii	"cpuss_interrupts_dw0_1_IRQn\000"
ARM GAS  C:\Users\Nazar\AppData\Local\Temp\ccWQ1kO8.s 			page 258


 10267      735F696E 
 10267      74657272 
 10267      75707473 
 10267      5F647730 
 10268              	.LASF1072:
 10269 415e 43795F42 		.ascii	"Cy_BLE_Disable\000"
 10269      4C455F44 
 10269      69736162 
 10269      6C6500
 10270              	.LASF455:
 10271 416d 494E4954 		.ascii	"INIT_NI_VAL\000"
 10271      5F4E495F 
 10271      56414C00 
 10272              	.LASF893:
 10273 4179 63795F65 		.ascii	"cy_en_ble_gap_iocap_t\000"
 10273      6E5F626C 
 10273      655F6761 
 10273      705F696F 
 10273      6361705F 
 10274              	.LASF909:
 10275 418f 43595F42 		.ascii	"CY_BLE_GAP_AUTH_ERROR_AUTHENTICATION_TIMEOUT\000"
 10275      4C455F47 
 10275      41505F41 
 10275      5554485F 
 10275      4552524F 
 10276              	.LASF1046:
 10277 41bc 626C6573 		.ascii	"blessIsrConfig\000"
 10277      73497372 
 10277      436F6E66 
 10277      696700
 10278              	.LASF351:
 10279 41cb 574C5F41 		.ascii	"WL_ADDR_TYPE\000"
 10279      4444525F 
 10279      54595045 
 10279      00
 10280              	.LASF28:
 10281 41d8 69706342 		.ascii	"ipcBase\000"
 10281      61736500 
 10282              	.LASF809:
 10283 41e0 43595F42 		.ascii	"CY_BLE_ERROR_GATT_DB_INVALID_ATTR_HANDLE\000"
 10283      4C455F45 
 10283      52524F52 
 10283      5F474154 
 10283      545F4442 
 10284              	.LASF835:
 10285 4209 6C6F6275 		.ascii	"lobuffLimit\000"
 10285      66664C69 
 10285      6D697400 
 10286              	.LASF1030:
 10287 4215 73696C69 		.ascii	"siliconDeviceAddressEnabled\000"
 10287      636F6E44 
 10287      65766963 
 10287      65416464 
 10287      72657373 
 10288              	.LASF548:
 10289 4231 434F4E4E 		.ascii	"CONN_3_DATA_LIST_ACK\000"
 10289      5F335F44 
ARM GAS  C:\Users\Nazar\AppData\Local\Temp\ccWQ1kO8.s 			page 259


 10289      4154415F 
 10289      4C495354 
 10289      5F41434B 
 10290              	.LASF84:
 10291 4246 70657269 		.ascii	"periDiv24_5CtlOffset\000"
 10291      44697632 
 10291      345F3543 
 10291      746C4F66 
 10291      66736574 
 10292              	.LASF966:
 10293 425b 43595F42 		.ascii	"CY_BLE_CONN_STATE_CLIENT_CHAR_DISCOVERING\000"
 10293      4C455F43 
 10293      4F4E4E5F 
 10293      53544154 
 10293      455F434C 
 10294              	.LASF230:
 10295 4285 63707573 		.ascii	"cpuss_interrupts_fault_1_IRQn\000"
 10295      735F696E 
 10295      74657272 
 10295      75707473 
 10295      5F666175 
 10296              	.LASF173:
 10297 42a3 63707573 		.ascii	"cpuss_interrupts_ipc_1_IRQn\000"
 10297      735F696E 
 10297      74657272 
 10297      75707473 
 10297      5F697063 
 10298              	.LASF887:
 10299 42bf 63795F62 		.ascii	"cy_ble_gatt_db_attr_handle_t\000"
 10299      6C655F67 
 10299      6174745F 
 10299      64625F61 
 10299      7474725F 
 10300              	.LASF570:
 10301 42dc 52534C56 		.ascii	"RSLV_LIST_PEER_IDNTT_BASE_ADDR\000"
 10301      5F4C4953 
 10301      545F5045 
 10301      45525F49 
 10301      444E5454 
 10302              	.LASF1076:
 10303 42fb 43795F42 		.ascii	"Cy_BLE_RegisterAppHostCallback\000"
 10303      4C455F52 
 10303      65676973 
 10303      74657241 
 10303      7070486F 
 10304              	.LASF534:
 10305 431a 4D4D4D53 		.ascii	"MMMS_SLAVE_CREATE_BT_CAPT\000"
 10305      5F534C41 
 10305      56455F43 
 10305      52454154 
 10305      455F4254 
 10306              	.LASF232:
 10307 4334 63707573 		.ascii	"cpuss_interrupt_fm_IRQn\000"
 10307      735F696E 
 10307      74657272 
 10307      7570745F 
 10307      666D5F49 
ARM GAS  C:\Users\Nazar\AppData\Local\Temp\ccWQ1kO8.s 			page 260


 10308              	.LASF279:
 10309 434c 7564625F 		.ascii	"udb_interrupts_10_IRQn\000"
 10309      696E7465 
 10309      72727570 
 10309      74735F31 
 10309      305F4952 
 10310              	.LASF1059:
 10311 4363 72657456 		.ascii	"retVal\000"
 10311      616C00
 10312              	.LASF300:
 10313 436a 494E5452 		.ascii	"INTR_MASK\000"
 10313      5F4D4153 
 10313      4B00
 10314              	.LASF94:
 10315 4374 63707573 		.ascii	"cpussCm4PwrCtlOffset\000"
 10315      73436D34 
 10315      50777243 
 10315      746C4F66 
 10315      66736574 
 10316              	.LASF59:
 10317 4389 666C6173 		.ascii	"flashWriteDelay\000"
 10317      68577269 
 10317      74654465 
 10317      6C617900 
 10318              	.LASF723:
 10319 4399 43595F42 		.ascii	"CY_BLE_EVT_GAP_PASSKEY_ENTRY_REQUEST\000"
 10319      4C455F45 
 10319      56545F47 
 10319      41505F50 
 10319      4153534B 
 10320              	.LASF292:
 10321 43be 7573625F 		.ascii	"usb_interrupt_lo_IRQn\000"
 10321      696E7465 
 10321      72727570 
 10321      745F6C6F 
 10321      5F495251 
 10322              	.LASF10:
 10323 43d4 6C6F6E67 		.ascii	"long int\000"
 10323      20696E74 
 10323      00
 10324              	.LASF981:
 10325 43dd 736C6F77 		.ascii	"slowAdvIntervalMin\000"
 10325      41647649 
 10325      6E746572 
 10325      76616C4D 
 10325      696E00
 10326              	.LASF779:
 10327 43f0 43595F42 		.ascii	"CY_BLE_EVT_L2CAP_CBFC_DISCONN_CNF\000"
 10327      4C455F45 
 10327      56545F4C 
 10327      32434150 
 10327      5F434246 
 10328              	.LASF378:
 10329 4412 4144565F 		.ascii	"ADV_SCN_RSP_TX_FIFO\000"
 10329      53434E5F 
 10329      5253505F 
 10329      54585F46 
ARM GAS  C:\Users\Nazar\AppData\Local\Temp\ccWQ1kO8.s 			page 261


 10329      49464F00 
 10330              	.LASF412:
 10331 4426 4144565F 		.ascii	"ADV_ACCADDR_H\000"
 10331      41434341 
 10331      4444525F 
 10331      4800
 10332              	.LASF719:
 10333 4434 43595F42 		.ascii	"CY_BLE_EVT_SET_CONN_PRIORITY_COMPLETE\000"
 10333      4C455F45 
 10333      56545F53 
 10333      45545F43 
 10333      4F4E4E5F 
 10334              	.LASF411:
 10335 445a 4144565F 		.ascii	"ADV_ACCADDR_L\000"
 10335      41434341 
 10335      4444525F 
 10335      4C00
 10336              	.LASF878:
 10337 4468 43595F42 		.ascii	"CY_BLE_BLESS_STATE_DEEPSLEEP\000"
 10337      4C455F42 
 10337      4C455353 
 10337      5F535441 
 10337      54455F44 
 10338              	.LASF950:
 10339 4485 61647654 		.ascii	"advTo\000"
 10339      6F00
 10340              	.LASF606:
 10341 448b 5041434B 		.ascii	"PACKET_COUNTER0\000"
 10341      45545F43 
 10341      4F554E54 
 10341      45523000 
 10342              	.LASF607:
 10343 449b 5041434B 		.ascii	"PACKET_COUNTER2\000"
 10343      45545F43 
 10343      4F554E54 
 10343      45523200 
 10344              	.LASF315:
 10345 44ab 54585F46 		.ascii	"TX_FIFO_STATUS\000"
 10345      49464F5F 
 10345      53544154 
 10345      555300
 10346              	.LASF44:
 10347 44ba 63707573 		.ascii	"cpussFmIrq\000"
 10347      73466D49 
 10347      727100
 10348              	.LASF899:
 10349 44c5 43595F42 		.ascii	"CY_BLE_GAP_AUTH_ERROR_PAIRING_NOT_SUPPORTED\000"
 10349      4C455F47 
 10349      41505F41 
 10349      5554485F 
 10349      4552524F 
 10350              	.LASF834:
 10351 44f1 74617267 		.ascii	"targetTable\000"
 10351      65745461 
 10351      626C6500 
 10352              	.LASF255:
 10353 44fd 74637077 		.ascii	"tcpwm_1_interrupts_10_IRQn\000"
ARM GAS  C:\Users\Nazar\AppData\Local\Temp\ccWQ1kO8.s 			page 262


 10353      6D5F315F 
 10353      696E7465 
 10353      72727570 
 10353      74735F31 
 10354              	.LASF994:
 10355 4518 67617063 		.ascii	"gapcConnectionSlaveLatency\000"
 10355      436F6E6E 
 10355      65637469 
 10355      6F6E536C 
 10355      6176654C 
 10356              	.LASF653:
 10357 4533 43595F53 		.ascii	"CY_SYSPM_CHECK_FAIL\000"
 10357      5953504D 
 10357      5F434845 
 10357      434B5F46 
 10357      41494C00 
 10358              	.LASF971:
 10359 4547 64657669 		.ascii	"deviceNameCharHandle\000"
 10359      63654E61 
 10359      6D654368 
 10359      61724861 
 10359      6E646C65 
 10360              	.LASF154:
 10361 455c 696F7373 		.ascii	"ioss_interrupts_gpio_7_IRQn\000"
 10361      5F696E74 
 10361      65727275 
 10361      7074735F 
 10361      6770696F 
 10362              	.LASF429:
 10363 4578 434F4E4E 		.ascii	"CONN_INTR_MASK\000"
 10363      5F494E54 
 10363      525F4D41 
 10363      534B00
 10364              	.LASF582:
 10365 4587 4C4C5F43 		.ascii	"LL_CLK_EN\000"
 10365      4C4B5F45 
 10365      4E00
 10366              	.LASF430:
 10367 4591 534C4156 		.ascii	"SLAVE_TIMING_CONTROL\000"
 10367      455F5449 
 10367      4D494E47 
 10367      5F434F4E 
 10367      54524F4C 
 10368              	.LASF861:
 10369 45a6 73746163 		.ascii	"stackConfig\000"
 10369      6B436F6E 
 10369      66696700 
 10370              	.LASF1117:
 10371 45b2 73746174 		.ascii	"state\000"
 10371      6500
 10372              	.LASF1071:
 10373 45b8 6462496E 		.ascii	"dbInfoParam\000"
 10373      666F5061 
 10373      72616D00 
 10374              	.LASF104:
 10375 45c4 69706353 		.ascii	"ipcStructSize\000"
 10375      74727563 
ARM GAS  C:\Users\Nazar\AppData\Local\Temp\ccWQ1kO8.s 			page 263


 10375      7453697A 
 10375      6500
 10376              	.LASF323:
 10377 45d2 424C455F 		.ascii	"BLE_RCB_V1_Type\000"
 10377      5243425F 
 10377      56315F54 
 10377      79706500 
 10378              	.LASF184:
 10379 45e2 63707573 		.ascii	"cpuss_interrupts_ipc_12_IRQn\000"
 10379      735F696E 
 10379      74657272 
 10379      75707473 
 10379      5F697063 
 10380              	.LASF254:
 10381 45ff 74637077 		.ascii	"tcpwm_1_interrupts_9_IRQn\000"
 10381      6D5F315F 
 10381      696E7465 
 10381      72727570 
 10381      74735F39 
 10382              	.LASF805:
 10383 4619 43595F42 		.ascii	"CY_BLE_ERROR_FLASH_WRITE_NOT_PERMITED\000"
 10383      4C455F45 
 10383      52524F52 
 10383      5F464C41 
 10383      53485F57 
 10384              	.LASF14:
 10385 463f 73697A65 		.ascii	"sizetype\000"
 10385      74797065 
 10385      00
 10386              	.LASF574:
 10387 4648 52534C56 		.ascii	"RSLV_LIST_RCVD_INIT_RPA_BASE_ADDR\000"
 10387      5F4C4953 
 10387      545F5243 
 10387      56445F49 
 10387      4E49545F 
 10388              	.LASF21:
 10389 466a 666C6173 		.ascii	"flashcBase\000"
 10389      68634261 
 10389      736500
 10390              	.LASF376:
 10391 4675 4144565F 		.ascii	"ADV_TX_DATA_FIFO\000"
 10391      54585F44 
 10391      4154415F 
 10391      4649464F 
 10391      00
 10392              	.LASF42:
 10393 4686 63707573 		.ascii	"cpussFlashPaSize\000"
 10393      73466C61 
 10393      73685061 
 10393      53697A65 
 10393      00
 10394              	.LASF836:
 10395 4697 63616C56 		.ascii	"calValLimit\000"
 10395      616C4C69 
 10395      6D697400 
 10396              	.LASF1100:
 10397 46a3 43795F42 		.ascii	"Cy_BLE_HAL_IsEcoCpuClockSrc\000"
ARM GAS  C:\Users\Nazar\AppData\Local\Temp\ccWQ1kO8.s 			page 264


 10397      4C455F48 
 10397      414C5F49 
 10397      7345636F 
 10397      43707543 
 10398              	.LASF17:
 10399 46bf 696E7431 		.ascii	"int16_t\000"
 10399      365F7400 
 10400              	.LASF993:
 10401 46c7 67617063 		.ascii	"gapcConnectionIntervalMax\000"
 10401      436F6E6E 
 10401      65637469 
 10401      6F6E496E 
 10401      74657276 
 10402              	.LASF403:
 10403 46e1 4C455F52 		.ascii	"LE_RF_TEST_MODE\000"
 10403      465F5445 
 10403      53545F4D 
 10403      4F444500 
 10404              	.LASF210:
 10405 46f1 63707573 		.ascii	"cpuss_interrupts_dw0_13_IRQn\000"
 10405      735F696E 
 10405      74657272 
 10405      75707473 
 10405      5F647730 
 10406              	.LASF395:
 10407 470e 434F4E4E 		.ascii	"CONN_EXT_INTR\000"
 10407      5F455854 
 10407      5F494E54 
 10407      5200
 10408              	.LASF785:
 10409 471c 63795F65 		.ascii	"cy_en_ble_event_t\000"
 10409      6E5F626C 
 10409      655F6576 
 10409      656E745F 
 10409      7400
 10410              	.LASF1077:
 10411 472e 43616C6C 		.ascii	"CallBack\000"
 10411      4261636B 
 10411      00
 10412              	.LASF38:
 10413 4737 70726F74 		.ascii	"protVersion\000"
 10413      56657273 
 10413      696F6E00 
 10414              	.LASF957:
 10415 4743 43595F42 		.ascii	"CY_BLE_ADV_STATE_ADV_INITIATED\000"
 10415      4C455F41 
 10415      44565F53 
 10415      54415445 
 10415      5F414456 
 10416              	.LASF752:
 10417 4762 43595F42 		.ascii	"CY_BLE_EVT_GATTC_XCHNG_MTU_RSP\000"
 10417      4C455F45 
 10417      56545F47 
 10417      41545443 
 10417      5F584348 
 10418              	.LASF963:
 10419 4781 43595F42 		.ascii	"CY_BLE_CONN_STATE_CONNECTED\000"
ARM GAS  C:\Users\Nazar\AppData\Local\Temp\ccWQ1kO8.s 			page 265


 10419      4C455F43 
 10419      4F4E4E5F 
 10419      53544154 
 10419      455F434F 
 10420              	.LASF815:
 10421 479d 43595F42 		.ascii	"CY_BLE_ERROR_MAX\000"
 10421      4C455F45 
 10421      52524F52 
 10421      5F4D4158 
 10421      00
 10422              	.LASF730:
 10423 47ae 43595F42 		.ascii	"CY_BLE_EVT_GAP_ENCRYPT_CHANGE\000"
 10423      4C455F45 
 10423      56545F47 
 10423      41505F45 
 10423      4E435259 
 10424              	.LASF829:
 10425 47cc 626F6E64 		.ascii	"bondListSize\000"
 10425      4C697374 
 10425      53697A65 
 10425      00
 10426              	.LASF535:
 10427 47d9 4D4D4D53 		.ascii	"MMMS_SLAVE_CREATE_US_CAPT\000"
 10427      5F534C41 
 10427      56455F43 
 10427      52454154 
 10427      455F5553 
 10428              	.LASF242:
 10429 47f3 74637077 		.ascii	"tcpwm_0_interrupts_5_IRQn\000"
 10429      6D5F305F 
 10429      696E7465 
 10429      72727570 
 10429      74735F35 
 10430              	.LASF658:
 10431 480d 636F6E74 		.ascii	"context\000"
 10431      65787400 
 10432              	.LASF29:
 10433 4815 63727970 		.ascii	"cryptoBase\000"
 10433      746F4261 
 10433      736500
 10434              	.LASF786:
 10435 4820 43595F42 		.ascii	"CY_BLE_SUCCESS\000"
 10435      4C455F53 
 10435      55434345 
 10435      535300
 10436              	.LASF905:
 10437 482f 43595F42 		.ascii	"CY_BLE_GAP_AUTH_ERROR_DHKEY_CHECK_FAILED\000"
 10437      4C455F47 
 10437      41505F41 
 10437      5554485F 
 10437      4552524F 
 10438              	.LASF964:
 10439 4858 43595F42 		.ascii	"CY_BLE_CONN_STATE_CLIENT_SRVC_DISCOVERING\000"
 10439      4C455F43 
 10439      4F4E4E5F 
 10439      53544154 
 10439      455F434C 
ARM GAS  C:\Users\Nazar\AppData\Local\Temp\ccWQ1kO8.s 			page 266


 10440              	.LASF146:
 10441 4882 4952516E 		.ascii	"IRQn_Type\000"
 10441      5F547970 
 10441      6500
 10442              	.LASF690:
 10443 488c 43595F42 		.ascii	"CY_BLE_EVT_ADD_DEVICE_TO_RPA_LIST_COMPLETE\000"
 10443      4C455F45 
 10443      56545F41 
 10443      44445F44 
 10443      45564943 
 10444              	.LASF864:
 10445 48b7 43595F42 		.ascii	"CY_BLE_LL_PWR_LVL_NEG_16_DBM\000"
 10445      4C455F4C 
 10445      4C5F5057 
 10445      525F4C56 
 10445      4C5F4E45 
 10446              	.LASF713:
 10447 48d4 43595F42 		.ascii	"CY_BLE_EVT_STACK_SHUTDOWN_COMPLETE\000"
 10447      4C455F45 
 10447      56545F53 
 10447      5441434B 
 10447      5F534855 
 10448              	.LASF277:
 10449 48f7 7564625F 		.ascii	"udb_interrupts_8_IRQn\000"
 10449      696E7465 
 10449      72727570 
 10449      74735F38 
 10449      5F495251 
 10450              	.LASF23:
 10451 490d 75646242 		.ascii	"udbBase\000"
 10451      61736500 
 10452              	.LASF105:
 10453 4915 6970634C 		.ascii	"ipcLockStatusOffset\000"
 10453      6F636B53 
 10453      74617475 
 10453      734F6666 
 10453      73657400 
 10454              	.LASF802:
 10455 4929 43595F42 		.ascii	"CY_BLE_ERROR_L2CAP_CONNECTION_ENTITY_NOT_FOUND\000"
 10455      4C455F45 
 10455      52524F52 
 10455      5F4C3243 
 10455      41505F43 
 10456              	.LASF830:
 10457 4958 63795F73 		.ascii	"cy_stc_ble_bonded_device_list_config_param_t\000"
 10457      74635F62 
 10457      6C655F62 
 10457      6F6E6465 
 10457      645F6465 
 10458              	.LASF646:
 10459 4985 43595F53 		.ascii	"CY_SYSPM_SLEEP\000"
 10459      5953504D 
 10459      5F534C45 
 10459      455000
 10460              	.LASF849:
 10461 4994 62756666 		.ascii	"bufferSize\000"
 10461      65725369 
ARM GAS  C:\Users\Nazar\AppData\Local\Temp\ccWQ1kO8.s 			page 267


 10461      7A6500
 10462              	.LASF812:
 10463 499f 43595F42 		.ascii	"CY_BLE_ERROR_CHAR_IS_NOT_DISCOVERED\000"
 10463      4C455F45 
 10463      52524F52 
 10463      5F434841 
 10463      525F4953 
 10464              	.LASF461:
 10465 49c3 434F4E4E 		.ascii	"CONN_UPDATE_NEW_SUP_TO\000"
 10465      5F555044 
 10465      4154455F 
 10465      4E45575F 
 10465      5355505F 
 10466              	.LASF985:
 10467 49da 66617374 		.ascii	"fastScanInterval\000"
 10467      5363616E 
 10467      496E7465 
 10467      7276616C 
 10467      00
 10468              	.LASF449:
 10469 49eb 50454552 		.ascii	"PEER_SEC_ADDR_ADV_H\000"
 10469      5F534543 
 10469      5F414444 
 10469      525F4144 
 10469      565F4800 
 10470              	.LASF447:
 10471 49ff 50454552 		.ascii	"PEER_SEC_ADDR_ADV_L\000"
 10471      5F534543 
 10471      5F414444 
 10471      525F4144 
 10471      565F4C00 
 10472              	.LASF448:
 10473 4a13 50454552 		.ascii	"PEER_SEC_ADDR_ADV_M\000"
 10473      5F534543 
 10473      5F414444 
 10473      525F4144 
 10473      565F4D00 
 10474              	.LASF733:
 10475 4a27 43595F42 		.ascii	"CY_BLE_EVT_GAP_KEYINFO_EXCHNGE_CMPLT\000"
 10475      4C455F45 
 10475      56545F47 
 10475      41505F4B 
 10475      4559494E 
 10476              	.LASF142:
 10477 4a4c 4E766963 		.ascii	"NvicMux29_IRQn\000"
 10477      4D757832 
 10477      395F4952 
 10477      516E00
 10478              	.LASF457:
 10479 4a5b 494E4954 		.ascii	"INIT_WINDOW_NI_ANCHOR_PT\000"
 10479      5F57494E 
 10479      444F575F 
 10479      4E495F41 
 10479      4E43484F 
 10480              	.LASF821:
 10481 4a74 646C654D 		.ascii	"dleMaxRxCapability\000"
 10481      61785278 
ARM GAS  C:\Users\Nazar\AppData\Local\Temp\ccWQ1kO8.s 			page 268


 10481      43617061 
 10481      62696C69 
 10481      747900
 10482              	.LASF617:
 10483 4a87 42315F44 		.ascii	"B1_DATA_REG\000"
 10483      4154415F 
 10483      52454700 
 10484              	.LASF995:
 10485 4a93 67617063 		.ascii	"gapcConnectionTimeOut\000"
 10485      436F6E6E 
 10485      65637469 
 10485      6F6E5469 
 10485      6D654F75 
 10486              	.LASF874:
 10487 4aa9 43595F42 		.ascii	"CY_BLE_BLESS_STATE_ACTIVE\000"
 10487      4C455F42 
 10487      4C455353 
 10487      5F535441 
 10487      54455F41 
 10488              	.LASF228:
 10489 4ac3 63707573 		.ascii	"cpuss_interrupts_dw1_15_IRQn\000"
 10489      735F696E 
 10489      74657272 
 10489      75707473 
 10489      5F647731 
 10490              	.LASF1107:
 10491 4ae0 43795F42 		.ascii	"Cy_BLE_EnableDleFeature\000"
 10491      4C455F45 
 10491      6E61626C 
 10491      65446C65 
 10491      46656174 
 10492              	.LASF967:
 10493 4af8 43595F42 		.ascii	"CY_BLE_CONN_STATE_CLIENT_DESCR_DISCOVERING\000"
 10493      4C455F43 
 10493      4F4E4E5F 
 10493      53544154 
 10493      455F434C 
 10494              	.LASF181:
 10495 4b23 63707573 		.ascii	"cpuss_interrupts_ipc_9_IRQn\000"
 10495      735F696E 
 10495      74657272 
 10495      75707473 
 10495      5F697063 
 10496              	.LASF151:
 10497 4b3f 696F7373 		.ascii	"ioss_interrupts_gpio_4_IRQn\000"
 10497      5F696E74 
 10497      65727275 
 10497      7074735F 
 10497      6770696F 
 10498              	.LASF83:
 10499 4b5b 70657269 		.ascii	"periDiv16_5CtlOffset\000"
 10499      44697631 
 10499      365F3543 
 10499      746C4F66 
 10499      66736574 
 10500              	.LASF337:
 10501 4b70 494E4954 		.ascii	"INIT_INTERVAL\000"
ARM GAS  C:\Users\Nazar\AppData\Local\Temp\ccWQ1kO8.s 			page 269


 10501      5F494E54 
 10501      45525641 
 10501      4C00
 10502              	.LASF120:
 10503 4b7e 4E766963 		.ascii	"NvicMux7_IRQn\000"
 10503      4D757837 
 10503      5F495251 
 10503      6E00
 10504              	.LASF1052:
 10505 4b8c 43595F49 		.ascii	"CY_IPC_SEMA_BAD_PARAM\000"
 10505      50435F53 
 10505      454D415F 
 10505      4241445F 
 10505      50415241 
 10506              	.LASF768:
 10507 4ba2 43595F42 		.ascii	"CY_BLE_EVT_GATTS_HANDLE_VALUE_CNF\000"
 10507      4C455F45 
 10507      56545F47 
 10507      41545453 
 10507      5F48414E 
 10508              	.LASF623:
 10509 4bc4 5452494D 		.ascii	"TRIM_MXD\000"
 10509      5F4D5844 
 10509      00
 10510              	.LASF890:
 10511 4bcd 43595F42 		.ascii	"CY_BLE_GAP_IOCAP_KEYBOARD_ONLY\000"
 10511      4C455F47 
 10511      41505F49 
 10511      4F434150 
 10511      5F4B4559 
 10512              	.LASF1108:
 10513 4bec 43795F42 		.ascii	"Cy_BLE_EnablePhyUpdateFeature\000"
 10513      4C455F45 
 10513      6E61626C 
 10513      65506879 
 10513      55706461 
 10514              	.LASF832:
 10515 4c0a 63795F73 		.ascii	"cy_stc_ble_white_list_config_param_t\000"
 10515      74635F62 
 10515      6C655F77 
 10515      68697465 
 10515      5F6C6973 
 10516              	.LASF63:
 10517 4c2f 666C6173 		.ascii	"flashCtlMainWs1Freq\000"
 10517      6843746C 
 10517      4D61696E 
 10517      57733146 
 10517      72657100 
 10518              	.LASF251:
 10519 4c43 74637077 		.ascii	"tcpwm_1_interrupts_6_IRQn\000"
 10519      6D5F315F 
 10519      696E7465 
 10519      72727570 
 10519      74735F36 
 10520              	.LASF3:
 10521 4c5d 7369676E 		.ascii	"signed char\000"
 10521      65642063 
ARM GAS  C:\Users\Nazar\AppData\Local\Temp\ccWQ1kO8.s 			page 270


 10521      68617200 
 10522              	.LASF634:
 10523 4c69 636D3070 		.ascii	"cm0pSrc\000"
 10523      53726300 
 10524              	.LASF608:
 10525 4c71 49565F4D 		.ascii	"IV_MASTER0\000"
 10525      41535445 
 10525      523000
 10526              	.LASF25:
 10527 4c7c 6873696F 		.ascii	"hsiomBase\000"
 10527      6D426173 
 10527      6500
 10528              	.LASF1041:
 10529 4c86 67617474 		.ascii	"gattDB\000"
 10529      444200
 10530              	.LASF296:
 10531 4c8d 4354524C 		.ascii	"CTRL\000"
 10531      00
 10532              	.LASF387:
 10533 4c92 5044555F 		.ascii	"PDU_ACCESS_ADDR_H_REGISTER\000"
 10533      41434345 
 10533      53535F41 
 10533      4444525F 
 10533      485F5245 
 10534              	.LASF751:
 10535 4cad 43595F42 		.ascii	"CY_BLE_EVT_GATTS_XCNHG_MTU_REQ\000"
 10535      4C455F45 
 10535      56545F47 
 10535      41545453 
 10535      5F58434E 
 10536              	.LASF553:
 10537 4ccc 434F4E4E 		.ascii	"CONN_4_CE_DATA_LIST_CFG\000"
 10537      5F345F43 
 10537      455F4441 
 10537      54415F4C 
 10537      4953545F 
 10538              	.LASF789:
 10539 4ce4 43595F42 		.ascii	"CY_BLE_ERROR_INVALID_OPERATION\000"
 10539      4C455F45 
 10539      52524F52 
 10539      5F494E56 
 10539      414C4944 
 10540              	.LASF1091:
 10541 4d03 63795F62 		.ascii	"cy_ble_cmdStatus\000"
 10541      6C655F63 
 10541      6D645374 
 10541      61747573 
 10541      00
 10542              	.LASF587:
 10543 4d14 4D545F43 		.ascii	"MT_CFG\000"
 10543      464700
 10544              	.LASF161:
 10545 4d1b 696F7373 		.ascii	"ioss_interrupts_gpio_14_IRQn\000"
 10545      5F696E74 
 10545      65727275 
 10545      7074735F 
 10545      6770696F 
ARM GAS  C:\Users\Nazar\AppData\Local\Temp\ccWQ1kO8.s 			page 271


 10546              	.LASF99:
 10547 4d38 63707573 		.ascii	"cpussCm4NmiCtlOffset\000"
 10547      73436D34 
 10547      4E6D6943 
 10547      746C4F66 
 10547      66736574 
 10548              	.LASF1093:
 10549 4d4d 43795F42 		.ascii	"Cy_BLE_StackEnterLPM\000"
 10549      4C455F53 
 10549      7461636B 
 10549      456E7465 
 10549      724C504D 
 10550              	.LASF654:
 10551 4d62 43595F53 		.ascii	"CY_SYSPM_BEFORE_TRANSITION\000"
 10551      5953504D 
 10551      5F424546 
 10551      4F52455F 
 10551      5452414E 
 10552              	.LASF207:
 10553 4d7d 63707573 		.ascii	"cpuss_interrupts_dw0_10_IRQn\000"
 10553      735F696E 
 10553      74657272 
 10553      75707473 
 10553      5F647730 
 10554              	.LASF626:
 10555 4d9a 424C455F 		.ascii	"BLE_BLESS_V1_Type\000"
 10555      424C4553 
 10555      535F5631 
 10555      5F547970 
 10555      6500
 10556              	.LASF93:
 10557 4dac 63707573 		.ascii	"cpussCm0StatusOffset\000"
 10557      73436D30 
 10557      53746174 
 10557      75734F66 
 10557      66736574 
 10558              	.LASF980:
 10559 4dc1 736C6F77 		.ascii	"slowAdvEnable\000"
 10559      41647645 
 10559      6E61626C 
 10559      6500
 10560              	.LASF304:
 10561 4dcf 52414449 		.ascii	"RADIO_REG3_ADDR\000"
 10561      4F5F5245 
 10561      47335F41 
 10561      44445200 
 10562              	.LASF239:
 10563 4ddf 74637077 		.ascii	"tcpwm_0_interrupts_2_IRQn\000"
 10563      6D5F305F 
 10563      696E7465 
 10563      72727570 
 10563      74735F32 
 10564              	.LASF766:
 10565 4df9 43595F42 		.ascii	"CY_BLE_EVT_GATTC_HANDLE_VALUE_NTF\000"
 10565      4C455F45 
 10565      56545F47 
 10565      41545443 
ARM GAS  C:\Users\Nazar\AppData\Local\Temp\ccWQ1kO8.s 			page 272


 10565      5F48414E 
 10566              	.LASF628:
 10567 4e1b 424C4553 		.ascii	"BLESS\000"
 10567      5300
 10568              	.LASF288:
 10569 4e21 70726F66 		.ascii	"profile_interrupt_IRQn\000"
 10569      696C655F 
 10569      696E7465 
 10569      72727570 
 10569      745F4952 
 10570              	.LASF359:
 10571 4e38 44415441 		.ascii	"DATA_CHANNELS_L1\000"
 10571      5F434841 
 10571      4E4E454C 
 10571      535F4C31 
 10571      00
 10572              	.LASF711:
 10573 4e49 43595F42 		.ascii	"CY_BLE_EVT_AES_CCM_DECRYPT_COMPLETE\000"
 10573      4C455F45 
 10573      56545F41 
 10573      45535F43 
 10573      434D5F44 
 10574              	.LASF1002:
 10575 4e6d 63795F73 		.ascii	"cy_stc_ble_gatts_att_pack_val_len_t\000"
 10575      74635F62 
 10575      6C655F67 
 10575      61747473 
 10575      5F617474 
 10576              	.LASF274:
 10577 4e91 7564625F 		.ascii	"udb_interrupts_5_IRQn\000"
 10577      696E7465 
 10577      72727570 
 10577      74735F35 
 10577      5F495251 
 10578              	.LASF726:
 10579 4ea7 43595F42 		.ascii	"CY_BLE_EVT_GAP_AUTH_FAILED\000"
 10579      4C455F45 
 10579      56545F47 
 10579      41505F41 
 10579      5554485F 
 10580              	.LASF920:
 10581 4ec2 7363616E 		.ascii	"scanType\000"
 10581      54797065 
 10581      00
 10582              	.LASF220:
 10583 4ecb 63707573 		.ascii	"cpuss_interrupts_dw1_7_IRQn\000"
 10583      735F696E 
 10583      74657272 
 10583      75707473 
 10583      5F647731 
 10584              	.LASF702:
 10585 4ee7 43595F42 		.ascii	"CY_BLE_EVT_GET_DEVICE_ADDR_COMPLETE\000"
 10585      4C455F45 
 10585      56545F47 
 10585      45545F44 
 10585      45564943 
 10586              	.LASF18:
ARM GAS  C:\Users\Nazar\AppData\Local\Temp\ccWQ1kO8.s 			page 273


 10587 4f0b 75696E74 		.ascii	"uint16_t\000"
 10587      31365F74 
 10587      00
 10588              	.LASF60:
 10589 4f14 666C6173 		.ascii	"flashProgramDelay\000"
 10589      6850726F 
 10589      6772616D 
 10589      44656C61 
 10589      7900
 10590              	.LASF803:
 10591 4f26 43595F42 		.ascii	"CY_BLE_ERROR_L2CAP_PSM_NOT_IN_RANGE\000"
 10591      4C455F45 
 10591      52524F52 
 10591      5F4C3243 
 10591      41505F50 
 10592              	.LASF915:
 10593 4f4a 656B6579 		.ascii	"ekeySize\000"
 10593      53697A65 
 10593      00
 10594              	.LASF859:
 10595 4f53 4379426C 		.ascii	"CyBleAppCbFunc\000"
 10595      65417070 
 10595      43624675 
 10595      6E6300
 10596              	.LASF1034:
 10597 4f62 67617070 		.ascii	"gappAdvParams\000"
 10597      41647650 
 10597      6172616D 
 10597      7300
 10598              	.LASF13:
 10599 4f70 6C6F6E67 		.ascii	"long long unsigned int\000"
 10599      206C6F6E 
 10599      6720756E 
 10599      7369676E 
 10599      65642069 
 10600              	.LASF139:
 10601 4f87 4E766963 		.ascii	"NvicMux26_IRQn\000"
 10601      4D757832 
 10601      365F4952 
 10601      516E00
 10602              	.LASF298:
 10603 4f96 494E5452 		.ascii	"INTR\000"
 10603      00
 10604              	.LASF330:
 10605 4f9b 4144565F 		.ascii	"ADV_NEXT_INSTANT\000"
 10605      4E455854 
 10605      5F494E53 
 10605      54414E54 
 10605      00
 10606              	.LASF712:
 10607 4fac 43595F42 		.ascii	"CY_BLE_EVT_SET_SLAVE_LATENCY_MODE_COMPLETE\000"
 10607      4C455F45 
 10607      56545F53 
 10607      45545F53 
 10607      4C415645 
 10608              	.LASF635:
 10609 4fd7 696E7472 		.ascii	"intrPriority\000"
ARM GAS  C:\Users\Nazar\AppData\Local\Temp\ccWQ1kO8.s 			page 274


 10609      5072696F 
 10609      72697479 
 10609      00
 10610              	.LASF225:
 10611 4fe4 63707573 		.ascii	"cpuss_interrupts_dw1_12_IRQn\000"
 10611      735F696E 
 10611      74657272 
 10611      75707473 
 10611      5F647731 
 10612              	.LASF474:
 10613 5001 434F4E4E 		.ascii	"CONN_REQ_WORD10\000"
 10613      5F524551 
 10613      5F574F52 
 10613      44313000 
 10614              	.LASF475:
 10615 5011 434F4E4E 		.ascii	"CONN_REQ_WORD11\000"
 10615      5F524551 
 10615      5F574F52 
 10615      44313100 
 10616              	.LASF851:
 10617 5021 63795F73 		.ascii	"cy_stc_ble_stk_app_data_buff_t\000"
 10617      74635F62 
 10617      6C655F73 
 10617      746B5F61 
 10617      70705F64 
 10618              	.LASF324:
 10619 5040 434F4D4D 		.ascii	"COMMAND_REGISTER\000"
 10619      414E445F 
 10619      52454749 
 10619      53544552 
 10619      00
 10620              	.LASF178:
 10621 5051 63707573 		.ascii	"cpuss_interrupts_ipc_6_IRQn\000"
 10621      735F696E 
 10621      74657272 
 10621      75707473 
 10621      5F697063 
 10622              	.LASF148:
 10623 506d 696F7373 		.ascii	"ioss_interrupts_gpio_1_IRQn\000"
 10623      5F696E74 
 10623      65727275 
 10623      7074735F 
 10623      6770696F 
 10624              	.LASF1018:
 10625 5089 63795F73 		.ascii	"cy_stc_ble_gatts_t\000"
 10625      74635F62 
 10625      6C655F67 
 10625      61747473 
 10625      5F7400
 10626              	.LASF117:
 10627 509c 4E766963 		.ascii	"NvicMux4_IRQn\000"
 10627      4D757834 
 10627      5F495251 
 10627      6E00
 10628              	.LASF76:
 10629 50aa 70657269 		.ascii	"periTrGrSize\000"
 10629      54724772 
ARM GAS  C:\Users\Nazar\AppData\Local\Temp\ccWQ1kO8.s 			page 275


 10629      53697A65 
 10629      00
 10630              	.LASF179:
 10631 50b7 63707573 		.ascii	"cpuss_interrupts_ipc_7_IRQn\000"
 10631      735F696E 
 10631      74657272 
 10631      75707473 
 10631      5F697063 
 10632              	.LASF333:
 10633 50d3 5343414E 		.ascii	"SCAN_PARAM\000"
 10633      5F504152 
 10633      414D00
 10634              	.LASF883:
 10635 50de 43595F42 		.ascii	"CY_BLE_CONTROLLER_SLEEP_MODE_DEEPSLEEP\000"
 10635      4C455F43 
 10635      4F4E5452 
 10635      4F4C4C45 
 10635      525F534C 
 10636              	.LASF1103:
 10637 5105 43795F42 		.ascii	"Cy_BLE_GATTS_DbRegister\000"
 10637      4C455F47 
 10637      41545453 
 10637      5F446252 
 10637      65676973 
 10638              	.LASF959:
 10639 511d 43595F42 		.ascii	"CY_BLE_ADV_STATE_STOP_INITIATED\000"
 10639      4C455F41 
 10639      44565F53 
 10639      54415445 
 10639      5F53544F 
 10640              	.LASF415:
 10641 513d 434F4E4E 		.ascii	"CONN_CH_TX_POWER_LVL_LS\000"
 10641      5F43485F 
 10641      54585F50 
 10641      4F574552 
 10641      5F4C564C 
 10642              	.LASF248:
 10643 5155 74637077 		.ascii	"tcpwm_1_interrupts_3_IRQn\000"
 10643      6D5F315F 
 10643      696E7465 
 10643      72727570 
 10643      74735F33 
 10644              	.LASF132:
 10645 516f 4E766963 		.ascii	"NvicMux19_IRQn\000"
 10645      4D757831 
 10645      395F4952 
 10645      516E00
 10646              	.LASF52:
 10647 517e 65704D6F 		.ascii	"epMonitorNr\000"
 10647      6E69746F 
 10647      724E7200 
 10648              	.LASF491:
 10649 518a 4558545F 		.ascii	"EXT_PA_LNA_DLY_CNFG\000"
 10649      50415F4C 
 10649      4E415F44 
 10649      4C595F43 
 10649      4E464700 
ARM GAS  C:\Users\Nazar\AppData\Local\Temp\ccWQ1kO8.s 			page 276


 10650              	.LASF53:
 10651 519e 75646250 		.ascii	"udbPresent\000"
 10651      72657365 
 10651      6E7400
 10652              	.LASF416:
 10653 51a9 434F4E4E 		.ascii	"CONN_CH_TX_POWER_LVL_MS\000"
 10653      5F43485F 
 10653      54585F50 
 10653      4F574552 
 10653      5F4C564C 
 10654              	.LASF163:
 10655 51c1 696F7373 		.ascii	"ioss_interrupt_vdd_IRQn\000"
 10655      5F696E74 
 10655      65727275 
 10655      70745F76 
 10655      64645F49 
 10656              	.LASF918:
 10657 51d9 63795F73 		.ascii	"cy_stc_ble_gap_auth_info_t\000"
 10657      74635F62 
 10657      6C655F67 
 10657      61705F61 
 10657      7574685F 
 10658              	.LASF1009:
 10659 51f4 61747445 		.ascii	"attEndHandle\000"
 10659      6E644861 
 10659      6E646C65 
 10659      00
 10660              	.LASF158:
 10661 5201 696F7373 		.ascii	"ioss_interrupts_gpio_11_IRQn\000"
 10661      5F696E74 
 10661      65727275 
 10661      7074735F 
 10661      6770696F 
 10662              	.LASF74:
 10663 521e 70657269 		.ascii	"periTrCmdGrSelMsk\000"
 10663      5472436D 
 10663      64477253 
 10663      656C4D73 
 10663      6B00
 10664              	.LASF894:
 10665 5230 43595F42 		.ascii	"CY_BLE_GAP_AUTH_ERROR_NONE\000"
 10665      4C455F47 
 10665      41505F41 
 10665      5554485F 
 10665      4552524F 
 10666              	.LASF205:
 10667 524b 63707573 		.ascii	"cpuss_interrupts_dw0_8_IRQn\000"
 10667      735F696E 
 10667      74657272 
 10667      75707473 
 10667      5F647730 
 10668              	.LASF1003:
 10669 5267 61747446 		.ascii	"attFormatValue\000"
 10669      6F726D61 
 10669      7456616C 
 10669      756500
 10670              	.LASF49:
ARM GAS  C:\Users\Nazar\AppData\Local\Temp\ccWQ1kO8.s 			page 277


 10671 5276 70657269 		.ascii	"periClockNr\000"
 10671      436C6F63 
 10671      6B4E7200 
 10672              	.LASF354:
 10673 5282 5452414E 		.ascii	"TRANSMIT_WINDOW_SIZE\000"
 10673      534D4954 
 10673      5F57494E 
 10673      444F575F 
 10673      53495A45 
 10674              	.LASF820:
 10675 5297 646C654D 		.ascii	"dleMaxTxCapability\000"
 10675      61785478 
 10675      43617061 
 10675      62696C69 
 10675      747900
 10676              	.LASF349:
 10677 52aa 50454552 		.ascii	"PEER_ADDR_H\000"
 10677      5F414444 
 10677      525F4800 
 10678              	.LASF143:
 10679 52b6 4E766963 		.ascii	"NvicMux30_IRQn\000"
 10679      4D757833 
 10679      305F4952 
 10679      516E00
 10680              	.LASF347:
 10681 52c5 50454552 		.ascii	"PEER_ADDR_L\000"
 10681      5F414444 
 10681      525F4C00 
 10682              	.LASF348:
 10683 52d1 50454552 		.ascii	"PEER_ADDR_M\000"
 10683      5F414444 
 10683      525F4D00 
 10684              	.LASF90:
 10685 52dd 63707573 		.ascii	"cpussCm0ClockCtlOffset\000"
 10685      73436D30 
 10685      436C6F63 
 10685      6B43746C 
 10685      4F666673 
 10686              	.LASF308:
 10687 52f4 4350555F 		.ascii	"CPU_WRITE_REG\000"
 10687      57524954 
 10687      455F5245 
 10687      4700
 10688              	.LASF15:
 10689 5302 63686172 		.ascii	"char\000"
 10689      00
 10690              	.LASF1050:
 10691 5307 43595F49 		.ascii	"CY_IPC_SEMA_ERROR_LOCKED\000"
 10691      50435F53 
 10691      454D415F 
 10691      4552524F 
 10691      525F4C4F 
 10692              	.LASF1064:
 10693 5320 43795F42 		.ascii	"Cy_BLE_DeepSleepCallback\000"
 10693      4C455F44 
 10693      65657053 
 10693      6C656570 
ARM GAS  C:\Users\Nazar\AppData\Local\Temp\ccWQ1kO8.s 			page 278


 10693      43616C6C 
 10694              	.LASF271:
 10695 5339 7564625F 		.ascii	"udb_interrupts_2_IRQn\000"
 10695      696E7465 
 10695      72727570 
 10695      74735F32 
 10695      5F495251 
 10696              	.LASF498:
 10697 534f 4445565F 		.ascii	"DEV_PA_ADDR_H\000"
 10697      50415F41 
 10697      4444525F 
 10697      4800
 10698              	.LASF496:
 10699 535d 4445565F 		.ascii	"DEV_PA_ADDR_L\000"
 10699      50415F41 
 10699      4444525F 
 10699      4C00
 10700              	.LASF497:
 10701 536b 4445565F 		.ascii	"DEV_PA_ADDR_M\000"
 10701      50415F41 
 10701      4444525F 
 10701      4D00
 10702              	.LASF380:
 10703 5379 494E4954 		.ascii	"INIT_SCN_ADV_RX_FIFO\000"
 10703      5F53434E 
 10703      5F414456 
 10703      5F52585F 
 10703      4649464F 
 10704              	.LASF217:
 10705 538e 63707573 		.ascii	"cpuss_interrupts_dw1_4_IRQn\000"
 10705      735F696E 
 10705      74657272 
 10705      75707473 
 10705      5F647731 
 10706              	.LASF708:
 10707 53aa 43595F42 		.ascii	"CY_BLE_EVT_RANDOM_NUM_GEN_COMPLETE\000"
 10707      4C455F45 
 10707      56545F52 
 10707      414E444F 
 10707      4D5F4E55 
 10708              	.LASF998:
 10709 53cd 61747447 		.ascii	"attGenericVal\000"
 10709      656E6572 
 10709      69635661 
 10709      6C00
 10710              	.LASF400:
 10711 53db 57494E44 		.ascii	"WINDOW_WIDEN_INTVL\000"
 10711      4F575F57 
 10711      4944454E 
 10711      5F494E54 
 10711      564C00
 10712              	.LASF507:
 10713 53ee 434F4E4E 		.ascii	"CONN_1_PARAM_MEM_BASE_ADDR\000"
 10713      5F315F50 
 10713      4152414D 
 10713      5F4D454D 
 10713      5F424153 
ARM GAS  C:\Users\Nazar\AppData\Local\Temp\ccWQ1kO8.s 			page 279


 10714              	.LASF735:
 10715 5409 43595F42 		.ascii	"CY_BLE_EVT_GAP_KEYPRESS_NOTIFICATION\000"
 10715      4C455F45 
 10715      56545F47 
 10715      41505F4B 
 10715      45595052 
 10716              	.LASF314:
 10717 542e 54585F46 		.ascii	"TX_FIFO_CTRL\000"
 10717      49464F5F 
 10717      4354524C 
 10717      00
 10718              	.LASF262:
 10719 543b 74637077 		.ascii	"tcpwm_1_interrupts_17_IRQn\000"
 10719      6D5F315F 
 10719      696E7465 
 10719      72727570 
 10719      74735F31 
 10720              	.LASF1022:
 10721 5456 61747456 		.ascii	"attValuesCCCDFlashMemory\000"
 10721      616C7565 
 10721      73434343 
 10721      44466C61 
 10721      73684D65 
 10722              	.LASF683:
 10723 546f 43595F42 		.ascii	"CY_BLE_EVT_GET_DATA_LENGTH_COMPLETE\000"
 10723      4C455F45 
 10723      56545F47 
 10723      45545F44 
 10723      4154415F 
 10724              	.LASF136:
 10725 5493 4E766963 		.ascii	"NvicMux23_IRQn\000"
 10725      4D757832 
 10725      335F4952 
 10725      516E00
 10726              	.LASF482:
 10727 54a2 534C565F 		.ascii	"SLV_WIN_ADJ\000"
 10727      57494E5F 
 10727      41444A00 
 10728              	.LASF114:
 10729 54ae 4E766963 		.ascii	"NvicMux1_IRQn\000"
 10729      4D757831 
 10729      5F495251 
 10729      6E00
 10730              	.LASF86:
 10731 54bc 6770696F 		.ascii	"gpioPrtCfgOffset\000"
 10731      50727443 
 10731      66674F66 
 10731      66736574 
 10731      00
 10732              	.LASF798:
 10733 54cd 43595F42 		.ascii	"CY_BLE_ERROR_SEC_FAILED\000"
 10733      4C455F45 
 10733      52524F52 
 10733      5F534543 
 10733      5F464149 
 10734              	.LASF1027:
 10735 54e5 7478506F 		.ascii	"txPowerLevelConn\000"
ARM GAS  C:\Users\Nazar\AppData\Local\Temp\ccWQ1kO8.s 			page 280


 10735      7765724C 
 10735      6576656C 
 10735      436F6E6E 
 10735      00
 10736              	.LASF943:
 10737 54f6 61647644 		.ascii	"advDataLen\000"
 10737      6174614C 
 10737      656E00
 10738              	.LASF175:
 10739 5501 63707573 		.ascii	"cpuss_interrupts_ipc_3_IRQn\000"
 10739      735F696E 
 10739      74657272 
 10739      75707473 
 10739      5F697063 
 10740              	.LASF610:
 10741 551d 454E435F 		.ascii	"ENC_KEY\000"
 10741      4B455900 
 10742              	.LASF1032:
 10743 5525 63795F73 		.ascii	"cy_stc_ble_params_t\000"
 10743      74635F62 
 10743      6C655F70 
 10743      6172616D 
 10743      735F7400 
 10744              	.LASF722:
 10745 5539 43595F42 		.ascii	"CY_BLE_EVT_GAP_AUTH_REQ\000"
 10745      4C455F45 
 10745      56545F47 
 10745      41505F41 
 10745      5554485F 
 10746              	.LASF897:
 10747 5551 43595F42 		.ascii	"CY_BLE_GAP_AUTH_ERROR_AUTHENTICATION_REQ_NOT_MET\000"
 10747      4C455F47 
 10747      41505F41 
 10747      5554485F 
 10747      4552524F 
 10748              	.LASF1000:
 10749 5582 6D617841 		.ascii	"maxAttrLength\000"
 10749      7474724C 
 10749      656E6774 
 10749      6800
 10750              	.LASF782:
 10751 5590 43595F42 		.ascii	"CY_BLE_EVT_L2CAP_CBFC_TX_CREDIT_IND\000"
 10751      4C455F45 
 10751      56545F4C 
 10751      32434150 
 10751      5F434246 
 10752              	.LASF513:
 10753 55b4 434F4E4E 		.ascii	"CONN_4_PARAM_MEM_BASE_ADDR\000"
 10753      5F345F50 
 10753      4152414D 
 10753      5F4D454D 
 10753      5F424153 
 10754              	.LASF763:
 10755 55cf 43595F42 		.ascii	"CY_BLE_EVT_GATTS_PREP_WRITE_REQ\000"
 10755      4C455F45 
 10755      56545F47 
 10755      41545453 
ARM GAS  C:\Users\Nazar\AppData\Local\Temp\ccWQ1kO8.s 			page 281


 10755      5F505245 
 10756              	.LASF245:
 10757 55ef 74637077 		.ascii	"tcpwm_1_interrupts_0_IRQn\000"
 10757      6D5F315F 
 10757      696E7465 
 10757      72727570 
 10757      74735F30 
 10758              	.LASF107:
 10759 5609 52657365 		.ascii	"Reset_IRQn\000"
 10759      745F4952 
 10759      516E00
 10760              	.LASF129:
 10761 5614 4E766963 		.ascii	"NvicMux16_IRQn\000"
 10761      4D757831 
 10761      365F4952 
 10761      516E00
 10762              	.LASF649:
 10763 5623 43595F53 		.ascii	"CY_SYSPM_LP\000"
 10763      5953504D 
 10763      5F4C5000 
 10764              	.LASF1010:
 10765 562f 61747456 		.ascii	"attValue\000"
 10765      616C7565 
 10765      00
 10766              	.LASF921:
 10767 5638 7363616E 		.ascii	"scanIntv\000"
 10767      496E7476 
 10767      00
 10768              	.LASF342:
 10769 5641 494E4954 		.ascii	"INIT_NEXT_INSTANT\000"
 10769      5F4E4558 
 10769      545F494E 
 10769      5354414E 
 10769      5400
 10770              	.LASF1058:
 10771 5653 6D6F6465 		.ascii	"mode\000"
 10771      00
 10772              	.LASF202:
 10773 5658 63707573 		.ascii	"cpuss_interrupts_dw0_5_IRQn\000"
 10773      735F696E 
 10773      74657272 
 10773      75707473 
 10773      5F647730 
 10774              	.LASF1057:
 10775 5674 43595F49 		.ascii	"CY_IPC_SEMA_STATUS_UNLOCKED\000"
 10775      50435F53 
 10775      454D415F 
 10775      53544154 
 10775      55535F55 
 10776              	.LASF729:
 10777 5690 43595F42 		.ascii	"CY_BLE_EVT_GAP_DEVICE_DISCONNECTED\000"
 10777      4C455F45 
 10777      56545F47 
 10777      41505F44 
 10777      45564943 
 10778              	.LASF903:
 10779 56b3 43595F42 		.ascii	"CY_BLE_GAP_AUTH_ERROR_REPEATED_ATTEMPTS\000"
ARM GAS  C:\Users\Nazar\AppData\Local\Temp\ccWQ1kO8.s 			page 282


 10779      4C455F47 
 10779      41505F41 
 10779      5554485F 
 10779      4552524F 
 10780              	.LASF398:
 10781 56db 44415441 		.ascii	"DATA_MEM_DESCRIPTOR\000"
 10781      5F4D454D 
 10781      5F444553 
 10781      43524950 
 10781      544F5200 
 10782              	.LASF266:
 10783 56ef 74637077 		.ascii	"tcpwm_1_interrupts_21_IRQn\000"
 10783      6D5F315F 
 10783      696E7465 
 10783      72727570 
 10783      74735F32 
 10784              	.LASF43:
 10785 570a 63707573 		.ascii	"cpussIpc0Irq\000"
 10785      73497063 
 10785      30497271 
 10785      00
 10786              	.LASF1054:
 10787 5717 43595F49 		.ascii	"CY_IPC_SEMA_NOT_ACQUIRED\000"
 10787      50435F53 
 10787      454D415F 
 10787      4E4F545F 
 10787      41435155 
 10788              	.LASF1074:
 10789 5730 43795F42 		.ascii	"Cy_BLE_ConfigureExtPA\000"
 10789      4C455F43 
 10789      6F6E6669 
 10789      67757265 
 10789      45787450 
 10790              	.LASF578:
 10791 5746 424C455F 		.ascii	"BLE_BLELL_V1_Type\000"
 10791      424C454C 
 10791      4C5F5631 
 10791      5F547970 
 10791      6500
 10792              	.LASF678:
 10793 5758 43595F42 		.ascii	"CY_BLE_EVT_GET_CHANNEL_MAP_COMPLETE\000"
 10793      4C455F45 
 10793      56545F47 
 10793      45545F43 
 10793      48414E4E 
 10794              	.LASF283:
 10795 577c 7564625F 		.ascii	"udb_interrupts_14_IRQn\000"
 10795      696E7465 
 10795      72727570 
 10795      74735F31 
 10795      345F4952 
 10796              	.LASF64:
 10797 5793 666C6173 		.ascii	"flashCtlMainWs2Freq\000"
 10797      6843746C 
 10797      4D61696E 
 10797      57733246 
 10797      72657100 
ARM GAS  C:\Users\Nazar\AppData\Local\Temp\ccWQ1kO8.s 			page 283


 10798              	.LASF670:
 10799 57a7 43595F42 		.ascii	"CY_BLE_EVT_TIMEOUT\000"
 10799      4C455F45 
 10799      56545F54 
 10799      494D454F 
 10799      555400
 10800              	.LASF24:
 10801 57ba 70726F74 		.ascii	"protBase\000"
 10801      42617365 
 10801      00
 10802              	.LASF952:
 10803 57c3 43595F42 		.ascii	"CY_BLE_STATE_STOPPED\000"
 10803      4C455F53 
 10803      54415445 
 10803      5F53544F 
 10803      50504544 
 10804              	.LASF1092:
 10805 57d8 63795F62 		.ascii	"cy_ble_advertisingIntervalType\000"
 10805      6C655F61 
 10805      64766572 
 10805      74697369 
 10805      6E67496E 
 10806              	.LASF908:
 10807 57f7 43595F42 		.ascii	"CY_BLE_GAP_AUTH_ERROR_CROSS_TRANSPORT_KEY_GEN_DER_N"
 10807      4C455F47 
 10807      41505F41 
 10807      5554485F 
 10807      4552524F 
 10808 582a 4F545F41 		.ascii	"OT_ALLOWED\000"
 10808      4C4C4F57 
 10808      454400
 10809              	.LASF320:
 10810 5835 52585F46 		.ascii	"RX_FIFO_RD\000"
 10810      49464F5F 
 10810      524400
 10811              	.LASF544:
 10812 5840 434F4E4E 		.ascii	"CONN_2_DATA_LIST_ACK\000"
 10812      5F325F44 
 10812      4154415F 
 10812      4C495354 
 10812      5F41434B 
 10813              	.LASF1017:
 10814 5855 63636364 		.ascii	"cccdHandle\000"
 10814      48616E64 
 10814      6C6500
 10815              	.LASF106:
 10816 5860 63795F73 		.ascii	"cy_stc_device_t\000"
 10816      74635F64 
 10816      65766963 
 10816      655F7400 
 10817              	.LASF848:
 10818 5870 63795F73 		.ascii	"cy_stc_ble_stack_config_param_t\000"
 10818      74635F62 
 10818      6C655F73 
 10818      7461636B 
 10818      5F636F6E 
 10819              	.LASF516:
ARM GAS  C:\Users\Nazar\AppData\Local\Temp\ccWQ1kO8.s 			page 284


 10820 5890 55535F4F 		.ascii	"US_OFFSET\000"
 10820      46465345 
 10820      5400
 10821              	.LASF214:
 10822 589a 63707573 		.ascii	"cpuss_interrupts_dw1_1_IRQn\000"
 10822      735F696E 
 10822      74657272 
 10822      75707473 
 10822      5F647731 
 10823              	.LASF110:
 10824 58b6 53564361 		.ascii	"SVCall_IRQn\000"
 10824      6C6C5F49 
 10824      52516E00 
 10825              	.LASF407:
 10826 58c2 54585258 		.ascii	"TXRX_HOP\000"
 10826      5F484F50 
 10826      00
 10827              	.LASF659:
 10828 58cb 63795F73 		.ascii	"cy_stc_syspm_callback_params_t\000"
 10828      74635F73 
 10828      7973706D 
 10828      5F63616C 
 10828      6C626163 
 10829              	.LASF259:
 10830 58ea 74637077 		.ascii	"tcpwm_1_interrupts_14_IRQn\000"
 10830      6D5F315F 
 10830      696E7465 
 10830      72727570 
 10830      74735F31 
 10831              	.LASF846:
 10832 5905 66656174 		.ascii	"featureHeapReq\000"
 10832      75726548 
 10832      65617052 
 10832      657100
 10833              	.LASF972:
 10834 5914 61707065 		.ascii	"appearanceCharHandle\000"
 10834      6172616E 
 10834      63654368 
 10834      61724861 
 10834      6E646C65 
 10835              	.LASF1067:
 10836 5929 61706952 		.ascii	"apiResult\000"
 10836      6573756C 
 10836      7400
 10837              	.LASF133:
 10838 5933 4E766963 		.ascii	"NvicMux20_IRQn\000"
 10838      4D757832 
 10838      305F4952 
 10838      516E00
 10839              	.LASF845:
 10840 5942 66656174 		.ascii	"featureMask\000"
 10840      7572654D 
 10840      61736B00 
 10841              	.LASF409:
 10842 594e 54585F52 		.ascii	"TX_RX_ON_DELAY\000"
 10842      585F4F4E 
 10842      5F44454C 
ARM GAS  C:\Users\Nazar\AppData\Local\Temp\ccWQ1kO8.s 			page 285


 10842      415900
 10843              	.LASF522:
 10844 595d 4D4D4D53 		.ascii	"MMMS_CONN_STATUS\000"
 10844      5F434F4E 
 10844      4E5F5354 
 10844      41545553 
 10844      00
 10845              	.LASF111:
 10846 596e 50656E64 		.ascii	"PendSV_IRQn\000"
 10846      53565F49 
 10846      52516E00 
 10847              	.LASF760:
 10848 597a 43595F42 		.ascii	"CY_BLE_EVT_GATTS_WRITE_REQ\000"
 10848      4C455F45 
 10848      56545F47 
 10848      41545453 
 10848      5F575249 
 10849              	.LASF674:
 10850 5995 43595F42 		.ascii	"CY_BLE_EVT_FLASH_CORRUPT\000"
 10850      4C455F45 
 10850      56545F46 
 10850      4C415348 
 10850      5F434F52 
 10851              	.LASF652:
 10852 59ae 43595F53 		.ascii	"CY_SYSPM_CHECK_READY\000"
 10852      5953504D 
 10852      5F434845 
 10852      434B5F52 
 10852      45414459 
 10853              	.LASF172:
 10854 59c3 63707573 		.ascii	"cpuss_interrupts_ipc_0_IRQn\000"
 10854      735F696E 
 10854      74657272 
 10854      75707473 
 10854      5F697063 
 10855              	.LASF1053:
 10856 59df 43595F49 		.ascii	"CY_IPC_SEMA_OUT_OF_RANGE\000"
 10856      50435F53 
 10856      454D415F 
 10856      4F55545F 
 10856      4F465F52 
 10857              	.LASF1029:
 10858 59f8 73656375 		.ascii	"securityPairingMethod\000"
 10858      72697479 
 10858      50616972 
 10858      696E674D 
 10858      6574686F 
 10859              	.LASF170:
 10860 5a0e 70617373 		.ascii	"pass_interrupt_ctbs_IRQn\000"
 10860      5F696E74 
 10860      65727275 
 10860      70745F63 
 10860      7462735F 
 10861              	.LASF637:
 10862 5a27 43595F53 		.ascii	"CY_SYSPM_SUCCESS\000"
 10862      5953504D 
 10862      5F535543 
ARM GAS  C:\Users\Nazar\AppData\Local\Temp\ccWQ1kO8.s 			page 286


 10862      43455353 
 10862      00
 10863              	.LASF460:
 10864 5a38 434F4E4E 		.ascii	"CONN_UPDATE_NEW_LATENCY\000"
 10864      5F555044 
 10864      4154455F 
 10864      4E45575F 
 10864      4C415445 
 10865              	.LASF603:
 10866 5a50 45465553 		.ascii	"EFUSE_WDATA_H\000"
 10866      455F5744 
 10866      4154415F 
 10866      4800
 10867              	.LASF602:
 10868 5a5e 45465553 		.ascii	"EFUSE_WDATA_L\000"
 10868      455F5744 
 10868      4154415F 
 10868      4C00
 10869              	.LASF978:
 10870 5a6c 66617374 		.ascii	"fastAdvIntervalMax\000"
 10870      41647649 
 10870      6E746572 
 10870      76616C4D 
 10870      617800
 10871              	.LASF870:
 10872 5a7f 43595F42 		.ascii	"CY_BLE_BLESS_ACTIVE\000"
 10872      4C455F42 
 10872      4C455353 
 10872      5F414354 
 10872      49564500 
 10873              	.LASF126:
 10874 5a93 4E766963 		.ascii	"NvicMux13_IRQn\000"
 10874      4D757831 
 10874      335F4952 
 10874      516E00
 10875              	.LASF385:
 10876 5aa2 43455F4C 		.ascii	"CE_LENGTH\000"
 10876      454E4754 
 10876      4800
 10877              	.LASF517:
 10878 5aac 4E455854 		.ascii	"NEXT_CONN\000"
 10878      5F434F4E 
 10878      4E00
 10879              	.LASF87:
 10880 5ab6 6770696F 		.ascii	"gpioPrtCfgInOffset\000"
 10880      50727443 
 10880      6667496E 
 10880      4F666673 
 10880      657400
 10881              	.LASF778:
 10882 5ac9 43595F42 		.ascii	"CY_BLE_EVT_L2CAP_CBFC_DISCONN_IND\000"
 10882      4C455F45 
 10882      56545F4C 
 10882      32434150 
 10882      5F434246 
 10883              	.LASF701:
 10884 5aeb 43595F42 		.ascii	"CY_BLE_EVT_SET_DEVICE_ADDR_COMPLETE\000"
ARM GAS  C:\Users\Nazar\AppData\Local\Temp\ccWQ1kO8.s 			page 287


 10884      4C455F45 
 10884      56545F53 
 10884      45545F44 
 10884      45564943 
 10885              	.LASF838:
 10886 5b0f 63795F73 		.ascii	"cy_stc_ble_mxd_pa_cal_param_t\000"
 10886      74635F62 
 10886      6C655F6D 
 10886      78645F70 
 10886      615F6361 
 10887              	.LASF643:
 10888 5b2d 63795F65 		.ascii	"cy_en_syspm_status_t\000"
 10888      6E5F7379 
 10888      73706D5F 
 10888      73746174 
 10888      75735F74 
 10889              	.LASF199:
 10890 5b42 63707573 		.ascii	"cpuss_interrupts_dw0_2_IRQn\000"
 10890      735F696E 
 10890      74657272 
 10890      75707473 
 10890      5F647730 
 10891              	.LASF810:
 10892 5b5e 43595F42 		.ascii	"CY_BLE_ERROR_NTF_DISABLED\000"
 10892      4C455F45 
 10892      52524F52 
 10892      5F4E5446 
 10892      5F444953 
 10893              	.LASF970:
 10894 5b78 73657276 		.ascii	"serviceHandle\000"
 10894      69636548 
 10894      616E646C 
 10894      6500
 10895              	.LASF1068:
 10896 5b86 43795F42 		.ascii	"Cy_BLE_Enable\000"
 10896      4C455F45 
 10896      6E61626C 
 10896      6500
 10897              	.LASF0:
 10898 5b94 756E7369 		.ascii	"unsigned int\000"
 10898      676E6564 
 10898      20696E74 
 10898      00
 10899              	.LASF369:
 10900 5ba1 57414B45 		.ascii	"WAKEUP_CONTROL\000"
 10900      55505F43 
 10900      4F4E5452 
 10900      4F4C00
 10901              	.LASF942:
 10902 5bb0 61647644 		.ascii	"advData\000"
 10902      61746100 
 10903              	.LASF188:
 10904 5bb8 7363625F 		.ascii	"scb_0_interrupt_IRQn\000"
 10904      305F696E 
 10904      74657272 
 10904      7570745F 
 10904      4952516E 
ARM GAS  C:\Users\Nazar\AppData\Local\Temp\ccWQ1kO8.s 			page 288


 10905              		.ident	"GCC: (GNU Tools for ARM Embedded Processors) 5.4.1 20160609 (release) [ARM/embedded-5-bran
