ARM GAS  C:\Users\Nazar\AppData\Local\Temp\ccWQ1kO8.s 			page 1


   1              		.syntax unified
   2              		.cpu cortex-m0plus
   3              		.fpu softvfp
   4              		.eabi_attribute 20, 1
   5              		.eabi_attribute 21, 1
   6              		.eabi_attribute 23, 3
   7              		.eabi_attribute 24, 1
   8              		.eabi_attribute 25, 1
   9              		.eabi_attribute 26, 1
  10              		.eabi_attribute 30, 1
  11              		.eabi_attribute 34, 0
  12              		.eabi_attribute 18, 4
  13              		.thumb
  14              		.syntax unified
  15              		.file	"cy_ble.c"
  16              		.text
  17              	.Ltext0:
  18              		.cfi_sections	.debug_frame
  19              		.section	.text.Cy_BLE_DeepSleepCallback,"ax",%progbits
  20              		.align	2
  21              		.global	Cy_BLE_DeepSleepCallback
  22              		.code	16
  23              		.thumb_func
  24              		.type	Cy_BLE_DeepSleepCallback, %function
  25              	Cy_BLE_DeepSleepCallback:
  26              	.LFB174:
  27              		.file 1 "Generated_Source\\PSoC6\\pdl\\middleware\\ble\\cy_ble.c"
   1:Generated_Source\PSoC6\pdl\middleware\ble/cy_ble.c **** /***************************************************************************//**
   2:Generated_Source\PSoC6\pdl\middleware\ble/cy_ble.c **** * \file cy_ble.c
   3:Generated_Source\PSoC6\pdl\middleware\ble/cy_ble.c **** * \version 2.90
   4:Generated_Source\PSoC6\pdl\middleware\ble/cy_ble.c **** *
   5:Generated_Source\PSoC6\pdl\middleware\ble/cy_ble.c **** * \brief
   6:Generated_Source\PSoC6\pdl\middleware\ble/cy_ble.c **** *  This file contains the source code for the API of the BLE Middleware.
   7:Generated_Source\PSoC6\pdl\middleware\ble/cy_ble.c **** *
   8:Generated_Source\PSoC6\pdl\middleware\ble/cy_ble.c **** ********************************************************************************
   9:Generated_Source\PSoC6\pdl\middleware\ble/cy_ble.c **** * \copyright
  10:Generated_Source\PSoC6\pdl\middleware\ble/cy_ble.c **** * Copyright 2017-2023, Cypress Semiconductor Corporation.  All rights reserved.
  11:Generated_Source\PSoC6\pdl\middleware\ble/cy_ble.c **** * You may use this file only in accordance with the license, terms, conditions,
  12:Generated_Source\PSoC6\pdl\middleware\ble/cy_ble.c **** * disclaimers, and limitations in the end user license agreement accompanying
  13:Generated_Source\PSoC6\pdl\middleware\ble/cy_ble.c **** * the software package with which this file was provided.
  14:Generated_Source\PSoC6\pdl\middleware\ble/cy_ble.c **** *******************************************************************************/
  15:Generated_Source\PSoC6\pdl\middleware\ble/cy_ble.c **** 
  16:Generated_Source\PSoC6\pdl\middleware\ble/cy_ble.c **** #include "cy_ble_event_handler.h"
  17:Generated_Source\PSoC6\pdl\middleware\ble/cy_ble.c **** #include "cy_ble_hal_pvt.h"
  18:Generated_Source\PSoC6\pdl\middleware\ble/cy_ble.c **** #include "ipc/cy_ipc_sema.h"
  19:Generated_Source\PSoC6\pdl\middleware\ble/cy_ble.c **** #include <stdlib.h>
  20:Generated_Source\PSoC6\pdl\middleware\ble/cy_ble.c **** 
  21:Generated_Source\PSoC6\pdl\middleware\ble/cy_ble.c **** /* C binding of definitions if building with C++ compiler */
  22:Generated_Source\PSoC6\pdl\middleware\ble/cy_ble.c **** #ifdef __cplusplus
  23:Generated_Source\PSoC6\pdl\middleware\ble/cy_ble.c **** extern "C" {
  24:Generated_Source\PSoC6\pdl\middleware\ble/cy_ble.c **** #endif /* __cplusplus */
  25:Generated_Source\PSoC6\pdl\middleware\ble/cy_ble.c **** 
  26:Generated_Source\PSoC6\pdl\middleware\ble/cy_ble.c **** #if (CY_BLE_HOST_CONTR_CORE)
  27:Generated_Source\PSoC6\pdl\middleware\ble/cy_ble.c **** 
  28:Generated_Source\PSoC6\pdl\middleware\ble/cy_ble.c **** /***************************************
  29:Generated_Source\PSoC6\pdl\middleware\ble/cy_ble.c **** * Global Variables
  30:Generated_Source\PSoC6\pdl\middleware\ble/cy_ble.c **** ***************************************/
ARM GAS  C:\Users\Nazar\AppData\Local\Temp\ccWQ1kO8.s 			page 2


  31:Generated_Source\PSoC6\pdl\middleware\ble/cy_ble.c **** 
  32:Generated_Source\PSoC6\pdl\middleware\ble/cy_ble.c **** /* Allocate RAM memory for the stack. This buffer can be reused by the application when
  33:Generated_Source\PSoC6\pdl\middleware\ble/cy_ble.c ****  * the BLE Middleware is stopped. For the export mode, the buffer is allocated in a heap.
  34:Generated_Source\PSoC6\pdl\middleware\ble/cy_ble.c ****  */
  35:Generated_Source\PSoC6\pdl\middleware\ble/cy_ble.c **** #if (CY_BLE_SHARING_MODE_EXPORT)
  36:Generated_Source\PSoC6\pdl\middleware\ble/cy_ble.c **** uint8_t *cy_ble_stackMemoryRam = NULL;
  37:Generated_Source\PSoC6\pdl\middleware\ble/cy_ble.c **** #else
  38:Generated_Source\PSoC6\pdl\middleware\ble/cy_ble.c **** CY_ALIGN(sizeof(uint32_t)) CY_NOINIT uint8_t cy_ble_stackMemoryRam[CY_BLE_STACK_RAM_SIZE];
  39:Generated_Source\PSoC6\pdl\middleware\ble/cy_ble.c **** #endif  /* CY_BLE_SHARING_MODE_EXPORT */
  40:Generated_Source\PSoC6\pdl\middleware\ble/cy_ble.c **** 
  41:Generated_Source\PSoC6\pdl\middleware\ble/cy_ble.c **** #if (CY_BLE_MODE_PROFILE)
  42:Generated_Source\PSoC6\pdl\middleware\ble/cy_ble.c **** /** An application layer event callback function to receive service events from the BLE Middleware.
  43:Generated_Source\PSoC6\pdl\middleware\ble/cy_ble.c **** cy_ble_callback_t Cy_BLE_ApplCallback = NULL;
  44:Generated_Source\PSoC6\pdl\middleware\ble/cy_ble.c **** 
  45:Generated_Source\PSoC6\pdl\middleware\ble/cy_ble.c **** /* BLE application IPC notification handler */
  46:Generated_Source\PSoC6\pdl\middleware\ble/cy_ble.c **** cy_ble_app_notify_callback_t Cy_BLE_HostRegisteredCallback = NULL;
  47:Generated_Source\PSoC6\pdl\middleware\ble/cy_ble.c **** #endif  /* (CY_BLE_MODE_PROFILE) */
  48:Generated_Source\PSoC6\pdl\middleware\ble/cy_ble.c **** 
  49:Generated_Source\PSoC6\pdl\middleware\ble/cy_ble.c **** #if(CY_BLE_SHARING_MODE != CY_BLE_SHARING_IMPORT)
  50:Generated_Source\PSoC6\pdl\middleware\ble/cy_ble.c **** /** Pointer to the global BLE Config structures */
  51:Generated_Source\PSoC6\pdl\middleware\ble/cy_ble.c **** cy_stc_ble_config_t *cy_ble_configPtr = NULL;
  52:Generated_Source\PSoC6\pdl\middleware\ble/cy_ble.c **** #endif /* CY_BLE_SHARING_MODE != CY_BLE_SHARING_IMPORT */
  53:Generated_Source\PSoC6\pdl\middleware\ble/cy_ble.c **** 
  54:Generated_Source\PSoC6\pdl\middleware\ble/cy_ble.c **** #if (CY_BLE_USE_DEEP_SLEEP != 0u)
  55:Generated_Source\PSoC6\pdl\middleware\ble/cy_ble.c ****   /* Structure with the syspm callback parameters for BLE deep-sleep */
  56:Generated_Source\PSoC6\pdl\middleware\ble/cy_ble.c ****   static cy_stc_syspm_callback_params_t bleDeepSleepCallbackParams = { .base = NULL};
  57:Generated_Source\PSoC6\pdl\middleware\ble/cy_ble.c ****   static cy_stc_syspm_callback_t bleDeepSleepCallback =
  58:Generated_Source\PSoC6\pdl\middleware\ble/cy_ble.c ****   {
  59:Generated_Source\PSoC6\pdl\middleware\ble/cy_ble.c ****     .callback = &Cy_BLE_DeepSleepCallback,
  60:Generated_Source\PSoC6\pdl\middleware\ble/cy_ble.c ****     .type = CY_SYSPM_DEEPSLEEP,
  61:Generated_Source\PSoC6\pdl\middleware\ble/cy_ble.c ****     .skipMode = CY_SYSPM_SKIP_BEFORE_TRANSITION | CY_SYSPM_SKIP_CHECK_FAIL,
  62:Generated_Source\PSoC6\pdl\middleware\ble/cy_ble.c ****     .callbackParams = &bleDeepSleepCallbackParams
  63:Generated_Source\PSoC6\pdl\middleware\ble/cy_ble.c ****   };
  64:Generated_Source\PSoC6\pdl\middleware\ble/cy_ble.c **** 
  65:Generated_Source\PSoC6\pdl\middleware\ble/cy_ble.c ****   /* Structure with the syspm callback parameters for BLE sleep */
  66:Generated_Source\PSoC6\pdl\middleware\ble/cy_ble.c **** #if(CY_BLE_STACK_MODE_HOST_IPC)
  67:Generated_Source\PSoC6\pdl\middleware\ble/cy_ble.c ****   static cy_stc_syspm_callback_params_t bleSleepCallbackParams = { .base = NULL};
  68:Generated_Source\PSoC6\pdl\middleware\ble/cy_ble.c ****   static cy_stc_syspm_callback_t bleSleepCallback =
  69:Generated_Source\PSoC6\pdl\middleware\ble/cy_ble.c ****   {
  70:Generated_Source\PSoC6\pdl\middleware\ble/cy_ble.c ****     .callback = &Cy_BLE_SleepCallback,
  71:Generated_Source\PSoC6\pdl\middleware\ble/cy_ble.c ****     .type = CY_SYSPM_SLEEP,
  72:Generated_Source\PSoC6\pdl\middleware\ble/cy_ble.c ****     .skipMode = CY_SYSPM_SKIP_BEFORE_TRANSITION | CY_SYSPM_SKIP_CHECK_FAIL,
  73:Generated_Source\PSoC6\pdl\middleware\ble/cy_ble.c ****     .callbackParams = &bleSleepCallbackParams
  74:Generated_Source\PSoC6\pdl\middleware\ble/cy_ble.c ****   };
  75:Generated_Source\PSoC6\pdl\middleware\ble/cy_ble.c **** #endif /* CY_BLE_STACK_MODE_HOST_IPC */
  76:Generated_Source\PSoC6\pdl\middleware\ble/cy_ble.c **** #endif  /* (CY_BLE_USE_DEEP_SLEEP != 0u) */
  77:Generated_Source\PSoC6\pdl\middleware\ble/cy_ble.c **** 
  78:Generated_Source\PSoC6\pdl\middleware\ble/cy_ble.c **** #if (CY_BLE_INTR_NOTIFY_FEATURE_ENABLED) && (CY_BLE_MODE_PROFILE)
  79:Generated_Source\PSoC6\pdl\middleware\ble/cy_ble.c **** /** BLE interrupt notification structure */
  80:Generated_Source\PSoC6\pdl\middleware\ble/cy_ble.c **** cy_stc_ble_intr_notify_t intrNotify =
  81:Generated_Source\PSoC6\pdl\middleware\ble/cy_ble.c **** {
  82:Generated_Source\PSoC6\pdl\middleware\ble/cy_ble.c ****     .clientID = CY_BLE_CYPIPE_MSG_INTR_NOTIFY_ID,
  83:Generated_Source\PSoC6\pdl\middleware\ble/cy_ble.c ****     .pktType  = 0xFFu
  84:Generated_Source\PSoC6\pdl\middleware\ble/cy_ble.c **** };
  85:Generated_Source\PSoC6\pdl\middleware\ble/cy_ble.c **** #endif /*(CY_BLE_INTR_NOTIFY_FEATURE_ENABLED) && (CY_BLE_MODE_PROFILE) */
  86:Generated_Source\PSoC6\pdl\middleware\ble/cy_ble.c **** 
  87:Generated_Source\PSoC6\pdl\middleware\ble/cy_ble.c **** 
ARM GAS  C:\Users\Nazar\AppData\Local\Temp\ccWQ1kO8.s 			page 3


  88:Generated_Source\PSoC6\pdl\middleware\ble/cy_ble.c **** /******************************************************************************
  89:Generated_Source\PSoC6\pdl\middleware\ble/cy_ble.c **** * Function Name: Cy_BLE_UnregisterHostPMCallbacks
  90:Generated_Source\PSoC6\pdl\middleware\ble/cy_ble.c **** ***************************************************************************//**
  91:Generated_Source\PSoC6\pdl\middleware\ble/cy_ble.c **** *
  92:Generated_Source\PSoC6\pdl\middleware\ble/cy_ble.c **** *  Unregister BLE callback for Deepsleep/Sleep
  93:Generated_Source\PSoC6\pdl\middleware\ble/cy_ble.c **** *
  94:Generated_Source\PSoC6\pdl\middleware\ble/cy_ble.c **** ******************************************************************************/
  95:Generated_Source\PSoC6\pdl\middleware\ble/cy_ble.c **** void Cy_BLE_UnregisterHostPMCallbacks(void)
  96:Generated_Source\PSoC6\pdl\middleware\ble/cy_ble.c **** {
  97:Generated_Source\PSoC6\pdl\middleware\ble/cy_ble.c ****     #if (CY_BLE_USE_DEEP_SLEEP != 0u)
  98:Generated_Source\PSoC6\pdl\middleware\ble/cy_ble.c ****         /* Unregister BLE callback for Deepsleep support */
  99:Generated_Source\PSoC6\pdl\middleware\ble/cy_ble.c ****         (void)Cy_SysPm_UnregisterCallback(&bleDeepSleepCallback);
 100:Generated_Source\PSoC6\pdl\middleware\ble/cy_ble.c **** 
 101:Generated_Source\PSoC6\pdl\middleware\ble/cy_ble.c ****         /* Unregister sleep mode callback only in dual core mode for the host core */
 102:Generated_Source\PSoC6\pdl\middleware\ble/cy_ble.c ****         #if(CY_BLE_STACK_MODE_HOST_IPC)
 103:Generated_Source\PSoC6\pdl\middleware\ble/cy_ble.c ****             /* Unregister BLE callback for Sleep support */
 104:Generated_Source\PSoC6\pdl\middleware\ble/cy_ble.c ****             (void)Cy_SysPm_UnregisterCallback(&bleSleepCallback);
 105:Generated_Source\PSoC6\pdl\middleware\ble/cy_ble.c ****         #endif /* ( CY_BLE_STACK_MODE_HOST_IPC) */
 106:Generated_Source\PSoC6\pdl\middleware\ble/cy_ble.c ****     #endif /* (CY_BLE_USE_DEEP_SLEEP != 0u) */
 107:Generated_Source\PSoC6\pdl\middleware\ble/cy_ble.c **** }
 108:Generated_Source\PSoC6\pdl\middleware\ble/cy_ble.c **** 
 109:Generated_Source\PSoC6\pdl\middleware\ble/cy_ble.c **** /**
 110:Generated_Source\PSoC6\pdl\middleware\ble/cy_ble.c ****  * \addtogroup group_ble_common_api_functions
 111:Generated_Source\PSoC6\pdl\middleware\ble/cy_ble.c ****  * @{
 112:Generated_Source\PSoC6\pdl\middleware\ble/cy_ble.c ****  */
 113:Generated_Source\PSoC6\pdl\middleware\ble/cy_ble.c **** 
 114:Generated_Source\PSoC6\pdl\middleware\ble/cy_ble.c **** /******************************************************************************
 115:Generated_Source\PSoC6\pdl\middleware\ble/cy_ble.c **** * Function Name: Cy_BLE_Init
 116:Generated_Source\PSoC6\pdl\middleware\ble/cy_ble.c **** ***************************************************************************//**
 117:Generated_Source\PSoC6\pdl\middleware\ble/cy_ble.c **** *
 118:Generated_Source\PSoC6\pdl\middleware\ble/cy_ble.c **** *  Initializes the BLE Middleware.
 119:Generated_Source\PSoC6\pdl\middleware\ble/cy_ble.c **** *
 120:Generated_Source\PSoC6\pdl\middleware\ble/cy_ble.c **** *
 121:Generated_Source\PSoC6\pdl\middleware\ble/cy_ble.c **** *  \param config: The configuration structure for the BLE Middleware.
 122:Generated_Source\PSoC6\pdl\middleware\ble/cy_ble.c **** *
 123:Generated_Source\PSoC6\pdl\middleware\ble/cy_ble.c **** * \return
 124:Generated_Source\PSoC6\pdl\middleware\ble/cy_ble.c **** * \ref cy_en_ble_api_result_t : Return value indicates if the function succeeded or
 125:Generated_Source\PSoC6\pdl\middleware\ble/cy_ble.c **** *  failed. The following are possible error codes.
 126:Generated_Source\PSoC6\pdl\middleware\ble/cy_ble.c **** *
 127:Generated_Source\PSoC6\pdl\middleware\ble/cy_ble.c **** *   Error codes                     | Description
 128:Generated_Source\PSoC6\pdl\middleware\ble/cy_ble.c **** *   ------------                    | -----------
 129:Generated_Source\PSoC6\pdl\middleware\ble/cy_ble.c **** *   CY_BLE_SUCCESS                  | The function completed successfully.
 130:Generated_Source\PSoC6\pdl\middleware\ble/cy_ble.c **** *   CY_BLE_ERROR_INVALID_PARAMETER  | On specifying NULL as the input parameter.
 131:Generated_Source\PSoC6\pdl\middleware\ble/cy_ble.c **** *
 132:Generated_Source\PSoC6\pdl\middleware\ble/cy_ble.c **** ******************************************************************************/
 133:Generated_Source\PSoC6\pdl\middleware\ble/cy_ble.c **** cy_en_ble_api_result_t Cy_BLE_Init(cy_stc_ble_config_t *config)
 134:Generated_Source\PSoC6\pdl\middleware\ble/cy_ble.c **** {
 135:Generated_Source\PSoC6\pdl\middleware\ble/cy_ble.c ****     cy_en_ble_api_result_t apiResult = CY_BLE_SUCCESS;
 136:Generated_Source\PSoC6\pdl\middleware\ble/cy_ble.c **** 
 137:Generated_Source\PSoC6\pdl\middleware\ble/cy_ble.c ****     if(config == NULL)
 138:Generated_Source\PSoC6\pdl\middleware\ble/cy_ble.c ****     {
 139:Generated_Source\PSoC6\pdl\middleware\ble/cy_ble.c ****         apiResult = CY_BLE_ERROR_INVALID_PARAMETER;
 140:Generated_Source\PSoC6\pdl\middleware\ble/cy_ble.c ****     }
 141:Generated_Source\PSoC6\pdl\middleware\ble/cy_ble.c ****     else
 142:Generated_Source\PSoC6\pdl\middleware\ble/cy_ble.c ****     {
 143:Generated_Source\PSoC6\pdl\middleware\ble/cy_ble.c ****         /* Register a pointer to the config structure */
 144:Generated_Source\PSoC6\pdl\middleware\ble/cy_ble.c ****         cy_ble_configPtr = config;
ARM GAS  C:\Users\Nazar\AppData\Local\Temp\ccWQ1kO8.s 			page 4


 145:Generated_Source\PSoC6\pdl\middleware\ble/cy_ble.c **** 
 146:Generated_Source\PSoC6\pdl\middleware\ble/cy_ble.c ****     #if (CY_BLE_MODE_PROFILE)
 147:Generated_Source\PSoC6\pdl\middleware\ble/cy_ble.c ****         /* Register a callback function via the config structure */
 148:Generated_Source\PSoC6\pdl\middleware\ble/cy_ble.c ****         if(cy_ble_configPtr->callbackFunc != NULL)
 149:Generated_Source\PSoC6\pdl\middleware\ble/cy_ble.c ****         {
 150:Generated_Source\PSoC6\pdl\middleware\ble/cy_ble.c ****             Cy_BLE_ApplCallback = cy_ble_configPtr->callbackFunc;
 151:Generated_Source\PSoC6\pdl\middleware\ble/cy_ble.c ****         }
 152:Generated_Source\PSoC6\pdl\middleware\ble/cy_ble.c ****         cy_ble_eventHandlerFlag = 0u;
 153:Generated_Source\PSoC6\pdl\middleware\ble/cy_ble.c ****         (void)memset((uint8_t*)&cy_ble_busyStatus, 0, sizeof(cy_ble_busyStatus));
 154:Generated_Source\PSoC6\pdl\middleware\ble/cy_ble.c **** 
 155:Generated_Source\PSoC6\pdl\middleware\ble/cy_ble.c ****         cy_ble_cmdStatus = 0u;
 156:Generated_Source\PSoC6\pdl\middleware\ble/cy_ble.c **** 
 157:Generated_Source\PSoC6\pdl\middleware\ble/cy_ble.c ****         #if (CY_BLE_GATT_ROLE_CLIENT)
 158:Generated_Source\PSoC6\pdl\middleware\ble/cy_ble.c ****         {
 159:Generated_Source\PSoC6\pdl\middleware\ble/cy_ble.c ****             uint32_t idx;
 160:Generated_Source\PSoC6\pdl\middleware\ble/cy_ble.c ****             (void)memset(&cy_ble_serverInfo, 0, sizeof(cy_ble_serverInfo));
 161:Generated_Source\PSoC6\pdl\middleware\ble/cy_ble.c ****             (void)memset(cy_ble_connHandle, -1, sizeof(cy_ble_connHandle));
 162:Generated_Source\PSoC6\pdl\middleware\ble/cy_ble.c ****             (void)memset(&cy_ble_discovery, 0, sizeof(cy_ble_discovery));
 163:Generated_Source\PSoC6\pdl\middleware\ble/cy_ble.c **** 
 164:Generated_Source\PSoC6\pdl\middleware\ble/cy_ble.c ****             /* Update cy_ble_discovery[].connIndex with init values (CY_BLE_INVALID_CONN_HANDLE_VAL
 165:Generated_Source\PSoC6\pdl\middleware\ble/cy_ble.c ****             for(idx = 0u; idx < CY_BLE_GATTC_COUNT; idx++)
 166:Generated_Source\PSoC6\pdl\middleware\ble/cy_ble.c ****             {
 167:Generated_Source\PSoC6\pdl\middleware\ble/cy_ble.c ****                 cy_ble_discovery[idx].connIndex = CY_BLE_INVALID_CONN_HANDLE_VALUE;
 168:Generated_Source\PSoC6\pdl\middleware\ble/cy_ble.c ****             }
 169:Generated_Source\PSoC6\pdl\middleware\ble/cy_ble.c ****         }
 170:Generated_Source\PSoC6\pdl\middleware\ble/cy_ble.c ****         #endif /* CY_BLE_GATT_ROLE_CLIENT */
 171:Generated_Source\PSoC6\pdl\middleware\ble/cy_ble.c **** 
 172:Generated_Source\PSoC6\pdl\middleware\ble/cy_ble.c ****         #if (CY_BLE_GAP_ROLE_PERIPHERAL || CY_BLE_GAP_ROLE_BROADCASTER)
 173:Generated_Source\PSoC6\pdl\middleware\ble/cy_ble.c ****         cy_ble_advertisingIntervalType = CY_BLE_ADVERTISING_FAST;
 174:Generated_Source\PSoC6\pdl\middleware\ble/cy_ble.c ****         #endif /* (CY_BLE_GAP_ROLE_PERIPHERAL || CY_BLE_GAP_ROLE_BROADCASTER)  */
 175:Generated_Source\PSoC6\pdl\middleware\ble/cy_ble.c **** 
 176:Generated_Source\PSoC6\pdl\middleware\ble/cy_ble.c ****         #if (CY_BLE_GAP_ROLE_CENTRAL || CY_BLE_GAP_ROLE_OBSERVER)
 177:Generated_Source\PSoC6\pdl\middleware\ble/cy_ble.c ****         cy_ble_scanningIntervalType = CY_BLE_SCANNING_FAST;
 178:Generated_Source\PSoC6\pdl\middleware\ble/cy_ble.c ****         #endif /* (CY_BLE_GAP_ROLE_CENTRAL || CY_BLE_GAP_ROLE_OBSERVER) */
 179:Generated_Source\PSoC6\pdl\middleware\ble/cy_ble.c **** 
 180:Generated_Source\PSoC6\pdl\middleware\ble/cy_ble.c ****         Cy_BLE_ServiceInit();
 181:Generated_Source\PSoC6\pdl\middleware\ble/cy_ble.c **** 
 182:Generated_Source\PSoC6\pdl\middleware\ble/cy_ble.c ****         #if ((CY_BLE_GAP_ROLE_PERIPHERAL || CY_BLE_GAP_ROLE_CENTRAL) && (CY_BLE_BONDING_REQUIREMENT
 183:Generated_Source\PSoC6\pdl\middleware\ble/cy_ble.c ****         cy_ble_pendingFlashWrite = 0u;
 184:Generated_Source\PSoC6\pdl\middleware\ble/cy_ble.c ****         (void)memset(cy_ble_peerBonding, (int8_t)CY_BLE_GAP_BONDING_NONE, sizeof(cy_ble_peerBonding
 185:Generated_Source\PSoC6\pdl\middleware\ble/cy_ble.c ****         #endif /* (CY_BLE_BONDING_REQUIREMENT == CY_BLE_BONDING_YES) */
 186:Generated_Source\PSoC6\pdl\middleware\ble/cy_ble.c ****     #endif     /* (CY_BLE_MODE_PROFILE) */
 187:Generated_Source\PSoC6\pdl\middleware\ble/cy_ble.c ****     }
 188:Generated_Source\PSoC6\pdl\middleware\ble/cy_ble.c **** 
 189:Generated_Source\PSoC6\pdl\middleware\ble/cy_ble.c ****     return(apiResult);
 190:Generated_Source\PSoC6\pdl\middleware\ble/cy_ble.c **** }
 191:Generated_Source\PSoC6\pdl\middleware\ble/cy_ble.c **** /** @} */
 192:Generated_Source\PSoC6\pdl\middleware\ble/cy_ble.c **** 
 193:Generated_Source\PSoC6\pdl\middleware\ble/cy_ble.c **** /******************************************************************************
 194:Generated_Source\PSoC6\pdl\middleware\ble/cy_ble.c **** * Function Name: Cy_BLE_Enable
 195:Generated_Source\PSoC6\pdl\middleware\ble/cy_ble.c **** ***************************************************************************//**
 196:Generated_Source\PSoC6\pdl\middleware\ble/cy_ble.c **** *
 197:Generated_Source\PSoC6\pdl\middleware\ble/cy_ble.c **** *  Initializes and starts the BLE Stack.
 198:Generated_Source\PSoC6\pdl\middleware\ble/cy_ble.c **** *
 199:Generated_Source\PSoC6\pdl\middleware\ble/cy_ble.c **** *  Calling this function results in generation of a #CY_BLE_EVT_STACK_ON event
 200:Generated_Source\PSoC6\pdl\middleware\ble/cy_ble.c **** *  on successful initialization of the BLE Stack.
 201:Generated_Source\PSoC6\pdl\middleware\ble/cy_ble.c **** *
ARM GAS  C:\Users\Nazar\AppData\Local\Temp\ccWQ1kO8.s 			page 5


 202:Generated_Source\PSoC6\pdl\middleware\ble/cy_ble.c **** *  BLE Stack enables the BLE ECO clock automatically with the default
 203:Generated_Source\PSoC6\pdl\middleware\ble/cy_ble.c **** *  parameters:
 204:Generated_Source\PSoC6\pdl\middleware\ble/cy_ble.c **** *     Parameter            | Value
 205:Generated_Source\PSoC6\pdl\middleware\ble/cy_ble.c **** *     -------------------- | -----------
 206:Generated_Source\PSoC6\pdl\middleware\ble/cy_ble.c **** *     ECO Frequency        | CY_BLE_DEFAULT_ECO_FREQ
 207:Generated_Source\PSoC6\pdl\middleware\ble/cy_ble.c **** *     Divider              | CY_BLE_DEFAULT_ECO_DIV
 208:Generated_Source\PSoC6\pdl\middleware\ble/cy_ble.c **** *     Startup time         | CY_BLE_DEFAULT_OSC_STARTUP_DELAY_LF
 209:Generated_Source\PSoC6\pdl\middleware\ble/cy_ble.c **** *     Load cap             | CY_BLE_DEFAULT_CAP_TRIM_VALUE
 210:Generated_Source\PSoC6\pdl\middleware\ble/cy_ble.c **** *
 211:Generated_Source\PSoC6\pdl\middleware\ble/cy_ble.c **** *  If there is a need to start the BLE with non-default ECO parameters,
 212:Generated_Source\PSoC6\pdl\middleware\ble/cy_ble.c **** *  call the Cy_BLE_EcoStart() function with the custom configuration each
 213:Generated_Source\PSoC6\pdl\middleware\ble/cy_ble.c **** *  time before calling the Cy_BLE_Enable() function.
 214:Generated_Source\PSoC6\pdl\middleware\ble/cy_ble.c **** *
 215:Generated_Source\PSoC6\pdl\middleware\ble/cy_ble.c **** *  This function initializes the BLE Stack which consists of the BLE Stack
 216:Generated_Source\PSoC6\pdl\middleware\ble/cy_ble.c **** *  Manager, BLE Controller, and BLE Host modules. It takes care of initializing
 217:Generated_Source\PSoC6\pdl\middleware\ble/cy_ble.c **** *  the Profile layer, schedulers, Timer and other platform-related resources
 218:Generated_Source\PSoC6\pdl\middleware\ble/cy_ble.c **** *  required for the BLE Middleware. It also registers the callback function for
 219:Generated_Source\PSoC6\pdl\middleware\ble/cy_ble.c **** *  BLE events that will be registered in the BLE stack.
 220:Generated_Source\PSoC6\pdl\middleware\ble/cy_ble.c **** *
 221:Generated_Source\PSoC6\pdl\middleware\ble/cy_ble.c **** *  Note that this function does not reset the BLE Stack.
 222:Generated_Source\PSoC6\pdl\middleware\ble/cy_ble.c **** *
 223:Generated_Source\PSoC6\pdl\middleware\ble/cy_ble.c **** *  For the HCI-Mode of operation, this function will not initialize the BLE Host
 224:Generated_Source\PSoC6\pdl\middleware\ble/cy_ble.c **** *  module.
 225:Generated_Source\PSoC6\pdl\middleware\ble/cy_ble.c **** *
 226:Generated_Source\PSoC6\pdl\middleware\ble/cy_ble.c **** *  Calling this function results in generation of a #CY_BLE_EVT_STACK_ON event
 227:Generated_Source\PSoC6\pdl\middleware\ble/cy_ble.c **** *  on successful initialization of the BLE Stack.
 228:Generated_Source\PSoC6\pdl\middleware\ble/cy_ble.c **** *
 229:Generated_Source\PSoC6\pdl\middleware\ble/cy_ble.c **** *  In the Dual Core mode, this function should be called on both cores in the
 230:Generated_Source\PSoC6\pdl\middleware\ble/cy_ble.c **** *  following sequence:
 231:Generated_Source\PSoC6\pdl\middleware\ble/cy_ble.c **** *   - call this function on CM0+ core to initialize the Controller.
 232:Generated_Source\PSoC6\pdl\middleware\ble/cy_ble.c **** *   - start CM4 core by calling Cy_SysEnableCM4() function.
 233:Generated_Source\PSoC6\pdl\middleware\ble/cy_ble.c **** *   - call this function on CM4 core to initialize the Host and Profiles.
 234:Generated_Source\PSoC6\pdl\middleware\ble/cy_ble.c **** *
 235:Generated_Source\PSoC6\pdl\middleware\ble/cy_ble.c **** *   BLE requires a call to Cy_IPC_SystemSemaInit() and Cy_IPC_SystemPipeInit() functions
 236:Generated_Source\PSoC6\pdl\middleware\ble/cy_ble.c **** *    before use.
 237:Generated_Source\PSoC6\pdl\middleware\ble/cy_ble.c **** *
 238:Generated_Source\PSoC6\pdl\middleware\ble/cy_ble.c **** *    This function is called in the SystemInit() function, for proper flash write
 239:Generated_Source\PSoC6\pdl\middleware\ble/cy_ble.c **** *    and erase operations. If the default startup file is not used, or the function
 240:Generated_Source\PSoC6\pdl\middleware\ble/cy_ble.c **** *    SystemInit() is not called in your project, call the following functions:
 241:Generated_Source\PSoC6\pdl\middleware\ble/cy_ble.c **** *    -# Cy_IPC_SystemSemaInit()
 242:Generated_Source\PSoC6\pdl\middleware\ble/cy_ble.c **** *    -# Cy_IPC_SystemPipeInit()
 243:Generated_Source\PSoC6\pdl\middleware\ble/cy_ble.c **** *
 244:Generated_Source\PSoC6\pdl\middleware\ble/cy_ble.c **** * \return
 245:Generated_Source\PSoC6\pdl\middleware\ble/cy_ble.c **** * \ref cy_en_ble_api_result_t : Return value indicates if the function succeeded
 246:Generated_Source\PSoC6\pdl\middleware\ble/cy_ble.c **** *      or failed. The following are possible error codes.
 247:Generated_Source\PSoC6\pdl\middleware\ble/cy_ble.c **** *
 248:Generated_Source\PSoC6\pdl\middleware\ble/cy_ble.c **** *  <table>
 249:Generated_Source\PSoC6\pdl\middleware\ble/cy_ble.c **** *    <tr>
 250:Generated_Source\PSoC6\pdl\middleware\ble/cy_ble.c **** *      <th>Error codes</th>
 251:Generated_Source\PSoC6\pdl\middleware\ble/cy_ble.c **** *      <th>Description</th>
 252:Generated_Source\PSoC6\pdl\middleware\ble/cy_ble.c **** *    </tr>
 253:Generated_Source\PSoC6\pdl\middleware\ble/cy_ble.c **** *    <tr>
 254:Generated_Source\PSoC6\pdl\middleware\ble/cy_ble.c **** *      <td>CY_BLE_SUCCESS</td>
 255:Generated_Source\PSoC6\pdl\middleware\ble/cy_ble.c **** *      <td>On successful operation.</td>
 256:Generated_Source\PSoC6\pdl\middleware\ble/cy_ble.c **** *    </tr>
 257:Generated_Source\PSoC6\pdl\middleware\ble/cy_ble.c **** *    <tr>
 258:Generated_Source\PSoC6\pdl\middleware\ble/cy_ble.c **** *      <td>CY_BLE_ERROR_REPEATED_ATTEMPTS</td>
ARM GAS  C:\Users\Nazar\AppData\Local\Temp\ccWQ1kO8.s 			page 6


 259:Generated_Source\PSoC6\pdl\middleware\ble/cy_ble.c **** *      <td>On invoking this function more than once without calling
 260:Generated_Source\PSoC6\pdl\middleware\ble/cy_ble.c **** *          Cy_BLE_Disable() function between calls to this function.</td>
 261:Generated_Source\PSoC6\pdl\middleware\ble/cy_ble.c **** *    </tr>
 262:Generated_Source\PSoC6\pdl\middleware\ble/cy_ble.c **** *    <tr>
 263:Generated_Source\PSoC6\pdl\middleware\ble/cy_ble.c **** *      <td>CY_BLE_ERROR_MEMORY_ALLOCATION_FAILED</td>
 264:Generated_Source\PSoC6\pdl\middleware\ble/cy_ble.c **** *      <td>There is insufficient memory available.</td>
 265:Generated_Source\PSoC6\pdl\middleware\ble/cy_ble.c **** *    </tr>
 266:Generated_Source\PSoC6\pdl\middleware\ble/cy_ble.c **** *  </table>
 267:Generated_Source\PSoC6\pdl\middleware\ble/cy_ble.c **** *
 268:Generated_Source\PSoC6\pdl\middleware\ble/cy_ble.c **** ******************************************************************************/
 269:Generated_Source\PSoC6\pdl\middleware\ble/cy_ble.c **** cy_en_ble_api_result_t Cy_BLE_Enable(void)
 270:Generated_Source\PSoC6\pdl\middleware\ble/cy_ble.c **** {
 271:Generated_Source\PSoC6\pdl\middleware\ble/cy_ble.c ****     cy_en_ble_api_result_t apiResult = CY_BLE_SUCCESS;
 272:Generated_Source\PSoC6\pdl\middleware\ble/cy_ble.c **** 
 273:Generated_Source\PSoC6\pdl\middleware\ble/cy_ble.c **** #if (CY_BLE_MODE_PROFILE)
 274:Generated_Source\PSoC6\pdl\middleware\ble/cy_ble.c **** 
 275:Generated_Source\PSoC6\pdl\middleware\ble/cy_ble.c ****     cy_stc_ble_stk_app_data_buff_t cy_ble_stackDataBuff[CY_BLE_STACK_APP_MIN_POOL] =
 276:Generated_Source\PSoC6\pdl\middleware\ble/cy_ble.c ****     {
 277:Generated_Source\PSoC6\pdl\middleware\ble/cy_ble.c ****         { CY_BLE_GATT_MTU_PLUS_L2CAP_MEM_EXT,   CY_BLE_GATT_MTU_BUFF_COUNT              },
 278:Generated_Source\PSoC6\pdl\middleware\ble/cy_ble.c ****         { CY_BLE_L2CAP_PSM_PLUS_L2CAP_MEM_EXT,  CY_BLE_L2CAP_PSM_COUNT                  },
 279:Generated_Source\PSoC6\pdl\middleware\ble/cy_ble.c ****         { CY_BLE_L2CAP_CBFC_PLUS_L2CAP_MEM_EXT, 2u * CY_BLE_L2CAP_LOGICAL_CHANNEL_COUNT },
 280:Generated_Source\PSoC6\pdl\middleware\ble/cy_ble.c ****         { CY_BLE_L2CAP_MTU_PLUS_L2CAP_MEM_EXT,  2u * CY_BLE_L2CAP_LOGICAL_CHANNEL_COUNT },
 281:Generated_Source\PSoC6\pdl\middleware\ble/cy_ble.c ****         { CY_BLE_GATT_DB_ATTR_BUFF_SIZE ,  1u }
 282:Generated_Source\PSoC6\pdl\middleware\ble/cy_ble.c ****     };
 283:Generated_Source\PSoC6\pdl\middleware\ble/cy_ble.c **** #endif  /* (CY_BLE_MODE_PROFILE) */
 284:Generated_Source\PSoC6\pdl\middleware\ble/cy_ble.c **** 
 285:Generated_Source\PSoC6\pdl\middleware\ble/cy_ble.c ****     cy_stc_ble_stack_init_info_t stackInitParam =
 286:Generated_Source\PSoC6\pdl\middleware\ble/cy_ble.c ****     {
 287:Generated_Source\PSoC6\pdl\middleware\ble/cy_ble.c ****     #if (CY_BLE_MODE_PROFILE)
 288:Generated_Source\PSoC6\pdl\middleware\ble/cy_ble.c ****         .CyBleAppCbFunc                      = (cy_ble_app_ev_cb_t)&Cy_BLE_EventHandler,
 289:Generated_Source\PSoC6\pdl\middleware\ble/cy_ble.c ****     #endif /* CY_BLE_MODE_PROFILE */
 290:Generated_Source\PSoC6\pdl\middleware\ble/cy_ble.c ****         .memParam                            =
 291:Generated_Source\PSoC6\pdl\middleware\ble/cy_ble.c ****         {
 292:Generated_Source\PSoC6\pdl\middleware\ble/cy_ble.c ****     #if (CY_BLE_MODE_PROFILE)
 293:Generated_Source\PSoC6\pdl\middleware\ble/cy_ble.c ****             .totalHeapSz                     = (uint16_t)(CY_BLE_STACK_RAM_SIZE - CY_BLE_GATT_PREPA
 294:Generated_Source\PSoC6\pdl\middleware\ble/cy_ble.c ****             .dataBuff                        = cy_ble_stackDataBuff,
 295:Generated_Source\PSoC6\pdl\middleware\ble/cy_ble.c ****             .totalDataBufferPools            = CY_BLE_STACK_APP_MIN_POOL,
 296:Generated_Source\PSoC6\pdl\middleware\ble/cy_ble.c **** 
 297:Generated_Source\PSoC6\pdl\middleware\ble/cy_ble.c ****         #if (CY_BLE_BONDING_REQUIREMENT == CY_BLE_BONDING_YES)
 298:Generated_Source\PSoC6\pdl\middleware\ble/cy_ble.c ****             .bleStackFlashPointer            = (const uint8_t*)cy_ble_configPtr->flashStorage->stac
 299:Generated_Source\PSoC6\pdl\middleware\ble/cy_ble.c ****             .bleStackFlashSize               = CY_BLE_STACK_FLASH_SIZE,
 300:Generated_Source\PSoC6\pdl\middleware\ble/cy_ble.c ****         #endif  /* CY_BLE_BONDING_REQUIREMENT == CY_BLE_BONDING_YES */
 301:Generated_Source\PSoC6\pdl\middleware\ble/cy_ble.c ****     #else
 302:Generated_Source\PSoC6\pdl\middleware\ble/cy_ble.c ****             .totalHeapSz                     = CY_BLE_STACK_RAM_SIZE,
 303:Generated_Source\PSoC6\pdl\middleware\ble/cy_ble.c ****     #endif /* CY_BLE_MODE_PROFILE */
 304:Generated_Source\PSoC6\pdl\middleware\ble/cy_ble.c ****         },
 305:Generated_Source\PSoC6\pdl\middleware\ble/cy_ble.c ****         .stackConfig                         =
 306:Generated_Source\PSoC6\pdl\middleware\ble/cy_ble.c ****         {
 307:Generated_Source\PSoC6\pdl\middleware\ble/cy_ble.c ****             /* Configure DLE */
 308:Generated_Source\PSoC6\pdl\middleware\ble/cy_ble.c ****             .dleConfig.dleMaxTxCapability    = CY_BLE_LL_MAX_TX_PAYLOAD_SIZE,
 309:Generated_Source\PSoC6\pdl\middleware\ble/cy_ble.c ****             .dleConfig.dleMaxRxCapability    = CY_BLE_LL_MAX_RX_PAYLOAD_SIZE,
 310:Generated_Source\PSoC6\pdl\middleware\ble/cy_ble.c ****             .dleConfig.dleNumTxBuffer        = CY_BLE_LL_DEFAULT_NUM_ACL_TX_PACKETS,
 311:Generated_Source\PSoC6\pdl\middleware\ble/cy_ble.c ****             .dleConfig.dleNumRxBuffer        = CY_BLE_LL_DEFAULT_NUM_ACL_RX_PACKETS,
 312:Generated_Source\PSoC6\pdl\middleware\ble/cy_ble.c **** 
 313:Generated_Source\PSoC6\pdl\middleware\ble/cy_ble.c ****         #if (CY_BLE_MODE_PROFILE)
 314:Generated_Source\PSoC6\pdl\middleware\ble/cy_ble.c ****             /* Configure queue */
 315:Generated_Source\PSoC6\pdl\middleware\ble/cy_ble.c ****             .l2capConfig.l2capBufferPerConn  = CY_BLE_L2CAP_Q_DEPTH_PER_CONN,
ARM GAS  C:\Users\Nazar\AppData\Local\Temp\ccWQ1kO8.s 			page 7


 316:Generated_Source\PSoC6\pdl\middleware\ble/cy_ble.c ****         #endif /* (CY_BLE_MODE_PROFILE) */
 317:Generated_Source\PSoC6\pdl\middleware\ble/cy_ble.c **** 
 318:Generated_Source\PSoC6\pdl\middleware\ble/cy_ble.c ****             /* Configure LL Privacy */
 319:Generated_Source\PSoC6\pdl\middleware\ble/cy_ble.c ****             .privacyConfig.resolvingListSize = CY_BLE_MAX_RESOLVABLE_DEVICES,
 320:Generated_Source\PSoC6\pdl\middleware\ble/cy_ble.c **** 
 321:Generated_Source\PSoC6\pdl\middleware\ble/cy_ble.c ****             /* Configure bonded device list */
 322:Generated_Source\PSoC6\pdl\middleware\ble/cy_ble.c ****             .bondListConfig.bondListSize     = CY_BLE_MAX_BONDED_DEVICES,
 323:Generated_Source\PSoC6\pdl\middleware\ble/cy_ble.c **** 
 324:Generated_Source\PSoC6\pdl\middleware\ble/cy_ble.c ****             /* Configure white list */
 325:Generated_Source\PSoC6\pdl\middleware\ble/cy_ble.c ****             .whiteListConfig.whiteListSize   = CY_BLE_MAX_WHITE_LIST_SIZE,
 326:Generated_Source\PSoC6\pdl\middleware\ble/cy_ble.c **** 
 327:Generated_Source\PSoC6\pdl\middleware\ble/cy_ble.c ****             .featureMask                     = (CY_BLE_DLE_FEATURE | CY_BLE_LL_PRIVACY_FEATURE |
 328:Generated_Source\PSoC6\pdl\middleware\ble/cy_ble.c ****                                                 CY_BLE_SECURE_CONN_FEATURE | CY_BLE_PHY_UPDATE_FEAT
 329:Generated_Source\PSoC6\pdl\middleware\ble/cy_ble.c ****                                                 CY_BLE_STORE_BONDLIST_FEATURE | CY_BLE_STORE_RESOLV
 330:Generated_Source\PSoC6\pdl\middleware\ble/cy_ble.c ****                                                 CY_BLE_STORE_WHITELIST_FEATURE | CY_BLE_TX_POWER_CA
 331:Generated_Source\PSoC6\pdl\middleware\ble/cy_ble.c ****             .maxBleConnections               = CY_BLE_CONN_COUNT
 332:Generated_Source\PSoC6\pdl\middleware\ble/cy_ble.c ****         }
 333:Generated_Source\PSoC6\pdl\middleware\ble/cy_ble.c ****     };
 334:Generated_Source\PSoC6\pdl\middleware\ble/cy_ble.c **** 
 335:Generated_Source\PSoC6\pdl\middleware\ble/cy_ble.c **** #if (CY_BLE_USE_DEEP_SLEEP != 0u)
 336:Generated_Source\PSoC6\pdl\middleware\ble/cy_ble.c ****     /* Register BLE callback for Deepsleep support */
 337:Generated_Source\PSoC6\pdl\middleware\ble/cy_ble.c ****     (void)Cy_SysPm_RegisterCallback(&bleDeepSleepCallback);
 338:Generated_Source\PSoC6\pdl\middleware\ble/cy_ble.c **** 
 339:Generated_Source\PSoC6\pdl\middleware\ble/cy_ble.c ****     /* Register Sleep mode callback only in dual core mode for the host core */
 340:Generated_Source\PSoC6\pdl\middleware\ble/cy_ble.c ****     #if(CY_BLE_STACK_MODE_HOST_IPC)
 341:Generated_Source\PSoC6\pdl\middleware\ble/cy_ble.c ****     {
 342:Generated_Source\PSoC6\pdl\middleware\ble/cy_ble.c ****         /* Register BLE callback for Sleep support */
 343:Generated_Source\PSoC6\pdl\middleware\ble/cy_ble.c ****         (void)Cy_SysPm_RegisterCallback(&bleSleepCallback);
 344:Generated_Source\PSoC6\pdl\middleware\ble/cy_ble.c ****     }
 345:Generated_Source\PSoC6\pdl\middleware\ble/cy_ble.c ****     #endif /* (CY_BLE_STACK_MODE_HOST_IPC) */
 346:Generated_Source\PSoC6\pdl\middleware\ble/cy_ble.c **** #endif  /* (CY_BLE_USE_DEEP_SLEEP != 0u) */
 347:Generated_Source\PSoC6\pdl\middleware\ble/cy_ble.c **** 
 348:Generated_Source\PSoC6\pdl\middleware\ble/cy_ble.c **** #if(CY_BLE_SHARING_MODE_EXPORT)
 349:Generated_Source\PSoC6\pdl\middleware\ble/cy_ble.c ****     if(cy_ble_stackMemoryRam == NULL)
 350:Generated_Source\PSoC6\pdl\middleware\ble/cy_ble.c ****     {
 351:Generated_Source\PSoC6\pdl\middleware\ble/cy_ble.c ****         cy_ble_stackMemoryRam = (uint8 *)malloc(CY_BLE_STACK_RAM_SIZE);
 352:Generated_Source\PSoC6\pdl\middleware\ble/cy_ble.c ****         if(cy_ble_stackMemoryRam == NULL)
 353:Generated_Source\PSoC6\pdl\middleware\ble/cy_ble.c ****         {
 354:Generated_Source\PSoC6\pdl\middleware\ble/cy_ble.c ****             apiResult = CY_BLE_ERROR_MEMORY_ALLOCATION_FAILED;
 355:Generated_Source\PSoC6\pdl\middleware\ble/cy_ble.c ****         }
 356:Generated_Source\PSoC6\pdl\middleware\ble/cy_ble.c ****     }
 357:Generated_Source\PSoC6\pdl\middleware\ble/cy_ble.c **** #endif /* CY_BLE_SHARING_MODE_EXPORT */
 358:Generated_Source\PSoC6\pdl\middleware\ble/cy_ble.c **** 
 359:Generated_Source\PSoC6\pdl\middleware\ble/cy_ble.c ****     if(apiResult == CY_BLE_SUCCESS)
 360:Generated_Source\PSoC6\pdl\middleware\ble/cy_ble.c ****     {
 361:Generated_Source\PSoC6\pdl\middleware\ble/cy_ble.c ****     #if (CY_BLE_DLE_FEATURE_ENABLED)
 362:Generated_Source\PSoC6\pdl\middleware\ble/cy_ble.c ****         Cy_BLE_EnableDleFeature();              /* Enable DLE code in the stack */
 363:Generated_Source\PSoC6\pdl\middleware\ble/cy_ble.c ****     #endif /* CY_BLE_DLE_FEATURE_ENABLED */
 364:Generated_Source\PSoC6\pdl\middleware\ble/cy_ble.c **** 
 365:Generated_Source\PSoC6\pdl\middleware\ble/cy_ble.c ****     #if (CY_BLE_LL_PRIVACY_FEATURE_ENABLED)
 366:Generated_Source\PSoC6\pdl\middleware\ble/cy_ble.c ****         Cy_BLE_EnablePrivacyFeature();          /* Enable LL Privacy code in the stack */
 367:Generated_Source\PSoC6\pdl\middleware\ble/cy_ble.c ****     #endif /* CY_BLE_LL_PRIVACY_FEATURE_ENABLED */
 368:Generated_Source\PSoC6\pdl\middleware\ble/cy_ble.c **** 
 369:Generated_Source\PSoC6\pdl\middleware\ble/cy_ble.c ****     #if (CY_BLE_PHY_UPDATE_FEATURE_ENABLED)
 370:Generated_Source\PSoC6\pdl\middleware\ble/cy_ble.c ****         Cy_BLE_EnablePhyUpdateFeature();        /* Enable PHY Update code in the stack */
 371:Generated_Source\PSoC6\pdl\middleware\ble/cy_ble.c ****     #endif /* CY_BLE_PHY_UPDATE_FEATURE_ENABLED */
 372:Generated_Source\PSoC6\pdl\middleware\ble/cy_ble.c **** 
ARM GAS  C:\Users\Nazar\AppData\Local\Temp\ccWQ1kO8.s 			page 8


 373:Generated_Source\PSoC6\pdl\middleware\ble/cy_ble.c ****         apiResult = Cy_BLE_StackSetFeatureConfig(&stackInitParam.stackConfig);
 374:Generated_Source\PSoC6\pdl\middleware\ble/cy_ble.c ****     }
 375:Generated_Source\PSoC6\pdl\middleware\ble/cy_ble.c **** 
 376:Generated_Source\PSoC6\pdl\middleware\ble/cy_ble.c ****     if(apiResult == CY_BLE_SUCCESS)
 377:Generated_Source\PSoC6\pdl\middleware\ble/cy_ble.c ****     {
 378:Generated_Source\PSoC6\pdl\middleware\ble/cy_ble.c ****         stackInitParam.memParam.memoryHeapPtr = cy_ble_stackMemoryRam;
 379:Generated_Source\PSoC6\pdl\middleware\ble/cy_ble.c **** 
 380:Generated_Source\PSoC6\pdl\middleware\ble/cy_ble.c ****         /* Configure parameter for Radio PA calibration */
 381:Generated_Source\PSoC6\pdl\middleware\ble/cy_ble.c ****         if(cy_ble_configPtr->paCalConfig != NULL)
 382:Generated_Source\PSoC6\pdl\middleware\ble/cy_ble.c ****         {
 383:Generated_Source\PSoC6\pdl\middleware\ble/cy_ble.c ****             stackInitParam.stackConfig.paCalConfig = *cy_ble_configPtr->paCalConfig;
 384:Generated_Source\PSoC6\pdl\middleware\ble/cy_ble.c ****         }
 385:Generated_Source\PSoC6\pdl\middleware\ble/cy_ble.c **** 
 386:Generated_Source\PSoC6\pdl\middleware\ble/cy_ble.c ****         /* Initialize the BLE Stack */
 387:Generated_Source\PSoC6\pdl\middleware\ble/cy_ble.c ****         apiResult = Cy_BLE_StackInit(&stackInitParam);
 388:Generated_Source\PSoC6\pdl\middleware\ble/cy_ble.c **** 
 389:Generated_Source\PSoC6\pdl\middleware\ble/cy_ble.c ****     #if (CY_BLE_MODE_PROFILE)
 390:Generated_Source\PSoC6\pdl\middleware\ble/cy_ble.c ****         if(apiResult == CY_BLE_SUCCESS)
 391:Generated_Source\PSoC6\pdl\middleware\ble/cy_ble.c ****         {
 392:Generated_Source\PSoC6\pdl\middleware\ble/cy_ble.c ****             Cy_BLE_SetState(CY_BLE_STATE_INITIALIZING);
 393:Generated_Source\PSoC6\pdl\middleware\ble/cy_ble.c **** 
 394:Generated_Source\PSoC6\pdl\middleware\ble/cy_ble.c ****         #if (CY_BLE_GAP_ROLE_CENTRAL || CY_BLE_GAP_ROLE_PERIPHERAL)
 395:Generated_Source\PSoC6\pdl\middleware\ble/cy_ble.c ****             (void)memset(&cy_ble_connState, 0, sizeof(cy_ble_connState));
 396:Generated_Source\PSoC6\pdl\middleware\ble/cy_ble.c ****         #endif /* (CY_BLE_GAP_ROLE_CENTRAL || CY_BLE_GAP_ROLE_PERIPHERAL) */
 397:Generated_Source\PSoC6\pdl\middleware\ble/cy_ble.c **** 
 398:Generated_Source\PSoC6\pdl\middleware\ble/cy_ble.c ****         #if (CY_BLE_GAP_ROLE_PERIPHERAL || CY_BLE_GAP_ROLE_BROADCASTER)
 399:Generated_Source\PSoC6\pdl\middleware\ble/cy_ble.c ****             Cy_BLE_SetAdvertisementState(CY_BLE_ADV_STATE_STOPPED);
 400:Generated_Source\PSoC6\pdl\middleware\ble/cy_ble.c ****         #endif  /* (CY_BLE_GAP_ROLE_PERIPHERAL || CY_BLE_GAP_ROLE_BROADCASTER) */
 401:Generated_Source\PSoC6\pdl\middleware\ble/cy_ble.c **** 
 402:Generated_Source\PSoC6\pdl\middleware\ble/cy_ble.c ****         #if (CY_BLE_GAP_ROLE_CENTRAL || CY_BLE_GAP_ROLE_OBSERVER)
 403:Generated_Source\PSoC6\pdl\middleware\ble/cy_ble.c ****             Cy_BLE_SetScanState(CY_BLE_SCAN_STATE_STOPPED);
 404:Generated_Source\PSoC6\pdl\middleware\ble/cy_ble.c ****         #endif /* (CY_BLE_GAP_ROLE_CENTRAL || CY_BLE_GAP_ROLE_OBSERVER) */
 405:Generated_Source\PSoC6\pdl\middleware\ble/cy_ble.c **** 
 406:Generated_Source\PSoC6\pdl\middleware\ble/cy_ble.c ****         #if (CY_BLE_GATT_ROLE_SERVER)
 407:Generated_Source\PSoC6\pdl\middleware\ble/cy_ble.c ****             {
 408:Generated_Source\PSoC6\pdl\middleware\ble/cy_ble.c ****                 cy_stc_ble_gatts_db_info_t dbInfoParam =
 409:Generated_Source\PSoC6\pdl\middleware\ble/cy_ble.c ****                 {
 410:Generated_Source\PSoC6\pdl\middleware\ble/cy_ble.c ****                     .gattDbPtr          = (const cy_stc_ble_gatts_db_t*)cy_ble_configPtr->gattDB,
 411:Generated_Source\PSoC6\pdl\middleware\ble/cy_ble.c ****                     .gattDbTotalEntries = cy_ble_configPtr->params->gattDbIndexCount,
 412:Generated_Source\PSoC6\pdl\middleware\ble/cy_ble.c ****                     .gattDbMaxValue     = CY_BLE_GATT_DB_MAX_VALUE_LEN
 413:Generated_Source\PSoC6\pdl\middleware\ble/cy_ble.c ****                 };
 414:Generated_Source\PSoC6\pdl\middleware\ble/cy_ble.c **** 
 415:Generated_Source\PSoC6\pdl\middleware\ble/cy_ble.c ****                 apiResult = Cy_BLE_GATTS_DbRegister(&dbInfoParam);
 416:Generated_Source\PSoC6\pdl\middleware\ble/cy_ble.c ****             }
 417:Generated_Source\PSoC6\pdl\middleware\ble/cy_ble.c ****         #endif /* CY_BLE_GATT_ROLE_SERVER */
 418:Generated_Source\PSoC6\pdl\middleware\ble/cy_ble.c ****         }
 419:Generated_Source\PSoC6\pdl\middleware\ble/cy_ble.c ****         cy_ble_cmdStatus = 0u;
 420:Generated_Source\PSoC6\pdl\middleware\ble/cy_ble.c ****     #endif /* (CY_BLE_MODE_PROFILE) */
 421:Generated_Source\PSoC6\pdl\middleware\ble/cy_ble.c ****     }
 422:Generated_Source\PSoC6\pdl\middleware\ble/cy_ble.c **** 
 423:Generated_Source\PSoC6\pdl\middleware\ble/cy_ble.c ****     return(apiResult);
 424:Generated_Source\PSoC6\pdl\middleware\ble/cy_ble.c **** }
 425:Generated_Source\PSoC6\pdl\middleware\ble/cy_ble.c **** 
 426:Generated_Source\PSoC6\pdl\middleware\ble/cy_ble.c **** 
 427:Generated_Source\PSoC6\pdl\middleware\ble/cy_ble.c **** /******************************************************************************
 428:Generated_Source\PSoC6\pdl\middleware\ble/cy_ble.c **** * Function Name: Cy_BLE_Disable
 429:Generated_Source\PSoC6\pdl\middleware\ble/cy_ble.c **** ***************************************************************************//**
ARM GAS  C:\Users\Nazar\AppData\Local\Temp\ccWQ1kO8.s 			page 9


 430:Generated_Source\PSoC6\pdl\middleware\ble/cy_ble.c **** *
 431:Generated_Source\PSoC6\pdl\middleware\ble/cy_ble.c **** *  This function stops any ongoing operation in the BLE Stack and forces the
 432:Generated_Source\PSoC6\pdl\middleware\ble/cy_ble.c **** *  BLE Stack to shut down.
 433:Generated_Source\PSoC6\pdl\middleware\ble/cy_ble.c **** *
 434:Generated_Source\PSoC6\pdl\middleware\ble/cy_ble.c **** *  Calling this function results in generation of a
 435:Generated_Source\PSoC6\pdl\middleware\ble/cy_ble.c **** *  #CY_BLE_EVT_STACK_SHUTDOWN_COMPLETE event on a successful stack shutdown.
 436:Generated_Source\PSoC6\pdl\middleware\ble/cy_ble.c **** *
 437:Generated_Source\PSoC6\pdl\middleware\ble/cy_ble.c **** *  For HCI mode:
 438:Generated_Source\PSoC6\pdl\middleware\ble/cy_ble.c **** *  This is a blocking function and no event is generated.
 439:Generated_Source\PSoC6\pdl\middleware\ble/cy_ble.c **** *  Only #CY_BLE_SUCCESS will be returned and other error codes are not applicable.
 440:Generated_Source\PSoC6\pdl\middleware\ble/cy_ble.c **** *  UART interface will be stopped and UART data will not be processed by stack
 441:Generated_Source\PSoC6\pdl\middleware\ble/cy_ble.c **** *  until Cy_BLE_Enable() is invoked.
 442:Generated_Source\PSoC6\pdl\middleware\ble/cy_ble.c **** *
 443:Generated_Source\PSoC6\pdl\middleware\ble/cy_ble.c **** * \return
 444:Generated_Source\PSoC6\pdl\middleware\ble/cy_ble.c **** * \ref cy_en_ble_api_result_t : Return value indicates if the function succeeded or
 445:Generated_Source\PSoC6\pdl\middleware\ble/cy_ble.c **** *  failed. The following are possible error codes.
 446:Generated_Source\PSoC6\pdl\middleware\ble/cy_ble.c **** *
 447:Generated_Source\PSoC6\pdl\middleware\ble/cy_ble.c **** *  <table>
 448:Generated_Source\PSoC6\pdl\middleware\ble/cy_ble.c **** *    <tr>
 449:Generated_Source\PSoC6\pdl\middleware\ble/cy_ble.c **** *      <th>Error codes</th>
 450:Generated_Source\PSoC6\pdl\middleware\ble/cy_ble.c **** *      <th>Description</th>
 451:Generated_Source\PSoC6\pdl\middleware\ble/cy_ble.c **** *    </tr>
 452:Generated_Source\PSoC6\pdl\middleware\ble/cy_ble.c **** *    <tr>
 453:Generated_Source\PSoC6\pdl\middleware\ble/cy_ble.c **** *      <td>CY_BLE_SUCCESS</td>
 454:Generated_Source\PSoC6\pdl\middleware\ble/cy_ble.c **** *      <td>On successful operation.</td>
 455:Generated_Source\PSoC6\pdl\middleware\ble/cy_ble.c **** *    </tr>
 456:Generated_Source\PSoC6\pdl\middleware\ble/cy_ble.c **** *    <tr>
 457:Generated_Source\PSoC6\pdl\middleware\ble/cy_ble.c **** *      <td>CY_BLE_ERROR_INVALID_OPERATION</td>
 458:Generated_Source\PSoC6\pdl\middleware\ble/cy_ble.c **** *      <td>On calling Cy_BLE_Disable before calling Cy_BLE_Enable()
 459:Generated_Source\PSoC6\pdl\middleware\ble/cy_ble.c **** *          or on Controller core.</td>
 460:Generated_Source\PSoC6\pdl\middleware\ble/cy_ble.c **** *    </tr>
 461:Generated_Source\PSoC6\pdl\middleware\ble/cy_ble.c **** *  </table>
 462:Generated_Source\PSoC6\pdl\middleware\ble/cy_ble.c **** *
 463:Generated_Source\PSoC6\pdl\middleware\ble/cy_ble.c **** ******************************************************************************/
 464:Generated_Source\PSoC6\pdl\middleware\ble/cy_ble.c **** cy_en_ble_api_result_t Cy_BLE_Disable(void)
 465:Generated_Source\PSoC6\pdl\middleware\ble/cy_ble.c **** {
 466:Generated_Source\PSoC6\pdl\middleware\ble/cy_ble.c ****     cy_en_ble_api_result_t apiResult;
 467:Generated_Source\PSoC6\pdl\middleware\ble/cy_ble.c **** 
 468:Generated_Source\PSoC6\pdl\middleware\ble/cy_ble.c **** #if (CY_BLE_STACK_IPC_CONTR_CORE)
 469:Generated_Source\PSoC6\pdl\middleware\ble/cy_ble.c ****     /* To stop Controller call Cy_BLE_Disable() function on Host core */
 470:Generated_Source\PSoC6\pdl\middleware\ble/cy_ble.c ****     apiResult = CY_BLE_SUCCESS;
 471:Generated_Source\PSoC6\pdl\middleware\ble/cy_ble.c **** #else
 472:Generated_Source\PSoC6\pdl\middleware\ble/cy_ble.c ****     /* Stops all ongoing activities */
 473:Generated_Source\PSoC6\pdl\middleware\ble/cy_ble.c ****     apiResult = Cy_BLE_StackShutdown();
 474:Generated_Source\PSoC6\pdl\middleware\ble/cy_ble.c **** 
 475:Generated_Source\PSoC6\pdl\middleware\ble/cy_ble.c ****     #if (CY_BLE_SHARING_MODE_EXPORT)
 476:Generated_Source\PSoC6\pdl\middleware\ble/cy_ble.c ****     if(cy_ble_stackMemoryRam != NULL)
 477:Generated_Source\PSoC6\pdl\middleware\ble/cy_ble.c ****     {
 478:Generated_Source\PSoC6\pdl\middleware\ble/cy_ble.c ****         free(cy_ble_stackMemoryRam);
 479:Generated_Source\PSoC6\pdl\middleware\ble/cy_ble.c ****     }
 480:Generated_Source\PSoC6\pdl\middleware\ble/cy_ble.c ****     #endif /* CY_BLE_SHARING_MODE_EXPORT */
 481:Generated_Source\PSoC6\pdl\middleware\ble/cy_ble.c **** #endif     /* CY_BLE_STACK_IPC_CONTR_CORE */
 482:Generated_Source\PSoC6\pdl\middleware\ble/cy_ble.c **** 
 483:Generated_Source\PSoC6\pdl\middleware\ble/cy_ble.c ****     return(apiResult);
 484:Generated_Source\PSoC6\pdl\middleware\ble/cy_ble.c **** }
 485:Generated_Source\PSoC6\pdl\middleware\ble/cy_ble.c **** 
 486:Generated_Source\PSoC6\pdl\middleware\ble/cy_ble.c **** 
ARM GAS  C:\Users\Nazar\AppData\Local\Temp\ccWQ1kO8.s 			page 10


 487:Generated_Source\PSoC6\pdl\middleware\ble/cy_ble.c **** /*******************************************************************************
 488:Generated_Source\PSoC6\pdl\middleware\ble/cy_ble.c **** * Function Name: Cy_BLE_ConfigureExtPA
 489:Generated_Source\PSoC6\pdl\middleware\ble/cy_ble.c **** ****************************************************************************//**
 490:Generated_Source\PSoC6\pdl\middleware\ble/cy_ble.c **** *
 491:Generated_Source\PSoC6\pdl\middleware\ble/cy_ble.c **** *  This function controls the external Power Amplifier and Low Noise Amplifier
 492:Generated_Source\PSoC6\pdl\middleware\ble/cy_ble.c **** *  outputs.
 493:Generated_Source\PSoC6\pdl\middleware\ble/cy_ble.c **** *
 494:Generated_Source\PSoC6\pdl\middleware\ble/cy_ble.c **** * \param controlValue Enables and controls polarity of the outputs.
 495:Generated_Source\PSoC6\pdl\middleware\ble/cy_ble.c **** *   To control external PA and LNA, the following mask defines are used:
 496:Generated_Source\PSoC6\pdl\middleware\ble/cy_ble.c **** *
 497:Generated_Source\PSoC6\pdl\middleware\ble/cy_ble.c **** *   - BLE_BLESS_EXT_PA_LNA_CTRL_ENABLE_EXT_PA_LNA_Msk - When set to 1, enables
 498:Generated_Source\PSoC6\pdl\middleware\ble/cy_ble.c **** *       the external PA & LNA and BLESS power profile for energy profiler
 499:Generated_Source\PSoC6\pdl\middleware\ble/cy_ble.c **** *   - BLE_BLESS_EXT_PA_LNA_CTRL_CHIP_EN_POL_Msk - Controls the polarity of the
 500:Generated_Source\PSoC6\pdl\middleware\ble/cy_ble.c **** *       chip-enable control signal:
 501:Generated_Source\PSoC6\pdl\middleware\ble/cy_ble.c **** *       * 0 - High enable, Low disable
 502:Generated_Source\PSoC6\pdl\middleware\ble/cy_ble.c **** *       * 1 - Low enable, High disable, Incorrect power profile
 503:Generated_Source\PSoC6\pdl\middleware\ble/cy_ble.c **** *   - BLE_BLESS_EXT_PA_LNA_CTRL_PA_CTRL_POL_Msk - Controls the polarity of the PA
 504:Generated_Source\PSoC6\pdl\middleware\ble/cy_ble.c **** *       control signal:
 505:Generated_Source\PSoC6\pdl\middleware\ble/cy_ble.c **** *       * 0 - High enable, Low disable
 506:Generated_Source\PSoC6\pdl\middleware\ble/cy_ble.c **** *       * 1 - Low enable, High disable, Incorrect power profile
 507:Generated_Source\PSoC6\pdl\middleware\ble/cy_ble.c **** *   - BLE_BLESS_EXT_PA_LNA_CTRL_LNA_CTRL_POL_Msk - Controls the polarity of the LNA
 508:Generated_Source\PSoC6\pdl\middleware\ble/cy_ble.c **** *       control signal:
 509:Generated_Source\PSoC6\pdl\middleware\ble/cy_ble.c **** *       * 0 - High enable, Low disable
 510:Generated_Source\PSoC6\pdl\middleware\ble/cy_ble.c **** *       * 1 - Low enable, High disable, Incorrect power profile
 511:Generated_Source\PSoC6\pdl\middleware\ble/cy_ble.c **** *   - BLE_BLESS_EXT_PA_LNA_CTRL_OUT_EN_DRIVE_VAL_Msk  - Configures the drive value
 512:Generated_Source\PSoC6\pdl\middleware\ble/cy_ble.c **** *       on the output enables of PA, LNA and CHI_EN signals
 513:Generated_Source\PSoC6\pdl\middleware\ble/cy_ble.c **** *       * 0 - drive 0 on the output enable signals
 514:Generated_Source\PSoC6\pdl\middleware\ble/cy_ble.c **** *       * 1 - drive 1 on the output enable signals
 515:Generated_Source\PSoC6\pdl\middleware\ble/cy_ble.c **** *
 516:Generated_Source\PSoC6\pdl\middleware\ble/cy_ble.c **** * \return
 517:Generated_Source\PSoC6\pdl\middleware\ble/cy_ble.c **** *  None
 518:Generated_Source\PSoC6\pdl\middleware\ble/cy_ble.c **** *
 519:Generated_Source\PSoC6\pdl\middleware\ble/cy_ble.c **** *******************************************************************************/
 520:Generated_Source\PSoC6\pdl\middleware\ble/cy_ble.c **** void Cy_BLE_ConfigureExtPA(uint32_t controlValue)
 521:Generated_Source\PSoC6\pdl\middleware\ble/cy_ble.c **** {
 522:Generated_Source\PSoC6\pdl\middleware\ble/cy_ble.c ****     BLE->BLESS.EXT_PA_LNA_CTRL = controlValue;
 523:Generated_Source\PSoC6\pdl\middleware\ble/cy_ble.c **** }
 524:Generated_Source\PSoC6\pdl\middleware\ble/cy_ble.c **** 
 525:Generated_Source\PSoC6\pdl\middleware\ble/cy_ble.c **** #if (CY_BLE_INTR_NOTIFY_FEATURE_ENABLED) && (CY_BLE_HOST_CORE)
 526:Generated_Source\PSoC6\pdl\middleware\ble/cy_ble.c **** /*******************************************************************************
 527:Generated_Source\PSoC6\pdl\middleware\ble/cy_ble.c **** * Function Name: Cy_BLE_RegisterInterruptCallback
 528:Generated_Source\PSoC6\pdl\middleware\ble/cy_ble.c **** ****************************************************************************//**
 529:Generated_Source\PSoC6\pdl\middleware\ble/cy_ble.c **** *
 530:Generated_Source\PSoC6\pdl\middleware\ble/cy_ble.c **** *  This function registers a callback to expose BLE interrupt notifications to an
 531:Generated_Source\PSoC6\pdl\middleware\ble/cy_ble.c **** *  application that indicates a different link layer and radio state transition
 532:Generated_Source\PSoC6\pdl\middleware\ble/cy_ble.c **** *  to the user from the BLESS interrupt context. This callback is triggered at
 533:Generated_Source\PSoC6\pdl\middleware\ble/cy_ble.c **** *  the beginning of a received BLESS interrupt (based on the registered
 534:Generated_Source\PSoC6\pdl\middleware\ble/cy_ble.c **** *  interrupt mask).
 535:Generated_Source\PSoC6\pdl\middleware\ble/cy_ble.c **** *
 536:Generated_Source\PSoC6\pdl\middleware\ble/cy_ble.c **** *  An application can use an interrupt callback to know when:
 537:Generated_Source\PSoC6\pdl\middleware\ble/cy_ble.c **** *  * the RF activity is about to begin/end;
 538:Generated_Source\PSoC6\pdl\middleware\ble/cy_ble.c **** *  * the BLE device changes its state from advertising to connected;
 539:Generated_Source\PSoC6\pdl\middleware\ble/cy_ble.c **** *  * BLESS transits between active and low-power modes.
 540:Generated_Source\PSoC6\pdl\middleware\ble/cy_ble.c **** *
 541:Generated_Source\PSoC6\pdl\middleware\ble/cy_ble.c **** *  These BLESS real-time states can be used to synchronize
 542:Generated_Source\PSoC6\pdl\middleware\ble/cy_ble.c **** *  an application with the BLESS or prevent radio interference with other
 543:Generated_Source\PSoC6\pdl\middleware\ble/cy_ble.c **** *  peripherals, etc.
ARM GAS  C:\Users\Nazar\AppData\Local\Temp\ccWQ1kO8.s 			page 11


 544:Generated_Source\PSoC6\pdl\middleware\ble/cy_ble.c **** *
 545:Generated_Source\PSoC6\pdl\middleware\ble/cy_ble.c **** *  BLE interrupt notifications feature enables via define in cy_ble_config.h:
 546:Generated_Source\PSoC6\pdl\middleware\ble/cy_ble.c **** *  \code
 547:Generated_Source\PSoC6\pdl\middleware\ble/cy_ble.c **** *  #define CY_BLE_INTR_NOTIFY_FEATURE_ENABLE       (1u)
 548:Generated_Source\PSoC6\pdl\middleware\ble/cy_ble.c **** *  \endcode
 549:Generated_Source\PSoC6\pdl\middleware\ble/cy_ble.c **** *
 550:Generated_Source\PSoC6\pdl\middleware\ble/cy_ble.c **** *  BLE Dual mode requires an additional define IPC channel and IPC Interrupt
 551:Generated_Source\PSoC6\pdl\middleware\ble/cy_ble.c **** *  structure to send notifications from the controller core to host core.
 552:Generated_Source\PSoC6\pdl\middleware\ble/cy_ble.c **** *  Use the following defines:
 553:Generated_Source\PSoC6\pdl\middleware\ble/cy_ble.c **** *  \code
 554:Generated_Source\PSoC6\pdl\middleware\ble/cy_ble.c **** *  #define CY_BLE_INTR_NOTIFY_IPC_CHAN             (9..15)
 555:Generated_Source\PSoC6\pdl\middleware\ble/cy_ble.c **** *  #define CY_BLE_INTR_NOTIFY_IPC_INTR             (9..15)
 556:Generated_Source\PSoC6\pdl\middleware\ble/cy_ble.c **** *  #define CY_BLE_INTR_NOTIFY_IPC_INTR_PRIOR       (0..7)
 557:Generated_Source\PSoC6\pdl\middleware\ble/cy_ble.c **** *  \endcode
 558:Generated_Source\PSoC6\pdl\middleware\ble/cy_ble.c **** *
 559:Generated_Source\PSoC6\pdl\middleware\ble/cy_ble.c **** *  \param intrMask
 560:Generated_Source\PSoC6\pdl\middleware\ble/cy_ble.c **** *  All interrupts masks are specified in the #cy_en_ble_interrupt_callback_feature_t
 561:Generated_Source\PSoC6\pdl\middleware\ble/cy_ble.c **** *  enumeration.
 562:Generated_Source\PSoC6\pdl\middleware\ble/cy_ble.c **** *
 563:Generated_Source\PSoC6\pdl\middleware\ble/cy_ble.c **** *  \param CallBack
 564:Generated_Source\PSoC6\pdl\middleware\ble/cy_ble.c **** *  The pointer to an application notify callback.
 565:Generated_Source\PSoC6\pdl\middleware\ble/cy_ble.c **** *
 566:Generated_Source\PSoC6\pdl\middleware\ble/cy_ble.c **** * \return
 567:Generated_Source\PSoC6\pdl\middleware\ble/cy_ble.c **** * \ref cy_en_ble_api_result_t : The return value indicates if the function succeeded or
 568:Generated_Source\PSoC6\pdl\middleware\ble/cy_ble.c **** *  failed. The possible error codes:
 569:Generated_Source\PSoC6\pdl\middleware\ble/cy_ble.c **** *
 570:Generated_Source\PSoC6\pdl\middleware\ble/cy_ble.c **** *    Errors codes                   | Description
 571:Generated_Source\PSoC6\pdl\middleware\ble/cy_ble.c **** *    ------------                   | -----------
 572:Generated_Source\PSoC6\pdl\middleware\ble/cy_ble.c **** *    CY_BLE_SUCCESS                 | The callback is registered successfully.
 573:Generated_Source\PSoC6\pdl\middleware\ble/cy_ble.c **** *    CY_BLE_ERROR_INVALID_PARAMETER | Validation of the input parameters failed.
 574:Generated_Source\PSoC6\pdl\middleware\ble/cy_ble.c **** *    CY_BLE_ERROR_INVALID_OPERATION | The IPC channel is busy (Dual core mode only).
 575:Generated_Source\PSoC6\pdl\middleware\ble/cy_ble.c **** *
 576:Generated_Source\PSoC6\pdl\middleware\ble/cy_ble.c **** *******************************************************************************/
 577:Generated_Source\PSoC6\pdl\middleware\ble/cy_ble.c **** cy_en_ble_api_result_t Cy_BLE_RegisterInterruptCallback(uint32_t intrMask, cy_ble_intr_callback_t C
 578:Generated_Source\PSoC6\pdl\middleware\ble/cy_ble.c **** {
 579:Generated_Source\PSoC6\pdl\middleware\ble/cy_ble.c ****     cy_en_ble_api_result_t apiResult = CY_BLE_SUCCESS;
 580:Generated_Source\PSoC6\pdl\middleware\ble/cy_ble.c **** 
 581:Generated_Source\PSoC6\pdl\middleware\ble/cy_ble.c ****     if(CallBack != NULL)
 582:Generated_Source\PSoC6\pdl\middleware\ble/cy_ble.c ****     {
 583:Generated_Source\PSoC6\pdl\middleware\ble/cy_ble.c ****         /* Store the application callback and interrupt mask */
 584:Generated_Source\PSoC6\pdl\middleware\ble/cy_ble.c ****         Cy_BLE_InterruptCallback = CallBack;
 585:Generated_Source\PSoC6\pdl\middleware\ble/cy_ble.c ****         intrNotify.mask = intrMask;
 586:Generated_Source\PSoC6\pdl\middleware\ble/cy_ble.c **** 
 587:Generated_Source\PSoC6\pdl\middleware\ble/cy_ble.c ****         /* Set up the IPC for Dual Stack mode */
 588:Generated_Source\PSoC6\pdl\middleware\ble/cy_ble.c ****         #if(CY_BLE_STACK_MODE_HOST_IPC)
 589:Generated_Source\PSoC6\pdl\middleware\ble/cy_ble.c ****         {
 590:Generated_Source\PSoC6\pdl\middleware\ble/cy_ble.c ****             if(!intrNotify.configFlag)
 591:Generated_Source\PSoC6\pdl\middleware\ble/cy_ble.c ****             {
 592:Generated_Source\PSoC6\pdl\middleware\ble/cy_ble.c ****                 uint32_t rTimeout = 2000u; /* us */
 593:Generated_Source\PSoC6\pdl\middleware\ble/cy_ble.c ****                 cy_en_ipc_pipe_status_t ipcStatus;
 594:Generated_Source\PSoC6\pdl\middleware\ble/cy_ble.c ****                 cy_stc_sysint_t intrConfig =
 595:Generated_Source\PSoC6\pdl\middleware\ble/cy_ble.c ****                 {
 596:Generated_Source\PSoC6\pdl\middleware\ble/cy_ble.c ****                     .intrPriority = (uint32_t)CY_BLE_INTR_NOTIFY_IPC_INTR_PRIOR,
 597:Generated_Source\PSoC6\pdl\middleware\ble/cy_ble.c ****                     .intrSrc      = (IRQn_Type)CY_IPC_INTR_NUM_TO_VECT((int32_t)CY_BLE_INTR_NOTIFY_
 598:Generated_Source\PSoC6\pdl\middleware\ble/cy_ble.c ****                 };
 599:Generated_Source\PSoC6\pdl\middleware\ble/cy_ble.c **** 
 600:Generated_Source\PSoC6\pdl\middleware\ble/cy_ble.c ****                 /* Initialize the interrupt controller for CM4 and IPC Interrupt */
ARM GAS  C:\Users\Nazar\AppData\Local\Temp\ccWQ1kO8.s 			page 12


 601:Generated_Source\PSoC6\pdl\middleware\ble/cy_ble.c ****                 (void)Cy_SysInt_Init(&intrConfig, &Cy_BLE_HAL_IntrNotifyIpcHandler);
 602:Generated_Source\PSoC6\pdl\middleware\ble/cy_ble.c ****                 NVIC_EnableIRQ(intrConfig.intrSrc);
 603:Generated_Source\PSoC6\pdl\middleware\ble/cy_ble.c **** 
 604:Generated_Source\PSoC6\pdl\middleware\ble/cy_ble.c ****                 /* Do not bring up an IPC release interrupt here, only set up a notify interrupt */
 605:Generated_Source\PSoC6\pdl\middleware\ble/cy_ble.c ****                 Cy_IPC_Drv_SetInterruptMask(Cy_IPC_Drv_GetIntrBaseAddr(CY_BLE_INTR_NOTIFY_IPC_INTR)
 606:Generated_Source\PSoC6\pdl\middleware\ble/cy_ble.c ****                                             CY_IPC_NO_NOTIFICATION, (1uL << CY_BLE_INTR_NOTIFY_IPC_
 607:Generated_Source\PSoC6\pdl\middleware\ble/cy_ble.c **** 
 608:Generated_Source\PSoC6\pdl\middleware\ble/cy_ble.c ****                 /*
 609:Generated_Source\PSoC6\pdl\middleware\ble/cy_ble.c ****                  * Send the address of the intrNotify structure to the controller core via CyPipe
 610:Generated_Source\PSoC6\pdl\middleware\ble/cy_ble.c ****                  * The IPC Pipe can be busy, then try sending a message during 2 ms.
 611:Generated_Source\PSoC6\pdl\middleware\ble/cy_ble.c ****                  */
 612:Generated_Source\PSoC6\pdl\middleware\ble/cy_ble.c ****                 do
 613:Generated_Source\PSoC6\pdl\middleware\ble/cy_ble.c ****                 {
 614:Generated_Source\PSoC6\pdl\middleware\ble/cy_ble.c ****                     ipcStatus = Cy_IPC_Pipe_SendMessage(CY_BLE_IPC_CONTROLLER_ADDR, CY_BLE_IPC_HOST
 615:Generated_Source\PSoC6\pdl\middleware\ble/cy_ble.c ****                                                         (void *)&intrNotify, NULL);
 616:Generated_Source\PSoC6\pdl\middleware\ble/cy_ble.c ****                     Cy_SysLib_DelayUs(1u);
 617:Generated_Source\PSoC6\pdl\middleware\ble/cy_ble.c ****                     rTimeout--;
 618:Generated_Source\PSoC6\pdl\middleware\ble/cy_ble.c ****                 }while((ipcStatus != CY_IPC_PIPE_SUCCESS) && (rTimeout != 0u));
 619:Generated_Source\PSoC6\pdl\middleware\ble/cy_ble.c **** 
 620:Generated_Source\PSoC6\pdl\middleware\ble/cy_ble.c ****                 if(ipcStatus != CY_IPC_PIPE_SUCCESS)
 621:Generated_Source\PSoC6\pdl\middleware\ble/cy_ble.c ****                 {
 622:Generated_Source\PSoC6\pdl\middleware\ble/cy_ble.c ****                     apiResult = CY_BLE_ERROR_INVALID_OPERATION;
 623:Generated_Source\PSoC6\pdl\middleware\ble/cy_ble.c ****                 }
 624:Generated_Source\PSoC6\pdl\middleware\ble/cy_ble.c ****             }
 625:Generated_Source\PSoC6\pdl\middleware\ble/cy_ble.c ****         }
 626:Generated_Source\PSoC6\pdl\middleware\ble/cy_ble.c ****         #else
 627:Generated_Source\PSoC6\pdl\middleware\ble/cy_ble.c ****             intrNotifyPtr = &intrNotify;
 628:Generated_Source\PSoC6\pdl\middleware\ble/cy_ble.c ****         #endif /* CY_BLE_STACK_MODE_HOST_IPC */
 629:Generated_Source\PSoC6\pdl\middleware\ble/cy_ble.c **** 
 630:Generated_Source\PSoC6\pdl\middleware\ble/cy_ble.c ****     }
 631:Generated_Source\PSoC6\pdl\middleware\ble/cy_ble.c ****     else
 632:Generated_Source\PSoC6\pdl\middleware\ble/cy_ble.c ****     {
 633:Generated_Source\PSoC6\pdl\middleware\ble/cy_ble.c ****         apiResult = CY_BLE_ERROR_INVALID_PARAMETER;
 634:Generated_Source\PSoC6\pdl\middleware\ble/cy_ble.c ****     }
 635:Generated_Source\PSoC6\pdl\middleware\ble/cy_ble.c ****     return apiResult;
 636:Generated_Source\PSoC6\pdl\middleware\ble/cy_ble.c **** }
 637:Generated_Source\PSoC6\pdl\middleware\ble/cy_ble.c **** 
 638:Generated_Source\PSoC6\pdl\middleware\ble/cy_ble.c **** 
 639:Generated_Source\PSoC6\pdl\middleware\ble/cy_ble.c **** /*******************************************************************************
 640:Generated_Source\PSoC6\pdl\middleware\ble/cy_ble.c **** * Function Name: Cy_BLE_UnRegisterInterruptCallback
 641:Generated_Source\PSoC6\pdl\middleware\ble/cy_ble.c **** ****************************************************************************//**
 642:Generated_Source\PSoC6\pdl\middleware\ble/cy_ble.c **** *
 643:Generated_Source\PSoC6\pdl\middleware\ble/cy_ble.c **** *  This function un-registers callback which exposed BLE interrupt
 644:Generated_Source\PSoC6\pdl\middleware\ble/cy_ble.c **** *  notifications to the application.
 645:Generated_Source\PSoC6\pdl\middleware\ble/cy_ble.c **** *
 646:Generated_Source\PSoC6\pdl\middleware\ble/cy_ble.c **** * \return
 647:Generated_Source\PSoC6\pdl\middleware\ble/cy_ble.c **** * \ref cy_en_ble_api_result_t : Return value indicates if the function succeeded or
 648:Generated_Source\PSoC6\pdl\middleware\ble/cy_ble.c **** *  failed. The following are possible error codes.
 649:Generated_Source\PSoC6\pdl\middleware\ble/cy_ble.c **** *
 650:Generated_Source\PSoC6\pdl\middleware\ble/cy_ble.c **** *    Errors codes                   | Description
 651:Generated_Source\PSoC6\pdl\middleware\ble/cy_ble.c **** *    ------------                   | -----------
 652:Generated_Source\PSoC6\pdl\middleware\ble/cy_ble.c **** *    CY_BLE_SUCCESS                 | The callback is registered successfully.
 653:Generated_Source\PSoC6\pdl\middleware\ble/cy_ble.c **** *    CY_BLE_ERROR_INVALID_OPERATION | The IPC channel is busy (Dual core mode only).
 654:Generated_Source\PSoC6\pdl\middleware\ble/cy_ble.c **** *
 655:Generated_Source\PSoC6\pdl\middleware\ble/cy_ble.c **** *******************************************************************************/
 656:Generated_Source\PSoC6\pdl\middleware\ble/cy_ble.c **** cy_en_ble_api_result_t Cy_BLE_UnRegisterInterruptCallback(void)
 657:Generated_Source\PSoC6\pdl\middleware\ble/cy_ble.c **** {
ARM GAS  C:\Users\Nazar\AppData\Local\Temp\ccWQ1kO8.s 			page 13


 658:Generated_Source\PSoC6\pdl\middleware\ble/cy_ble.c ****     cy_en_ble_api_result_t apiResult = CY_BLE_SUCCESS;
 659:Generated_Source\PSoC6\pdl\middleware\ble/cy_ble.c ****     if(Cy_BLE_InterruptCallback != NULL)
 660:Generated_Source\PSoC6\pdl\middleware\ble/cy_ble.c ****     {
 661:Generated_Source\PSoC6\pdl\middleware\ble/cy_ble.c ****         /* Clean interrupt mask */
 662:Generated_Source\PSoC6\pdl\middleware\ble/cy_ble.c ****         apiResult = Cy_BLE_RegisterInterruptCallback((uint32_t)CY_BLE_INTR_CALLBACK_NONE,
 663:Generated_Source\PSoC6\pdl\middleware\ble/cy_ble.c ****                                                      Cy_BLE_InterruptCallback);
 664:Generated_Source\PSoC6\pdl\middleware\ble/cy_ble.c ****         if(apiResult == CY_BLE_SUCCESS)
 665:Generated_Source\PSoC6\pdl\middleware\ble/cy_ble.c ****         {
 666:Generated_Source\PSoC6\pdl\middleware\ble/cy_ble.c ****             /* Clean callback pointer */
 667:Generated_Source\PSoC6\pdl\middleware\ble/cy_ble.c ****             Cy_BLE_InterruptCallback = NULL;
 668:Generated_Source\PSoC6\pdl\middleware\ble/cy_ble.c ****         }
 669:Generated_Source\PSoC6\pdl\middleware\ble/cy_ble.c ****     }
 670:Generated_Source\PSoC6\pdl\middleware\ble/cy_ble.c ****     return(apiResult);
 671:Generated_Source\PSoC6\pdl\middleware\ble/cy_ble.c **** }
 672:Generated_Source\PSoC6\pdl\middleware\ble/cy_ble.c **** 
 673:Generated_Source\PSoC6\pdl\middleware\ble/cy_ble.c **** #endif /* (CY_BLE_INTR_NOTIFY_FEATURE_ENABLED) && (CY_BLE_HOST_CORE) */
 674:Generated_Source\PSoC6\pdl\middleware\ble/cy_ble.c **** 
 675:Generated_Source\PSoC6\pdl\middleware\ble/cy_ble.c **** 
 676:Generated_Source\PSoC6\pdl\middleware\ble/cy_ble.c **** #if (CY_BLE_MODE_PROFILE)
 677:Generated_Source\PSoC6\pdl\middleware\ble/cy_ble.c **** 
 678:Generated_Source\PSoC6\pdl\middleware\ble/cy_ble.c **** /*******************************************************************************
 679:Generated_Source\PSoC6\pdl\middleware\ble/cy_ble.c **** * Function Name: Cy_BLE_RegisterAppHostCallback
 680:Generated_Source\PSoC6\pdl\middleware\ble/cy_ble.c **** ****************************************************************************//**
 681:Generated_Source\PSoC6\pdl\middleware\ble/cy_ble.c **** *
 682:Generated_Source\PSoC6\pdl\middleware\ble/cy_ble.c **** * This function registers an application Host callback (BLE RTOS hook).
 683:Generated_Source\PSoC6\pdl\middleware\ble/cy_ble.c **** * The user can trigger an RTOS BLE task if the application Host callback was
 684:Generated_Source\PSoC6\pdl\middleware\ble/cy_ble.c **** * called.
 685:Generated_Source\PSoC6\pdl\middleware\ble/cy_ble.c **** *
 686:Generated_Source\PSoC6\pdl\middleware\ble/cy_ble.c **** * Theory of operation:
 687:Generated_Source\PSoC6\pdl\middleware\ble/cy_ble.c **** * The BLE Middleware triggers this callback when the BLE Stack controller needs
 688:Generated_Source\PSoC6\pdl\middleware\ble/cy_ble.c **** * to process pending Stack events (by calling Cy_BLE_ProcessEvents()). This
 689:Generated_Source\PSoC6\pdl\middleware\ble/cy_ble.c **** * callback executes from within an ISR and must be very short.
 690:Generated_Source\PSoC6\pdl\middleware\ble/cy_ble.c **** *
 691:Generated_Source\PSoC6\pdl\middleware\ble/cy_ble.c **** * \note The application Host callback is called from the context of a high-
 692:Generated_Source\PSoC6\pdl\middleware\ble/cy_ble.c **** * priority ISR. Some RTOS (e.g. FreeRTOS) have restrictions on calling the RTOS
 693:Generated_Source\PSoC6\pdl\middleware\ble/cy_ble.c **** * functions from a high-priority ISR. The user application is responsible for
 694:Generated_Source\PSoC6\pdl\middleware\ble/cy_ble.c **** * integration of the BLE RTOS hook and RTOS functions and must insure that RTOS
 695:Generated_Source\PSoC6\pdl\middleware\ble/cy_ble.c **** * allows to call RTOS API from BLE interrupt context.
 696:Generated_Source\PSoC6\pdl\middleware\ble/cy_ble.c **** * If direct call is forbidden one of the possible solutions is to trig a
 697:Generated_Source\PSoC6\pdl\middleware\ble/cy_ble.c **** * low-priority interrupt from the application Host callback and then call the
 698:Generated_Source\PSoC6\pdl\middleware\ble/cy_ble.c **** * RTOS functions from a low-priority interrupt. For details refer to specific
 699:Generated_Source\PSoC6\pdl\middleware\ble/cy_ble.c **** * RTOS documentation.
 700:Generated_Source\PSoC6\pdl\middleware\ble/cy_ble.c **** *
 701:Generated_Source\PSoC6\pdl\middleware\ble/cy_ble.c **** * \param CallBack
 702:Generated_Source\PSoC6\pdl\middleware\ble/cy_ble.c **** * The pointer to the application Host callback.
 703:Generated_Source\PSoC6\pdl\middleware\ble/cy_ble.c **** *
 704:Generated_Source\PSoC6\pdl\middleware\ble/cy_ble.c **** * \return
 705:Generated_Source\PSoC6\pdl\middleware\ble/cy_ble.c **** *  Error Codes                        | Description
 706:Generated_Source\PSoC6\pdl\middleware\ble/cy_ble.c **** *  ------------                       | -----------
 707:Generated_Source\PSoC6\pdl\middleware\ble/cy_ble.c **** *   CY_BLE_SUCCESS                    | The callback was registered successfully.
 708:Generated_Source\PSoC6\pdl\middleware\ble/cy_ble.c **** *   CY_BLE_ERROR_INVALID_PARAMETER    | On specifying NULL as the input parameter.
 709:Generated_Source\PSoC6\pdl\middleware\ble/cy_ble.c **** *
 710:Generated_Source\PSoC6\pdl\middleware\ble/cy_ble.c **** *******************************************************************************/
 711:Generated_Source\PSoC6\pdl\middleware\ble/cy_ble.c **** cy_en_ble_api_result_t Cy_BLE_RegisterAppHostCallback(cy_ble_app_notify_callback_t CallBack)
 712:Generated_Source\PSoC6\pdl\middleware\ble/cy_ble.c **** {
 713:Generated_Source\PSoC6\pdl\middleware\ble/cy_ble.c ****     cy_en_ble_api_result_t apiResult = CY_BLE_SUCCESS;
 714:Generated_Source\PSoC6\pdl\middleware\ble/cy_ble.c **** 
ARM GAS  C:\Users\Nazar\AppData\Local\Temp\ccWQ1kO8.s 			page 14


 715:Generated_Source\PSoC6\pdl\middleware\ble/cy_ble.c ****     if(CallBack != NULL)
 716:Generated_Source\PSoC6\pdl\middleware\ble/cy_ble.c ****     {
 717:Generated_Source\PSoC6\pdl\middleware\ble/cy_ble.c ****         Cy_BLE_HostRegisteredCallback = CallBack;
 718:Generated_Source\PSoC6\pdl\middleware\ble/cy_ble.c ****     }
 719:Generated_Source\PSoC6\pdl\middleware\ble/cy_ble.c ****     else
 720:Generated_Source\PSoC6\pdl\middleware\ble/cy_ble.c ****     {
 721:Generated_Source\PSoC6\pdl\middleware\ble/cy_ble.c ****         apiResult = CY_BLE_ERROR_INVALID_PARAMETER;
 722:Generated_Source\PSoC6\pdl\middleware\ble/cy_ble.c ****     }
 723:Generated_Source\PSoC6\pdl\middleware\ble/cy_ble.c ****     return apiResult;
 724:Generated_Source\PSoC6\pdl\middleware\ble/cy_ble.c **** }
 725:Generated_Source\PSoC6\pdl\middleware\ble/cy_ble.c **** 
 726:Generated_Source\PSoC6\pdl\middleware\ble/cy_ble.c **** /*******************************************************************************
 727:Generated_Source\PSoC6\pdl\middleware\ble/cy_ble.c **** * Function Name: Cy_BLE_UnRegisterAppHostCallback
 728:Generated_Source\PSoC6\pdl\middleware\ble/cy_ble.c **** ****************************************************************************//**
 729:Generated_Source\PSoC6\pdl\middleware\ble/cy_ble.c **** *
 730:Generated_Source\PSoC6\pdl\middleware\ble/cy_ble.c **** * This function un-registers an application Host callback (BLE RTOS hook).
 731:Generated_Source\PSoC6\pdl\middleware\ble/cy_ble.c **** *
 732:Generated_Source\PSoC6\pdl\middleware\ble/cy_ble.c **** *******************************************************************************/
 733:Generated_Source\PSoC6\pdl\middleware\ble/cy_ble.c **** void Cy_BLE_UnRegisterAppHostCallback(void)
 734:Generated_Source\PSoC6\pdl\middleware\ble/cy_ble.c **** {
 735:Generated_Source\PSoC6\pdl\middleware\ble/cy_ble.c ****     Cy_BLE_HostRegisteredCallback = NULL;
 736:Generated_Source\PSoC6\pdl\middleware\ble/cy_ble.c **** }
 737:Generated_Source\PSoC6\pdl\middleware\ble/cy_ble.c **** #endif /* (CY_BLE_MODE_PROFILE) */
 738:Generated_Source\PSoC6\pdl\middleware\ble/cy_ble.c **** 
 739:Generated_Source\PSoC6\pdl\middleware\ble/cy_ble.c **** 
 740:Generated_Source\PSoC6\pdl\middleware\ble/cy_ble.c **** #if (CY_BLE_USE_DEEP_SLEEP != 0u)
 741:Generated_Source\PSoC6\pdl\middleware\ble/cy_ble.c **** /*******************************************************************************
 742:Generated_Source\PSoC6\pdl\middleware\ble/cy_ble.c **** * Function Name: Cy_BLE_DeepSleepCallback
 743:Generated_Source\PSoC6\pdl\middleware\ble/cy_ble.c **** ****************************************************************************//**
 744:Generated_Source\PSoC6\pdl\middleware\ble/cy_ble.c **** *
 745:Generated_Source\PSoC6\pdl\middleware\ble/cy_ble.c **** * This function requests the BLE Stack to put Bluetooth Low Energy Sub-System
 746:Generated_Source\PSoC6\pdl\middleware\ble/cy_ble.c **** * (BLESS) to DeepSleep mode.
 747:Generated_Source\PSoC6\pdl\middleware\ble/cy_ble.c **** *
 748:Generated_Source\PSoC6\pdl\middleware\ble/cy_ble.c **** * It is registered to the system power mode by Cy_SysPm_RegisterCallback()
 749:Generated_Source\PSoC6\pdl\middleware\ble/cy_ble.c **** * function with CY_SYSPM_DEEPSLEEP type. After registration it is called by
 750:Generated_Source\PSoC6\pdl\middleware\ble/cy_ble.c **** * Cy_SysPm_DeepSleep() function prior entering the core into the Deep Sleep
 751:Generated_Source\PSoC6\pdl\middleware\ble/cy_ble.c **** * power mode.
 752:Generated_Source\PSoC6\pdl\middleware\ble/cy_ble.c **** *
 753:Generated_Source\PSoC6\pdl\middleware\ble/cy_ble.c **** * When it is called with the enMode parameter set to CY_SYSPM_CHECK_READY,
 754:Generated_Source\PSoC6\pdl\middleware\ble/cy_ble.c **** * function enters BLESS to CY_BLE_BLESS_DEEPSLEEP mode. It also checks the
 755:Generated_Source\PSoC6\pdl\middleware\ble/cy_ble.c **** * BLE Subsystem's current operational mode. When the
 756:Generated_Source\PSoC6\pdl\middleware\ble/cy_ble.c **** * Cy_BLE_StackGetBleSsState() function returns CY_BLE_BLESS_STATE_ECO_ON or
 757:Generated_Source\PSoC6\pdl\middleware\ble/cy_ble.c **** * CY_BLE_BLESS_STATE_DEEPSLEEP state, this function returns CY_SYSPM_PASS and
 758:Generated_Source\PSoC6\pdl\middleware\ble/cy_ble.c **** * allows to put the core into the Deep Sleep power mode.
 759:Generated_Source\PSoC6\pdl\middleware\ble/cy_ble.c **** * At all other times, the function tries to enter core into sleep mode.
 760:Generated_Source\PSoC6\pdl\middleware\ble/cy_ble.c **** *
 761:Generated_Source\PSoC6\pdl\middleware\ble/cy_ble.c **** * This function is available only when BLE low power mode is enabled in the
 762:Generated_Source\PSoC6\pdl\middleware\ble/cy_ble.c **** * Advanced tab of customizer.
 763:Generated_Source\PSoC6\pdl\middleware\ble/cy_ble.c **** *
 764:Generated_Source\PSoC6\pdl\middleware\ble/cy_ble.c **** * \param
 765:Generated_Source\PSoC6\pdl\middleware\ble/cy_ble.c **** * callbackParams  pointer to the structure with the syspm callback parameters
 766:Generated_Source\PSoC6\pdl\middleware\ble/cy_ble.c **** *                 callbackParams->mode - the callback mode, see description
 767:Generated_Source\PSoC6\pdl\middleware\ble/cy_ble.c **** *                 of the cy_en_syspm_callback_mode_t type.
 768:Generated_Source\PSoC6\pdl\middleware\ble/cy_ble.c **** *
 769:Generated_Source\PSoC6\pdl\middleware\ble/cy_ble.c **** * \return
 770:Generated_Source\PSoC6\pdl\middleware\ble/cy_ble.c **** * * CY_SYSPM_SUCCESS  - Entered and exited from DeepSleep
 771:Generated_Source\PSoC6\pdl\middleware\ble/cy_ble.c **** * * CY_SYSPM_FAIL     - DeepSleep not entered.
ARM GAS  C:\Users\Nazar\AppData\Local\Temp\ccWQ1kO8.s 			page 15


 772:Generated_Source\PSoC6\pdl\middleware\ble/cy_ble.c **** *
 773:Generated_Source\PSoC6\pdl\middleware\ble/cy_ble.c **** *******************************************************************************/
 774:Generated_Source\PSoC6\pdl\middleware\ble/cy_ble.c **** #if (CY_SYSPM_DRV_VERSION_MAJOR < 4)
 775:Generated_Source\PSoC6\pdl\middleware\ble/cy_ble.c **** cy_en_syspm_status_t Cy_BLE_DeepSleepCallback(cy_stc_syspm_callback_params_t *callbackParams)
 776:Generated_Source\PSoC6\pdl\middleware\ble/cy_ble.c **** #else
 777:Generated_Source\PSoC6\pdl\middleware\ble/cy_ble.c **** cy_en_syspm_status_t Cy_BLE_DeepSleepCallback(cy_stc_syspm_callback_params_t *callbackParams,
 778:Generated_Source\PSoC6\pdl\middleware\ble/cy_ble.c ****                                               cy_en_syspm_callback_mode_t mode)
 779:Generated_Source\PSoC6\pdl\middleware\ble/cy_ble.c **** #endif /* (CY_SYSPM_DRV_VERSION_MAJOR < 4) */
 780:Generated_Source\PSoC6\pdl\middleware\ble/cy_ble.c **** 
 781:Generated_Source\PSoC6\pdl\middleware\ble/cy_ble.c **** {
  28              		.loc 1 781 0
  29              		.cfi_startproc
  30              		@ args = 0, pretend = 0, frame = 0
  31              		@ frame_needed = 0, uses_anonymous_args = 0
  32              	.LVL0:
  33 0000 70B5     		push	{r4, r5, r6, lr}
  34              		.cfi_def_cfa_offset 16
  35              		.cfi_offset 4, -16
  36              		.cfi_offset 5, -12
  37              		.cfi_offset 6, -8
  38              		.cfi_offset 14, -4
 782:Generated_Source\PSoC6\pdl\middleware\ble/cy_ble.c ****     cy_en_syspm_status_t retVal;
 783:Generated_Source\PSoC6\pdl\middleware\ble/cy_ble.c ****     static uint32_t interruptState = 0u;
 784:Generated_Source\PSoC6\pdl\middleware\ble/cy_ble.c ****     cy_en_ble_bless_state_t blessState;
 785:Generated_Source\PSoC6\pdl\middleware\ble/cy_ble.c **** 
 786:Generated_Source\PSoC6\pdl\middleware\ble/cy_ble.c ****     /* Local variable to store the status of BLESS Hardware block */
 787:Generated_Source\PSoC6\pdl\middleware\ble/cy_ble.c ****     cy_en_ble_lp_mode_t sleepMode;
 788:Generated_Source\PSoC6\pdl\middleware\ble/cy_ble.c **** 
 789:Generated_Source\PSoC6\pdl\middleware\ble/cy_ble.c **** #if (CY_SYSPM_DRV_VERSION_MAJOR < 4)
 790:Generated_Source\PSoC6\pdl\middleware\ble/cy_ble.c ****     switch(callbackParams->mode)
 791:Generated_Source\PSoC6\pdl\middleware\ble/cy_ble.c **** #else
 792:Generated_Source\PSoC6\pdl\middleware\ble/cy_ble.c ****     switch(mode)
  39              		.loc 1 792 0
  40 0002 0129     		cmp	r1, #1
  41 0004 02D0     		beq	.L3
  42 0006 0829     		cmp	r1, #8
  43 0008 44D0     		beq	.L4
  44 000a 49E0     		b	.L17
  45              	.L3:
 793:Generated_Source\PSoC6\pdl\middleware\ble/cy_ble.c **** #endif /* (CY_SYSPM_DRV_VERSION_MAJOR < 4) */
 794:Generated_Source\PSoC6\pdl\middleware\ble/cy_ble.c ****     {
 795:Generated_Source\PSoC6\pdl\middleware\ble/cy_ble.c ****         case (CY_SYSPM_CHECK_READY):
 796:Generated_Source\PSoC6\pdl\middleware\ble/cy_ble.c ****         #if (CY_BLE_MODE_PROFILE)
 797:Generated_Source\PSoC6\pdl\middleware\ble/cy_ble.c ****             if(Cy_BLE_GetState() == CY_BLE_STATE_INITIALIZING)
  46              		.loc 1 797 0
  47 000c 294B     		ldr	r3, .L18
  48 000e 1B78     		ldrb	r3, [r3]
  49 0010 012B     		cmp	r3, #1
  50 0012 47D0     		beq	.L9
 798:Generated_Source\PSoC6\pdl\middleware\ble/cy_ble.c ****             {
 799:Generated_Source\PSoC6\pdl\middleware\ble/cy_ble.c ****                 retVal = CY_SYSPM_FAIL;
 800:Generated_Source\PSoC6\pdl\middleware\ble/cy_ble.c ****             }
 801:Generated_Source\PSoC6\pdl\middleware\ble/cy_ble.c ****             else
 802:Generated_Source\PSoC6\pdl\middleware\ble/cy_ble.c ****         #endif  /*(CY_BLE_MODE_PROFILE) */
 803:Generated_Source\PSoC6\pdl\middleware\ble/cy_ble.c **** 
 804:Generated_Source\PSoC6\pdl\middleware\ble/cy_ble.c ****             if(Cy_IPC_Sema_Status(CY_BLE_SEMA) == CY_IPC_SEMA_STATUS_LOCKED)
  51              		.loc 1 804 0
ARM GAS  C:\Users\Nazar\AppData\Local\Temp\ccWQ1kO8.s 			page 16


  52 0014 0320     		movs	r0, #3
  53              	.LVL1:
  54 0016 FFF7FEFF 		bl	Cy_IPC_Sema_Status
  55              	.LVL2:
  56 001a 274B     		ldr	r3, .L18+4
  57 001c 9842     		cmp	r0, r3
  58 001e 43D0     		beq	.L10
 805:Generated_Source\PSoC6\pdl\middleware\ble/cy_ble.c ****             {
 806:Generated_Source\PSoC6\pdl\middleware\ble/cy_ble.c ****                 /* System do not enter deepsleep if BLE Host start write operation */
 807:Generated_Source\PSoC6\pdl\middleware\ble/cy_ble.c ****                 retVal = CY_SYSPM_FAIL;
 808:Generated_Source\PSoC6\pdl\middleware\ble/cy_ble.c ****             }
 809:Generated_Source\PSoC6\pdl\middleware\ble/cy_ble.c ****             else
 810:Generated_Source\PSoC6\pdl\middleware\ble/cy_ble.c **** 
 811:Generated_Source\PSoC6\pdl\middleware\ble/cy_ble.c ****         #if(CY_BLE_STACK_CONTR_CORE)
 812:Generated_Source\PSoC6\pdl\middleware\ble/cy_ble.c ****             if (Cy_BLE_HAL_IsEcoCpuClockSrc() == 1u)
  59              		.loc 1 812 0
  60 0020 FFF7FEFF 		bl	Cy_BLE_HAL_IsEcoCpuClockSrc
  61              	.LVL3:
  62 0024 0128     		cmp	r0, #1
  63 0026 41D0     		beq	.L11
  64              	.LBB5:
 813:Generated_Source\PSoC6\pdl\middleware\ble/cy_ble.c ****             {
 814:Generated_Source\PSoC6\pdl\middleware\ble/cy_ble.c ****                 /* System never enters deepsleep if BLE ECO is CPU source */
 815:Generated_Source\PSoC6\pdl\middleware\ble/cy_ble.c ****                 retVal = CY_SYSPM_FAIL;
 816:Generated_Source\PSoC6\pdl\middleware\ble/cy_ble.c ****             }
 817:Generated_Source\PSoC6\pdl\middleware\ble/cy_ble.c ****             else
 818:Generated_Source\PSoC6\pdl\middleware\ble/cy_ble.c ****         #endif /* (CY_BLE_STACK_CONTR_CORE) */
 819:Generated_Source\PSoC6\pdl\middleware\ble/cy_ble.c ****             {
 820:Generated_Source\PSoC6\pdl\middleware\ble/cy_ble.c ****         #if(!CY_BLE_STACK_MODE_HOST_IPC)
 821:Generated_Source\PSoC6\pdl\middleware\ble/cy_ble.c ****                 cy_en_ble_api_result_t retIsControllerActive;
 822:Generated_Source\PSoC6\pdl\middleware\ble/cy_ble.c ****         #endif /* !CY_BLE_STACK_MODE_HOST_IPC */
 823:Generated_Source\PSoC6\pdl\middleware\ble/cy_ble.c **** 
 824:Generated_Source\PSoC6\pdl\middleware\ble/cy_ble.c ****         #if(CY_BLE_STACK_MODE_HOST_IPC)
 825:Generated_Source\PSoC6\pdl\middleware\ble/cy_ble.c ****                 /* Disable global interrupt to prevent changes from any other interrupt ISR */
 826:Generated_Source\PSoC6\pdl\middleware\ble/cy_ble.c ****                 interruptState = Cy_SysLib_EnterCriticalSection();
 827:Generated_Source\PSoC6\pdl\middleware\ble/cy_ble.c ****         #endif /* CY_BLE_STACK_MODE_HOST_IPC */
 828:Generated_Source\PSoC6\pdl\middleware\ble/cy_ble.c **** 
 829:Generated_Source\PSoC6\pdl\middleware\ble/cy_ble.c ****                 /* Put BLESS into Deep Sleep and check the return status */
 830:Generated_Source\PSoC6\pdl\middleware\ble/cy_ble.c ****                 sleepMode = Cy_BLE_StackEnterLPM(CY_BLE_BLESS_DEEPSLEEP);
  65              		.loc 1 830 0
  66 0028 0220     		movs	r0, #2
  67 002a FFF7FEFF 		bl	Cy_BLE_StackEnterLPM
  68              	.LVL4:
  69 002e 0500     		movs	r5, r0
  70              	.LVL5:
 831:Generated_Source\PSoC6\pdl\middleware\ble/cy_ble.c **** 
 832:Generated_Source\PSoC6\pdl\middleware\ble/cy_ble.c ****         #if(!CY_BLE_STACK_MODE_HOST_IPC)
 833:Generated_Source\PSoC6\pdl\middleware\ble/cy_ble.c ****                 /* Disable global interrupt to prevent changes from any other interrupt ISR */
 834:Generated_Source\PSoC6\pdl\middleware\ble/cy_ble.c ****                 interruptState = Cy_SysLib_EnterCriticalSection();
  71              		.loc 1 834 0
  72 0030 FFF7FEFF 		bl	Cy_SysLib_EnterCriticalSection
  73              	.LVL6:
  74 0034 214B     		ldr	r3, .L18+8
  75 0036 1860     		str	r0, [r3]
 835:Generated_Source\PSoC6\pdl\middleware\ble/cy_ble.c ****         #endif /* !CY_BLE_STACK_MODE_HOST_IPC */
 836:Generated_Source\PSoC6\pdl\middleware\ble/cy_ble.c **** 
 837:Generated_Source\PSoC6\pdl\middleware\ble/cy_ble.c ****                 /* Check the Status of BLESS */
ARM GAS  C:\Users\Nazar\AppData\Local\Temp\ccWQ1kO8.s 			page 17


 838:Generated_Source\PSoC6\pdl\middleware\ble/cy_ble.c ****                 blessState = Cy_BLE_StackGetBleSsState();
  76              		.loc 1 838 0
  77 0038 FFF7FEFF 		bl	Cy_BLE_StackGetBleSsState
  78              	.LVL7:
  79 003c 0400     		movs	r4, r0
  80              	.LVL8:
 839:Generated_Source\PSoC6\pdl\middleware\ble/cy_ble.c **** 
 840:Generated_Source\PSoC6\pdl\middleware\ble/cy_ble.c ****                 #if(!CY_BLE_STACK_MODE_HOST_IPC)
 841:Generated_Source\PSoC6\pdl\middleware\ble/cy_ble.c ****                 if(blessState == CY_BLE_BLESS_STATE_STOPPED)
  81              		.loc 1 841 0
  82 003e 0628     		cmp	r0, #6
  83 0040 17D0     		beq	.L12
 842:Generated_Source\PSoC6\pdl\middleware\ble/cy_ble.c ****                 {
 843:Generated_Source\PSoC6\pdl\middleware\ble/cy_ble.c ****                     retVal = CY_SYSPM_SUCCESS;
 844:Generated_Source\PSoC6\pdl\middleware\ble/cy_ble.c ****                 }
 845:Generated_Source\PSoC6\pdl\middleware\ble/cy_ble.c ****                 else
 846:Generated_Source\PSoC6\pdl\middleware\ble/cy_ble.c ****                 #endif /* (!CY_BLE_STACK_MODE_HOST_IPC)*/
 847:Generated_Source\PSoC6\pdl\middleware\ble/cy_ble.c ****                 if(sleepMode == CY_BLE_BLESS_DEEPSLEEP)
  84              		.loc 1 847 0
  85 0042 022D     		cmp	r5, #2
  86 0044 0AD1     		bne	.L6
 848:Generated_Source\PSoC6\pdl\middleware\ble/cy_ble.c ****                 {
 849:Generated_Source\PSoC6\pdl\middleware\ble/cy_ble.c **** 
 850:Generated_Source\PSoC6\pdl\middleware\ble/cy_ble.c ****                     #if(!CY_BLE_STACK_MODE_HOST_IPC)
 851:Generated_Source\PSoC6\pdl\middleware\ble/cy_ble.c ****                     retIsControllerActive = Cy_BLE_IsControllerActive(CY_BLE_CONTROLLER_SLEEP_MODE_
  87              		.loc 1 851 0
  88 0046 0220     		movs	r0, #2
  89              	.LVL9:
  90 0048 FFF7FEFF 		bl	Cy_BLE_IsControllerActive
  91              	.LVL10:
 852:Generated_Source\PSoC6\pdl\middleware\ble/cy_ble.c ****                     #endif /* !CY_BLE_STACK_MODE_HOST_IPC */
 853:Generated_Source\PSoC6\pdl\middleware\ble/cy_ble.c **** 
 854:Generated_Source\PSoC6\pdl\middleware\ble/cy_ble.c ****                     if(((blessState == CY_BLE_BLESS_STATE_ECO_ON) || (blessState == CY_BLE_BLESS_ST
  92              		.loc 1 854 0
  93 004c 032C     		cmp	r4, #3
  94 004e 01D0     		beq	.L7
  95              		.loc 1 854 0 is_stmt 0 discriminator 1
  96 0050 052C     		cmp	r4, #5
  97 0052 10D1     		bne	.L13
  98              	.L7:
 855:Generated_Source\PSoC6\pdl\middleware\ble/cy_ble.c ****                     #if(!CY_BLE_STACK_MODE_HOST_IPC)
 856:Generated_Source\PSoC6\pdl\middleware\ble/cy_ble.c ****                         && (retIsControllerActive == CY_BLE_SUCCESS)
  99              		.loc 1 856 0 is_stmt 1
 100 0054 0028     		cmp	r0, #0
 101 0056 10D0     		beq	.L14
 857:Generated_Source\PSoC6\pdl\middleware\ble/cy_ble.c ****                     #endif /* !CY_BLE_STACK_MODE_HOST_IPC */
 858:Generated_Source\PSoC6\pdl\middleware\ble/cy_ble.c ****                         )
 859:Generated_Source\PSoC6\pdl\middleware\ble/cy_ble.c ****                     {
 860:Generated_Source\PSoC6\pdl\middleware\ble/cy_ble.c ****                         /* Enter device deep sleep */
 861:Generated_Source\PSoC6\pdl\middleware\ble/cy_ble.c ****                         retVal = CY_SYSPM_SUCCESS;
 862:Generated_Source\PSoC6\pdl\middleware\ble/cy_ble.c ****                     }
 863:Generated_Source\PSoC6\pdl\middleware\ble/cy_ble.c ****                     else
 864:Generated_Source\PSoC6\pdl\middleware\ble/cy_ble.c ****                     {
 865:Generated_Source\PSoC6\pdl\middleware\ble/cy_ble.c ****                         /* The BLESS hardware block cannot go to Deep Sleep, try sleep mode */
 866:Generated_Source\PSoC6\pdl\middleware\ble/cy_ble.c ****                         retVal = CY_SYSPM_FAIL;
 102              		.loc 1 866 0
 103 0058 194C     		ldr	r4, .L18+12
ARM GAS  C:\Users\Nazar\AppData\Local\Temp\ccWQ1kO8.s 			page 18


 104              	.LVL11:
 105 005a 13E0     		b	.L5
 106              	.LVL12:
 107              	.L6:
 867:Generated_Source\PSoC6\pdl\middleware\ble/cy_ble.c ****                     }
 868:Generated_Source\PSoC6\pdl\middleware\ble/cy_ble.c ****                 }
 869:Generated_Source\PSoC6\pdl\middleware\ble/cy_ble.c ****                 else
 870:Generated_Source\PSoC6\pdl\middleware\ble/cy_ble.c ****                 {
 871:Generated_Source\PSoC6\pdl\middleware\ble/cy_ble.c ****                 #if(!CY_BLE_STACK_MODE_HOST_IPC)
 872:Generated_Source\PSoC6\pdl\middleware\ble/cy_ble.c ****                     retIsControllerActive = Cy_BLE_IsControllerActive(CY_BLE_CONTROLLER_SLEEP_MODE_
 108              		.loc 1 872 0
 109 005c 0120     		movs	r0, #1
 110              	.LVL13:
 111 005e FFF7FEFF 		bl	Cy_BLE_IsControllerActive
 112              	.LVL14:
 873:Generated_Source\PSoC6\pdl\middleware\ble/cy_ble.c **** 
 874:Generated_Source\PSoC6\pdl\middleware\ble/cy_ble.c ****                     if((blessState != CY_BLE_BLESS_STATE_EVENT_CLOSE) &&
 113              		.loc 1 874 0
 114 0062 022C     		cmp	r4, #2
 115 0064 0BD0     		beq	.L15
 116              		.loc 1 874 0 is_stmt 0 discriminator 1
 117 0066 0028     		cmp	r0, #0
 118 0068 0BD1     		bne	.L16
 875:Generated_Source\PSoC6\pdl\middleware\ble/cy_ble.c ****                        (retIsControllerActive == CY_BLE_SUCCESS))
 876:Generated_Source\PSoC6\pdl\middleware\ble/cy_ble.c ****                     {
 877:Generated_Source\PSoC6\pdl\middleware\ble/cy_ble.c ****                         /* If the BLESS hardware block cannot go to Deep Sleep and BLE Event has no
 878:Generated_Source\PSoC6\pdl\middleware\ble/cy_ble.c ****                          * closed yet, then place CPU to Sleep */
 879:Generated_Source\PSoC6\pdl\middleware\ble/cy_ble.c ****                         (void)Cy_SysPm_Sleep(CY_SYSPM_WAIT_FOR_INTERRUPT);
 119              		.loc 1 879 0 is_stmt 1
 120 006a FFF7FEFF 		bl	Cy_SysPm_CpuEnterSleep
 121              	.LVL15:
 880:Generated_Source\PSoC6\pdl\middleware\ble/cy_ble.c ****                     }
 881:Generated_Source\PSoC6\pdl\middleware\ble/cy_ble.c ****                 #endif /* !CY_BLE_STACK_MODE_HOST_IPC */
 882:Generated_Source\PSoC6\pdl\middleware\ble/cy_ble.c ****                     retVal = CY_SYSPM_FAIL;
 122              		.loc 1 882 0
 123 006e 144C     		ldr	r4, .L18+12
 124              	.LVL16:
 125 0070 08E0     		b	.L5
 126              	.LVL17:
 127              	.L12:
 843:Generated_Source\PSoC6\pdl\middleware\ble/cy_ble.c ****                 }
 128              		.loc 1 843 0
 129 0072 0024     		movs	r4, #0
 130 0074 06E0     		b	.L5
 131              	.LVL18:
 132              	.L13:
 866:Generated_Source\PSoC6\pdl\middleware\ble/cy_ble.c ****                     }
 133              		.loc 1 866 0
 134 0076 124C     		ldr	r4, .L18+12
 135              	.LVL19:
 136 0078 04E0     		b	.L5
 137              	.LVL20:
 138              	.L14:
 861:Generated_Source\PSoC6\pdl\middleware\ble/cy_ble.c ****                     }
 139              		.loc 1 861 0
 140 007a 0024     		movs	r4, #0
 141              	.LVL21:
ARM GAS  C:\Users\Nazar\AppData\Local\Temp\ccWQ1kO8.s 			page 19


 142 007c 02E0     		b	.L5
 143              	.LVL22:
 144              	.L15:
 145              		.loc 1 882 0
 146 007e 104C     		ldr	r4, .L18+12
 147              	.LVL23:
 148 0080 00E0     		b	.L5
 149              	.LVL24:
 150              	.L16:
 151 0082 0F4C     		ldr	r4, .L18+12
 152              	.LVL25:
 153              	.L5:
 883:Generated_Source\PSoC6\pdl\middleware\ble/cy_ble.c ****                 }
 884:Generated_Source\PSoC6\pdl\middleware\ble/cy_ble.c ****                 if(retVal == CY_SYSPM_FAIL)
 154              		.loc 1 884 0
 155 0084 0E4B     		ldr	r3, .L18+12
 156 0086 9C42     		cmp	r4, r3
 157 0088 11D1     		bne	.L2
 885:Generated_Source\PSoC6\pdl\middleware\ble/cy_ble.c ****                 {
 886:Generated_Source\PSoC6\pdl\middleware\ble/cy_ble.c ****                     /* Enable interrupts after failing check */
 887:Generated_Source\PSoC6\pdl\middleware\ble/cy_ble.c ****                     Cy_SysLib_ExitCriticalSection(interruptState);
 158              		.loc 1 887 0
 159 008a 0C4B     		ldr	r3, .L18+8
 160 008c 1868     		ldr	r0, [r3]
 161 008e FFF7FEFF 		bl	Cy_SysLib_ExitCriticalSection
 162              	.LVL26:
 163 0092 0CE0     		b	.L2
 164              	.LVL27:
 165              	.L4:
 166              	.LBE5:
 888:Generated_Source\PSoC6\pdl\middleware\ble/cy_ble.c ****                 }
 889:Generated_Source\PSoC6\pdl\middleware\ble/cy_ble.c ****             }
 890:Generated_Source\PSoC6\pdl\middleware\ble/cy_ble.c ****             break;
 891:Generated_Source\PSoC6\pdl\middleware\ble/cy_ble.c **** 
 892:Generated_Source\PSoC6\pdl\middleware\ble/cy_ble.c ****         /* Enable interrupts after wakeup */
 893:Generated_Source\PSoC6\pdl\middleware\ble/cy_ble.c ****         case (CY_SYSPM_AFTER_TRANSITION):
 894:Generated_Source\PSoC6\pdl\middleware\ble/cy_ble.c ****             Cy_SysLib_ExitCriticalSection(interruptState);
 167              		.loc 1 894 0
 168 0094 094B     		ldr	r3, .L18+8
 169 0096 1868     		ldr	r0, [r3]
 170              	.LVL28:
 171 0098 FFF7FEFF 		bl	Cy_SysLib_ExitCriticalSection
 172              	.LVL29:
 895:Generated_Source\PSoC6\pdl\middleware\ble/cy_ble.c ****             retVal = CY_SYSPM_SUCCESS;
 173              		.loc 1 895 0
 174 009c 0024     		movs	r4, #0
 896:Generated_Source\PSoC6\pdl\middleware\ble/cy_ble.c ****             break;
 175              		.loc 1 896 0
 176 009e 06E0     		b	.L2
 177              	.LVL30:
 178              	.L17:
 897:Generated_Source\PSoC6\pdl\middleware\ble/cy_ble.c **** 
 898:Generated_Source\PSoC6\pdl\middleware\ble/cy_ble.c ****         default:
 899:Generated_Source\PSoC6\pdl\middleware\ble/cy_ble.c ****             retVal = CY_SYSPM_FAIL;
 179              		.loc 1 899 0
 180 00a0 074C     		ldr	r4, .L18+12
 181 00a2 04E0     		b	.L2
ARM GAS  C:\Users\Nazar\AppData\Local\Temp\ccWQ1kO8.s 			page 20


 182              	.L9:
 799:Generated_Source\PSoC6\pdl\middleware\ble/cy_ble.c ****             }
 183              		.loc 1 799 0
 184 00a4 064C     		ldr	r4, .L18+12
 185 00a6 02E0     		b	.L2
 186              	.LVL31:
 187              	.L10:
 807:Generated_Source\PSoC6\pdl\middleware\ble/cy_ble.c ****             }
 188              		.loc 1 807 0
 189 00a8 054C     		ldr	r4, .L18+12
 190 00aa 00E0     		b	.L2
 191              	.L11:
 815:Generated_Source\PSoC6\pdl\middleware\ble/cy_ble.c ****             }
 192              		.loc 1 815 0
 193 00ac 044C     		ldr	r4, .L18+12
 194              	.L2:
 195              	.LVL32:
 900:Generated_Source\PSoC6\pdl\middleware\ble/cy_ble.c ****             break;
 901:Generated_Source\PSoC6\pdl\middleware\ble/cy_ble.c ****     }
 902:Generated_Source\PSoC6\pdl\middleware\ble/cy_ble.c **** 
 903:Generated_Source\PSoC6\pdl\middleware\ble/cy_ble.c ****     return(retVal);
 904:Generated_Source\PSoC6\pdl\middleware\ble/cy_ble.c **** }
 196              		.loc 1 904 0
 197 00ae 2000     		movs	r0, r4
 198              		@ sp needed
 199              	.LVL33:
 200 00b0 70BD     		pop	{r4, r5, r6, pc}
 201              	.L19:
 202 00b2 C046     		.align	2
 203              	.L18:
 204 00b4 00000000 		.word	cy_ble_state
 205 00b8 01018800 		.word	8913153
 206 00bc 00000000 		.word	.LANCHOR0
 207 00c0 FF004200 		.word	4325631
 208              		.cfi_endproc
 209              	.LFE174:
 210              		.size	Cy_BLE_DeepSleepCallback, .-Cy_BLE_DeepSleepCallback
 211              		.section	.text.Cy_BLE_UnregisterHostPMCallbacks,"ax",%progbits
 212              		.align	2
 213              		.global	Cy_BLE_UnregisterHostPMCallbacks
 214              		.code	16
 215              		.thumb_func
 216              		.type	Cy_BLE_UnregisterHostPMCallbacks, %function
 217              	Cy_BLE_UnregisterHostPMCallbacks:
 218              	.LFB167:
  96:Generated_Source\PSoC6\pdl\middleware\ble/cy_ble.c ****     #if (CY_BLE_USE_DEEP_SLEEP != 0u)
 219              		.loc 1 96 0
 220              		.cfi_startproc
 221              		@ args = 0, pretend = 0, frame = 0
 222              		@ frame_needed = 0, uses_anonymous_args = 0
 223 0000 10B5     		push	{r4, lr}
 224              		.cfi_def_cfa_offset 8
 225              		.cfi_offset 4, -8
 226              		.cfi_offset 14, -4
  99:Generated_Source\PSoC6\pdl\middleware\ble/cy_ble.c **** 
 227              		.loc 1 99 0
 228 0002 0248     		ldr	r0, .L21
ARM GAS  C:\Users\Nazar\AppData\Local\Temp\ccWQ1kO8.s 			page 21


 229 0004 FFF7FEFF 		bl	Cy_SysPm_UnregisterCallback
 230              	.LVL34:
 107:Generated_Source\PSoC6\pdl\middleware\ble/cy_ble.c **** 
 231              		.loc 1 107 0
 232              		@ sp needed
 233 0008 10BD     		pop	{r4, pc}
 234              	.L22:
 235 000a C046     		.align	2
 236              	.L21:
 237 000c 00000000 		.word	.LANCHOR1
 238              		.cfi_endproc
 239              	.LFE167:
 240              		.size	Cy_BLE_UnregisterHostPMCallbacks, .-Cy_BLE_UnregisterHostPMCallbacks
 241              		.section	.text.Cy_BLE_Init,"ax",%progbits
 242              		.align	2
 243              		.global	Cy_BLE_Init
 244              		.code	16
 245              		.thumb_func
 246              		.type	Cy_BLE_Init, %function
 247              	Cy_BLE_Init:
 248              	.LFB168:
 134:Generated_Source\PSoC6\pdl\middleware\ble/cy_ble.c ****     cy_en_ble_api_result_t apiResult = CY_BLE_SUCCESS;
 249              		.loc 1 134 0
 250              		.cfi_startproc
 251              		@ args = 0, pretend = 0, frame = 0
 252              		@ frame_needed = 0, uses_anonymous_args = 0
 253              	.LVL35:
 254 0000 10B5     		push	{r4, lr}
 255              		.cfi_def_cfa_offset 8
 256              		.cfi_offset 4, -8
 257              		.cfi_offset 14, -4
 258              	.LVL36:
 137:Generated_Source\PSoC6\pdl\middleware\ble/cy_ble.c ****     {
 259              		.loc 1 137 0
 260 0002 0028     		cmp	r0, #0
 261 0004 13D0     		beq	.L26
 144:Generated_Source\PSoC6\pdl\middleware\ble/cy_ble.c **** 
 262              		.loc 1 144 0
 263 0006 0B4B     		ldr	r3, .L27
 264 0008 5860     		str	r0, [r3, #4]
 148:Generated_Source\PSoC6\pdl\middleware\ble/cy_ble.c ****         {
 265              		.loc 1 148 0
 266 000a C36A     		ldr	r3, [r0, #44]
 267 000c 002B     		cmp	r3, #0
 268 000e 01D0     		beq	.L25
 150:Generated_Source\PSoC6\pdl\middleware\ble/cy_ble.c ****         }
 269              		.loc 1 150 0
 270 0010 084A     		ldr	r2, .L27
 271 0012 9360     		str	r3, [r2, #8]
 272              	.L25:
 152:Generated_Source\PSoC6\pdl\middleware\ble/cy_ble.c ****         (void)memset((uint8_t*)&cy_ble_busyStatus, 0, sizeof(cy_ble_busyStatus));
 273              		.loc 1 152 0
 274 0014 0023     		movs	r3, #0
 275 0016 084A     		ldr	r2, .L27+4
 276 0018 1370     		strb	r3, [r2]
 153:Generated_Source\PSoC6\pdl\middleware\ble/cy_ble.c **** 
 277              		.loc 1 153 0
ARM GAS  C:\Users\Nazar\AppData\Local\Temp\ccWQ1kO8.s 			page 22


 278 001a 084A     		ldr	r2, .L27+8
 279 001c 1370     		strb	r3, [r2]
 155:Generated_Source\PSoC6\pdl\middleware\ble/cy_ble.c **** 
 280              		.loc 1 155 0
 281 001e 084A     		ldr	r2, .L27+12
 282 0020 1360     		str	r3, [r2]
 173:Generated_Source\PSoC6\pdl\middleware\ble/cy_ble.c ****         #endif /* (CY_BLE_GAP_ROLE_PERIPHERAL || CY_BLE_GAP_ROLE_BROADCASTER)  */
 283              		.loc 1 173 0
 284 0022 084A     		ldr	r2, .L27+16
 285 0024 1370     		strb	r3, [r2]
 180:Generated_Source\PSoC6\pdl\middleware\ble/cy_ble.c **** 
 286              		.loc 1 180 0
 287 0026 FFF7FEFF 		bl	Cy_BLE_ServiceInit
 288              	.LVL37:
 135:Generated_Source\PSoC6\pdl\middleware\ble/cy_ble.c **** 
 289              		.loc 1 135 0
 290 002a 0020     		movs	r0, #0
 291 002c 00E0     		b	.L24
 292              	.LVL38:
 293              	.L26:
 139:Generated_Source\PSoC6\pdl\middleware\ble/cy_ble.c ****     }
 294              		.loc 1 139 0
 295 002e 0648     		ldr	r0, .L27+20
 296              	.LVL39:
 297              	.L24:
 190:Generated_Source\PSoC6\pdl\middleware\ble/cy_ble.c **** /** @} */
 298              		.loc 1 190 0
 299              		@ sp needed
 300 0030 10BD     		pop	{r4, pc}
 301              	.L28:
 302 0032 C046     		.align	2
 303              	.L27:
 304 0034 00000000 		.word	.LANCHOR0
 305 0038 00000000 		.word	cy_ble_eventHandlerFlag
 306 003c 00000000 		.word	cy_ble_busyStatus
 307 0040 00000000 		.word	cy_ble_cmdStatus
 308 0044 00000000 		.word	cy_ble_advertisingIntervalType
 309 0048 01001600 		.word	1441793
 310              		.cfi_endproc
 311              	.LFE168:
 312              		.size	Cy_BLE_Init, .-Cy_BLE_Init
 313              		.section	.text.Cy_BLE_Enable,"ax",%progbits
 314              		.align	2
 315              		.global	Cy_BLE_Enable
 316              		.code	16
 317              		.thumb_func
 318              		.type	Cy_BLE_Enable, %function
 319              	Cy_BLE_Enable:
 320              	.LFB169:
 270:Generated_Source\PSoC6\pdl\middleware\ble/cy_ble.c ****     cy_en_ble_api_result_t apiResult = CY_BLE_SUCCESS;
 321              		.loc 1 270 0
 322              		.cfi_startproc
 323              		@ args = 0, pretend = 0, frame = 104
 324              		@ frame_needed = 0, uses_anonymous_args = 0
 325 0000 30B5     		push	{r4, r5, lr}
 326              		.cfi_def_cfa_offset 12
 327              		.cfi_offset 4, -12
ARM GAS  C:\Users\Nazar\AppData\Local\Temp\ccWQ1kO8.s 			page 23


 328              		.cfi_offset 5, -8
 329              		.cfi_offset 14, -4
 330 0002 9BB0     		sub	sp, sp, #108
 331              		.cfi_def_cfa_offset 120
 332              	.LVL40:
 275:Generated_Source\PSoC6\pdl\middleware\ble/cy_ble.c ****     {
 333              		.loc 1 275 0
 334 0004 15AD     		add	r5, sp, #84
 335 0006 1422     		movs	r2, #20
 336 0008 2C49     		ldr	r1, .L33
 337 000a 2800     		movs	r0, r5
 338 000c FFF7FEFF 		bl	memcpy
 339              	.LVL41:
 285:Generated_Source\PSoC6\pdl\middleware\ble/cy_ble.c ****     {
 340              		.loc 1 285 0
 341 0010 02AC     		add	r4, sp, #8
 342 0012 4C22     		movs	r2, #76
 343 0014 0021     		movs	r1, #0
 344 0016 2000     		movs	r0, r4
 345 0018 FFF7FEFF 		bl	memset
 346              	.LVL42:
 347 001c 284B     		ldr	r3, .L33+4
 348 001e 0293     		str	r3, [sp, #8]
 349 0020 A560     		str	r5, [r4, #8]
 350 0022 284B     		ldr	r3, .L33+8
 351 0024 A381     		strh	r3, [r4, #12]
 352 0026 0523     		movs	r3, #5
 353 0028 A373     		strb	r3, [r4, #14]
 354 002a F633     		adds	r3, r3, #246
 355 002c 2383     		strh	r3, [r4, #24]
 356 002e 6383     		strh	r3, [r4, #26]
 357 0030 F83B     		subs	r3, r3, #248
 358 0032 2377     		strb	r3, [r4, #28]
 359 0034 0133     		adds	r3, r3, #1
 360 0036 6377     		strb	r3, [r4, #29]
 361 0038 0622     		movs	r2, #6
 362 003a A277     		strb	r2, [r4, #30]
 363 003c 1B32     		adds	r2, r2, #27
 364 003e A354     		strb	r3, [r4, r2]
 365 0040 2832     		adds	r2, r2, #40
 366 0042 4033     		adds	r3, r3, #64
 367 0044 E252     		strh	r2, [r4, r3]
 368 0046 483A     		subs	r2, r2, #72
 369 0048 0433     		adds	r3, r3, #4
 370 004a E254     		strb	r2, [r4, r3]
 337:Generated_Source\PSoC6\pdl\middleware\ble/cy_ble.c **** 
 371              		.loc 1 337 0
 372 004c 1E48     		ldr	r0, .L33+12
 373 004e FFF7FEFF 		bl	Cy_SysPm_RegisterCallback
 374              	.LVL43:
 362:Generated_Source\PSoC6\pdl\middleware\ble/cy_ble.c ****     #endif /* CY_BLE_DLE_FEATURE_ENABLED */
 375              		.loc 1 362 0
 376 0052 FFF7FEFF 		bl	Cy_BLE_EnableDleFeature
 377              	.LVL44:
 370:Generated_Source\PSoC6\pdl\middleware\ble/cy_ble.c ****     #endif /* CY_BLE_PHY_UPDATE_FEATURE_ENABLED */
 378              		.loc 1 370 0
 379 0056 FFF7FEFF 		bl	Cy_BLE_EnablePhyUpdateFeature
ARM GAS  C:\Users\Nazar\AppData\Local\Temp\ccWQ1kO8.s 			page 24


 380              	.LVL45:
 373:Generated_Source\PSoC6\pdl\middleware\ble/cy_ble.c ****     }
 381              		.loc 1 373 0
 382 005a 08A8     		add	r0, sp, #32
 383 005c FFF7FEFF 		bl	Cy_BLE_StackSetFeatureConfig
 384              	.LVL46:
 376:Generated_Source\PSoC6\pdl\middleware\ble/cy_ble.c ****     {
 385              		.loc 1 376 0
 386 0060 0028     		cmp	r0, #0
 387 0062 28D1     		bne	.L30
 378:Generated_Source\PSoC6\pdl\middleware\ble/cy_ble.c **** 
 388              		.loc 1 378 0
 389 0064 194B     		ldr	r3, .L33+16
 390 0066 0393     		str	r3, [sp, #12]
 381:Generated_Source\PSoC6\pdl\middleware\ble/cy_ble.c ****         {
 391              		.loc 1 381 0
 392 0068 194B     		ldr	r3, .L33+20
 393 006a 5B68     		ldr	r3, [r3, #4]
 394 006c 996B     		ldr	r1, [r3, #56]
 395 006e 0029     		cmp	r1, #0
 396 0070 04D0     		beq	.L31
 383:Generated_Source\PSoC6\pdl\middleware\ble/cy_ble.c ****         }
 397              		.loc 1 383 0
 398 0072 2222     		movs	r2, #34
 399 0074 2A30     		adds	r0, r0, #42
 400              	.LVL47:
 401 0076 6844     		add	r0, r0, sp
 402              	.LVL48:
 403 0078 FFF7FEFF 		bl	memcpy
 404              	.LVL49:
 405              	.L31:
 387:Generated_Source\PSoC6\pdl\middleware\ble/cy_ble.c **** 
 406              		.loc 1 387 0
 407 007c 02A8     		add	r0, sp, #8
 408 007e FFF7FEFF 		bl	Cy_BLE_StackInit
 409              	.LVL50:
 390:Generated_Source\PSoC6\pdl\middleware\ble/cy_ble.c ****         {
 410              		.loc 1 390 0
 411 0082 0028     		cmp	r0, #0
 412 0084 14D1     		bne	.L32
 392:Generated_Source\PSoC6\pdl\middleware\ble/cy_ble.c **** 
 413              		.loc 1 392 0
 414 0086 0122     		movs	r2, #1
 415 0088 124B     		ldr	r3, .L33+24
 416 008a 1A70     		strb	r2, [r3]
 395:Generated_Source\PSoC6\pdl\middleware\ble/cy_ble.c ****         #endif /* (CY_BLE_GAP_ROLE_CENTRAL || CY_BLE_GAP_ROLE_PERIPHERAL) */
 417              		.loc 1 395 0
 418 008c 0023     		movs	r3, #0
 419 008e 124A     		ldr	r2, .L33+28
 420 0090 1370     		strb	r3, [r2]
 421              	.LVL51:
 422              	.LBB6:
 423              	.LBB7:
 424              		.file 2 "Generated_Source\\PSoC6\\pdl\\middleware\\ble\\cy_ble_gap.h"
   1:Generated_Source\PSoC6\pdl\middleware\ble/cy_ble_gap.h **** /***************************************************************************//**
   2:Generated_Source\PSoC6\pdl\middleware\ble/cy_ble_gap.h **** * \file cy_ble_gap.h
   3:Generated_Source\PSoC6\pdl\middleware\ble/cy_ble_gap.h **** * \version 2.90
ARM GAS  C:\Users\Nazar\AppData\Local\Temp\ccWQ1kO8.s 			page 25


   4:Generated_Source\PSoC6\pdl\middleware\ble/cy_ble_gap.h **** *
   5:Generated_Source\PSoC6\pdl\middleware\ble/cy_ble_gap.h **** * \brief
   6:Generated_Source\PSoC6\pdl\middleware\ble/cy_ble_gap.h **** *  Contains the prototypes and constants used in the BLE GAP profile.
   7:Generated_Source\PSoC6\pdl\middleware\ble/cy_ble_gap.h **** *
   8:Generated_Source\PSoC6\pdl\middleware\ble/cy_ble_gap.h **** ********************************************************************************
   9:Generated_Source\PSoC6\pdl\middleware\ble/cy_ble_gap.h **** * \copyright
  10:Generated_Source\PSoC6\pdl\middleware\ble/cy_ble_gap.h **** * Copyright 2017-2023, Cypress Semiconductor Corporation.  All rights reserved.
  11:Generated_Source\PSoC6\pdl\middleware\ble/cy_ble_gap.h **** * You may use this file only in accordance with the license, terms, conditions,
  12:Generated_Source\PSoC6\pdl\middleware\ble/cy_ble_gap.h **** * disclaimers, and limitations in the end user license agreement accompanying
  13:Generated_Source\PSoC6\pdl\middleware\ble/cy_ble_gap.h **** * the software package with which this file was provided.
  14:Generated_Source\PSoC6\pdl\middleware\ble/cy_ble_gap.h **** *******************************************************************************/
  15:Generated_Source\PSoC6\pdl\middleware\ble/cy_ble_gap.h **** 
  16:Generated_Source\PSoC6\pdl\middleware\ble/cy_ble_gap.h **** 
  17:Generated_Source\PSoC6\pdl\middleware\ble/cy_ble_gap.h **** #ifndef CY_BLE_GAP_H
  18:Generated_Source\PSoC6\pdl\middleware\ble/cy_ble_gap.h **** #define CY_BLE_GAP_H
  19:Generated_Source\PSoC6\pdl\middleware\ble/cy_ble_gap.h **** 
  20:Generated_Source\PSoC6\pdl\middleware\ble/cy_ble_gap.h **** #include "cy_ble_config.h"
  21:Generated_Source\PSoC6\pdl\middleware\ble/cy_ble_gap.h **** 
  22:Generated_Source\PSoC6\pdl\middleware\ble/cy_ble_gap.h **** /***************************************
  23:Generated_Source\PSoC6\pdl\middleware\ble/cy_ble_gap.h **** * BLE Stack includes
  24:Generated_Source\PSoC6\pdl\middleware\ble/cy_ble_gap.h **** ***************************************/
  25:Generated_Source\PSoC6\pdl\middleware\ble/cy_ble_gap.h **** #include "cy_ble_stack_gatt.h"
  26:Generated_Source\PSoC6\pdl\middleware\ble/cy_ble_gap.h **** #include "cy_ble_stack_gap.h"
  27:Generated_Source\PSoC6\pdl\middleware\ble/cy_ble_gap.h **** #include "cy_ble_stack_gap_central.h"
  28:Generated_Source\PSoC6\pdl\middleware\ble/cy_ble_gap.h **** #include "cy_ble_stack_gap_peripheral.h"
  29:Generated_Source\PSoC6\pdl\middleware\ble/cy_ble_gap.h **** 
  30:Generated_Source\PSoC6\pdl\middleware\ble/cy_ble_gap.h **** /* C binding of definitions if building with C++ compiler */
  31:Generated_Source\PSoC6\pdl\middleware\ble/cy_ble_gap.h **** #ifdef __cplusplus
  32:Generated_Source\PSoC6\pdl\middleware\ble/cy_ble_gap.h **** extern "C" {
  33:Generated_Source\PSoC6\pdl\middleware\ble/cy_ble_gap.h **** #endif /* __cplusplus */
  34:Generated_Source\PSoC6\pdl\middleware\ble/cy_ble_gap.h **** 
  35:Generated_Source\PSoC6\pdl\middleware\ble/cy_ble_gap.h **** /***************************************
  36:Generated_Source\PSoC6\pdl\middleware\ble/cy_ble_gap.h **** * Conditional Compilation Parameters
  37:Generated_Source\PSoC6\pdl\middleware\ble/cy_ble_gap.h **** ***************************************/
  38:Generated_Source\PSoC6\pdl\middleware\ble/cy_ble_gap.h **** /**
  39:Generated_Source\PSoC6\pdl\middleware\ble/cy_ble_gap.h ****  * The BLE operation mode.
  40:Generated_Source\PSoC6\pdl\middleware\ble/cy_ble_gap.h ****  */
  41:Generated_Source\PSoC6\pdl\middleware\ble/cy_ble_gap.h **** #define CY_BLE_MODE                          (CY_BLE_CONFIG_MODE)
  42:Generated_Source\PSoC6\pdl\middleware\ble/cy_ble_gap.h **** 
  43:Generated_Source\PSoC6\pdl\middleware\ble/cy_ble_gap.h **** /**
  44:Generated_Source\PSoC6\pdl\middleware\ble/cy_ble_gap.h ****  * Maximum number of BLE connections
  45:Generated_Source\PSoC6\pdl\middleware\ble/cy_ble_gap.h ****  * This parameter displays how many BLE connections (both Central and
  46:Generated_Source\PSoC6\pdl\middleware\ble/cy_ble_gap.h ****  * Peripheral) are allowed. Valid range is from 1 to 4.
  47:Generated_Source\PSoC6\pdl\middleware\ble/cy_ble_gap.h ****  */
  48:Generated_Source\PSoC6\pdl\middleware\ble/cy_ble_gap.h **** #define CY_BLE_CONN_COUNT                    (CY_BLE_CONFIG_CONN_COUNT)
  49:Generated_Source\PSoC6\pdl\middleware\ble/cy_ble_gap.h **** 
  50:Generated_Source\PSoC6\pdl\middleware\ble/cy_ble_gap.h **** /**
  51:Generated_Source\PSoC6\pdl\middleware\ble/cy_ble_gap.h ****  * The GAP Role
  52:Generated_Source\PSoC6\pdl\middleware\ble/cy_ble_gap.h ****  * The following defined mask can be used:
  53:Generated_Source\PSoC6\pdl\middleware\ble/cy_ble_gap.h ****  * CY_BLE_GAP_PERIPHERAL  (0x01u) - device operates as peripheral.
  54:Generated_Source\PSoC6\pdl\middleware\ble/cy_ble_gap.h ****  * CY_BLE_GAP_CENTRAL     (0x02u) - device operates as central.
  55:Generated_Source\PSoC6\pdl\middleware\ble/cy_ble_gap.h ****  * CY_BLE_GAP_BROADCASTER (0x04u) - device operates as broadcaster.
  56:Generated_Source\PSoC6\pdl\middleware\ble/cy_ble_gap.h ****  * CY_BLE_GAP_OBSERVER    (0x08u) - device operates as observer.
  57:Generated_Source\PSoC6\pdl\middleware\ble/cy_ble_gap.h ****  * CY_BLE_GAP_HCI         (0x00u) - used when BLE operates in HCI mode.
  58:Generated_Source\PSoC6\pdl\middleware\ble/cy_ble_gap.h ****  */
  59:Generated_Source\PSoC6\pdl\middleware\ble/cy_ble_gap.h **** #define CY_BLE_GAP_ROLE                       (CY_BLE_CONFIG_GAP_ROLE)
  60:Generated_Source\PSoC6\pdl\middleware\ble/cy_ble_gap.h **** 
ARM GAS  C:\Users\Nazar\AppData\Local\Temp\ccWQ1kO8.s 			page 26


  61:Generated_Source\PSoC6\pdl\middleware\ble/cy_ble_gap.h **** /** The number of GAP Peripheral configurations structures */
  62:Generated_Source\PSoC6\pdl\middleware\ble/cy_ble_gap.h **** #define CY_BLE_GAP_PERIPHERAL_COUNT           (CY_BLE_CONFIG_GAP_PERIPHERAL_COUNT)
  63:Generated_Source\PSoC6\pdl\middleware\ble/cy_ble_gap.h **** 
  64:Generated_Source\PSoC6\pdl\middleware\ble/cy_ble_gap.h **** /** The number of GAP Broadcaster configurations structures */
  65:Generated_Source\PSoC6\pdl\middleware\ble/cy_ble_gap.h **** #define CY_BLE_GAP_BROADCASTER_COUNT          (CY_BLE_CONFIG_GAP_BROADCASTER_COUNT)
  66:Generated_Source\PSoC6\pdl\middleware\ble/cy_ble_gap.h **** 
  67:Generated_Source\PSoC6\pdl\middleware\ble/cy_ble_gap.h **** /** The number of GAP Central configurations structures */
  68:Generated_Source\PSoC6\pdl\middleware\ble/cy_ble_gap.h **** #define CY_BLE_GAP_CENTRAL_COUNT              (CY_BLE_CONFIG_GAP_CENTRAL_COUNT)
  69:Generated_Source\PSoC6\pdl\middleware\ble/cy_ble_gap.h **** 
  70:Generated_Source\PSoC6\pdl\middleware\ble/cy_ble_gap.h **** /** The number of GAP Observer configurations structures */
  71:Generated_Source\PSoC6\pdl\middleware\ble/cy_ble_gap.h **** #define CY_BLE_GAP_OBSERVER_COUNT             (CY_BLE_CONFIG_GAP_OBSERVER_COUNT)
  72:Generated_Source\PSoC6\pdl\middleware\ble/cy_ble_gap.h **** 
  73:Generated_Source\PSoC6\pdl\middleware\ble/cy_ble_gap.h **** /** The number of Security configurations structures */
  74:Generated_Source\PSoC6\pdl\middleware\ble/cy_ble_gap.h **** #define CY_BLE_AUTH_INFO_COUNT                (CY_BLE_CONFIG_AUTH_INFO_COUNT)
  75:Generated_Source\PSoC6\pdl\middleware\ble/cy_ble_gap.h **** 
  76:Generated_Source\PSoC6\pdl\middleware\ble/cy_ble_gap.h **** /** The Bonding Requirement structures */
  77:Generated_Source\PSoC6\pdl\middleware\ble/cy_ble_gap.h **** #define CY_BLE_BONDING_REQUIREMENT            (CY_BLE_CONFIG_BONDING_REQUIREMENT)
  78:Generated_Source\PSoC6\pdl\middleware\ble/cy_ble_gap.h **** 
  79:Generated_Source\PSoC6\pdl\middleware\ble/cy_ble_gap.h **** /** The GAP Role defines */
  80:Generated_Source\PSoC6\pdl\middleware\ble/cy_ble_gap.h **** #define CY_BLE_GAP_ROLE_PERIPHERAL            (0u != (CY_BLE_GAP_ROLE & CY_BLE_GAP_PERIPHERAL))
  81:Generated_Source\PSoC6\pdl\middleware\ble/cy_ble_gap.h **** #define CY_BLE_GAP_ROLE_CENTRAL               (0u != (CY_BLE_GAP_ROLE & CY_BLE_GAP_CENTRAL))
  82:Generated_Source\PSoC6\pdl\middleware\ble/cy_ble_gap.h **** #define CY_BLE_GAP_ROLE_OBSERVER              (0u != (CY_BLE_GAP_ROLE & CY_BLE_GAP_OBSERVER))
  83:Generated_Source\PSoC6\pdl\middleware\ble/cy_ble_gap.h **** #define CY_BLE_GAP_ROLE_BROADCASTER           (0u != (CY_BLE_GAP_ROLE & CY_BLE_GAP_BROADCASTER))
  84:Generated_Source\PSoC6\pdl\middleware\ble/cy_ble_gap.h **** 
  85:Generated_Source\PSoC6\pdl\middleware\ble/cy_ble_gap.h **** #define CY_BLE_GAPP_CONF_COUNT                (CY_BLE_GAP_PERIPHERAL_COUNT + CY_BLE_GAP_BROADCASTER
  86:Generated_Source\PSoC6\pdl\middleware\ble/cy_ble_gap.h **** #define CY_BLE_GAPC_CONF_COUNT                (CY_BLE_GAP_CENTRAL_COUNT + CY_BLE_GAP_OBSERVER_COUNT
  87:Generated_Source\PSoC6\pdl\middleware\ble/cy_ble_gap.h **** 
  88:Generated_Source\PSoC6\pdl\middleware\ble/cy_ble_gap.h **** /***************************************
  89:Generated_Source\PSoC6\pdl\middleware\ble/cy_ble_gap.h **** * Type Definitions
  90:Generated_Source\PSoC6\pdl\middleware\ble/cy_ble_gap.h **** ***************************************/
  91:Generated_Source\PSoC6\pdl\middleware\ble/cy_ble_gap.h **** 
  92:Generated_Source\PSoC6\pdl\middleware\ble/cy_ble_gap.h **** #if (CY_BLE_MODE_PROFILE)
  93:Generated_Source\PSoC6\pdl\middleware\ble/cy_ble_gap.h **** 
  94:Generated_Source\PSoC6\pdl\middleware\ble/cy_ble_gap.h **** /***************************************
  95:Generated_Source\PSoC6\pdl\middleware\ble/cy_ble_gap.h **** * Enumerated Types and Structures
  96:Generated_Source\PSoC6\pdl\middleware\ble/cy_ble_gap.h **** ***************************************/
  97:Generated_Source\PSoC6\pdl\middleware\ble/cy_ble_gap.h **** 
  98:Generated_Source\PSoC6\pdl\middleware\ble/cy_ble_gap.h **** /**
  99:Generated_Source\PSoC6\pdl\middleware\ble/cy_ble_gap.h ****  * \addtogroup group_ble_common_api_gap_definitions
 100:Generated_Source\PSoC6\pdl\middleware\ble/cy_ble_gap.h ****  * @{
 101:Generated_Source\PSoC6\pdl\middleware\ble/cy_ble_gap.h ****  */
 102:Generated_Source\PSoC6\pdl\middleware\ble/cy_ble_gap.h **** 
 103:Generated_Source\PSoC6\pdl\middleware\ble/cy_ble_gap.h **** /** BLE state machine type */
 104:Generated_Source\PSoC6\pdl\middleware\ble/cy_ble_gap.h **** typedef enum
 105:Generated_Source\PSoC6\pdl\middleware\ble/cy_ble_gap.h **** {
 106:Generated_Source\PSoC6\pdl\middleware\ble/cy_ble_gap.h ****     CY_BLE_STATE_STOPPED,                             /**< BLE is turned off */
 107:Generated_Source\PSoC6\pdl\middleware\ble/cy_ble_gap.h ****     CY_BLE_STATE_INITIALIZING,                        /**< Initializing state */
 108:Generated_Source\PSoC6\pdl\middleware\ble/cy_ble_gap.h ****     CY_BLE_STATE_ON,                                  /**< BLE is turned on */
 109:Generated_Source\PSoC6\pdl\middleware\ble/cy_ble_gap.h **** #if (CY_BLE_GAP_ROLE_CENTRAL)
 110:Generated_Source\PSoC6\pdl\middleware\ble/cy_ble_gap.h ****     CY_BLE_STATE_CONNECTING,                          /**< Connecting */
 111:Generated_Source\PSoC6\pdl\middleware\ble/cy_ble_gap.h **** #endif /* CY_BLE_GAP_ROLE_CENTRAL */
 112:Generated_Source\PSoC6\pdl\middleware\ble/cy_ble_gap.h **** } cy_en_ble_state_t;
 113:Generated_Source\PSoC6\pdl\middleware\ble/cy_ble_gap.h **** 
 114:Generated_Source\PSoC6\pdl\middleware\ble/cy_ble_gap.h **** 
 115:Generated_Source\PSoC6\pdl\middleware\ble/cy_ble_gap.h **** /** Scanning state machine type */
 116:Generated_Source\PSoC6\pdl\middleware\ble/cy_ble_gap.h **** typedef enum
 117:Generated_Source\PSoC6\pdl\middleware\ble/cy_ble_gap.h **** {
ARM GAS  C:\Users\Nazar\AppData\Local\Temp\ccWQ1kO8.s 			page 27


 118:Generated_Source\PSoC6\pdl\middleware\ble/cy_ble_gap.h ****     CY_BLE_SCAN_STATE_STOPPED,                        /**< Scanning is stopped */
 119:Generated_Source\PSoC6\pdl\middleware\ble/cy_ble_gap.h ****     CY_BLE_SCAN_STATE_SCAN_INITIATED,                 /**< Scanning is initiated */
 120:Generated_Source\PSoC6\pdl\middleware\ble/cy_ble_gap.h ****     CY_BLE_SCAN_STATE_SCANNING,                       /**< Scanning process */
 121:Generated_Source\PSoC6\pdl\middleware\ble/cy_ble_gap.h ****     CY_BLE_SCAN_STATE_STOP_INITIATED                  /**< Stop scanning is initiated */
 122:Generated_Source\PSoC6\pdl\middleware\ble/cy_ble_gap.h **** } cy_en_ble_scan_state_t;
 123:Generated_Source\PSoC6\pdl\middleware\ble/cy_ble_gap.h **** 
 124:Generated_Source\PSoC6\pdl\middleware\ble/cy_ble_gap.h **** /** Advertising state machine type */
 125:Generated_Source\PSoC6\pdl\middleware\ble/cy_ble_gap.h **** typedef enum
 126:Generated_Source\PSoC6\pdl\middleware\ble/cy_ble_gap.h **** {
 127:Generated_Source\PSoC6\pdl\middleware\ble/cy_ble_gap.h ****     CY_BLE_ADV_STATE_STOPPED,                         /**< Advertising is stopped */
 128:Generated_Source\PSoC6\pdl\middleware\ble/cy_ble_gap.h ****     CY_BLE_ADV_STATE_ADV_INITIATED,                   /**< Advertising is initiated */
 129:Generated_Source\PSoC6\pdl\middleware\ble/cy_ble_gap.h ****     CY_BLE_ADV_STATE_ADVERTISING,                     /**< Advertising process */
 130:Generated_Source\PSoC6\pdl\middleware\ble/cy_ble_gap.h ****     CY_BLE_ADV_STATE_STOP_INITIATED                   /**< Stop advertising is initiated */
 131:Generated_Source\PSoC6\pdl\middleware\ble/cy_ble_gap.h **** } cy_en_ble_adv_state_t;
 132:Generated_Source\PSoC6\pdl\middleware\ble/cy_ble_gap.h **** 
 133:Generated_Source\PSoC6\pdl\middleware\ble/cy_ble_gap.h **** /** Connection state machine type */
 134:Generated_Source\PSoC6\pdl\middleware\ble/cy_ble_gap.h **** typedef enum
 135:Generated_Source\PSoC6\pdl\middleware\ble/cy_ble_gap.h **** {
 136:Generated_Source\PSoC6\pdl\middleware\ble/cy_ble_gap.h ****     CY_BLE_CONN_STATE_DISCONNECTED,                   /**< Essentially idle state */
 137:Generated_Source\PSoC6\pdl\middleware\ble/cy_ble_gap.h ****     CY_BLE_CONN_STATE_CLIENT_DISCONNECTED_DISCOVERED, /**< Server is disconnected but discovered */
 138:Generated_Source\PSoC6\pdl\middleware\ble/cy_ble_gap.h ****     CY_BLE_CONN_STATE_CONNECTED,                      /**< Peer device is connected for this and fo
 139:Generated_Source\PSoC6\pdl\middleware\ble/cy_ble_gap.h ****     CY_BLE_CONN_STATE_CLIENT_SRVC_DISCOVERING,        /**< Server services are being discovered */
 140:Generated_Source\PSoC6\pdl\middleware\ble/cy_ble_gap.h ****     CY_BLE_CONN_STATE_CLIENT_INCL_DISCOVERING,        /**< Server included services are being disco
 141:Generated_Source\PSoC6\pdl\middleware\ble/cy_ble_gap.h ****     CY_BLE_CONN_STATE_CLIENT_CHAR_DISCOVERING,        /**< Server characteristics are being discove
 142:Generated_Source\PSoC6\pdl\middleware\ble/cy_ble_gap.h ****     CY_BLE_CONN_STATE_CLIENT_DESCR_DISCOVERING,       /**< Server char. descriptors are being disco
 143:Generated_Source\PSoC6\pdl\middleware\ble/cy_ble_gap.h ****     CY_BLE_CONN_STATE_CLIENT_DISCOVERED               /**< Server is discovered */
 144:Generated_Source\PSoC6\pdl\middleware\ble/cy_ble_gap.h **** } cy_en_ble_conn_state_t;
 145:Generated_Source\PSoC6\pdl\middleware\ble/cy_ble_gap.h **** 
 146:Generated_Source\PSoC6\pdl\middleware\ble/cy_ble_gap.h **** /** Structure with Generic Access Profile Service (GAPS) attribute handles */
 147:Generated_Source\PSoC6\pdl\middleware\ble/cy_ble_gap.h **** typedef struct
 148:Generated_Source\PSoC6\pdl\middleware\ble/cy_ble_gap.h **** {
 149:Generated_Source\PSoC6\pdl\middleware\ble/cy_ble_gap.h ****     /** Service handle*/
 150:Generated_Source\PSoC6\pdl\middleware\ble/cy_ble_gap.h ****     cy_ble_gatt_db_attr_handle_t serviceHandle;
 151:Generated_Source\PSoC6\pdl\middleware\ble/cy_ble_gap.h **** 
 152:Generated_Source\PSoC6\pdl\middleware\ble/cy_ble_gap.h ****     /** Handle of the GAPS Device Name Characteristic */
 153:Generated_Source\PSoC6\pdl\middleware\ble/cy_ble_gap.h ****     cy_ble_gatt_db_attr_handle_t deviceNameCharHandle;
 154:Generated_Source\PSoC6\pdl\middleware\ble/cy_ble_gap.h **** 
 155:Generated_Source\PSoC6\pdl\middleware\ble/cy_ble_gap.h ****     /** Handle of the GAPS Appearance Characteristic */
 156:Generated_Source\PSoC6\pdl\middleware\ble/cy_ble_gap.h ****     cy_ble_gatt_db_attr_handle_t appearanceCharHandle;
 157:Generated_Source\PSoC6\pdl\middleware\ble/cy_ble_gap.h **** 
 158:Generated_Source\PSoC6\pdl\middleware\ble/cy_ble_gap.h ****     /** Handle of the GAPS Peripheral Preferred Connection Parameters Characteristic */
 159:Generated_Source\PSoC6\pdl\middleware\ble/cy_ble_gap.h ****     cy_ble_gatt_db_attr_handle_t prefConnParamCharHandle;
 160:Generated_Source\PSoC6\pdl\middleware\ble/cy_ble_gap.h **** 
 161:Generated_Source\PSoC6\pdl\middleware\ble/cy_ble_gap.h ****     /** Handle of the GAPS Central Address Resolution characteristic */
 162:Generated_Source\PSoC6\pdl\middleware\ble/cy_ble_gap.h ****     cy_ble_gatt_db_attr_handle_t centralAddrResolutionCharHandle;
 163:Generated_Source\PSoC6\pdl\middleware\ble/cy_ble_gap.h **** 
 164:Generated_Source\PSoC6\pdl\middleware\ble/cy_ble_gap.h ****     /** Handle of the GAPS Resolvable Private Address Only characteristic */
 165:Generated_Source\PSoC6\pdl\middleware\ble/cy_ble_gap.h ****     cy_ble_gatt_db_attr_handle_t resolvablePrivateAddressOnly;
 166:Generated_Source\PSoC6\pdl\middleware\ble/cy_ble_gap.h **** } cy_stc_ble_gaps_t;
 167:Generated_Source\PSoC6\pdl\middleware\ble/cy_ble_gap.h **** 
 168:Generated_Source\PSoC6\pdl\middleware\ble/cy_ble_gap.h **** /** GAP Service characteristics server's GATT DB handles structure type */
 169:Generated_Source\PSoC6\pdl\middleware\ble/cy_ble_gap.h **** typedef struct
 170:Generated_Source\PSoC6\pdl\middleware\ble/cy_ble_gap.h **** {
 171:Generated_Source\PSoC6\pdl\middleware\ble/cy_ble_gap.h ****     /** Handle of the GAPS Device Name Characteristic */
 172:Generated_Source\PSoC6\pdl\middleware\ble/cy_ble_gap.h ****     cy_ble_gatt_db_attr_handle_t deviceNameCharHandle;
 173:Generated_Source\PSoC6\pdl\middleware\ble/cy_ble_gap.h **** 
 174:Generated_Source\PSoC6\pdl\middleware\ble/cy_ble_gap.h ****     /** Handle of the GAPS Appearance Characteristic */
ARM GAS  C:\Users\Nazar\AppData\Local\Temp\ccWQ1kO8.s 			page 28


 175:Generated_Source\PSoC6\pdl\middleware\ble/cy_ble_gap.h ****     cy_ble_gatt_db_attr_handle_t appearanceCharHandle;
 176:Generated_Source\PSoC6\pdl\middleware\ble/cy_ble_gap.h **** 
 177:Generated_Source\PSoC6\pdl\middleware\ble/cy_ble_gap.h ****     /** Handle of the GAPS Peripheral Privacy Flag Parameters Characteristic */
 178:Generated_Source\PSoC6\pdl\middleware\ble/cy_ble_gap.h ****     cy_ble_gatt_db_attr_handle_t periphPrivacyCharHandle;
 179:Generated_Source\PSoC6\pdl\middleware\ble/cy_ble_gap.h **** 
 180:Generated_Source\PSoC6\pdl\middleware\ble/cy_ble_gap.h ****     /** Handle of the GAPS Reconnection Address Characteristic */
 181:Generated_Source\PSoC6\pdl\middleware\ble/cy_ble_gap.h ****     cy_ble_gatt_db_attr_handle_t reconnAddrCharHandle;
 182:Generated_Source\PSoC6\pdl\middleware\ble/cy_ble_gap.h **** 
 183:Generated_Source\PSoC6\pdl\middleware\ble/cy_ble_gap.h ****     /** Handle of the GAPS Peripheral Preferred Connection Parameters Characteristic */
 184:Generated_Source\PSoC6\pdl\middleware\ble/cy_ble_gap.h ****     cy_ble_gatt_db_attr_handle_t prefConnParamCharHandle;
 185:Generated_Source\PSoC6\pdl\middleware\ble/cy_ble_gap.h **** 
 186:Generated_Source\PSoC6\pdl\middleware\ble/cy_ble_gap.h ****     /** Handle of the GAPS Central Address Resolution characteristic */
 187:Generated_Source\PSoC6\pdl\middleware\ble/cy_ble_gap.h ****     cy_ble_gatt_db_attr_handle_t centralAddrResolutionCharHandle;
 188:Generated_Source\PSoC6\pdl\middleware\ble/cy_ble_gap.h **** 
 189:Generated_Source\PSoC6\pdl\middleware\ble/cy_ble_gap.h ****     /** Handle of the GAPS Resolvable Private Address Only characteristic */
 190:Generated_Source\PSoC6\pdl\middleware\ble/cy_ble_gap.h ****     cy_ble_gatt_db_attr_handle_t resolvablePrivateAddressOnly;
 191:Generated_Source\PSoC6\pdl\middleware\ble/cy_ble_gap.h **** }cy_stc_ble_gapc_t;
 192:Generated_Source\PSoC6\pdl\middleware\ble/cy_ble_gap.h **** 
 193:Generated_Source\PSoC6\pdl\middleware\ble/cy_ble_gap.h **** /* Stack mode defines */
 194:Generated_Source\PSoC6\pdl\middleware\ble/cy_ble_gap.h **** 
 195:Generated_Source\PSoC6\pdl\middleware\ble/cy_ble_gap.h **** /** Advertisement SIG assigned numbers */
 196:Generated_Source\PSoC6\pdl\middleware\ble/cy_ble_gap.h **** typedef enum
 197:Generated_Source\PSoC6\pdl\middleware\ble/cy_ble_gap.h **** {
 198:Generated_Source\PSoC6\pdl\middleware\ble/cy_ble_gap.h ****     /** Flags */
 199:Generated_Source\PSoC6\pdl\middleware\ble/cy_ble_gap.h ****     CY_BLE_GAP_ADV_FLAGS = 0x01u,
 200:Generated_Source\PSoC6\pdl\middleware\ble/cy_ble_gap.h **** 
 201:Generated_Source\PSoC6\pdl\middleware\ble/cy_ble_gap.h ****     /** Incomplete List of 16-bit Service Class UUIDs */
 202:Generated_Source\PSoC6\pdl\middleware\ble/cy_ble_gap.h ****     CY_BLE_GAP_ADV_INCOMPL_16UUID,
 203:Generated_Source\PSoC6\pdl\middleware\ble/cy_ble_gap.h **** 
 204:Generated_Source\PSoC6\pdl\middleware\ble/cy_ble_gap.h ****     /** Complete List of 16-bit Service Class UUIDs */
 205:Generated_Source\PSoC6\pdl\middleware\ble/cy_ble_gap.h ****     CY_BLE_GAP_ADV_COMPL_16UUID,
 206:Generated_Source\PSoC6\pdl\middleware\ble/cy_ble_gap.h **** 
 207:Generated_Source\PSoC6\pdl\middleware\ble/cy_ble_gap.h ****     /** Incomplete List of 32-bit Service Class UUIDs */
 208:Generated_Source\PSoC6\pdl\middleware\ble/cy_ble_gap.h ****     CY_BLE_GAP_ADV_INCOMPL_32_UUID,
 209:Generated_Source\PSoC6\pdl\middleware\ble/cy_ble_gap.h **** 
 210:Generated_Source\PSoC6\pdl\middleware\ble/cy_ble_gap.h ****     /** Complete List of 32-bit Service Class UUIDs */
 211:Generated_Source\PSoC6\pdl\middleware\ble/cy_ble_gap.h ****     CY_BLE_GAP_ADV_COMPL_32_UUID,
 212:Generated_Source\PSoC6\pdl\middleware\ble/cy_ble_gap.h **** 
 213:Generated_Source\PSoC6\pdl\middleware\ble/cy_ble_gap.h ****     /** Incomplete List of 128-bit Service Class UUIDs */
 214:Generated_Source\PSoC6\pdl\middleware\ble/cy_ble_gap.h ****     CY_BLE_GAP_ADV_INCOMPL_128_UUID,
 215:Generated_Source\PSoC6\pdl\middleware\ble/cy_ble_gap.h **** 
 216:Generated_Source\PSoC6\pdl\middleware\ble/cy_ble_gap.h ****     /** Complete List of 128-bit Service Class UUIDs */
 217:Generated_Source\PSoC6\pdl\middleware\ble/cy_ble_gap.h ****     CY_BLE_GAP_ADV_COMPL_128_UUID,
 218:Generated_Source\PSoC6\pdl\middleware\ble/cy_ble_gap.h **** 
 219:Generated_Source\PSoC6\pdl\middleware\ble/cy_ble_gap.h ****     /** Shortened Local Name */
 220:Generated_Source\PSoC6\pdl\middleware\ble/cy_ble_gap.h ****     CY_BLE_GAP_ADV_SHORT_NAME,
 221:Generated_Source\PSoC6\pdl\middleware\ble/cy_ble_gap.h **** 
 222:Generated_Source\PSoC6\pdl\middleware\ble/cy_ble_gap.h ****     /** Complete Local Name */
 223:Generated_Source\PSoC6\pdl\middleware\ble/cy_ble_gap.h ****     CY_BLE_GAP_ADV_COMPL_NAME,
 224:Generated_Source\PSoC6\pdl\middleware\ble/cy_ble_gap.h **** 
 225:Generated_Source\PSoC6\pdl\middleware\ble/cy_ble_gap.h ****     /** Tx Power Level */
 226:Generated_Source\PSoC6\pdl\middleware\ble/cy_ble_gap.h ****     CY_BLE_GAP_ADV_TX_PWR_LVL,
 227:Generated_Source\PSoC6\pdl\middleware\ble/cy_ble_gap.h **** 
 228:Generated_Source\PSoC6\pdl\middleware\ble/cy_ble_gap.h ****     /** Class of Device */
 229:Generated_Source\PSoC6\pdl\middleware\ble/cy_ble_gap.h ****     CY_BLE_GAP_ADV_CLASS_OF_DEVICE = 0x0Du,
 230:Generated_Source\PSoC6\pdl\middleware\ble/cy_ble_gap.h **** 
 231:Generated_Source\PSoC6\pdl\middleware\ble/cy_ble_gap.h ****     /** Simple Pairing Hash C */
ARM GAS  C:\Users\Nazar\AppData\Local\Temp\ccWQ1kO8.s 			page 29


 232:Generated_Source\PSoC6\pdl\middleware\ble/cy_ble_gap.h ****     CY_BLE_GAP_ADV_SMPL_PAIR_HASH_C,
 233:Generated_Source\PSoC6\pdl\middleware\ble/cy_ble_gap.h **** 
 234:Generated_Source\PSoC6\pdl\middleware\ble/cy_ble_gap.h ****     /** Simple Pairing Randomizer R */
 235:Generated_Source\PSoC6\pdl\middleware\ble/cy_ble_gap.h ****     CY_BLE_GAP_ADV_SMPL_PAIR_RANDOM_R,
 236:Generated_Source\PSoC6\pdl\middleware\ble/cy_ble_gap.h **** 
 237:Generated_Source\PSoC6\pdl\middleware\ble/cy_ble_gap.h ****     /** Device ID*/
 238:Generated_Source\PSoC6\pdl\middleware\ble/cy_ble_gap.h ****     CY_BLE_GAP_ADV_DEVICE_ID,
 239:Generated_Source\PSoC6\pdl\middleware\ble/cy_ble_gap.h **** 
 240:Generated_Source\PSoC6\pdl\middleware\ble/cy_ble_gap.h ****     /** Security Manager TK Value */
 241:Generated_Source\PSoC6\pdl\middleware\ble/cy_ble_gap.h ****     CY_BLE_GAP_ADV_SCRT_MNGR_TK_VAL = 0x10u,
 242:Generated_Source\PSoC6\pdl\middleware\ble/cy_ble_gap.h **** 
 243:Generated_Source\PSoC6\pdl\middleware\ble/cy_ble_gap.h ****     /** Security Manager Out of Band Flags */
 244:Generated_Source\PSoC6\pdl\middleware\ble/cy_ble_gap.h ****     CY_BLE_GAP_ADV_SCRT_MNGR_OOB_FLAGS,
 245:Generated_Source\PSoC6\pdl\middleware\ble/cy_ble_gap.h **** 
 246:Generated_Source\PSoC6\pdl\middleware\ble/cy_ble_gap.h ****     /** Slave Connection Interval Range */
 247:Generated_Source\PSoC6\pdl\middleware\ble/cy_ble_gap.h ****     CY_BLE_GAP_ADV_SLAVE_CONN_INTRV_RANGE,
 248:Generated_Source\PSoC6\pdl\middleware\ble/cy_ble_gap.h **** 
 249:Generated_Source\PSoC6\pdl\middleware\ble/cy_ble_gap.h ****     /** List of 16-bit Service Solicitation UUIDs */
 250:Generated_Source\PSoC6\pdl\middleware\ble/cy_ble_gap.h ****     CY_BLE_GAP_ADV_SOLICIT_16UUID = 0x14u,
 251:Generated_Source\PSoC6\pdl\middleware\ble/cy_ble_gap.h **** 
 252:Generated_Source\PSoC6\pdl\middleware\ble/cy_ble_gap.h ****     /** List of 128-bit Service Solicitation UUIDs */
 253:Generated_Source\PSoC6\pdl\middleware\ble/cy_ble_gap.h ****     CY_BLE_GAP_ADV_SOLICIT_128UUID,
 254:Generated_Source\PSoC6\pdl\middleware\ble/cy_ble_gap.h **** 
 255:Generated_Source\PSoC6\pdl\middleware\ble/cy_ble_gap.h ****     /** Service Data - 16-bit UUID */
 256:Generated_Source\PSoC6\pdl\middleware\ble/cy_ble_gap.h ****     CY_BLE_GAP_ADV_SRVC_DATA_16UUID,
 257:Generated_Source\PSoC6\pdl\middleware\ble/cy_ble_gap.h **** 
 258:Generated_Source\PSoC6\pdl\middleware\ble/cy_ble_gap.h ****     /** Public Target Address */
 259:Generated_Source\PSoC6\pdl\middleware\ble/cy_ble_gap.h ****     CY_BLE_GAP_ADV_PUBLIC_TARGET_ADDR,
 260:Generated_Source\PSoC6\pdl\middleware\ble/cy_ble_gap.h **** 
 261:Generated_Source\PSoC6\pdl\middleware\ble/cy_ble_gap.h ****     /** Random Target Address */
 262:Generated_Source\PSoC6\pdl\middleware\ble/cy_ble_gap.h ****     CY_BLE_GAP_ADV_RANDOM_TARGET_ADDR,
 263:Generated_Source\PSoC6\pdl\middleware\ble/cy_ble_gap.h **** 
 264:Generated_Source\PSoC6\pdl\middleware\ble/cy_ble_gap.h ****     /** Appearance */
 265:Generated_Source\PSoC6\pdl\middleware\ble/cy_ble_gap.h ****     CY_BLE_GAP_ADV_APPEARANCE,
 266:Generated_Source\PSoC6\pdl\middleware\ble/cy_ble_gap.h **** 
 267:Generated_Source\PSoC6\pdl\middleware\ble/cy_ble_gap.h ****     /** Advertising Interval */
 268:Generated_Source\PSoC6\pdl\middleware\ble/cy_ble_gap.h ****     CY_BLE_GAP_ADV_ADVERT_INTERVAL,
 269:Generated_Source\PSoC6\pdl\middleware\ble/cy_ble_gap.h **** 
 270:Generated_Source\PSoC6\pdl\middleware\ble/cy_ble_gap.h ****     /** LE Bluetooth Device Address */
 271:Generated_Source\PSoC6\pdl\middleware\ble/cy_ble_gap.h ****     CY_BLE_GAP_ADV_LE_BT_DEVICE_ADDR,
 272:Generated_Source\PSoC6\pdl\middleware\ble/cy_ble_gap.h **** 
 273:Generated_Source\PSoC6\pdl\middleware\ble/cy_ble_gap.h ****     /** LE Role */
 274:Generated_Source\PSoC6\pdl\middleware\ble/cy_ble_gap.h ****     CY_BLE_GAP_ADV_LE_ROLE,
 275:Generated_Source\PSoC6\pdl\middleware\ble/cy_ble_gap.h **** 
 276:Generated_Source\PSoC6\pdl\middleware\ble/cy_ble_gap.h ****     /** Simple Pairing Hash C-256 */
 277:Generated_Source\PSoC6\pdl\middleware\ble/cy_ble_gap.h ****     CY_BLE_GAP_ADV_SMPL_PAIR_HASH_C256,
 278:Generated_Source\PSoC6\pdl\middleware\ble/cy_ble_gap.h **** 
 279:Generated_Source\PSoC6\pdl\middleware\ble/cy_ble_gap.h ****     /** Simple Pairing Randomizer R-256 */
 280:Generated_Source\PSoC6\pdl\middleware\ble/cy_ble_gap.h ****     CY_BLE_GAP_ADV_SMPL_PAIR_RANDOM_R256,
 281:Generated_Source\PSoC6\pdl\middleware\ble/cy_ble_gap.h **** 
 282:Generated_Source\PSoC6\pdl\middleware\ble/cy_ble_gap.h ****     /** List of 32-bit Service Solicitation UUIDs */
 283:Generated_Source\PSoC6\pdl\middleware\ble/cy_ble_gap.h ****     CY_BLE_GAP_ADV_SOLICIT_32UUID,
 284:Generated_Source\PSoC6\pdl\middleware\ble/cy_ble_gap.h **** 
 285:Generated_Source\PSoC6\pdl\middleware\ble/cy_ble_gap.h ****     /** Service Data - 32-bit UUID */
 286:Generated_Source\PSoC6\pdl\middleware\ble/cy_ble_gap.h ****     CY_BLE_GAP_ADV_SRVC_DATA_32UUID,
 287:Generated_Source\PSoC6\pdl\middleware\ble/cy_ble_gap.h **** 
 288:Generated_Source\PSoC6\pdl\middleware\ble/cy_ble_gap.h ****     /** Service Data - 128-bit UUID */
ARM GAS  C:\Users\Nazar\AppData\Local\Temp\ccWQ1kO8.s 			page 30


 289:Generated_Source\PSoC6\pdl\middleware\ble/cy_ble_gap.h ****     CY_BLE_GAP_ADV_SRVC_DATA_128UUID,
 290:Generated_Source\PSoC6\pdl\middleware\ble/cy_ble_gap.h **** 
 291:Generated_Source\PSoC6\pdl\middleware\ble/cy_ble_gap.h ****     /** 3D Information Data */
 292:Generated_Source\PSoC6\pdl\middleware\ble/cy_ble_gap.h ****     CY_BLE_GAP_ADV_3D_INFO_DATA = 0x3D,
 293:Generated_Source\PSoC6\pdl\middleware\ble/cy_ble_gap.h **** 
 294:Generated_Source\PSoC6\pdl\middleware\ble/cy_ble_gap.h ****     /** Manufacturer Specific Data */
 295:Generated_Source\PSoC6\pdl\middleware\ble/cy_ble_gap.h ****     CY_BLE_GAP_ADV_MANUFACTURER_SPECIFIC_DATA = 0xFF
 296:Generated_Source\PSoC6\pdl\middleware\ble/cy_ble_gap.h **** }cy_en_ble_gap_adv_assign_numbers_t;
 297:Generated_Source\PSoC6\pdl\middleware\ble/cy_ble_gap.h **** 
 298:Generated_Source\PSoC6\pdl\middleware\ble/cy_ble_gap.h **** /** GAPP advertising configuration parameters structure */
 299:Generated_Source\PSoC6\pdl\middleware\ble/cy_ble_gap.h **** typedef struct
 300:Generated_Source\PSoC6\pdl\middleware\ble/cy_ble_gap.h **** {
 301:Generated_Source\PSoC6\pdl\middleware\ble/cy_ble_gap.h ****     /** The minimum interval for fast advertising the data and establishing the LE Connection */
 302:Generated_Source\PSoC6\pdl\middleware\ble/cy_ble_gap.h ****     uint16_t fastAdvIntervalMin;
 303:Generated_Source\PSoC6\pdl\middleware\ble/cy_ble_gap.h **** 
 304:Generated_Source\PSoC6\pdl\middleware\ble/cy_ble_gap.h ****     /** The maximum interval for fast advertising the data and establishing the LE Connection */
 305:Generated_Source\PSoC6\pdl\middleware\ble/cy_ble_gap.h ****     uint16_t fastAdvIntervalMax;
 306:Generated_Source\PSoC6\pdl\middleware\ble/cy_ble_gap.h **** 
 307:Generated_Source\PSoC6\pdl\middleware\ble/cy_ble_gap.h ****     /** The timeout value of  fast advertising with fast advertising interval parameters */
 308:Generated_Source\PSoC6\pdl\middleware\ble/cy_ble_gap.h ****     uint16_t fastAdvTimeOut;
 309:Generated_Source\PSoC6\pdl\middleware\ble/cy_ble_gap.h **** 
 310:Generated_Source\PSoC6\pdl\middleware\ble/cy_ble_gap.h ****     /** Slow advertising enable */
 311:Generated_Source\PSoC6\pdl\middleware\ble/cy_ble_gap.h ****     uint8_t  slowAdvEnable;
 312:Generated_Source\PSoC6\pdl\middleware\ble/cy_ble_gap.h **** 
 313:Generated_Source\PSoC6\pdl\middleware\ble/cy_ble_gap.h ****     /** The minimum interval for slow advertising the data and establishing the LE Connection */
 314:Generated_Source\PSoC6\pdl\middleware\ble/cy_ble_gap.h ****     uint16_t slowAdvIntervalMin;
 315:Generated_Source\PSoC6\pdl\middleware\ble/cy_ble_gap.h **** 
 316:Generated_Source\PSoC6\pdl\middleware\ble/cy_ble_gap.h ****     /** The maximum interval for slow  advertising the data and establishing the LE Connection */
 317:Generated_Source\PSoC6\pdl\middleware\ble/cy_ble_gap.h ****     uint16_t slowAdvIntervalMax;
 318:Generated_Source\PSoC6\pdl\middleware\ble/cy_ble_gap.h **** 
 319:Generated_Source\PSoC6\pdl\middleware\ble/cy_ble_gap.h ****     /** The timeout value of slow advertising with slow advertising interval parameters */
 320:Generated_Source\PSoC6\pdl\middleware\ble/cy_ble_gap.h ****     uint16_t slowAdvTimeOut;
 321:Generated_Source\PSoC6\pdl\middleware\ble/cy_ble_gap.h **** }cy_stc_ble_gapp_adv_params_t;
 322:Generated_Source\PSoC6\pdl\middleware\ble/cy_ble_gap.h **** 
 323:Generated_Source\PSoC6\pdl\middleware\ble/cy_ble_gap.h **** /** GAPC advertising configuration parameters structure */
 324:Generated_Source\PSoC6\pdl\middleware\ble/cy_ble_gap.h **** typedef struct
 325:Generated_Source\PSoC6\pdl\middleware\ble/cy_ble_gap.h **** {
 326:Generated_Source\PSoC6\pdl\middleware\ble/cy_ble_gap.h ****     /** The scan interval when operating in Fast connection */
 327:Generated_Source\PSoC6\pdl\middleware\ble/cy_ble_gap.h ****     uint16_t fastScanInterval;
 328:Generated_Source\PSoC6\pdl\middleware\ble/cy_ble_gap.h **** 
 329:Generated_Source\PSoC6\pdl\middleware\ble/cy_ble_gap.h ****     /** Defines the scan window when operating in Fast connection */
 330:Generated_Source\PSoC6\pdl\middleware\ble/cy_ble_gap.h ****     uint16_t fastScanWindow;
 331:Generated_Source\PSoC6\pdl\middleware\ble/cy_ble_gap.h **** 
 332:Generated_Source\PSoC6\pdl\middleware\ble/cy_ble_gap.h ****     /** The timeout value of scanning with fast scan parameters */
 333:Generated_Source\PSoC6\pdl\middleware\ble/cy_ble_gap.h ****     uint16_t fastScanTimeOut;
 334:Generated_Source\PSoC6\pdl\middleware\ble/cy_ble_gap.h **** 
 335:Generated_Source\PSoC6\pdl\middleware\ble/cy_ble_gap.h ****     /** Slow scan enable/disable */
 336:Generated_Source\PSoC6\pdl\middleware\ble/cy_ble_gap.h ****     uint8_t  slowScanEnabled;
 337:Generated_Source\PSoC6\pdl\middleware\ble/cy_ble_gap.h **** 
 338:Generated_Source\PSoC6\pdl\middleware\ble/cy_ble_gap.h ****     /** The scan interval when operating in Slow connection */
 339:Generated_Source\PSoC6\pdl\middleware\ble/cy_ble_gap.h ****     uint16_t slowScanInterval;
 340:Generated_Source\PSoC6\pdl\middleware\ble/cy_ble_gap.h **** 
 341:Generated_Source\PSoC6\pdl\middleware\ble/cy_ble_gap.h ****     /** Defines the scan window when operating in Slow connection */
 342:Generated_Source\PSoC6\pdl\middleware\ble/cy_ble_gap.h ****     uint16_t slowScanWindow;
 343:Generated_Source\PSoC6\pdl\middleware\ble/cy_ble_gap.h **** 
 344:Generated_Source\PSoC6\pdl\middleware\ble/cy_ble_gap.h ****     /** The timeout value of scanning with Slow scan parameters */
 345:Generated_Source\PSoC6\pdl\middleware\ble/cy_ble_gap.h ****     uint16_t slowScanTimeOut;
ARM GAS  C:\Users\Nazar\AppData\Local\Temp\ccWQ1kO8.s 			page 31


 346:Generated_Source\PSoC6\pdl\middleware\ble/cy_ble_gap.h **** 
 347:Generated_Source\PSoC6\pdl\middleware\ble/cy_ble_gap.h ****     /** The minimum permissible connection time value to be used during a connection event */
 348:Generated_Source\PSoC6\pdl\middleware\ble/cy_ble_gap.h ****     uint16_t gapcConnectionIntervalMin;
 349:Generated_Source\PSoC6\pdl\middleware\ble/cy_ble_gap.h **** 
 350:Generated_Source\PSoC6\pdl\middleware\ble/cy_ble_gap.h ****     /** The maximum permissible connection time value to be used during a connection event */
 351:Generated_Source\PSoC6\pdl\middleware\ble/cy_ble_gap.h ****     uint16_t gapcConnectionIntervalMax;
 352:Generated_Source\PSoC6\pdl\middleware\ble/cy_ble_gap.h **** 
 353:Generated_Source\PSoC6\pdl\middleware\ble/cy_ble_gap.h ****     /** Defines the maximum time between two received Data Packet PDUs before
 354:Generated_Source\PSoC6\pdl\middleware\ble/cy_ble_gap.h ****      *  the connection is considered lost */
 355:Generated_Source\PSoC6\pdl\middleware\ble/cy_ble_gap.h ****     uint16_t gapcConnectionSlaveLatency;
 356:Generated_Source\PSoC6\pdl\middleware\ble/cy_ble_gap.h **** 
 357:Generated_Source\PSoC6\pdl\middleware\ble/cy_ble_gap.h ****     /** Defines the LE link supervision timeout interval */
 358:Generated_Source\PSoC6\pdl\middleware\ble/cy_ble_gap.h ****     uint16_t gapcConnectionTimeOut;
 359:Generated_Source\PSoC6\pdl\middleware\ble/cy_ble_gap.h **** }cy_stc_ble_gapc_scan_params_t;
 360:Generated_Source\PSoC6\pdl\middleware\ble/cy_ble_gap.h **** 
 361:Generated_Source\PSoC6\pdl\middleware\ble/cy_ble_gap.h **** /** Store BLE Application Data parameter into flash */
 362:Generated_Source\PSoC6\pdl\middleware\ble/cy_ble_gap.h **** typedef struct
 363:Generated_Source\PSoC6\pdl\middleware\ble/cy_ble_gap.h **** {
 364:Generated_Source\PSoC6\pdl\middleware\ble/cy_ble_gap.h ****     /** Source buffer */
 365:Generated_Source\PSoC6\pdl\middleware\ble/cy_ble_gap.h ****     const uint8_t *srcBuff;
 366:Generated_Source\PSoC6\pdl\middleware\ble/cy_ble_gap.h **** 
 367:Generated_Source\PSoC6\pdl\middleware\ble/cy_ble_gap.h ****     /** Destination buffer */
 368:Generated_Source\PSoC6\pdl\middleware\ble/cy_ble_gap.h ****     const uint8_t *destAddr;
 369:Generated_Source\PSoC6\pdl\middleware\ble/cy_ble_gap.h **** 
 370:Generated_Source\PSoC6\pdl\middleware\ble/cy_ble_gap.h ****     /** Source buffer length */
 371:Generated_Source\PSoC6\pdl\middleware\ble/cy_ble_gap.h ****     uint32_t      buffLen;
 372:Generated_Source\PSoC6\pdl\middleware\ble/cy_ble_gap.h **** 
 373:Generated_Source\PSoC6\pdl\middleware\ble/cy_ble_gap.h ****     /** Write mode: blocking (default) / non-blocking */
 374:Generated_Source\PSoC6\pdl\middleware\ble/cy_ble_gap.h ****     uint32_t      writeMode;
 375:Generated_Source\PSoC6\pdl\middleware\ble/cy_ble_gap.h **** 
 376:Generated_Source\PSoC6\pdl\middleware\ble/cy_ble_gap.h **** } cy_stc_ble_app_flash_param_t;
 377:Generated_Source\PSoC6\pdl\middleware\ble/cy_ble_gap.h **** 
 378:Generated_Source\PSoC6\pdl\middleware\ble/cy_ble_gap.h **** /** @} group_ble_common_api_gap_definitions */
 379:Generated_Source\PSoC6\pdl\middleware\ble/cy_ble_gap.h **** 
 380:Generated_Source\PSoC6\pdl\middleware\ble/cy_ble_gap.h **** /***************************************
 381:Generated_Source\PSoC6\pdl\middleware\ble/cy_ble_gap.h **** * API Constants
 382:Generated_Source\PSoC6\pdl\middleware\ble/cy_ble_gap.h **** ***************************************/
 383:Generated_Source\PSoC6\pdl\middleware\ble/cy_ble_gap.h **** #define CY_BLE_AD_TYPE_MORE16UUID                  (0x02u)
 384:Generated_Source\PSoC6\pdl\middleware\ble/cy_ble_gap.h **** #define CY_BLE_AD_TYPE_CMPL16UUID                  (0x03u)
 385:Generated_Source\PSoC6\pdl\middleware\ble/cy_ble_gap.h **** #define CY_BLE_AD_TYPE_MORE32UUID                  (0x04u)
 386:Generated_Source\PSoC6\pdl\middleware\ble/cy_ble_gap.h **** #define CY_BLE_AD_TYPE_CMPL32UUID                  (0x05u)
 387:Generated_Source\PSoC6\pdl\middleware\ble/cy_ble_gap.h **** #define CY_BLE_AD_TYPE_MORE128UUID                 (0x06u)
 388:Generated_Source\PSoC6\pdl\middleware\ble/cy_ble_gap.h **** #define CY_BLE_AD_TYPE_CMPL128UUID                 (0x07u)
 389:Generated_Source\PSoC6\pdl\middleware\ble/cy_ble_gap.h **** 
 390:Generated_Source\PSoC6\pdl\middleware\ble/cy_ble_gap.h **** #define CY_BLE_AD_TYPE_SERVICE_DATA                (0x16u)
 391:Generated_Source\PSoC6\pdl\middleware\ble/cy_ble_gap.h **** #define CY_BLE_AD_SERVICE_DATA_OVERHEAD            (0x03u)
 392:Generated_Source\PSoC6\pdl\middleware\ble/cy_ble_gap.h **** 
 393:Generated_Source\PSoC6\pdl\middleware\ble/cy_ble_gap.h **** #define CY_BLE_DISCOVERY_IDLE                      (0x00u)
 394:Generated_Source\PSoC6\pdl\middleware\ble/cy_ble_gap.h **** #define CY_BLE_DISCOVERY_SERVICE                   (0x01u)
 395:Generated_Source\PSoC6\pdl\middleware\ble/cy_ble_gap.h **** #define CY_BLE_DISCOVERY_CHAR                      (0x02u)
 396:Generated_Source\PSoC6\pdl\middleware\ble/cy_ble_gap.h **** #define CY_BLE_DISCOVERY_DESCR                     (0x03u)
 397:Generated_Source\PSoC6\pdl\middleware\ble/cy_ble_gap.h **** #define CY_BLE_DISCOVERY_DONE                      (0x04u)
 398:Generated_Source\PSoC6\pdl\middleware\ble/cy_ble_gap.h **** 
 399:Generated_Source\PSoC6\pdl\middleware\ble/cy_ble_gap.h **** /* Cy_BLE_NextCharDscrDiscovery parameters */
 400:Generated_Source\PSoC6\pdl\middleware\ble/cy_ble_gap.h **** #define CY_BLE_DISCOVERY_INIT                      (0x00u)
 401:Generated_Source\PSoC6\pdl\middleware\ble/cy_ble_gap.h **** #define CY_BLE_DISCOVERY_CONTINUE                  (0x01u)
 402:Generated_Source\PSoC6\pdl\middleware\ble/cy_ble_gap.h **** 
ARM GAS  C:\Users\Nazar\AppData\Local\Temp\ccWQ1kO8.s 			page 32


 403:Generated_Source\PSoC6\pdl\middleware\ble/cy_ble_gap.h **** #define CY_BLE_SFLASH_DIE_X_MASK                   (0x3Fu)
 404:Generated_Source\PSoC6\pdl\middleware\ble/cy_ble_gap.h **** #define CY_BLE_SFLASH_DIE_X_BITS                   (6u)
 405:Generated_Source\PSoC6\pdl\middleware\ble/cy_ble_gap.h **** #define CY_BLE_SFLASH_DIE_Y_MASK                   (0x3Fu)
 406:Generated_Source\PSoC6\pdl\middleware\ble/cy_ble_gap.h **** #define CY_BLE_SFLASH_DIE_Y_BITS                   (6u)
 407:Generated_Source\PSoC6\pdl\middleware\ble/cy_ble_gap.h **** #define CY_BLE_SFLASH_DIE_XY_BITS                  (CY_BLE_SFLASH_DIE_X_BITS + CY_BLE_SFLASH_DIE_Y_
 408:Generated_Source\PSoC6\pdl\middleware\ble/cy_ble_gap.h **** #define CY_BLE_SFLASH_DIE_WAFER_MASK               (0x1Fu)
 409:Generated_Source\PSoC6\pdl\middleware\ble/cy_ble_gap.h **** #define CY_BLE_SFLASH_DIE_WAFER_BITS               (5u)
 410:Generated_Source\PSoC6\pdl\middleware\ble/cy_ble_gap.h **** #define CY_BLE_SFLASH_DIE_XYWAFER_BITS             (CY_BLE_SFLASH_DIE_XY_BITS + CY_BLE_SFLASH_DIE_W
 411:Generated_Source\PSoC6\pdl\middleware\ble/cy_ble_gap.h **** #define CY_BLE_SFLASH_DIE_LOT_MASK                 (0x7Fu)
 412:Generated_Source\PSoC6\pdl\middleware\ble/cy_ble_gap.h **** #define CY_BLE_SFLASH_DIE_LOT_BITS                 (7u)
 413:Generated_Source\PSoC6\pdl\middleware\ble/cy_ble_gap.h **** 
 414:Generated_Source\PSoC6\pdl\middleware\ble/cy_ble_gap.h **** /* Device address stored by user in ROW4 of the SFLASH */
 415:Generated_Source\PSoC6\pdl\middleware\ble/cy_ble_gap.h **** #define CY_BLE_SFLASH_DEVICE_ADDRESS_PTR           ((cy_stc_ble_gap_bd_addr_t*)(SFLASH->BLE_DEVICE_
 416:Generated_Source\PSoC6\pdl\middleware\ble/cy_ble_gap.h **** #define CY_BLE_AD_STRUCTURE_MAX_LENGTH             (31u)
 417:Generated_Source\PSoC6\pdl\middleware\ble/cy_ble_gap.h **** 
 418:Generated_Source\PSoC6\pdl\middleware\ble/cy_ble_gap.h **** /* AD types for complete, shortened local name and device address */
 419:Generated_Source\PSoC6\pdl\middleware\ble/cy_ble_gap.h **** #define CY_BLE_SHORT_LOCAL_NAME                    (0x08u)  /**< Shortened Local Name */
 420:Generated_Source\PSoC6\pdl\middleware\ble/cy_ble_gap.h **** #define CY_BLE_COMPLETE_LOCAL_NAME                 (0x09u)  /**< Complete Local Name */
 421:Generated_Source\PSoC6\pdl\middleware\ble/cy_ble_gap.h **** #define CY_BLE_ADV_DEVICE_ADDR                     (0x1Bu)  /**< LE Bluetooth Device Address */
 422:Generated_Source\PSoC6\pdl\middleware\ble/cy_ble_gap.h **** 
 423:Generated_Source\PSoC6\pdl\middleware\ble/cy_ble_gap.h **** #define CY_BLE_ADVERTISING_FAST                    (0x00u)
 424:Generated_Source\PSoC6\pdl\middleware\ble/cy_ble_gap.h **** #define CY_BLE_ADVERTISING_SLOW                    (0x01u)
 425:Generated_Source\PSoC6\pdl\middleware\ble/cy_ble_gap.h **** #define CY_BLE_ADVERTISING_CUSTOM                  (0x02u)
 426:Generated_Source\PSoC6\pdl\middleware\ble/cy_ble_gap.h **** 
 427:Generated_Source\PSoC6\pdl\middleware\ble/cy_ble_gap.h **** #define CY_BLE_SCANNING_FAST                       (0x00u)
 428:Generated_Source\PSoC6\pdl\middleware\ble/cy_ble_gap.h **** #define CY_BLE_SCANNING_SLOW                       (0x01u)
 429:Generated_Source\PSoC6\pdl\middleware\ble/cy_ble_gap.h **** #define CY_BLE_SCANNING_CUSTOM                     (0x02u)
 430:Generated_Source\PSoC6\pdl\middleware\ble/cy_ble_gap.h **** 
 431:Generated_Source\PSoC6\pdl\middleware\ble/cy_ble_gap.h **** #define CY_BLE_PENDING_STACK_FLASH_WRITE_BIT       (0x01u)
 432:Generated_Source\PSoC6\pdl\middleware\ble/cy_ble_gap.h **** #define CY_BLE_PENDING_CCCD_FLASH_WRITE_BIT        (0x02u)
 433:Generated_Source\PSoC6\pdl\middleware\ble/cy_ble_gap.h **** #define CY_BLE_PENDING_CCCD_FLASH_CLEAR_BIT        (0x04u)
 434:Generated_Source\PSoC6\pdl\middleware\ble/cy_ble_gap.h **** #define CY_BLE_PENDING_CCCD_FLASH_CLEAR_ALL_BIT    (0x08u)
 435:Generated_Source\PSoC6\pdl\middleware\ble/cy_ble_gap.h **** #define CY_BLE_PENDING_CCCD_FLASH_CLEAR_MASK \
 436:Generated_Source\PSoC6\pdl\middleware\ble/cy_ble_gap.h ****     (CY_BLE_PENDING_CCCD_FLASH_CLEAR_BIT | CY_BLE_PENDING_CCCD_FLASH_CLEAR_ALL_BIT)
 437:Generated_Source\PSoC6\pdl\middleware\ble/cy_ble_gap.h **** 
 438:Generated_Source\PSoC6\pdl\middleware\ble/cy_ble_gap.h **** /**
 439:Generated_Source\PSoC6\pdl\middleware\ble/cy_ble_gap.h ****  * \addtogroup group_ble_common_api_macros
 440:Generated_Source\PSoC6\pdl\middleware\ble/cy_ble_gap.h ****  * @{
 441:Generated_Source\PSoC6\pdl\middleware\ble/cy_ble_gap.h ****  */
 442:Generated_Source\PSoC6\pdl\middleware\ble/cy_ble_gap.h **** 
 443:Generated_Source\PSoC6\pdl\middleware\ble/cy_ble_gap.h **** /* GAP Advertisement Flags */
 444:Generated_Source\PSoC6\pdl\middleware\ble/cy_ble_gap.h **** #define CY_BLE_GAP_ADV_FLAG_LE_LIMITED_DISC_MODE        (0x01u)     /**< LE Limited Discoverable Mo
 445:Generated_Source\PSoC6\pdl\middleware\ble/cy_ble_gap.h **** #define CY_BLE_GAP_ADV_FLAG_LE_GENERAL_DISC_MODE        (0x02u)     /**< LE General Discoverable Mo
 446:Generated_Source\PSoC6\pdl\middleware\ble/cy_ble_gap.h **** #define CY_BLE_GAP_ADV_FLAG_BR_EDR_NOT_SUPPORTED        (0x04u)     /**< BR/EDR not supported. */
 447:Generated_Source\PSoC6\pdl\middleware\ble/cy_ble_gap.h **** #define CY_BLE_GAP_ADV_FLAG_LE_BR_EDR_CONTROLLER        (0x08u)     /**< Simultaneous LE and BR/EDR
 448:Generated_Source\PSoC6\pdl\middleware\ble/cy_ble_gap.h **** #define CY_BLE_GAP_ADV_FLAG_LE_BR_EDR_HOST              (0x10u)     /**< Simultaneous LE and BR/EDR
 449:Generated_Source\PSoC6\pdl\middleware\ble/cy_ble_gap.h **** #define CY_BLE_GAP_ADV_FLAGS_PACKET_LENGTH              (0x02u)     /**< Length of flags in an adve
 450:Generated_Source\PSoC6\pdl\middleware\ble/cy_ble_gap.h **** 
 451:Generated_Source\PSoC6\pdl\middleware\ble/cy_ble_gap.h **** /* GAP Advertising interval min and max */
 452:Generated_Source\PSoC6\pdl\middleware\ble/cy_ble_gap.h **** #define CY_BLE_GAP_ADV_ADVERT_INTERVAL_MIN              (0x0020u)   /**< Minimum Advertising interv
 453:Generated_Source\PSoC6\pdl\middleware\ble/cy_ble_gap.h ****                                                                      *   i.e. 20 ms. */
 454:Generated_Source\PSoC6\pdl\middleware\ble/cy_ble_gap.h **** #define CY_BLE_GAP_ADV_ADVERT_INTERVAL_NONCON_MIN       (0x00A0u)   /**< Minimum Advertising interv
 455:Generated_Source\PSoC6\pdl\middleware\ble/cy_ble_gap.h ****                                                                      *   for non connectable mode, 
 456:Generated_Source\PSoC6\pdl\middleware\ble/cy_ble_gap.h **** #define CY_BLE_GAP_ADV_ADVERT_INTERVAL_MAX              (0x4000u)   /**< Maximum Advertising interv
 457:Generated_Source\PSoC6\pdl\middleware\ble/cy_ble_gap.h ****                                                                      *   i.e. 10.24 s. */
 458:Generated_Source\PSoC6\pdl\middleware\ble/cy_ble_gap.h **** #define CY_BLE_GAP_ADV_ADVERT_INTERVAL_PACKET_LENGTH    (0x03u)     /**< Length of the Advertising 
 459:Generated_Source\PSoC6\pdl\middleware\ble/cy_ble_gap.h ****                                                                      *   an advertisement packet */
ARM GAS  C:\Users\Nazar\AppData\Local\Temp\ccWQ1kO8.s 			page 33


 460:Generated_Source\PSoC6\pdl\middleware\ble/cy_ble_gap.h **** #define CY_BLE_GAPC_CONNECTING_TIMEOUT                  (30u)       /**< Seconds */
 461:Generated_Source\PSoC6\pdl\middleware\ble/cy_ble_gap.h **** #define CY_BLE_INVALID_CONN_HANDLE_VALUE                (0xFFu)     /**< Invalid Connection Handle 
 462:Generated_Source\PSoC6\pdl\middleware\ble/cy_ble_gap.h **** 
 463:Generated_Source\PSoC6\pdl\middleware\ble/cy_ble_gap.h **** /* Write mode for Cy_BLE_StoreAppData */
 464:Generated_Source\PSoC6\pdl\middleware\ble/cy_ble_gap.h **** #define CY_BLE_STORE_DATA_MODE_BLOCKING                 (0x0u)      /**< Blocking write */
 465:Generated_Source\PSoC6\pdl\middleware\ble/cy_ble_gap.h **** #define CY_BLE_STORE_DATA_MODE_NON_BLOCKING             (0x1u)      /**< Non-blocking write */
 466:Generated_Source\PSoC6\pdl\middleware\ble/cy_ble_gap.h **** 
 467:Generated_Source\PSoC6\pdl\middleware\ble/cy_ble_gap.h **** /** @} group_ble_common_api_macros */
 468:Generated_Source\PSoC6\pdl\middleware\ble/cy_ble_gap.h **** 
 469:Generated_Source\PSoC6\pdl\middleware\ble/cy_ble_gap.h **** /***************************************
 470:Generated_Source\PSoC6\pdl\middleware\ble/cy_ble_gap.h **** * Private Function Prototypes
 471:Generated_Source\PSoC6\pdl\middleware\ble/cy_ble_gap.h **** ***************************************/
 472:Generated_Source\PSoC6\pdl\middleware\ble/cy_ble_gap.h **** void Cy_BLE_ServiceInit(void);
 473:Generated_Source\PSoC6\pdl\middleware\ble/cy_ble_gap.h **** uint32_t Cy_BLE_GetDiscoveryIdx(cy_stc_ble_conn_handle_t connHandle);
 474:Generated_Source\PSoC6\pdl\middleware\ble/cy_ble_gap.h **** 
 475:Generated_Source\PSoC6\pdl\middleware\ble/cy_ble_gap.h **** /***************************************
 476:Generated_Source\PSoC6\pdl\middleware\ble/cy_ble_gap.h **** * Function Prototypes
 477:Generated_Source\PSoC6\pdl\middleware\ble/cy_ble_gap.h **** ***************************************/
 478:Generated_Source\PSoC6\pdl\middleware\ble/cy_ble_gap.h **** /**
 479:Generated_Source\PSoC6\pdl\middleware\ble/cy_ble_gap.h ****  * \addtogroup group_ble_common_api_functions
 480:Generated_Source\PSoC6\pdl\middleware\ble/cy_ble_gap.h ****  * @{
 481:Generated_Source\PSoC6\pdl\middleware\ble/cy_ble_gap.h ****  */
 482:Generated_Source\PSoC6\pdl\middleware\ble/cy_ble_gap.h **** 
 483:Generated_Source\PSoC6\pdl\middleware\ble/cy_ble_gap.h **** cy_en_ble_api_result_t Cy_BLE_StoreAppData(const cy_stc_ble_app_flash_param_t *param);
 484:Generated_Source\PSoC6\pdl\middleware\ble/cy_ble_gap.h **** 
 485:Generated_Source\PSoC6\pdl\middleware\ble/cy_ble_gap.h **** #if ((CY_BLE_GAP_ROLE_PERIPHERAL || CY_BLE_GAP_ROLE_CENTRAL) && (CY_BLE_BONDING_REQUIREMENT == CY_B
 486:Generated_Source\PSoC6\pdl\middleware\ble/cy_ble_gap.h **** cy_en_ble_api_result_t Cy_BLE_StoreBondingData(void);
 487:Generated_Source\PSoC6\pdl\middleware\ble/cy_ble_gap.h **** cy_en_ble_api_result_t Cy_BLE_GAP_RemoveBondedDevice(cy_stc_ble_gap_bd_addr_t* bdAddr);
 488:Generated_Source\PSoC6\pdl\middleware\ble/cy_ble_gap.h **** #endif /* (CY_BLE_GAP_ROLE_PERIPHERAL || CY_BLE_GAP_ROLE_CENTRAL) && (CY_BLE_BONDING_REQUIREMENT ==
 489:Generated_Source\PSoC6\pdl\middleware\ble/cy_ble_gap.h **** 
 490:Generated_Source\PSoC6\pdl\middleware\ble/cy_ble_gap.h **** #if (CY_BLE_GAP_ROLE_PERIPHERAL || CY_BLE_GAP_ROLE_CENTRAL)
 491:Generated_Source\PSoC6\pdl\middleware\ble/cy_ble_gap.h **** bool Cy_BLE_IsPeerConnected(uint8_t *bdAddr);
 492:Generated_Source\PSoC6\pdl\middleware\ble/cy_ble_gap.h **** bool Cy_BLE_IsDevicePaired(cy_stc_ble_conn_handle_t *connHandle);
 493:Generated_Source\PSoC6\pdl\middleware\ble/cy_ble_gap.h **** uint8_t Cy_BLE_GetDeviceRole(cy_stc_ble_conn_handle_t *connHandle);
 494:Generated_Source\PSoC6\pdl\middleware\ble/cy_ble_gap.h **** 
 495:Generated_Source\PSoC6\pdl\middleware\ble/cy_ble_gap.h **** cy_en_ble_api_result_t Cy_BLE_GetRssiPeer(uint8_t  bdHandle);
 496:Generated_Source\PSoC6\pdl\middleware\ble/cy_ble_gap.h **** #endif /* (CY_BLE_GAP_ROLE_PERIPHERAL || CY_BLE_GAP_ROLE_CENTRAL) */
 497:Generated_Source\PSoC6\pdl\middleware\ble/cy_ble_gap.h **** /** @} group_ble_common_api_functions */
 498:Generated_Source\PSoC6\pdl\middleware\ble/cy_ble_gap.h **** 
 499:Generated_Source\PSoC6\pdl\middleware\ble/cy_ble_gap.h **** /**
 500:Generated_Source\PSoC6\pdl\middleware\ble/cy_ble_gap.h ****  * \addtogroup group_ble_common_api_gap_peripheral_functions
 501:Generated_Source\PSoC6\pdl\middleware\ble/cy_ble_gap.h ****  * @{
 502:Generated_Source\PSoC6\pdl\middleware\ble/cy_ble_gap.h ****  */
 503:Generated_Source\PSoC6\pdl\middleware\ble/cy_ble_gap.h **** 
 504:Generated_Source\PSoC6\pdl\middleware\ble/cy_ble_gap.h **** #if (CY_BLE_GAP_ROLE_PERIPHERAL || CY_BLE_GAP_ROLE_BROADCASTER)
 505:Generated_Source\PSoC6\pdl\middleware\ble/cy_ble_gap.h **** cy_en_ble_api_result_t Cy_BLE_GAPP_StartAdvertisement(uint8_t advertisingIntervalType, uint8_t adve
 506:Generated_Source\PSoC6\pdl\middleware\ble/cy_ble_gap.h **** cy_en_ble_api_result_t Cy_BLE_GAPP_StopAdvertisement(void);
 507:Generated_Source\PSoC6\pdl\middleware\ble/cy_ble_gap.h **** 
 508:Generated_Source\PSoC6\pdl\middleware\ble/cy_ble_gap.h **** /** \cond IGNORE */
 509:Generated_Source\PSoC6\pdl\middleware\ble/cy_ble_gap.h **** void Cy_BLE_ChangeAdDeviceAddress(const cy_stc_ble_gap_bd_addr_t* bdAddr, uint8_t dest);
 510:Generated_Source\PSoC6\pdl\middleware\ble/cy_ble_gap.h **** /** \endcond */
 511:Generated_Source\PSoC6\pdl\middleware\ble/cy_ble_gap.h **** 
 512:Generated_Source\PSoC6\pdl\middleware\ble/cy_ble_gap.h **** #endif /* CY_BLE_GAP_ROLE_PERIPHERAL */
 513:Generated_Source\PSoC6\pdl\middleware\ble/cy_ble_gap.h **** 
 514:Generated_Source\PSoC6\pdl\middleware\ble/cy_ble_gap.h **** /** @} group_ble_common_api_gap_peripheral_functions */
 515:Generated_Source\PSoC6\pdl\middleware\ble/cy_ble_gap.h **** 
 516:Generated_Source\PSoC6\pdl\middleware\ble/cy_ble_gap.h **** /**
ARM GAS  C:\Users\Nazar\AppData\Local\Temp\ccWQ1kO8.s 			page 34


 517:Generated_Source\PSoC6\pdl\middleware\ble/cy_ble_gap.h ****  * \addtogroup group_ble_common_api_gap_central_functions
 518:Generated_Source\PSoC6\pdl\middleware\ble/cy_ble_gap.h ****  * @{
 519:Generated_Source\PSoC6\pdl\middleware\ble/cy_ble_gap.h ****  */
 520:Generated_Source\PSoC6\pdl\middleware\ble/cy_ble_gap.h **** 
 521:Generated_Source\PSoC6\pdl\middleware\ble/cy_ble_gap.h **** #if (CY_BLE_GAP_ROLE_CENTRAL || CY_BLE_GAP_ROLE_OBSERVER)
 522:Generated_Source\PSoC6\pdl\middleware\ble/cy_ble_gap.h **** cy_en_ble_api_result_t Cy_BLE_GAPC_StartScan(uint8_t scanningIntervalType, uint8_t scanParamIndex);
 523:Generated_Source\PSoC6\pdl\middleware\ble/cy_ble_gap.h **** cy_en_ble_api_result_t Cy_BLE_GAPC_StopScan(void);
 524:Generated_Source\PSoC6\pdl\middleware\ble/cy_ble_gap.h **** #endif /* CY_BLE_GAP_ROLE_CENTRAL || CY_BLE_GAP_ROLE_OBSERVER */
 525:Generated_Source\PSoC6\pdl\middleware\ble/cy_ble_gap.h **** 
 526:Generated_Source\PSoC6\pdl\middleware\ble/cy_ble_gap.h **** #if (CY_BLE_GAP_ROLE_CENTRAL)
 527:Generated_Source\PSoC6\pdl\middleware\ble/cy_ble_gap.h **** cy_en_ble_api_result_t Cy_BLE_GAPC_ConnectDevice(const cy_stc_ble_gap_bd_addr_t * address, uint8_t 
 528:Generated_Source\PSoC6\pdl\middleware\ble/cy_ble_gap.h **** cy_en_ble_api_result_t Cy_BLE_GAPC_CancelDeviceConnection(void);
 529:Generated_Source\PSoC6\pdl\middleware\ble/cy_ble_gap.h **** #endif /* CY_BLE_GAP_ROLE_CENTRAL */
 530:Generated_Source\PSoC6\pdl\middleware\ble/cy_ble_gap.h **** 
 531:Generated_Source\PSoC6\pdl\middleware\ble/cy_ble_gap.h **** /** @} group_ble_common_api_gap_central_functions */
 532:Generated_Source\PSoC6\pdl\middleware\ble/cy_ble_gap.h **** 
 533:Generated_Source\PSoC6\pdl\middleware\ble/cy_ble_gap.h **** /***************************************
 534:Generated_Source\PSoC6\pdl\middleware\ble/cy_ble_gap.h **** * External data references
 535:Generated_Source\PSoC6\pdl\middleware\ble/cy_ble_gap.h **** ***************************************/
 536:Generated_Source\PSoC6\pdl\middleware\ble/cy_ble_gap.h **** extern volatile uint8_t cy_ble_eventHandlerFlag;
 537:Generated_Source\PSoC6\pdl\middleware\ble/cy_ble_gap.h **** extern cy_stc_ble_gap_bd_addr_t *cy_ble_sflashDeviceAddress;
 538:Generated_Source\PSoC6\pdl\middleware\ble/cy_ble_gap.h **** extern cy_stc_ble_gap_bd_addr_t cy_ble_deviceAddress;
 539:Generated_Source\PSoC6\pdl\middleware\ble/cy_ble_gap.h **** extern cy_en_ble_state_t cy_ble_state;
 540:Generated_Source\PSoC6\pdl\middleware\ble/cy_ble_gap.h **** 
 541:Generated_Source\PSoC6\pdl\middleware\ble/cy_ble_gap.h **** #if ((CY_BLE_GAP_ROLE_PERIPHERAL || CY_BLE_GAP_ROLE_CENTRAL))
 542:Generated_Source\PSoC6\pdl\middleware\ble/cy_ble_gap.h **** extern cy_stc_ble_gap_auth_info_t cy_ble_authInfo[CY_BLE_AUTH_INFO_COUNT];
 543:Generated_Source\PSoC6\pdl\middleware\ble/cy_ble_gap.h **** #endif /* ((CY_BLE_GAP_ROLE_PERIPHERAL || CY_BLE_GAP_ROLE_CENTRAL)) */
 544:Generated_Source\PSoC6\pdl\middleware\ble/cy_ble_gap.h **** 
 545:Generated_Source\PSoC6\pdl\middleware\ble/cy_ble_gap.h **** #if (CY_BLE_GAP_ROLE_PERIPHERAL || CY_BLE_GAP_ROLE_BROADCASTER)
 546:Generated_Source\PSoC6\pdl\middleware\ble/cy_ble_gap.h **** extern cy_en_ble_adv_state_t cy_ble_advState;
 547:Generated_Source\PSoC6\pdl\middleware\ble/cy_ble_gap.h **** extern uint8_t cy_ble_advIndex;
 548:Generated_Source\PSoC6\pdl\middleware\ble/cy_ble_gap.h **** #endif  /* (CY_BLE_GAP_ROLE_PERIPHERAL || CY_BLE_GAP_ROLE_BROADCASTER) */
 549:Generated_Source\PSoC6\pdl\middleware\ble/cy_ble_gap.h **** 
 550:Generated_Source\PSoC6\pdl\middleware\ble/cy_ble_gap.h **** #if (CY_BLE_GAP_ROLE_CENTRAL || CY_BLE_GAP_ROLE_OBSERVER)
 551:Generated_Source\PSoC6\pdl\middleware\ble/cy_ble_gap.h **** extern cy_en_ble_scan_state_t cy_ble_scanState;
 552:Generated_Source\PSoC6\pdl\middleware\ble/cy_ble_gap.h **** extern uint8_t cy_ble_scanIndex;
 553:Generated_Source\PSoC6\pdl\middleware\ble/cy_ble_gap.h **** #endif /* (CY_BLE_GAP_ROLE_CENTRAL || CY_BLE_GAP_ROLE_OBSERVER) */
 554:Generated_Source\PSoC6\pdl\middleware\ble/cy_ble_gap.h **** 
 555:Generated_Source\PSoC6\pdl\middleware\ble/cy_ble_gap.h **** #if ((CY_BLE_GAP_ROLE_PERIPHERAL || CY_BLE_GAP_ROLE_CENTRAL))
 556:Generated_Source\PSoC6\pdl\middleware\ble/cy_ble_gap.h **** extern cy_stc_ble_conn_handle_t cy_ble_connHandle[CY_BLE_CONN_COUNT];
 557:Generated_Source\PSoC6\pdl\middleware\ble/cy_ble_gap.h **** extern cy_en_ble_conn_state_t cy_ble_connState[CY_BLE_CONN_COUNT];
 558:Generated_Source\PSoC6\pdl\middleware\ble/cy_ble_gap.h **** 
 559:Generated_Source\PSoC6\pdl\middleware\ble/cy_ble_gap.h **** extern volatile uint8_t cy_ble_devConnRole[CY_BLE_CONN_COUNT];
 560:Generated_Source\PSoC6\pdl\middleware\ble/cy_ble_gap.h **** extern volatile bool cy_ble_pairStatus[CY_BLE_CONN_COUNT];
 561:Generated_Source\PSoC6\pdl\middleware\ble/cy_ble_gap.h **** 
 562:Generated_Source\PSoC6\pdl\middleware\ble/cy_ble_gap.h **** #endif /* ((CY_BLE_GAP_ROLE_PERIPHERAL || CY_BLE_GAP_ROLE_CENTRAL)) */
 563:Generated_Source\PSoC6\pdl\middleware\ble/cy_ble_gap.h **** 
 564:Generated_Source\PSoC6\pdl\middleware\ble/cy_ble_gap.h **** #if (CY_BLE_GAP_ROLE_CENTRAL || CY_BLE_GAP_ROLE_OBSERVER)
 565:Generated_Source\PSoC6\pdl\middleware\ble/cy_ble_gap.h **** extern cy_stc_ble_gapc_disc_info_t cy_ble_discoveryInfo[CY_BLE_GAPC_CONF_COUNT];
 566:Generated_Source\PSoC6\pdl\middleware\ble/cy_ble_gap.h **** #endif /* CY_BLE_GAP_ROLE_CENTRAL || CY_BLE_GAP_ROLE_OBSERVER */
 567:Generated_Source\PSoC6\pdl\middleware\ble/cy_ble_gap.h **** 
 568:Generated_Source\PSoC6\pdl\middleware\ble/cy_ble_gap.h **** #if (CY_BLE_GAP_ROLE_CENTRAL)
 569:Generated_Source\PSoC6\pdl\middleware\ble/cy_ble_gap.h **** extern cy_stc_ble_gapc_conn_info_t cy_ble_connectionParameters;
 570:Generated_Source\PSoC6\pdl\middleware\ble/cy_ble_gap.h **** extern cy_stc_ble_timer_info_t cy_ble_connectingTimeout;
 571:Generated_Source\PSoC6\pdl\middleware\ble/cy_ble_gap.h **** #endif /* CY_BLE_GAP_ROLE_CENTRAL */
 572:Generated_Source\PSoC6\pdl\middleware\ble/cy_ble_gap.h **** 
 573:Generated_Source\PSoC6\pdl\middleware\ble/cy_ble_gap.h **** #if (CY_BLE_GAP_ROLE_PERIPHERAL || CY_BLE_GAP_ROLE_BROADCASTER)
ARM GAS  C:\Users\Nazar\AppData\Local\Temp\ccWQ1kO8.s 			page 35


 574:Generated_Source\PSoC6\pdl\middleware\ble/cy_ble_gap.h **** extern cy_stc_ble_gapp_disc_mode_info_t cy_ble_discoveryModeInfo[CY_BLE_GAPP_CONF_COUNT];
 575:Generated_Source\PSoC6\pdl\middleware\ble/cy_ble_gap.h **** extern cy_stc_ble_gapp_disc_param_t cy_ble_discoveryParam[CY_BLE_GAPP_CONF_COUNT];
 576:Generated_Source\PSoC6\pdl\middleware\ble/cy_ble_gap.h **** extern cy_stc_ble_gapp_disc_data_t cy_ble_discoveryData[CY_BLE_GAPP_CONF_COUNT];
 577:Generated_Source\PSoC6\pdl\middleware\ble/cy_ble_gap.h **** extern cy_stc_ble_gapp_scan_rsp_data_t cy_ble_scanRspData[CY_BLE_GAPP_CONF_COUNT];
 578:Generated_Source\PSoC6\pdl\middleware\ble/cy_ble_gap.h **** #endif /* CY_BLE_GAP_ROLE_PERIPHERAL || CY_BLE_GAP_ROLE_BROADCASTER */
 579:Generated_Source\PSoC6\pdl\middleware\ble/cy_ble_gap.h **** 
 580:Generated_Source\PSoC6\pdl\middleware\ble/cy_ble_gap.h **** #if ((CY_BLE_GAP_ROLE_PERIPHERAL || CY_BLE_GAP_ROLE_CENTRAL) && (CY_BLE_BONDING_REQUIREMENT == CY_B
 581:Generated_Source\PSoC6\pdl\middleware\ble/cy_ble_gap.h **** 
 582:Generated_Source\PSoC6\pdl\middleware\ble/cy_ble_gap.h **** /**
 583:Generated_Source\PSoC6\pdl\middleware\ble/cy_ble_gap.h ****  * \addtogroup group_ble_common_api_global_variables
 584:Generated_Source\PSoC6\pdl\middleware\ble/cy_ble_gap.h ****  * @{
 585:Generated_Source\PSoC6\pdl\middleware\ble/cy_ble_gap.h ****  */
 586:Generated_Source\PSoC6\pdl\middleware\ble/cy_ble_gap.h **** /** This is a two-bit variable that contains status of pending write to flash operation.
 587:Generated_Source\PSoC6\pdl\middleware\ble/cy_ble_gap.h ****  * This variable is initialized to zero in Cy_BLE_Init().
 588:Generated_Source\PSoC6\pdl\middleware\ble/cy_ble_gap.h ****  * CY_BLE_PENDING_CCCD_FLASH_WRITE_BIT flag is set after write to CCCD event when a
 589:Generated_Source\PSoC6\pdl\middleware\ble/cy_ble_gap.h ****  * peer device supports bonding (cy_ble_peerBonding[eventParam->connHandle.attId] == CY_BLE_GAP_BON
 590:Generated_Source\PSoC6\pdl\middleware\ble/cy_ble_gap.h ****  * CY_BLE_PENDING_STACK_FLASH_WRITE_BIT flag is set after CY_BLE_EVT_PENDING_FLASH_WRITE event.
 591:Generated_Source\PSoC6\pdl\middleware\ble/cy_ble_gap.h ****  * Cy_BLE_StoreBondingData() should be called to store pending bonding data.
 592:Generated_Source\PSoC6\pdl\middleware\ble/cy_ble_gap.h ****  * This function automatically clears pending bits after write operation is complete.
 593:Generated_Source\PSoC6\pdl\middleware\ble/cy_ble_gap.h ****  */
 594:Generated_Source\PSoC6\pdl\middleware\ble/cy_ble_gap.h **** extern uint8_t cy_ble_pendingFlashWrite;
 595:Generated_Source\PSoC6\pdl\middleware\ble/cy_ble_gap.h **** /** @} group_ble_common_api_global_variables */
 596:Generated_Source\PSoC6\pdl\middleware\ble/cy_ble_gap.h **** 
 597:Generated_Source\PSoC6\pdl\middleware\ble/cy_ble_gap.h **** /** Bonding type setting of peer device, CY_BLE_GAP_BONDING_NONE or CY_BLE_GAP_BONDING.
 598:Generated_Source\PSoC6\pdl\middleware\ble/cy_ble_gap.h ****  * It is initialized after pairing with peer device and used for cy_ble_pendingFlashWrite variable
 599:Generated_Source\PSoC6\pdl\middleware\ble/cy_ble_gap.h ****  * setting.
 600:Generated_Source\PSoC6\pdl\middleware\ble/cy_ble_gap.h ****  */
 601:Generated_Source\PSoC6\pdl\middleware\ble/cy_ble_gap.h **** extern uint8_t cy_ble_peerBonding[CY_BLE_CONN_COUNT];
 602:Generated_Source\PSoC6\pdl\middleware\ble/cy_ble_gap.h **** 
 603:Generated_Source\PSoC6\pdl\middleware\ble/cy_ble_gap.h **** #endif  /* (CY_BLE_BONDING_REQUIREMENT == CY_BLE_BONDING_YES) */
 604:Generated_Source\PSoC6\pdl\middleware\ble/cy_ble_gap.h **** 
 605:Generated_Source\PSoC6\pdl\middleware\ble/cy_ble_gap.h **** 
 606:Generated_Source\PSoC6\pdl\middleware\ble/cy_ble_gap.h **** /***************************************
 607:Generated_Source\PSoC6\pdl\middleware\ble/cy_ble_gap.h **** * Exported Functions (MACROS)
 608:Generated_Source\PSoC6\pdl\middleware\ble/cy_ble_gap.h **** ***************************************/
 609:Generated_Source\PSoC6\pdl\middleware\ble/cy_ble_gap.h **** #if ((CY_BLE_GAP_ROLE_PERIPHERAL || CY_BLE_GAP_ROLE_CENTRAL))
 610:Generated_Source\PSoC6\pdl\middleware\ble/cy_ble_gap.h **** 
 611:Generated_Source\PSoC6\pdl\middleware\ble/cy_ble_gap.h **** /******************************************************************************
 612:Generated_Source\PSoC6\pdl\middleware\ble/cy_ble_gap.h **** * Function Name: Cy_BLE_GetConnHandleIdx
 613:Generated_Source\PSoC6\pdl\middleware\ble/cy_ble_gap.h **** ***************************************************************************//**
 614:Generated_Source\PSoC6\pdl\middleware\ble/cy_ble_gap.h **** *
 615:Generated_Source\PSoC6\pdl\middleware\ble/cy_ble_gap.h **** *  This function searches the array of connection handles (cy_ble_connHandle[])
 616:Generated_Source\PSoC6\pdl\middleware\ble/cy_ble_gap.h **** *  for the location (index) of a handle that corresponds to the input parameter
 617:Generated_Source\PSoC6\pdl\middleware\ble/cy_ble_gap.h **** *  connHandle. bdHandle.
 618:Generated_Source\PSoC6\pdl\middleware\ble/cy_ble_gap.h **** *
 619:Generated_Source\PSoC6\pdl\middleware\ble/cy_ble_gap.h **** *  This function is designated for internal usage.
 620:Generated_Source\PSoC6\pdl\middleware\ble/cy_ble_gap.h **** *
 621:Generated_Source\PSoC6\pdl\middleware\ble/cy_ble_gap.h **** *  \param connHandle: The connection handle.
 622:Generated_Source\PSoC6\pdl\middleware\ble/cy_ble_gap.h **** *
 623:Generated_Source\PSoC6\pdl\middleware\ble/cy_ble_gap.h **** *  \return
 624:Generated_Source\PSoC6\pdl\middleware\ble/cy_ble_gap.h **** *  retValue: the index of connHandle
 625:Generated_Source\PSoC6\pdl\middleware\ble/cy_ble_gap.h **** *
 626:Generated_Source\PSoC6\pdl\middleware\ble/cy_ble_gap.h **** ******************************************************************************/
 627:Generated_Source\PSoC6\pdl\middleware\ble/cy_ble_gap.h **** __STATIC_INLINE uint8_t Cy_BLE_GetConnHandleIdx(cy_stc_ble_conn_handle_t connHandle)
 628:Generated_Source\PSoC6\pdl\middleware\ble/cy_ble_gap.h **** {
 629:Generated_Source\PSoC6\pdl\middleware\ble/cy_ble_gap.h ****     uint8_t idx;
 630:Generated_Source\PSoC6\pdl\middleware\ble/cy_ble_gap.h ****     uint8_t retValue = CY_BLE_CONN_COUNT;
ARM GAS  C:\Users\Nazar\AppData\Local\Temp\ccWQ1kO8.s 			page 36


 631:Generated_Source\PSoC6\pdl\middleware\ble/cy_ble_gap.h **** 
 632:Generated_Source\PSoC6\pdl\middleware\ble/cy_ble_gap.h ****     for(idx = 0u; idx < CY_BLE_CONN_COUNT; idx++)
 633:Generated_Source\PSoC6\pdl\middleware\ble/cy_ble_gap.h ****     {
 634:Generated_Source\PSoC6\pdl\middleware\ble/cy_ble_gap.h ****         if(cy_ble_connHandle[idx].bdHandle == connHandle.bdHandle)
 635:Generated_Source\PSoC6\pdl\middleware\ble/cy_ble_gap.h ****         {
 636:Generated_Source\PSoC6\pdl\middleware\ble/cy_ble_gap.h ****             retValue = idx;
 637:Generated_Source\PSoC6\pdl\middleware\ble/cy_ble_gap.h ****             break;
 638:Generated_Source\PSoC6\pdl\middleware\ble/cy_ble_gap.h ****         }
 639:Generated_Source\PSoC6\pdl\middleware\ble/cy_ble_gap.h ****     }
 640:Generated_Source\PSoC6\pdl\middleware\ble/cy_ble_gap.h ****     if(retValue == CY_BLE_CONN_COUNT)
 641:Generated_Source\PSoC6\pdl\middleware\ble/cy_ble_gap.h ****     {
 642:Generated_Source\PSoC6\pdl\middleware\ble/cy_ble_gap.h ****         /* HALT in debug mode */
 643:Generated_Source\PSoC6\pdl\middleware\ble/cy_ble_gap.h ****         CY_ASSERT(retValue != CY_BLE_CONN_COUNT);
 644:Generated_Source\PSoC6\pdl\middleware\ble/cy_ble_gap.h ****         retValue = 0u;
 645:Generated_Source\PSoC6\pdl\middleware\ble/cy_ble_gap.h ****     }
 646:Generated_Source\PSoC6\pdl\middleware\ble/cy_ble_gap.h **** 
 647:Generated_Source\PSoC6\pdl\middleware\ble/cy_ble_gap.h ****     return(retValue);
 648:Generated_Source\PSoC6\pdl\middleware\ble/cy_ble_gap.h **** }
 649:Generated_Source\PSoC6\pdl\middleware\ble/cy_ble_gap.h **** #endif  /* ((CY_BLE_GAP_ROLE_PERIPHERAL || CY_BLE_GAP_ROLE_CENTRAL)) */
 650:Generated_Source\PSoC6\pdl\middleware\ble/cy_ble_gap.h **** 
 651:Generated_Source\PSoC6\pdl\middleware\ble/cy_ble_gap.h **** /**
 652:Generated_Source\PSoC6\pdl\middleware\ble/cy_ble_gap.h ****  * \addtogroup group_ble_common_api_functions
 653:Generated_Source\PSoC6\pdl\middleware\ble/cy_ble_gap.h ****  * @{
 654:Generated_Source\PSoC6\pdl\middleware\ble/cy_ble_gap.h **** */
 655:Generated_Source\PSoC6\pdl\middleware\ble/cy_ble_gap.h **** /******************************************************************************
 656:Generated_Source\PSoC6\pdl\middleware\ble/cy_ble_gap.h **** * Function Name: Cy_BLE_GetState
 657:Generated_Source\PSoC6\pdl\middleware\ble/cy_ble_gap.h **** ***************************************************************************//**
 658:Generated_Source\PSoC6\pdl\middleware\ble/cy_ble_gap.h **** *
 659:Generated_Source\PSoC6\pdl\middleware\ble/cy_ble_gap.h **** *  This function is used to determine the current state of the BLE Middleware
 660:Generated_Source\PSoC6\pdl\middleware\ble/cy_ble_gap.h **** *  state machine :
 661:Generated_Source\PSoC6\pdl\middleware\ble/cy_ble_gap.h **** *
 662:Generated_Source\PSoC6\pdl\middleware\ble/cy_ble_gap.h **** *  \image html ble_middleware_state_machine.png
 663:Generated_Source\PSoC6\pdl\middleware\ble/cy_ble_gap.h **** *
 664:Generated_Source\PSoC6\pdl\middleware\ble/cy_ble_gap.h **** *  The BLE Middleware is in the state #CY_BLE_STATE_INITIALIZING after the
 665:Generated_Source\PSoC6\pdl\middleware\ble/cy_ble_gap.h **** *  Cy_BLE_Enable() is called and until the #CY_BLE_EVT_STACK_ON event is not
 666:Generated_Source\PSoC6\pdl\middleware\ble/cy_ble_gap.h **** *  received. After successful initialization the state is changed to
 667:Generated_Source\PSoC6\pdl\middleware\ble/cy_ble_gap.h **** *  #CY_BLE_STATE_ON.
 668:Generated_Source\PSoC6\pdl\middleware\ble/cy_ble_gap.h **** *
 669:Generated_Source\PSoC6\pdl\middleware\ble/cy_ble_gap.h **** *  The BLE Middleware is in the state #CY_BLE_STATE_STOPPED
 670:Generated_Source\PSoC6\pdl\middleware\ble/cy_ble_gap.h **** *  when the #CY_BLE_EVT_STACK_SHUTDOWN_COMPLETE event is received (after the
 671:Generated_Source\PSoC6\pdl\middleware\ble/cy_ble_gap.h **** *  Cy_BLE_Disable() is called).
 672:Generated_Source\PSoC6\pdl\middleware\ble/cy_ble_gap.h **** *
 673:Generated_Source\PSoC6\pdl\middleware\ble/cy_ble_gap.h **** *  For GAP Central role when the Cy_BLE_GAPC_ConnectDevice() is called, the state
 674:Generated_Source\PSoC6\pdl\middleware\ble/cy_ble_gap.h **** *  is changed to #CY_BLE_STATE_CONNECTING. After successful connection indicated
 675:Generated_Source\PSoC6\pdl\middleware\ble/cy_ble_gap.h **** *  by #CY_BLE_EVT_GAP_DEVICE_CONNECTED or #CY_BLE_EVT_GAP_ENHANCE_CONN_COMPLETE
 676:Generated_Source\PSoC6\pdl\middleware\ble/cy_ble_gap.h **** *  event or the timeout indicated by #CY_BLE_EVT_TIMEOUT event, the state is
 677:Generated_Source\PSoC6\pdl\middleware\ble/cy_ble_gap.h **** *  changed to #CY_BLE_STATE_ON.
 678:Generated_Source\PSoC6\pdl\middleware\ble/cy_ble_gap.h **** *
 679:Generated_Source\PSoC6\pdl\middleware\ble/cy_ble_gap.h **** * \return
 680:Generated_Source\PSoC6\pdl\middleware\ble/cy_ble_gap.h **** * \ref cy_en_ble_state_t : The current BLE Middleware state. The following are
 681:Generated_Source\PSoC6\pdl\middleware\ble/cy_ble_gap.h **** *                         possible states:
 682:Generated_Source\PSoC6\pdl\middleware\ble/cy_ble_gap.h **** *
 683:Generated_Source\PSoC6\pdl\middleware\ble/cy_ble_gap.h **** *   State                      | Description
 684:Generated_Source\PSoC6\pdl\middleware\ble/cy_ble_gap.h **** *   -------------------------- | -----------
 685:Generated_Source\PSoC6\pdl\middleware\ble/cy_ble_gap.h **** *   CY_BLE_STATE_STOPPED       | BLE is turned off.
 686:Generated_Source\PSoC6\pdl\middleware\ble/cy_ble_gap.h **** *   CY_BLE_STATE_INITIALIZING  | BLE is initializing (waiting for #CY_BLE_EVT_STACK_ON event).
 687:Generated_Source\PSoC6\pdl\middleware\ble/cy_ble_gap.h **** *   CY_BLE_STATE_ON            | BLE is turned on.
ARM GAS  C:\Users\Nazar\AppData\Local\Temp\ccWQ1kO8.s 			page 37


 688:Generated_Source\PSoC6\pdl\middleware\ble/cy_ble_gap.h **** *   CY_BLE_STATE_CONNECTING    | BLE is connecting.
 689:Generated_Source\PSoC6\pdl\middleware\ble/cy_ble_gap.h **** 
 690:Generated_Source\PSoC6\pdl\middleware\ble/cy_ble_gap.h **** ******************************************************************************/
 691:Generated_Source\PSoC6\pdl\middleware\ble/cy_ble_gap.h **** #define Cy_BLE_GetState()    (cy_ble_state)
 692:Generated_Source\PSoC6\pdl\middleware\ble/cy_ble_gap.h **** 
 693:Generated_Source\PSoC6\pdl\middleware\ble/cy_ble_gap.h **** /** \cond IGNORE */
 694:Generated_Source\PSoC6\pdl\middleware\ble/cy_ble_gap.h **** /******************************************************************************
 695:Generated_Source\PSoC6\pdl\middleware\ble/cy_ble_gap.h **** * Function Name: Cy_BLE_SetState
 696:Generated_Source\PSoC6\pdl\middleware\ble/cy_ble_gap.h **** ***************************************************************************//**
 697:Generated_Source\PSoC6\pdl\middleware\ble/cy_ble_gap.h **** *
 698:Generated_Source\PSoC6\pdl\middleware\ble/cy_ble_gap.h **** *  Used to set the BLE Middleware state machine's state.
 699:Generated_Source\PSoC6\pdl\middleware\ble/cy_ble_gap.h **** *
 700:Generated_Source\PSoC6\pdl\middleware\ble/cy_ble_gap.h **** *  \param state: The desired state to which the event handler's
 701:Generated_Source\PSoC6\pdl\middleware\ble/cy_ble_gap.h **** *   state machine should be set. The parameter state is a variable
 702:Generated_Source\PSoC6\pdl\middleware\ble/cy_ble_gap.h **** *   of type cy_en_ble_state_t.
 703:Generated_Source\PSoC6\pdl\middleware\ble/cy_ble_gap.h **** *
 704:Generated_Source\PSoC6\pdl\middleware\ble/cy_ble_gap.h **** * \return
 705:Generated_Source\PSoC6\pdl\middleware\ble/cy_ble_gap.h **** *  None
 706:Generated_Source\PSoC6\pdl\middleware\ble/cy_ble_gap.h **** *
 707:Generated_Source\PSoC6\pdl\middleware\ble/cy_ble_gap.h **** ******************************************************************************/
 708:Generated_Source\PSoC6\pdl\middleware\ble/cy_ble_gap.h **** #define Cy_BLE_SetState(state)    (cy_ble_state = (state))
 709:Generated_Source\PSoC6\pdl\middleware\ble/cy_ble_gap.h **** /** \endcond */
 710:Generated_Source\PSoC6\pdl\middleware\ble/cy_ble_gap.h **** 
 711:Generated_Source\PSoC6\pdl\middleware\ble/cy_ble_gap.h **** #if (CY_BLE_GAP_ROLE_PERIPHERAL || CY_BLE_GAP_ROLE_BROADCASTER)
 712:Generated_Source\PSoC6\pdl\middleware\ble/cy_ble_gap.h **** 
 713:Generated_Source\PSoC6\pdl\middleware\ble/cy_ble_gap.h **** 
 714:Generated_Source\PSoC6\pdl\middleware\ble/cy_ble_gap.h **** /******************************************************************************
 715:Generated_Source\PSoC6\pdl\middleware\ble/cy_ble_gap.h **** * Function Name: Cy_BLE_GetAdvertisementState
 716:Generated_Source\PSoC6\pdl\middleware\ble/cy_ble_gap.h **** ***************************************************************************//**
 717:Generated_Source\PSoC6\pdl\middleware\ble/cy_ble_gap.h **** *
 718:Generated_Source\PSoC6\pdl\middleware\ble/cy_ble_gap.h **** *  This function returns the state of the link layer hardware advertisement
 719:Generated_Source\PSoC6\pdl\middleware\ble/cy_ble_gap.h **** *  engine.
 720:Generated_Source\PSoC6\pdl\middleware\ble/cy_ble_gap.h **** *
 721:Generated_Source\PSoC6\pdl\middleware\ble/cy_ble_gap.h **** *  \image html ble_advertisement_state_machine.png
 722:Generated_Source\PSoC6\pdl\middleware\ble/cy_ble_gap.h **** *
 723:Generated_Source\PSoC6\pdl\middleware\ble/cy_ble_gap.h **** *  When Cy_BLE_GAPP_StartAdvertisement() is called, the state is set to
 724:Generated_Source\PSoC6\pdl\middleware\ble/cy_ble_gap.h **** *  #CY_BLE_ADV_STATE_ADV_INITIATED. It automatically changes to
 725:Generated_Source\PSoC6\pdl\middleware\ble/cy_ble_gap.h **** *  #CY_BLE_ADV_STATE_ADVERTISING when #CY_BLE_EVT_GAPP_ADVERTISEMENT_START_STOP
 726:Generated_Source\PSoC6\pdl\middleware\ble/cy_ble_gap.h **** *  event is received. When Cy_BLE_GAPP_StopAdvertisement() is called, the
 727:Generated_Source\PSoC6\pdl\middleware\ble/cy_ble_gap.h **** *  state is set to #CY_BLE_ADV_STATE_STOP_INITIATED. It automatically changes
 728:Generated_Source\PSoC6\pdl\middleware\ble/cy_ble_gap.h **** *  to #CY_BLE_ADV_STATE_STOPPED when the #CY_BLE_EVT_GAPP_ADVERTISEMENT_START_STOP
 729:Generated_Source\PSoC6\pdl\middleware\ble/cy_ble_gap.h **** *  event is received.
 730:Generated_Source\PSoC6\pdl\middleware\ble/cy_ble_gap.h **** *
 731:Generated_Source\PSoC6\pdl\middleware\ble/cy_ble_gap.h **** * \return
 732:Generated_Source\PSoC6\pdl\middleware\ble/cy_ble_gap.h **** * \ref cy_en_ble_adv_state_t :The current advertising state. The following are
 733:Generated_Source\PSoC6\pdl\middleware\ble/cy_ble_gap.h **** *                              possible states.
 734:Generated_Source\PSoC6\pdl\middleware\ble/cy_ble_gap.h **** *
 735:Generated_Source\PSoC6\pdl\middleware\ble/cy_ble_gap.h **** *               State                |         Description
 736:Generated_Source\PSoC6\pdl\middleware\ble/cy_ble_gap.h **** *   -------------------------------- | -----------------------------
 737:Generated_Source\PSoC6\pdl\middleware\ble/cy_ble_gap.h **** *   CY_BLE_ADV_STATE_STOPPED         | Advertising is stopped.
 738:Generated_Source\PSoC6\pdl\middleware\ble/cy_ble_gap.h **** *   CY_BLE_ADV_STATE_ADV_INITIATED   | Advertising is initiated.
 739:Generated_Source\PSoC6\pdl\middleware\ble/cy_ble_gap.h **** *   CY_BLE_ADV_STATE_ADVERTISING     | Advertising is initiated.
 740:Generated_Source\PSoC6\pdl\middleware\ble/cy_ble_gap.h **** *   CY_BLE_ADV_STATE_STOP_INITIATED  | Stop advertising is initiated.
 741:Generated_Source\PSoC6\pdl\middleware\ble/cy_ble_gap.h **** *
 742:Generated_Source\PSoC6\pdl\middleware\ble/cy_ble_gap.h **** ******************************************************************************/
 743:Generated_Source\PSoC6\pdl\middleware\ble/cy_ble_gap.h **** __STATIC_INLINE cy_en_ble_adv_state_t Cy_BLE_GetAdvertisementState(void)
 744:Generated_Source\PSoC6\pdl\middleware\ble/cy_ble_gap.h **** {
ARM GAS  C:\Users\Nazar\AppData\Local\Temp\ccWQ1kO8.s 			page 38


 745:Generated_Source\PSoC6\pdl\middleware\ble/cy_ble_gap.h ****     return(cy_ble_advState);
 746:Generated_Source\PSoC6\pdl\middleware\ble/cy_ble_gap.h **** }
 747:Generated_Source\PSoC6\pdl\middleware\ble/cy_ble_gap.h **** 
 748:Generated_Source\PSoC6\pdl\middleware\ble/cy_ble_gap.h **** /** \cond IGNORE */
 749:Generated_Source\PSoC6\pdl\middleware\ble/cy_ble_gap.h **** /******************************************************************************
 750:Generated_Source\PSoC6\pdl\middleware\ble/cy_ble_gap.h **** * Function Name: Cy_BLE_SetAdvertisementState
 751:Generated_Source\PSoC6\pdl\middleware\ble/cy_ble_gap.h **** ***************************************************************************//**
 752:Generated_Source\PSoC6\pdl\middleware\ble/cy_ble_gap.h **** *
 753:Generated_Source\PSoC6\pdl\middleware\ble/cy_ble_gap.h **** *  Used to set the state of the link layer hardware advertisement engine.
 754:Generated_Source\PSoC6\pdl\middleware\ble/cy_ble_gap.h **** *
 755:Generated_Source\PSoC6\pdl\middleware\ble/cy_ble_gap.h **** *  \param state: The desired state.
 756:Generated_Source\PSoC6\pdl\middleware\ble/cy_ble_gap.h **** *
 757:Generated_Source\PSoC6\pdl\middleware\ble/cy_ble_gap.h **** * \return
 758:Generated_Source\PSoC6\pdl\middleware\ble/cy_ble_gap.h **** *  None
 759:Generated_Source\PSoC6\pdl\middleware\ble/cy_ble_gap.h **** *
 760:Generated_Source\PSoC6\pdl\middleware\ble/cy_ble_gap.h **** ******************************************************************************/
 761:Generated_Source\PSoC6\pdl\middleware\ble/cy_ble_gap.h **** __STATIC_INLINE void Cy_BLE_SetAdvertisementState(cy_en_ble_adv_state_t state)
 762:Generated_Source\PSoC6\pdl\middleware\ble/cy_ble_gap.h **** {
 763:Generated_Source\PSoC6\pdl\middleware\ble/cy_ble_gap.h ****     cy_ble_advState = state;
 425              		.loc 2 763 0
 426 0092 124A     		ldr	r2, .L33+32
 427 0094 1370     		strb	r3, [r2]
 428              	.LVL52:
 429              	.LBE7:
 430              	.LBE6:
 431              	.LBB8:
 410:Generated_Source\PSoC6\pdl\middleware\ble/cy_ble.c ****                     .gattDbTotalEntries = cy_ble_configPtr->params->gattDbIndexCount,
 432              		.loc 1 410 0
 433 0096 0E4B     		ldr	r3, .L33+20
 434 0098 5B68     		ldr	r3, [r3, #4]
 408:Generated_Source\PSoC6\pdl\middleware\ble/cy_ble.c ****                 {
 435              		.loc 1 408 0
 436 009a 1A6A     		ldr	r2, [r3, #32]
 437 009c 0092     		str	r2, [sp]
 411:Generated_Source\PSoC6\pdl\middleware\ble/cy_ble.c ****                     .gattDbMaxValue     = CY_BLE_GATT_DB_MAX_VALUE_LEN
 438              		.loc 1 411 0
 439 009e 9B6A     		ldr	r3, [r3, #40]
 440 00a0 DB88     		ldrh	r3, [r3, #6]
 408:Generated_Source\PSoC6\pdl\middleware\ble/cy_ble.c ****                 {
 441              		.loc 1 408 0
 442 00a2 6A46     		mov	r2, sp
 443 00a4 9380     		strh	r3, [r2, #4]
 444 00a6 C823     		movs	r3, #200
 445 00a8 D380     		strh	r3, [r2, #6]
 415:Generated_Source\PSoC6\pdl\middleware\ble/cy_ble.c ****             }
 446              		.loc 1 415 0
 447 00aa 6846     		mov	r0, sp
 448              	.LVL53:
 449 00ac FFF7FEFF 		bl	Cy_BLE_GATTS_DbRegister
 450              	.LVL54:
 451              	.L32:
 452              	.LBE8:
 419:Generated_Source\PSoC6\pdl\middleware\ble/cy_ble.c ****     #endif /* (CY_BLE_MODE_PROFILE) */
 453              		.loc 1 419 0
 454 00b0 0022     		movs	r2, #0
 455 00b2 0B4B     		ldr	r3, .L33+36
 456 00b4 1A60     		str	r2, [r3]
ARM GAS  C:\Users\Nazar\AppData\Local\Temp\ccWQ1kO8.s 			page 39


 457              	.L30:
 424:Generated_Source\PSoC6\pdl\middleware\ble/cy_ble.c **** 
 458              		.loc 1 424 0
 459 00b6 1BB0     		add	sp, sp, #108
 460              		@ sp needed
 461 00b8 30BD     		pop	{r4, r5, pc}
 462              	.L34:
 463 00ba C046     		.align	2
 464              	.L33:
 465 00bc 00000000 		.word	.LANCHOR2
 466 00c0 00000000 		.word	Cy_BLE_EventHandler
 467 00c4 E4240000 		.word	9444
 468 00c8 00000000 		.word	.LANCHOR1
 469 00cc 00000000 		.word	.LANCHOR3
 470 00d0 00000000 		.word	.LANCHOR0
 471 00d4 00000000 		.word	cy_ble_state
 472 00d8 00000000 		.word	cy_ble_connState
 473 00dc 00000000 		.word	cy_ble_advState
 474 00e0 00000000 		.word	cy_ble_cmdStatus
 475              		.cfi_endproc
 476              	.LFE169:
 477              		.size	Cy_BLE_Enable, .-Cy_BLE_Enable
 478              		.section	.text.Cy_BLE_Disable,"ax",%progbits
 479              		.align	2
 480              		.global	Cy_BLE_Disable
 481              		.code	16
 482              		.thumb_func
 483              		.type	Cy_BLE_Disable, %function
 484              	Cy_BLE_Disable:
 485              	.LFB170:
 465:Generated_Source\PSoC6\pdl\middleware\ble/cy_ble.c ****     cy_en_ble_api_result_t apiResult;
 486              		.loc 1 465 0
 487              		.cfi_startproc
 488              		@ args = 0, pretend = 0, frame = 0
 489              		@ frame_needed = 0, uses_anonymous_args = 0
 490 0000 10B5     		push	{r4, lr}
 491              		.cfi_def_cfa_offset 8
 492              		.cfi_offset 4, -8
 493              		.cfi_offset 14, -4
 473:Generated_Source\PSoC6\pdl\middleware\ble/cy_ble.c **** 
 494              		.loc 1 473 0
 495 0002 FFF7FEFF 		bl	Cy_BLE_StackShutdown
 496              	.LVL55:
 484:Generated_Source\PSoC6\pdl\middleware\ble/cy_ble.c **** 
 497              		.loc 1 484 0
 498              		@ sp needed
 499 0006 10BD     		pop	{r4, pc}
 500              		.cfi_endproc
 501              	.LFE170:
 502              		.size	Cy_BLE_Disable, .-Cy_BLE_Disable
 503              		.section	.text.Cy_BLE_ConfigureExtPA,"ax",%progbits
 504              		.align	2
 505              		.global	Cy_BLE_ConfigureExtPA
 506              		.code	16
 507              		.thumb_func
 508              		.type	Cy_BLE_ConfigureExtPA, %function
 509              	Cy_BLE_ConfigureExtPA:
ARM GAS  C:\Users\Nazar\AppData\Local\Temp\ccWQ1kO8.s 			page 40


 510              	.LFB171:
 521:Generated_Source\PSoC6\pdl\middleware\ble/cy_ble.c ****     BLE->BLESS.EXT_PA_LNA_CTRL = controlValue;
 511              		.loc 1 521 0
 512              		.cfi_startproc
 513              		@ args = 0, pretend = 0, frame = 0
 514              		@ frame_needed = 0, uses_anonymous_args = 0
 515              		@ link register save eliminated.
 516              	.LVL56:
 522:Generated_Source\PSoC6\pdl\middleware\ble/cy_ble.c **** }
 517              		.loc 1 522 0
 518 0000 014B     		ldr	r3, .L37
 519 0002 024A     		ldr	r2, .L37+4
 520 0004 D050     		str	r0, [r2, r3]
 523:Generated_Source\PSoC6\pdl\middleware\ble/cy_ble.c **** 
 521              		.loc 1 523 0
 522              		@ sp needed
 523 0006 7047     		bx	lr
 524              	.L38:
 525              		.align	2
 526              	.L37:
 527 0008 78F00100 		.word	127096
 528 000c 00003C40 		.word	1077673984
 529              		.cfi_endproc
 530              	.LFE171:
 531              		.size	Cy_BLE_ConfigureExtPA, .-Cy_BLE_ConfigureExtPA
 532              		.section	.text.Cy_BLE_RegisterAppHostCallback,"ax",%progbits
 533              		.align	2
 534              		.global	Cy_BLE_RegisterAppHostCallback
 535              		.code	16
 536              		.thumb_func
 537              		.type	Cy_BLE_RegisterAppHostCallback, %function
 538              	Cy_BLE_RegisterAppHostCallback:
 539              	.LFB172:
 712:Generated_Source\PSoC6\pdl\middleware\ble/cy_ble.c ****     cy_en_ble_api_result_t apiResult = CY_BLE_SUCCESS;
 540              		.loc 1 712 0
 541              		.cfi_startproc
 542              		@ args = 0, pretend = 0, frame = 0
 543              		@ frame_needed = 0, uses_anonymous_args = 0
 544              		@ link register save eliminated.
 545              	.LVL57:
 715:Generated_Source\PSoC6\pdl\middleware\ble/cy_ble.c ****     {
 546              		.loc 1 715 0
 547 0000 0028     		cmp	r0, #0
 548 0002 03D0     		beq	.L41
 717:Generated_Source\PSoC6\pdl\middleware\ble/cy_ble.c ****     }
 549              		.loc 1 717 0
 550 0004 024B     		ldr	r3, .L42
 551 0006 D860     		str	r0, [r3, #12]
 713:Generated_Source\PSoC6\pdl\middleware\ble/cy_ble.c **** 
 552              		.loc 1 713 0
 553 0008 0020     		movs	r0, #0
 554              	.LVL58:
 555 000a 00E0     		b	.L40
 556              	.LVL59:
 557              	.L41:
 721:Generated_Source\PSoC6\pdl\middleware\ble/cy_ble.c ****     }
 558              		.loc 1 721 0
ARM GAS  C:\Users\Nazar\AppData\Local\Temp\ccWQ1kO8.s 			page 41


 559 000c 0148     		ldr	r0, .L42+4
 560              	.LVL60:
 561              	.L40:
 724:Generated_Source\PSoC6\pdl\middleware\ble/cy_ble.c **** 
 562              		.loc 1 724 0
 563              		@ sp needed
 564 000e 7047     		bx	lr
 565              	.L43:
 566              		.align	2
 567              	.L42:
 568 0010 00000000 		.word	.LANCHOR0
 569 0014 01001600 		.word	1441793
 570              		.cfi_endproc
 571              	.LFE172:
 572              		.size	Cy_BLE_RegisterAppHostCallback, .-Cy_BLE_RegisterAppHostCallback
 573              		.section	.text.Cy_BLE_UnRegisterAppHostCallback,"ax",%progbits
 574              		.align	2
 575              		.global	Cy_BLE_UnRegisterAppHostCallback
 576              		.code	16
 577              		.thumb_func
 578              		.type	Cy_BLE_UnRegisterAppHostCallback, %function
 579              	Cy_BLE_UnRegisterAppHostCallback:
 580              	.LFB173:
 734:Generated_Source\PSoC6\pdl\middleware\ble/cy_ble.c ****     Cy_BLE_HostRegisteredCallback = NULL;
 581              		.loc 1 734 0
 582              		.cfi_startproc
 583              		@ args = 0, pretend = 0, frame = 0
 584              		@ frame_needed = 0, uses_anonymous_args = 0
 585              		@ link register save eliminated.
 735:Generated_Source\PSoC6\pdl\middleware\ble/cy_ble.c **** }
 586              		.loc 1 735 0
 587 0000 0022     		movs	r2, #0
 588 0002 014B     		ldr	r3, .L45
 589 0004 DA60     		str	r2, [r3, #12]
 736:Generated_Source\PSoC6\pdl\middleware\ble/cy_ble.c **** #endif /* (CY_BLE_MODE_PROFILE) */
 590              		.loc 1 736 0
 591              		@ sp needed
 592 0006 7047     		bx	lr
 593              	.L46:
 594              		.align	2
 595              	.L45:
 596 0008 00000000 		.word	.LANCHOR0
 597              		.cfi_endproc
 598              	.LFE173:
 599              		.size	Cy_BLE_UnRegisterAppHostCallback, .-Cy_BLE_UnRegisterAppHostCallback
 600              		.global	cy_ble_configPtr
 601              		.global	Cy_BLE_HostRegisteredCallback
 602              		.global	Cy_BLE_ApplCallback
 603              		.global	cy_ble_stackMemoryRam
 604              		.section	.rodata
 605              		.align	2
 606              		.set	.LANCHOR2,. + 0
 607              	.LC0:
 608 0000 0C01     		.short	268
 609 0002 0500     		.short	5
 610 0004 3000     		.short	48
 611 0006 0100     		.short	1
ARM GAS  C:\Users\Nazar\AppData\Local\Temp\ccWQ1kO8.s 			page 42


 612 0008 2800     		.short	40
 613 000a 0200     		.short	2
 614 000c 0801     		.short	264
 615 000e 0200     		.short	2
 616 0010 0C00     		.short	12
 617 0012 0100     		.short	1
 618              		.data
 619              		.align	2
 620              		.set	.LANCHOR1,. + 0
 621              		.type	bleDeepSleepCallback, %object
 622              		.size	bleDeepSleepCallback, 24
 623              	bleDeepSleepCallback:
 624 0000 00000000 		.word	Cy_BLE_DeepSleepCallback
 625 0004 01       		.byte	1
 626 0005 000000   		.space	3
 627 0008 06000000 		.word	6
 628 000c 10000000 		.word	bleDeepSleepCallbackParams
 629 0010 00000000 		.space	8
 629      00000000 
 630              		.section	.noinit,"aw",%progbits
 631              		.align	2
 632              		.set	.LANCHOR3,. + 0
 633              		.type	cy_ble_stackMemoryRam, %object
 634              		.size	cy_ble_stackMemoryRam, 9836
 635              	cy_ble_stackMemoryRam:
 636 0000 00000000 		.space	9836
 636      00000000 
 636      00000000 
 636      00000000 
 636      00000000 
 637              		.bss
 638              		.align	2
 639              		.set	.LANCHOR0,. + 0
 640              		.type	interruptState.14023, %object
 641              		.size	interruptState.14023, 4
 642              	interruptState.14023:
 643 0000 00000000 		.space	4
 644              		.type	cy_ble_configPtr, %object
 645              		.size	cy_ble_configPtr, 4
 646              	cy_ble_configPtr:
 647 0004 00000000 		.space	4
 648              		.type	Cy_BLE_ApplCallback, %object
 649              		.size	Cy_BLE_ApplCallback, 4
 650              	Cy_BLE_ApplCallback:
 651 0008 00000000 		.space	4
 652              		.type	Cy_BLE_HostRegisteredCallback, %object
 653              		.size	Cy_BLE_HostRegisteredCallback, 4
 654              	Cy_BLE_HostRegisteredCallback:
 655 000c 00000000 		.space	4
 656              		.type	bleDeepSleepCallbackParams, %object
 657              		.size	bleDeepSleepCallbackParams, 8
 658              	bleDeepSleepCallbackParams:
 659 0010 00000000 		.space	8
 659      00000000 
 660              		.text
 661              	.Letext0:
 662              		.file 3 "c:\\program files (x86)\\cypress\\psoc creator\\4.4\\psoc creator\\import\\gnu\\arm\\5.4.
ARM GAS  C:\Users\Nazar\AppData\Local\Temp\ccWQ1kO8.s 			page 43


 663              		.file 4 "c:\\program files (x86)\\cypress\\psoc creator\\4.4\\psoc creator\\import\\gnu\\arm\\5.4.
 664              		.file 5 "Generated_Source\\PSoC6\\pdl\\drivers/peripheral/device/cy_device.h"
 665              		.file 6 "Generated_Source\\PSoC6\\pdl\\devices/psoc6/include/cyble_416045_02.h"
 666              		.file 7 "Generated_Source\\PSoC6\\pdl\\devices/psoc6/include/ip/cyip_ble.h"
 667              		.file 8 "Generated_Source\\PSoC6\\pdl\\devices/psoc6/include/psoc6_01_config.h"
 668              		.file 9 "Generated_Source\\PSoC6\\pdl\\drivers/peripheral/sysint/cy_sysint.h"
 669              		.file 10 "Generated_Source\\PSoC6\\pdl\\drivers/peripheral/syspm/cy_syspm.h"
 670              		.file 11 "Generated_Source\\PSoC6\\pdl\\middleware\\ble\\cy_ble_stack.h"
 671              		.file 12 "Generated_Source\\PSoC6\\pdl\\middleware\\ble\\cy_ble_stack_host_main.h"
 672              		.file 13 "Generated_Source\\PSoC6\\pdl\\middleware\\ble\\cy_ble_stack_gatt.h"
 673              		.file 14 "Generated_Source\\PSoC6\\pdl\\middleware\\ble\\cy_ble_stack_gap.h"
 674              		.file 15 "Generated_Source\\PSoC6\\pdl\\middleware\\ble\\cy_ble_stack_gap_central.h"
 675              		.file 16 "Generated_Source\\PSoC6\\pdl\\middleware\\ble\\cy_ble_stack_gap_peripheral.h"
 676              		.file 17 "Generated_Source\\PSoC6\\pdl\\middleware\\ble\\cy_ble_stack_gatt_db.h"
 677              		.file 18 "Generated_Source\\PSoC6\\pdl\\middleware\\ble\\cy_ble_gatt.h"
 678              		.file 19 "Generated_Source\\PSoC6\\pdl\\middleware\\ble\\cy_ble.h"
 679              		.file 20 "Generated_Source\\PSoC6\\pdl\\drivers/peripheral/ipc/cy_ipc_sema.h"
 680              		.file 21 "Generated_Source\\PSoC6\\pdl\\middleware\\ble\\cy_ble_event_handler.h"
 681              		.file 22 "Generated_Source\\PSoC6\\pdl\\drivers/peripheral/syslib/cy_syslib.h"
 682              		.file 23 "Generated_Source\\PSoC6\\pdl\\middleware\\ble\\cy_ble_clk.h"