ARM GAS  C:\Users\Nazar\AppData\Local\Temp\cchaPIT4.s 			page 1


   1              		.syntax unified
   2              		.cpu cortex-m0plus
   3              		.fpu softvfp
   4              		.eabi_attribute 20, 1
   5              		.eabi_attribute 21, 1
   6              		.eabi_attribute 23, 3
   7              		.eabi_attribute 24, 1
   8              		.eabi_attribute 25, 1
   9              		.eabi_attribute 26, 1
  10              		.eabi_attribute 30, 1
  11              		.eabi_attribute 34, 0
  12              		.eabi_attribute 18, 4
  13              		.thumb
  14              		.syntax unified
  15              		.file	"debug.c"
  16              		.text
  17              	.Ltext0:
  18              		.cfi_sections	.debug_frame
  19              		.section	.text.ShowValue,"ax",%progbits
  20              		.align	2
  21              		.global	ShowValue
  22              		.code	16
  23              		.thumb_func
  24              		.type	ShowValue, %function
  25              	ShowValue:
  26              	.LFB678:
  27              		.file 1 "debug.c"
   1:debug.c       **** /*******************************************************************************
   2:debug.c       **** * File Name: debug.c
   3:debug.c       **** *
   4:debug.c       **** * Version: 1.0
   5:debug.c       **** *
   6:debug.c       **** * Description:
   7:debug.c       **** *  This file contains functions for printf functionality.
   8:debug.c       **** *
   9:debug.c       **** * Hardware Dependency:
  10:debug.c       **** *  CY8CKIT-062 PSoC6 BLE Pioneer Kit
  11:debug.c       **** * 
  12:debug.c       **** ********************************************************************************
  13:debug.c       **** * Copyright 2017, Cypress Semiconductor Corporation.  All rights reserved.
  14:debug.c       **** * You may use this file only in accordance with the license, terms, conditions,
  15:debug.c       **** * disclaimers, and limitations in the end user license agreement accompanying
  16:debug.c       **** * the software package with which this file was provided.
  17:debug.c       **** *******************************************************************************/
  18:debug.c       **** 
  19:debug.c       **** #include <project.h>
  20:debug.c       **** #include "debug.h"
  21:debug.c       **** 
  22:debug.c       **** #if (DEBUG_UART_ENABLED == 1)
  23:debug.c       **** 
  24:debug.c       **** #if defined(__ARMCC_VERSION)
  25:debug.c       ****     
  26:debug.c       **** /* For MDK/RVDS compiler revise fputc function for printf functionality */
  27:debug.c       **** struct __FILE 
  28:debug.c       **** {
  29:debug.c       ****     int handle;  
  30:debug.c       **** };
ARM GAS  C:\Users\Nazar\AppData\Local\Temp\cchaPIT4.s 			page 2


  31:debug.c       **** 
  32:debug.c       **** enum 
  33:debug.c       **** {
  34:debug.c       ****     STDIN_HANDLE,
  35:debug.c       ****     STDOUT_HANDLE,
  36:debug.c       ****     STDERR_HANDLE
  37:debug.c       **** };
  38:debug.c       **** 
  39:debug.c       **** FILE __stdin = {STDIN_HANDLE};
  40:debug.c       **** FILE __stdout = {STDOUT_HANDLE};
  41:debug.c       **** FILE __stderr = {STDERR_HANDLE};
  42:debug.c       **** 
  43:debug.c       **** int fputc(int ch, FILE *file) 
  44:debug.c       **** {
  45:debug.c       ****     int ret = EOF;
  46:debug.c       **** 
  47:debug.c       ****     switch( file->handle )
  48:debug.c       ****     {
  49:debug.c       ****         case STDOUT_HANDLE:
  50:debug.c       ****             UART_DEB_PUT_CHAR(ch);
  51:debug.c       ****             ret = ch ;
  52:debug.c       ****             break ;
  53:debug.c       **** 
  54:debug.c       ****         case STDERR_HANDLE:
  55:debug.c       ****             ret = ch ;
  56:debug.c       ****             break ;
  57:debug.c       **** 
  58:debug.c       ****         default:
  59:debug.c       ****             file = file;
  60:debug.c       ****             break ;
  61:debug.c       ****     }
  62:debug.c       ****     return ret ;
  63:debug.c       **** }
  64:debug.c       **** 
  65:debug.c       **** #elif defined (__ICCARM__)      /* IAR */
  66:debug.c       **** 
  67:debug.c       **** /* For IAR compiler revise __write() function for printf functionality */
  68:debug.c       **** size_t __write(int handle, const unsigned char * buffer, size_t size)
  69:debug.c       **** {
  70:debug.c       ****     size_t nChars = 0;
  71:debug.c       **** 
  72:debug.c       ****     if (buffer == 0)
  73:debug.c       ****     {
  74:debug.c       ****         /*
  75:debug.c       ****          * This means that we should flush internal buffers. Since we
  76:debug.c       ****          * don't we just return. (Remember, "handle" == -1 means that all
  77:debug.c       ****          * handles should be flushed.)
  78:debug.c       ****          */
  79:debug.c       ****         return (0);
  80:debug.c       ****     }
  81:debug.c       **** 
  82:debug.c       ****     for (/* Empty */; size != 0; --size)
  83:debug.c       ****     {
  84:debug.c       ****         UART_DEB_PUT_CHAR(*buffer);
  85:debug.c       ****         ++buffer;
  86:debug.c       ****         ++nChars;
  87:debug.c       ****     }
ARM GAS  C:\Users\Nazar\AppData\Local\Temp\cchaPIT4.s 			page 3


  88:debug.c       **** 
  89:debug.c       ****     return (nChars);
  90:debug.c       **** }
  91:debug.c       **** 
  92:debug.c       **** #else  /* (__GNUC__)  GCC */
  93:debug.c       **** 
  94:debug.c       **** /* For GCC compiler revise _write() function for printf functionality */
  95:debug.c       **** int _write(int file, char *ptr, int len)
  96:debug.c       **** {
  97:debug.c       ****     int i;
  98:debug.c       ****     file = file;
  99:debug.c       ****     for (i = 0; i < len; i++)
 100:debug.c       ****     {
 101:debug.c       ****         UART_DEB_PUT_CHAR(*ptr);
 102:debug.c       ****         ++ptr;
 103:debug.c       ****     }
 104:debug.c       ****     return len;
 105:debug.c       **** }
 106:debug.c       **** 
 107:debug.c       **** 
 108:debug.c       **** #endif  /* (__ARMCC_VERSION) */   
 109:debug.c       **** 
 110:debug.c       **** #endif /* DEBUG_UART_ENABLED == ENABLED */
 111:debug.c       **** 
 112:debug.c       **** void ShowValue(cy_stc_ble_gatt_value_t *value)
 113:debug.c       **** {
  28              		.loc 1 113 0
  29              		.cfi_startproc
  30              		@ args = 0, pretend = 0, frame = 0
  31              		@ frame_needed = 0, uses_anonymous_args = 0
  32              		@ link register save eliminated.
  33              	.LVL0:
 114:debug.c       ****     int16_t i;
 115:debug.c       ****     
 116:debug.c       ****     for(i = 0; i < value->len; i++)
  34              		.loc 1 116 0
  35 0000 0023     		movs	r3, #0
  36 0002 01E0     		b	.L2
  37              	.LVL1:
  38              	.L3:
  39              		.loc 1 116 0 is_stmt 0 discriminator 3
  40 0004 0133     		adds	r3, r3, #1
  41              	.LVL2:
  42 0006 1BB2     		sxth	r3, r3
  43              	.LVL3:
  44              	.L2:
  45              		.loc 1 116 0 discriminator 1
  46 0008 8288     		ldrh	r2, [r0, #4]
  47 000a 9342     		cmp	r3, r2
  48 000c FADB     		blt	.L3
 117:debug.c       ****     {
 118:debug.c       ****         DBG_PRINTF("%2.2x ", value->val[i]);
 119:debug.c       ****     }
 120:debug.c       ****     DBG_PRINTF("\r\n");
 121:debug.c       **** }
  49              		.loc 1 121 0 is_stmt 1
  50              		@ sp needed
ARM GAS  C:\Users\Nazar\AppData\Local\Temp\cchaPIT4.s 			page 4


  51 000e 7047     		bx	lr
  52              		.cfi_endproc
  53              	.LFE678:
  54              		.size	ShowValue, .-ShowValue
  55              		.section	.text.Set32ByPtr,"ax",%progbits
  56              		.align	2
  57              		.global	Set32ByPtr
  58              		.code	16
  59              		.thumb_func
  60              		.type	Set32ByPtr, %function
  61              	Set32ByPtr:
  62              	.LFB679:
 122:debug.c       **** 
 123:debug.c       **** 
 124:debug.c       **** void Set32ByPtr(uint8_t ptr[], uint32_t value)
 125:debug.c       **** {
  63              		.loc 1 125 0
  64              		.cfi_startproc
  65              		@ args = 0, pretend = 0, frame = 0
  66              		@ frame_needed = 0, uses_anonymous_args = 0
  67              		@ link register save eliminated.
  68              	.LVL4:
 126:debug.c       ****     ptr[0u] = (uint8_t) value;
  69              		.loc 1 126 0
  70 0000 0170     		strb	r1, [r0]
 127:debug.c       ****     ptr[1u] = (uint8_t) (value >> 8u);    
  71              		.loc 1 127 0
  72 0002 0B0A     		lsrs	r3, r1, #8
  73 0004 4370     		strb	r3, [r0, #1]
 128:debug.c       ****     ptr[2u] = (uint8_t) (value >> 16u);    
  74              		.loc 1 128 0
  75 0006 0B0C     		lsrs	r3, r1, #16
  76 0008 8370     		strb	r3, [r0, #2]
 129:debug.c       ****     ptr[3u] = (uint8_t) (value >> 24u);
  77              		.loc 1 129 0
  78 000a 090E     		lsrs	r1, r1, #24
  79              	.LVL5:
  80 000c C170     		strb	r1, [r0, #3]
 130:debug.c       **** }
  81              		.loc 1 130 0
  82              		@ sp needed
  83 000e 7047     		bx	lr
  84              		.cfi_endproc
  85              	.LFE679:
  86              		.size	Set32ByPtr, .-Set32ByPtr
  87              		.section	.text.ShowError,"ax",%progbits
  88              		.align	2
  89              		.global	ShowError
  90              		.code	16
  91              		.thumb_func
  92              		.type	ShowError, %function
  93              	ShowError:
  94              	.LFB680:
 131:debug.c       **** 
 132:debug.c       **** 
 133:debug.c       **** /*******************************************************************************
 134:debug.c       **** * Function Name: ShowError
ARM GAS  C:\Users\Nazar\AppData\Local\Temp\cchaPIT4.s 			page 5


 135:debug.c       **** ********************************************************************************
 136:debug.c       **** *
 137:debug.c       **** * Summary:
 138:debug.c       **** *   Shows error condition: Turn On all LEDs - white color will indicate error.
 139:debug.c       **** *
 140:debug.c       **** *******************************************************************************/
 141:debug.c       **** void ShowError(void)
 142:debug.c       **** {
  95              		.loc 1 142 0
  96              		.cfi_startproc
  97              		@ args = 0, pretend = 0, frame = 0
  98              		@ frame_needed = 0, uses_anonymous_args = 0
  99 0000 10B5     		push	{r4, lr}
 100              		.cfi_def_cfa_offset 8
 101              		.cfi_offset 4, -8
 102              		.cfi_offset 14, -4
 143:debug.c       ****     // EnableAllLeds();
 144:debug.c       ****     
 145:debug.c       ****     /* Halt CPU in Debug mode */
 146:debug.c       ****     CY_ASSERT(0u != 0u);
 103              		.loc 1 146 0
 104 0002 9221     		movs	r1, #146
 105 0004 0148     		ldr	r0, .L6
 106 0006 FFF7FEFF 		bl	Cy_SysLib_AssertFailed
 107              	.LVL6:
 147:debug.c       **** }
 108              		.loc 1 147 0
 109              		@ sp needed
 110 000a 10BD     		pop	{r4, pc}
 111              	.L7:
 112              		.align	2
 113              	.L6:
 114 000c 00000000 		.word	.LC0
 115              		.cfi_endproc
 116              	.LFE680:
 117              		.size	ShowError, .-ShowError
 118              		.section	.text.HexToAscii,"ax",%progbits
 119              		.align	2
 120              		.global	HexToAscii
 121              		.code	16
 122              		.thumb_func
 123              		.type	HexToAscii, %function
 124              	HexToAscii:
 125              	.LFB681:
 148:debug.c       **** 
 149:debug.c       **** 
 150:debug.c       **** /*******************************************************************************
 151:debug.c       **** * Function Name: HexToAscii
 152:debug.c       **** ********************************************************************************
 153:debug.c       **** *
 154:debug.c       **** * Summary:
 155:debug.c       **** *   Hexadecimal to ASCII converter
 156:debug.c       **** *
 157:debug.c       **** * Parameters:
 158:debug.c       **** *   value: Hexadecimal value
 159:debug.c       **** *   digit: Which nibble to be obtained
 160:debug.c       **** *
ARM GAS  C:\Users\Nazar\AppData\Local\Temp\cchaPIT4.s 			page 6


 161:debug.c       **** * Return:
 162:debug.c       **** *   char: the ASCII equivalent of that nibble
 163:debug.c       **** *
 164:debug.c       **** * Theory:
 165:debug.c       **** *   Converts hexadecimal to ASCII
 166:debug.c       **** *
 167:debug.c       **** *******************************************************************************/
 168:debug.c       **** char HexToAscii(uint8_t value, uint8_t nibble)
 169:debug.c       **** {
 126              		.loc 1 169 0
 127              		.cfi_startproc
 128              		@ args = 0, pretend = 0, frame = 0
 129              		@ frame_needed = 0, uses_anonymous_args = 0
 130              		@ link register save eliminated.
 131              	.LVL7:
 170:debug.c       ****     if(nibble == 1)
 132              		.loc 1 170 0
 133 0000 0129     		cmp	r1, #1
 134 0002 06D1     		bne	.L9
 135              	.LVL8:
 136 0004 0009     		lsrs	r0, r0, #4
 137              	.LVL9:
 171:debug.c       ****     {
 172:debug.c       ****         value = value & 0xf0;
 173:debug.c       ****         value = value >> 4;
 174:debug.c       ****         
 175:debug.c       ****         /* bit-shift the result to the right by four bits (i.e. quickly divides by 16) */
 176:debug.c       ****         if (value > 9)
 138              		.loc 1 176 0
 139 0006 0928     		cmp	r0, #9
 140 0008 01D9     		bls	.L10
 177:debug.c       ****         {
 178:debug.c       ****             value = value - 10 + 'A';
 141              		.loc 1 178 0
 142 000a 3730     		adds	r0, r0, #55
 143              	.LVL10:
 144 000c 0CE0     		b	.L11
 145              	.L10:
 179:debug.c       ****         }
 180:debug.c       ****         else
 181:debug.c       ****         {
 182:debug.c       ****             value = value + '0';
 146              		.loc 1 182 0
 147 000e 3030     		adds	r0, r0, #48
 148              	.LVL11:
 149 0010 0AE0     		b	.L11
 150              	.L9:
 183:debug.c       ****         }
 184:debug.c       ****     }
 185:debug.c       ****     else if (nibble == 0)
 151              		.loc 1 185 0
 152 0012 0029     		cmp	r1, #0
 153 0014 07D1     		bne	.L13
 186:debug.c       ****     {
 187:debug.c       ****         /* means use a bitwise AND to take the bottom four bits from the byte,
 188:debug.c       ****         0x0F is 00001111 in binary */
 189:debug.c       ****         value = value & 0x0F;
ARM GAS  C:\Users\Nazar\AppData\Local\Temp\cchaPIT4.s 			page 7


 154              		.loc 1 189 0
 155 0016 0F23     		movs	r3, #15
 156 0018 1840     		ands	r0, r3
 157              	.LVL12:
 190:debug.c       ****         if (value > 9)
 158              		.loc 1 190 0
 159 001a 0928     		cmp	r0, #9
 160 001c 01D9     		bls	.L12
 191:debug.c       ****         {
 192:debug.c       ****             value = value - 10 + 'A';
 161              		.loc 1 192 0
 162 001e 3730     		adds	r0, r0, #55
 163              	.LVL13:
 164 0020 02E0     		b	.L11
 165              	.L12:
 193:debug.c       ****         }
 194:debug.c       ****         else
 195:debug.c       ****         {
 196:debug.c       ****             value = value + '0';
 166              		.loc 1 196 0
 167 0022 3030     		adds	r0, r0, #48
 168              	.LVL14:
 169 0024 00E0     		b	.L11
 170              	.L13:
 197:debug.c       ****         }
 198:debug.c       ****     }
 199:debug.c       ****     else
 200:debug.c       ****     {
 201:debug.c       ****         value = ' ';    
 171              		.loc 1 201 0
 172 0026 2020     		movs	r0, #32
 173              	.LVL15:
 174              	.L11:
 202:debug.c       ****     }
 203:debug.c       ****     
 204:debug.c       ****     return value;
 205:debug.c       **** }
 175              		.loc 1 205 0
 176              		@ sp needed
 177 0028 7047     		bx	lr
 178              		.cfi_endproc
 179              	.LFE681:
 180              		.size	HexToAscii, .-HexToAscii
 181 002a C046     		.section	.text.PrintStackVersion,"ax",%progbits
 182              		.align	2
 183              		.global	PrintStackVersion
 184              		.code	16
 185              		.thumb_func
 186              		.type	PrintStackVersion, %function
 187              	PrintStackVersion:
 188              	.LFB682:
 206:debug.c       **** 
 207:debug.c       **** /*******************************************************************************
 208:debug.c       **** * Function Name: PrintStackVersion
 209:debug.c       **** ********************************************************************************
 210:debug.c       **** *
 211:debug.c       **** * Summary:
ARM GAS  C:\Users\Nazar\AppData\Local\Temp\cchaPIT4.s 			page 8


 212:debug.c       **** *   Prints the BLE Stack version if the PRINT_STACK_VERSION is defined.
 213:debug.c       **** *
 214:debug.c       **** *******************************************************************************/
 215:debug.c       **** void PrintStackVersion(void)
 216:debug.c       **** {
 189              		.loc 1 216 0
 190              		.cfi_startproc
 191              		@ args = 0, pretend = 0, frame = 8
 192              		@ frame_needed = 0, uses_anonymous_args = 0
 193 0000 00B5     		push	{lr}
 194              		.cfi_def_cfa_offset 4
 195              		.cfi_offset 14, -4
 196 0002 83B0     		sub	sp, sp, #12
 197              		.cfi_def_cfa_offset 16
 217:debug.c       ****     cy_stc_ble_stack_lib_version_t stackVersion;
 218:debug.c       ****     cy_en_ble_api_result_t apiResult;
 219:debug.c       ****     
 220:debug.c       ****     apiResult = Cy_BLE_GetStackLibraryVersion(&stackVersion);
 198              		.loc 1 220 0
 199 0004 6846     		mov	r0, sp
 200 0006 FFF7FEFF 		bl	Cy_BLE_GetStackLibraryVersion
 201              	.LVL16:
 221:debug.c       ****     if(apiResult != CY_BLE_SUCCESS)
 222:debug.c       ****     {
 223:debug.c       ****         DBG_PRINTF("Cy_BLE_GetStackLibraryVersion API Error: ");
 224:debug.c       ****         //PrintApiResult(apiResult);
 225:debug.c       ****     }
 226:debug.c       ****     else
 227:debug.c       ****     {
 228:debug.c       ****         DBG_PRINTF("BLE Stack Version: %d.%d.%d.%d\r\n", stackVersion.majorVersion, 
 229:debug.c       ****                                                          stackVersion.minorVersion,
 230:debug.c       ****                                                          stackVersion.patch,
 231:debug.c       ****                                                          stackVersion.buildNumber);
 232:debug.c       ****     }
 233:debug.c       **** }
 202              		.loc 1 233 0
 203 000a 03B0     		add	sp, sp, #12
 204              		@ sp needed
 205 000c 00BD     		pop	{pc}
 206              		.cfi_endproc
 207              	.LFE682:
 208              		.size	PrintStackVersion, .-PrintStackVersion
 209 000e C046     		.section	.text.PrintApiResult,"ax",%progbits
 210              		.align	2
 211              		.global	PrintApiResult
 212              		.code	16
 213              		.thumb_func
 214              		.type	PrintApiResult, %function
 215              	PrintApiResult:
 216              	.LFB683:
 234:debug.c       **** 
 235:debug.c       **** /*******************************************************************************
 236:debug.c       **** * Function Name: PrintApiResult
 237:debug.c       **** ********************************************************************************
 238:debug.c       **** *
 239:debug.c       **** * Summary:
 240:debug.c       **** *   Decodes and prints the apiResult global variable value.
ARM GAS  C:\Users\Nazar\AppData\Local\Temp\cchaPIT4.s 			page 9


 241:debug.c       **** *
 242:debug.c       **** *******************************************************************************/
 243:debug.c       **** void PrintApiResult(cy_en_ble_api_result_t apiResult)
 244:debug.c       **** {
 217              		.loc 1 244 0
 218              		.cfi_startproc
 219              		@ args = 0, pretend = 0, frame = 0
 220              		@ frame_needed = 0, uses_anonymous_args = 0
 221              		@ link register save eliminated.
 222              	.LVL17:
 245:debug.c       ****     DBG_PRINTF("0x%2.2x ", apiResult);
 246:debug.c       ****     
 247:debug.c       ****     switch(apiResult)
 248:debug.c       ****     {
 249:debug.c       ****         case CY_BLE_SUCCESS:
 250:debug.c       ****             DBG_PRINTF("ok\r\n");
 251:debug.c       ****             break;
 252:debug.c       ****             
 253:debug.c       ****         case CY_BLE_ERROR_INVALID_PARAMETER:
 254:debug.c       ****             DBG_PRINTF("invalid parameter\r\n");
 255:debug.c       ****             break;
 256:debug.c       ****             
 257:debug.c       ****         case CY_BLE_ERROR_INVALID_OPERATION:
 258:debug.c       ****             DBG_PRINTF("invalid operation\r\n");
 259:debug.c       ****             break;
 260:debug.c       ****             
 261:debug.c       ****         case CY_BLE_ERROR_NO_DEVICE_ENTITY:
 262:debug.c       ****             DBG_PRINTF("no device entity\r\n");
 263:debug.c       ****             break;
 264:debug.c       ****             
 265:debug.c       ****         case CY_BLE_ERROR_NTF_DISABLED:
 266:debug.c       ****             DBG_PRINTF("notification is disabled\r\n");
 267:debug.c       ****             break;
 268:debug.c       ****             
 269:debug.c       ****         case CY_BLE_ERROR_IND_DISABLED:
 270:debug.c       ****             DBG_PRINTF("indication is disabled\r\n");
 271:debug.c       ****             break;
 272:debug.c       ****             
 273:debug.c       ****         case CY_BLE_ERROR_CHAR_IS_NOT_DISCOVERED:
 274:debug.c       ****             DBG_PRINTF("characteristic is not discovered\r\n");
 275:debug.c       ****             break;
 276:debug.c       ****             
 277:debug.c       ****         case CY_BLE_ERROR_INVALID_STATE:
 278:debug.c       ****             DBG_PRINTF("invalid state");
 279:debug.c       ****             break;
 280:debug.c       ****             
 281:debug.c       ****         case CY_BLE_ERROR_GATT_DB_INVALID_ATTR_HANDLE:
 282:debug.c       ****             DBG_PRINTF("invalid attribute handle\r\n");
 283:debug.c       ****             break;
 284:debug.c       ****             
 285:debug.c       ****         case CY_BLE_ERROR_FLASH_WRITE_NOT_PERMITED:
 286:debug.c       ****             DBG_PRINTF("flash write not permitted\r\n");
 287:debug.c       ****             break;
 288:debug.c       ****             
 289:debug.c       ****         default:
 290:debug.c       ****             DBG_PRINTF("other api result\r\n");
 291:debug.c       ****             break;
ARM GAS  C:\Users\Nazar\AppData\Local\Temp\cchaPIT4.s 			page 10


 292:debug.c       ****     }
 293:debug.c       **** }
 223              		.loc 1 293 0
 224              		@ sp needed
 225 0000 7047     		bx	lr
 226              		.cfi_endproc
 227              	.LFE683:
 228              		.size	PrintApiResult, .-PrintApiResult
 229 0002 C046     		.section	.rodata.str1.4,"aMS",%progbits,1
 230              		.align	2
 231              	.LC0:
 232 0000 64656275 		.ascii	"debug.c\000"
 232      672E6300 
 233              		.text
 234              	.Letext0:
 235              		.file 2 "c:\\program files (x86)\\cypress\\psoc creator\\4.4\\psoc creator\\import\\gnu\\arm\\5.4.
 236              		.file 3 "c:\\program files (x86)\\cypress\\psoc creator\\4.4\\psoc creator\\import\\gnu\\arm\\5.4.
 237              		.file 4 "Generated_Source\\PSoC6\\pdl\\drivers/peripheral/device/cy_device.h"
 238              		.file 5 "Generated_Source\\PSoC6\\pdl\\drivers/peripheral/syslib/cy_syslib.h"
 239              		.file 6 "Generated_Source\\PSoC6\\pdl\\drivers/peripheral/sar/cy_sar.h"
 240              		.file 7 "Generated_Source\\PSoC6\\pdl\\drivers/peripheral/scb/cy_scb_i2c.h"
 241              		.file 8 "Generated_Source\\PSoC6\\pdl\\drivers/peripheral/scb/cy_scb_spi.h"
 242              		.file 9 "Generated_Source\\PSoC6\\pdl\\drivers/peripheral/scb/cy_scb_uart.h"
 243              		.file 10 "Generated_Source\\PSoC6\\pdl\\drivers/peripheral/tcpwm/cy_tcpwm_counter.h"
 244              		.file 11 "Generated_Source\\PSoC6\\pdl\\drivers/peripheral/tcpwm/cy_tcpwm_pwm.h"
 245              		.file 12 "Generated_Source\\PSoC6\\pdl\\middleware/ble/cy_ble_stack.h"
 246              		.file 13 "Generated_Source\\PSoC6\\pdl\\middleware/ble/cy_ble_stack_host_main.h"
 247              		.file 14 "Generated_Source\\PSoC6\\pdl\\middleware/ble/cy_ble_stack_gatt.h"
 248              		.file 15 "Generated_Source\\PSoC6\\pdl\\middleware/ble/cy_ble_gap.h"
 249              		.file 16 "Generated_Source\\PSoC6/ADC.h"
 250              		.file 17 "Generated_Source\\PSoC6/I2C_Main.h"
 251              		.file 18 "Generated_Source\\PSoC6/UART_Debug.h"
 252              		.file 19 "Generated_Source\\PSoC6/PWM_Trig.h"
 253              		.file 20 "Generated_Source\\PSoC6/Counter_Echo.h"
 254              		.file 21 "Generated_Source\\PSoC6/IR.h"
 255              		.file 22 "Generated_Source\\PSoC6/PWM_Buz.h"
 256              		.file 23 "Generated_Source\\PSoC6/SPI_LEDCTRL.h"